
x86-Kernel:     file format elf32-i386
x86-Kernel
architecture: i386, flags 0x00000012:
EXEC_P, HAS_SYMS
start address 0x80000000

Program Header:
    LOAD off    0x00000060 vaddr 0x80000000 paddr 0x00100000 align 2**5
         filesz 0x0000ac20 memsz 0x0000af20 flags rwx

Sections:
Idx Name          Size      VMA       LMA       File off  Algn
  0 .text         00008f1e  80000000  00100000  00000060  2**4
                  CONTENTS, ALLOC, LOAD, CODE
  1 .rodata       00001bb4  80008f20  00108f20  00008f80  2**5
                  CONTENTS, ALLOC, LOAD, READONLY, DATA
  2 .data         00000140  8000aae0  0010aae0  0000ab40  2**5
                  CONTENTS, ALLOC, LOAD, DATA
  3 .bss          00000300  8000ac20  0010ac20  0000ac80  2**5
                  ALLOC
  4 .comment      000001b0  00000000  00000000  0000ac80  2**0
                  CONTENTS, READONLY
SYMBOL TABLE:
80000000 l    d  .text	00000000 
80008f20 l    d  .rodata	00000000 
8000aae0 l    d  .data	00000000 
8000ac20 l    d  .bss	00000000 
00000000 l    d  .comment	00000000 
00000000 l    d  *ABS*	00000000 
00000000 l    d  *ABS*	00000000 
00000000 l    d  *ABS*	00000000 
80000870 l       .text	00000000 entry
80000008 l       .text	00000000 multiboot_header
80000044 l       .text	00000000 gdt_ptr
800008cd l       .text	00000000 multiboot
800008f8 l       .text	00000000 mapkernel
8000090b l       .text	00000000 mapkernel2
8000091e l       .text	00000000 mapstack
80000963 l       .text	00000000 mapkernelphysical
80000994 l       .text	00000000 Paging_Enabled
800009b0 l       .text	00000000 reloadcs
800009ea l       .text	00000000 halt2
800009ec l       .text	00000000 DefaultIntHandlerMsg
80000a09 l       .text	00000000 DefaultExceptionMsg
80000a2b l       .text	00000000 ModuleName
00000000 l    df *ABS*	00000000 Kernel.c
00000000 l    df *ABS*	00000000 DeviceManager.c
00000000 l    df *ABS*	00000000 DMMFileIO.c
00000000 l    df *ABS*	00000000 Elf.c
00000000 l    df *ABS*	00000000 FileSystem.c
00000000 l    df *ABS*	00000000 InterruptManager.c
8000ac20 l     O .bss	00000040 IRQ_Handler
00000000 l    df *ABS*	00000000 IOManager.c
00000000 l    df *ABS*	00000000 Locking.c
00000000 l    df *ABS*	00000000 MemoryManager.c
00000000 l    df *ABS*	00000000 MessageManager.c
00000000 l    df *ABS*	00000000 ModuleManager.c
00000000 l    df *ABS*	00000000 ObjectManager.c
00000000 l    df *ABS*	00000000 TimerManager.c
00000000 l    df *ABS*	00000000 ProcessManager.c
00000000 l    df *ABS*	00000000 8259a.c
8000aafc l     O .data	00000002 PICMask
00000000 l    df *ABS*	00000000 8254.c
00000000 l    df *ABS*	00000000 Console.c
00000000 l    df *ABS*	00000000 Descriptor.c
00000000 l    df *ABS*	00000000 Exception.c
00000000 l    df *ABS*	00000000 CType.c
00000000 l    df *ABS*	00000000 Printf.c
800081f0 l     F .text	00000314 number
00000000 l    df *ABS*	00000000 Scanf.c
80008d30 l     F .text	0000001a sgetc
80008d50 l     F .text	00000023 sputc
00000000 l    df *ABS*	00000000 Strtol.c
00000000 l    df *ABS*	00000000 String.c
00100000 g       *ABS*	00000000 phys
80006a80 g     F .text	000000a2 ProcessManager_CreateModuleInterface
80002010 g     F .text	000001a1 FS_Mount
8000aae0 g     O .data	00000004 g_nLocksHeld
80004530 g     F .text	00000055 MemoryManager_FreeCall
80003d40 g     F .text	0000005e MemoryManager_Coalesce
80000c4b g       .text	00000000 EXC_STACKFAULT
800076d0 g     F .text	00000128 Console_WriteChar
80001910 g     F .text	000000ce FS_CheckELFHeader
80003400 g     F .text	00000041 IOManager_RecalculateDevice
8000086e g       .text	00000000 g_nTaskSS
80003fc0 g     F .text	00000016 MemoryManager_Unlock
80000c71 g       .text	00000000 EXC_GPF
80002e90 g     F .text	00000038 InterruptManager_EnableIRQ
80005610 g     F .text	0000009f ModuleManager_Call_CreateModule
8000084c g       .text	00000000 idt_ptr
8000ae60 g     O .bss	00000034 sMemoryLock
80000fb3 g       .text	00000000 IRQ_0F
80000c97 g       .text	00000000 EXC_PAGEFAULT
80001820 g     F .text	00000074 DMMFileIO_Mount
80000000 g       *ABS*	00000000 virt
80006db0 g     F .text	00000067 ProcessManager_Preempt
800017e0 g     F .text	0000001f DMMFileIO_RegisterIOCallback
80006fd0 g     F .text	00000054 ProcessManager_Call_Sleep
80003950 g     F .text	00000191 MemoryManager_Page_Map
80007b50 g     F .text	00000030 Exception_Debug
80007200 g     F .text	0000035a KPrint
80007be0 g     F .text	00000030 Exception_StackFault
80006bb0 g     F .text	00000053 ProcessManager_GetNextThread
800081c0 g     F .text	0000002a snprintf
800058a0 g     F .text	0000001e ObjectManager_LockInit
8000af14 g     O .bss	00000004 nConsoleX
80003110 g     F .text	000000d7 IOManager_MapCacheDirectPage
80000ded g       .text	00000000 IRQ_06
80006550 g     F .text	0000005a TimerManager_Handler
8000aea0 g     O .bss	00000034 sModuleLock
80006f00 g     F .text	00000056 ProcessManager_Call_RunThread
800044d0 g     F .text	0000005f MemoryManager_AllocCall
80006350 g     F .text	000000cd ObjectManager_GetEntityString
800044a0 g     F .text	00000024 MemoryManager_KExpand
80000a9e g       .text	00000000 EXC_02
80007ab0 g     F .text	0000002e Descriptor_SetBase
80006850 g     F .text	000001b9 ProcessManager_CreateThread
80008cf0 g     F .text	0000003d vsscanf
80005490 g     F .text	000000c2 ModuleManager_Call
80007c10 g     F .text	000000a2 Exception_Page
80004370 g     F .text	00000072 MemoryManager_DumpAllocation
80000ae4 g       .text	00000000 EXC_04
80002530 g     F .text	00000263 FS_Open
80004460 g     F .text	0000001d MemoryManager_KAlloc
80002800 g     F .text	0000006c FS_Init
80007b80 g     F .text	00000030 Exception_InvalidOpCode
800057c0 g     F .text	000000e0 ObjectManager_CreateObject
80006f60 g     F .text	00000069 ProcessManager_Call_AwakenThread
800018a0 g     F .text	00000044 DMMFileIO_Dismount
80005d80 g     F .text	000000a7 ObjectManager_ConstructKeyAppend
80000014 g       .text	00000000 gdt
800078e0 g     F .text	0000002a Console_Call_Print
80007640 g     F .text	00000040 Console_MoveCursor
80000cee g       .text	00000000 IRQ_01
800078c0 g     F .text	00000011 Console_Call_DeleteCharacter
80007d00 g     F .text	000004b8 vsnprintf
800021c0 g     F .text	00000125 FS_Unmount
80001390 g     F .text	000000a0 Kernel_LoadBootModules
80000c17 g       .text	00000000 EXC_0B
80007a20 g     F .text	0000002a Descriptor_SetInterruptGate
80008d80 g     F .text	000000ef strtoul
80006e60 g     F .text	00000049 ProcessManager_Awaken
80005ef0 g     F .text	00000072 ObjectManager_SearchNameInClass
80000b38 g       .text	00000000 EXC_INVALIDOPCODE
80003500 g     F .text	000000b5 IOManager_UnmapCacheDirectPage
80000b8c g       .text	00000000 EXC_DOUBLEFAULT
80004190 g     F .text	00000081 MemoryManager_Page_Unmap
80000e53 g       .text	00000000 IRQ_08
80001430 g     F .text	00000142 DeviceManager_AttachResource
80000866 g       .text	00000000 MultibootAddress
80005010 g     F .text	000000da MessageManager_CreateModuleInterface
80003e70 g     F .text	0000010f MemoryManager_Expand
80006eb0 g     F .text	00000043 ProcessManager_Call_CreateThread
80003660 g     F .text	000002e3 MemoryManager_Init
80002f20 g     F .text	0000003e InterruptManager_Call_AttachHandler
8000aaf4 g     O .data	00000004 bCreateThreadStack
80004590 g     F .text	0000016c MessageManager_CreateMessage
80005f70 g     F .text	0000007a ObjectManager_SearchNameInClassTypeIndex
80007a80 g     F .text	0000002a Descriptor_SetCallGate
80005bf0 g     F .text	0000006f ObjectManager_ConstructPath
80003630 g     F .text	00000022 Lock_Unlock
80006030 g     F .text	0000003e ObjectManager_SearchInClassTypeIndex
80001290 g     F .text	000000f6 Kernel_ParseBootModules
800031f0 g     F .text	0000001e IOManager_LockInit
80001740 g     F .text	0000004e DeviceManager_CreateModuleInterface
80008e70 g     F .text	00000080 strtol
8000103d g       .text	00000000 MemoryManagerAllocCall
80000a4a g       .text	00000000 EXC_00
8000aaec g     O .data	00000004 g_pszPath
80004e60 g     F .text	00000025 MessageManager_Call_CreateMessage
80004fb0 g     F .text	0000001a MessageManager_Call_SendMessage
80005c60 g     F .text	000000a7 ObjectManager_ConstructPathAppend
80007cc0 g     F .text	00000034 Exception_GPF
80000f85 g       .text	00000000 IRQ_0E
80007680 g     F .text	0000004a KClear
80004bc0 g     F .text	00000074 MessageManager_MessageProcessed
80004010 g     F .text	0000001c MemoryManager_Page_AddFree
80003da0 g     F .text	000000c4 MemoryManager_Free
80003250 g     F .text	00000101 IOManager_Init
8000085e g       .text	00000000 ZeroPageTable
800019e0 g     F .text	00000629 FS_LoadElf
80000d87 g       .text	00000000 IRQ_04
80005ff0 g     F .text	00000035 ObjectManager_SearchInClass
80006c70 g     F .text	00000027 ProcessManager_RestoreContext
80007970 g     F .text	000000a2 Console_CreateModuleInterface
80005110 g     F .text	00000016 ModuleManager_Lock
800053a0 g     F .text	000000e6 ModuleManager_GetCallID
80004480 g     F .text	0000001d MemoryManager_KFree
80007800 g     F .text	0000008a Console_DeleteChar
80007950 g     F .text	00000011 Console_Call_Clear
80008510 g     F .text	0000079d __v_scanf
80000bb2 g       .text	00000000 EXC_09
80003210 g     F .text	00000016 IOManager_Lock
80000862 g       .text	00000000 PageTables
80007560 g     F .text	00000088 Console_Init
80000ac1 g       .text	00000000 EXC_03
800071a0 g     F .text	00000044 PIT_Init
800058e0 g     F .text	00000016 ObjectManager_Unlock
80001900 g     F .text	00000009 DMMFileIO_Read
80002a50 g     F .text	000002c6 InterruptManager_Init
80006490 g     F .text	000000b6 TimerManager_AttachTimerHandler
80006270 g     F .text	000000d1 ObjectManager_GetEntityStringLength
80001800 g     F .text	00000017 DMMFileIO_RegisterFilesystemCallback
80005e60 g     F .text	0000008f ObjectManager_DeleteObject
80001190 g     F .text	000000fe Kernel_ParseParameters
80000b5b g       .text	00000000 EXC_07
80000be3 g       .text	00000000 EXC_0A
80000a34 g       .text	00000000 DefaultIntHandler
8000aaf0 g     O .data	00000004 g_pszKey
800028f0 g     F .text	00000084 FS_Close
8000af18 g     O .bss	00000004 nConsoleY
80006b60 g     F .text	00000045 ProcessManager_RunThread
8000ade0 g     O .bss	00000034 sFSLock
8000ac20 g       .bss	00000000 bss
80006420 g     F .text	00000065 TimerManager_Init
80000eec g       .text	00000000 IRQ_0B
80000f1f g       .text	00000000 IRQ_0C
800042b0 g     F .text	000000b1 MemoryManager_Page_Allocate
800071f0 g     F .text	0000000f PIT_StopTimer
80004220 g     F .text	00000081 MemoryManager_Page_MapZeroFill
80008cb0 g     F .text	0000003d sscanf
80004030 g     F .text	000000b2 MemoryManager_GetPTValue
8000086a g       .text	00000000 g_nTaskESP
8000106b g       .text	00000000 MemoryManagerFreeCall
8000ab20 g     O .data	00000100 _ctype
80003fa0 g     F .text	00000016 MemoryManager_Lock
80007910 g     F .text	00000032 Console_Call_LogPrint
800022f0 g     F .text	00000084 FS_CheckFilename
80000d21 g       .text	00000000 IRQ_02
80005e40 g     F .text	00000017 ObjectManager_GetStart
80004e90 g     F .text	00000091 MessageManager_Call_GetMessage
8000aae0 g       .data	00000000 data
80008ef0 g     F .text	0000002e memset
80005900 g     F .text	000002e2 ObjectManager_Init
80000fe1 g       .text	00000000 ModuleManagerGetCallID
80000e86 g       .text	00000000 IRQ_09
80007100 g     F .text	0000003b PIC_DisableIRQ
800061a0 g     F .text	000000c5 ObjectManager_GetEntityWord
800060b0 g     F .text	0000001e ObjectManager_GetObjectContainingData
8000ae14 g     O .bss	00000004 g_pszVolume
80003cb0 g     F .text	00000090 MemoryManager_Alloc
80004a50 g     F .text	000000ee MessageManager_GetMessagePortThreadID
80002f60 g     F .text	0000004e InterruptManager_CreateModuleInterface
80005e30 g     F .text	00000007 ObjectManager_Parse
80007bb0 g     F .text	00000030 Exception_Double
800035c0 g     F .text	00000022 Lock_Init
800015f0 g     F .text	00000077 DeviceManager_RegisterDevice
80007030 g     F .text	00000021 ProcessManager_Call_Relinquish
80006a10 g     F .text	00000062 ProcessManager_UpdateThreads
800056f0 g     F .text	000000c6 ModuleManager_CreateModuleInterface
8000004c g       .text	00000000 idt
8000ae20 g     O .bss	00000034 sIOLock
80004fd0 g     F .text	0000003c MessageManager_Call_GetMessageQueueLength
8000aaf8 g     O .data	00000004 g_bTaskSwitchWaiting
80006b30 g     F .text	00000030 ProcessManager_GetThreadObject
800050f0 g     F .text	0000001e ModuleManager_LockInit
80001580 g     F .text	00000062 DeviceManager_Init
80003360 g     F .text	00000094 IOManager_RegisterIODevice
80000dba g       .text	00000000 IRQ_05
80004a20 g     F .text	0000002b MessageManager_MessageQueueLength
80006c10 g     F .text	0000005e ProcessManager_SaveContext
8000aee0 g     O .bss	00000034 sObjectLock
800070c0 g     F .text	0000003b PIC_EnableIRQ
8000100f g       .text	00000000 ModuleManagerCall
80005d10 g     F .text	0000006f ObjectManager_ConstructKey
8000ae18 g     O .bss	00000004 g_pszFilename
80000d54 g       .text	00000000 IRQ_03
80004c40 g     F .text	0000011f MessageManager_Call_CreateMessagePort
8000085a g       .text	00000000 CorePageTable
80004b40 g     F .text	00000077 MessageManager_GetMessage
80003230 g     F .text	00000016 IOManager_Unlock
80007890 g     F .text	00000025 Console_Call_WriteCharacter
80003f80 g     F .text	0000001e MemoryManager_LockInit
80006070 g     F .text	0000003e ObjectManager_SearchInClassTypeSubIndex
80002d20 g     F .text	000000ad InterruptManager_Handle
800010a0 g     F .text	000000e2 Kernel_Main
80001790 g     F .text	00000046 DMMFileIO_Init
80002fb0 g     F .text	00000153 IOManager_Read
80002dd0 g     F .text	000000b6 InterruptManager_AttachHandler
80005560 g     F .text	000000af ModuleManager_Load
80000b07 g       .text	00000000 EXC_05
8000aae4 g     O .data	00000004 g_bKernelInitDone
8000ac60 g     O .bss	00000180 g_sKernel
80006e20 g     F .text	00000034 ProcessManager_Sleep
80002a00 g     F .text	0000004b FS_Seek
800075f0 g     F .text	0000004d Console_Remap
80006ca0 g     F .text	00000108 ProcessManager_NextThread
8000af20 g       *ABS*	00000000 _end
80000852 g       .text	00000000 KernelSize
800009e9 g       .text	00000000 halt
80002870 g     F .text	00000075 FS_RegisterFilesystem
80000000 g       .text	00000000 code
800043f0 g     F .text	0000006b MemoryManager_DumpFreeMap
8000af1c g     O .bss	00000004 g_pConsoleVideo
80003fe0 g     F .text	0000002f MemoryManager_CreateModuleInterface
80002380 g     F .text	000001a9 FS_Parse
80008f20 g       .rodata	00000000 rodata
800027a0 g     F .text	0000001e FS_LockInit
80001700 g     F .text	0000003e DeviceManager_Call_AttachResource
80007a50 g     F .text	0000002a Descriptor_SetTaskGate
80004f30 g     F .text	00000074 MessageManager_Call_MessageProcessed
80007b30 g     F .text	00000019 Descriptor_SetAccess
800051e0 g     F .text	00000094 ModuleManager_CreateModule
80006120 g     F .text	00000080 ObjectManager_CreateEntityString
80003450 g     F .text	000000b0 IOManager_ReadFromBlock
8000aae8 g     O .data	00000004 ELF_MAGIC
80007060 g     F .text	0000005c PIC_Init
80000000 g       .text	00000000 Start
800018f0 g     F .text	00000007 DMMFileIO_Open
80000e20 g       .text	00000000 IRQ_07
80000eb9 g       .text	00000000 IRQ_0A
80000856 g       .text	00000000 PageDirectory
80002980 g     F .text	00000071 FS_Read
800056b0 g     F .text	0000003e ModuleManager_Call_CreateModuleCall
80004800 g     F .text	000000f3 MessageManager_Init
800058c0 g     F .text	00000016 ObjectManager_Lock
80006760 g     F .text	000000ea ProcessManager_CreateProcess
800027e0 g     F .text	00000016 FS_Unlock
80001670 g     F .text	00000082 DeviceManager_Call_RegisterDevice
800065b0 g     F .text	000001ae ProcessManager_Init
800060d0 g     F .text	00000045 ObjectManager_CreateEntityWord
80007ae0 g     F .text	00000041 Descriptor_SetLimit
80004700 g     F .text	000000f6 MessageManager_SendMessage
80007140 g     F .text	00000051 PIC_MaskAndAcknowledge
80000f52 g       .text	00000000 IRQ_0D
800027c0 g     F .text	00000016 FS_Lock
80000cbb g       .text	00000000 IRQ_00
800040f0 g     F .text	0000009c MemoryManager_GetPTAddress
80004900 g     F .text	0000011f MessageManager_CreateMessagePort
80003af0 g     F .text	000001bc MemoryManager_AllocInit
80005280 g     F .text	00000120 ModuleManager_CreateModuleCall
80005130 g     F .text	00000016 ModuleManager_Unlock
80004d60 g     F .text	000000fb MessageManager_Call_GetMessagePortThreadID
8000ab00 g     O .data	00000001 nConsoleAttr
80005150 g     F .text	00000086 ModuleManager_Init
80000a7b g       .text	00000000 EXC_01
800035f0 g     F .text	0000003d Lock_Lock
80002ed0 g     F .text	00000043 InterruptManager_Call_EnableInterrupt


Disassembly of section .text:

80000000 <Start>:
80000000:	e9 6b 08 00 00       	jmp    80000870 <entry>
80000005:	8d 76 00             	lea    0x0(%esi),%esi

80000008 <multiboot_header>:
80000008:	02 b0 ad 1b 03 00    	add    0x31bad(%eax),%dh
8000000e:	00 00                	add    %al,(%eax)
80000010:	fb                   	sti    
80000011:	4f                   	dec    %edi
80000012:	52                   	push   %edx
80000013:	e4 00                	in     $0x0,%al

80000014 <gdt>:
	...
8000001c:	ff                   	(bad)  
8000001d:	ff 00                	incl   (%eax)
8000001f:	00 00                	add    %al,(%eax)
80000021:	9a cf 00 ff ff 00 00 	lcall  $0x0,$0xffff00cf
80000028:	00 92 cf 00 00 00    	add    %dl,0xcf(%edx)
	...

80000044 <gdt_ptr>:
80000044:	30 00                	xor    %al,(%eax)
80000046:	14 00                	adc    $0x0,%al
80000048:	10 00                	adc    %al,(%eax)
8000004a:	89 f6                	mov    %esi,%esi

8000004c <idt>:
	...

8000084c <idt_ptr>:
8000084c:	00 08                	add    %cl,(%eax)
8000084e:	4c                   	dec    %esp
8000084f:	00 10                	add    %dl,(%eax)
	...

80000852 <KernelSize>:
80000852:	00 00                	add    %al,(%eax)
	...

80000856 <PageDirectory>:
80000856:	00 00                	add    %al,(%eax)
	...

8000085a <CorePageTable>:
8000085a:	00 00                	add    %al,(%eax)
	...

8000085e <ZeroPageTable>:
8000085e:	00 00                	add    %al,(%eax)
	...

80000862 <PageTables>:
80000862:	00 00                	add    %al,(%eax)
	...

80000866 <MultibootAddress>:
80000866:	00 00                	add    %al,(%eax)
	...

8000086a <g_nTaskESP>:
8000086a:	00 00                	add    %al,(%eax)
	...

8000086e <g_nTaskSS>:
	...

80000870 <entry>:
80000870:	bf 20 af 00 80       	mov    $0x8000af20,%edi
80000875:	81 ef 00 00 00 80    	sub    $0x80000000,%edi
8000087b:	81 c7 ff 0f 00 00    	add    $0xfff,%edi
80000881:	c1 ef 0c             	shr    $0xc,%edi
80000884:	89 3d 52 08 10 00    	mov    %edi,0x100852
8000088a:	bf 00 00 20 00       	mov    $0x200000,%edi
8000088f:	89 3d 56 08 10 00    	mov    %edi,0x100856
80000895:	81 c7 00 10 00 00    	add    $0x1000,%edi
8000089b:	89 3d 62 08 10 00    	mov    %edi,0x100862
800008a1:	81 c7 00 10 00 00    	add    $0x1000,%edi
800008a7:	89 3d 5a 08 10 00    	mov    %edi,0x10085a
800008ad:	81 c7 00 10 00 00    	add    $0x1000,%edi
800008b3:	89 3d 5e 08 10 00    	mov    %edi,0x10085e
800008b9:	81 c7 00 00 01 00    	add    $0x10000,%edi
800008bf:	89 fc                	mov    %edi,%esp
800008c1:	3d 02 b0 ad 2b       	cmp    $0x2badb002,%eax
800008c6:	74 05                	je     800008cd <multiboot>
800008c8:	e9 1c 01 00 00       	jmp    800009e9 <halt>

800008cd <multiboot>:
800008cd:	89 1d 66 08 10 00    	mov    %ebx,0x100866
800008d3:	8b 3d 56 08 10 00    	mov    0x100856,%edi
800008d9:	b9 00 40 00 00       	mov    $0x4000,%ecx
800008de:	b8 00 00 00 00       	mov    $0x0,%eax
800008e3:	fc                   	cld    
800008e4:	f3 ab                	repz stos %eax,%es:(%edi)
800008e6:	8b 3d 5a 08 10 00    	mov    0x10085a,%edi
800008ec:	8b 0d 52 08 10 00    	mov    0x100852,%ecx
800008f2:	b8 03 00 10 00       	mov    $0x100003,%eax
800008f7:	fc                   	cld    

800008f8 <mapkernel>:
800008f8:	ab                   	stos   %eax,%es:(%edi)
800008f9:	05 00 10 00 00       	add    $0x1000,%eax
800008fe:	e2 f8                	loop   800008f8 <mapkernel>
80000900:	b9 02 00 00 00       	mov    $0x2,%ecx
80000905:	b8 03 00 20 00       	mov    $0x200003,%eax
8000090a:	fc                   	cld    

8000090b <mapkernel2>:
8000090b:	ab                   	stos   %eax,%es:(%edi)
8000090c:	05 00 10 00 00       	add    $0x1000,%eax
80000911:	e2 f8                	loop   8000090b <mapkernel2>
80000913:	b9 10 00 00 00       	mov    $0x10,%ecx
80000918:	b8 03 40 20 00       	mov    $0x204003,%eax
8000091d:	fc                   	cld    

8000091e <mapstack>:
8000091e:	ab                   	stos   %eax,%es:(%edi)
8000091f:	05 00 10 00 00       	add    $0x1000,%eax
80000924:	e2 f8                	loop   8000091e <mapstack>
80000926:	a1 5a 08 10 00       	mov    0x10085a,%eax
8000092b:	83 c8 03             	or     $0x3,%eax
8000092e:	8b 3d 56 08 10 00    	mov    0x100856,%edi
80000934:	81 c7 00 08 00 00    	add    $0x800,%edi
8000093a:	89 07                	mov    %eax,(%edi)
8000093c:	a1 62 08 10 00       	mov    0x100862,%eax
80000941:	83 c8 03             	or     $0x3,%eax
80000944:	8b 3d 56 08 10 00    	mov    0x100856,%edi
8000094a:	81 c7 fc 08 00 00    	add    $0x8fc,%edi
80000950:	89 07                	mov    %eax,(%edi)
80000952:	8b 3d 5e 08 10 00    	mov    0x10085e,%edi
80000958:	b9 00 04 00 00       	mov    $0x400,%ecx
8000095d:	b8 03 00 00 00       	mov    $0x3,%eax
80000962:	fc                   	cld    

80000963 <mapkernelphysical>:
80000963:	ab                   	stos   %eax,%es:(%edi)
80000964:	05 00 10 00 00       	add    $0x1000,%eax
80000969:	e2 f8                	loop   80000963 <mapkernelphysical>
8000096b:	a1 5e 08 10 00       	mov    0x10085e,%eax
80000970:	83 c8 03             	or     $0x3,%eax
80000973:	8b 3d 56 08 10 00    	mov    0x100856,%edi
80000979:	89 07                	mov    %eax,(%edi)
8000097b:	a1 56 08 10 00       	mov    0x100856,%eax
80000980:	0f 22 d8             	mov    %eax,%cr3
80000983:	0f 20 c0             	mov    %cr0,%eax
80000986:	0d 00 00 00 80       	or     $0x80000000,%eax
8000098b:	0f 22 c0             	mov    %eax,%cr0
8000098e:	68 94 09 00 80       	push   $0x80000994
80000993:	c3                   	ret    

80000994 <Paging_Enabled>:
80000994:	0f 01 15 44 00 00 80 	lgdtl  0x80000044
8000099b:	66 b8 10 00          	mov    $0x10,%ax
8000099f:	8e d8                	mov    %eax,%ds
800009a1:	8e c0                	mov    %eax,%es
800009a3:	8e e0                	mov    %eax,%fs
800009a5:	8e e8                	mov    %eax,%gs
800009a7:	8e d0                	mov    %eax,%ss
800009a9:	ea b0 09 00 80 08 00 	ljmp   $0x8,$0x800009b0

800009b0 <reloadcs>:
800009b0:	a1 52 08 00 80       	mov    0x80000852,%eax
800009b5:	83 c0 02             	add    $0x2,%eax
800009b8:	c1 e0 0c             	shl    $0xc,%eax
800009bb:	05 00 d0 df 7f       	add    $0x7fdfd000,%eax
800009c0:	01 c4                	add    %eax,%esp
800009c2:	a1 52 08 00 80       	mov    0x80000852,%eax
800009c7:	c1 e0 0c             	shl    $0xc,%eax
800009ca:	05 00 00 00 80       	add    $0x80000000,%eax
800009cf:	a3 56 08 00 80       	mov    %eax,0x80000856
800009d4:	05 00 10 00 00       	add    $0x1000,%eax
800009d9:	a3 62 08 00 80       	mov    %eax,0x80000862
800009de:	a1 66 08 00 80       	mov    0x80000866,%eax
800009e3:	50                   	push   %eax
800009e4:	e8 b7 06 00 00       	call   800010a0 <Kernel_Main>

800009e9 <halt>:
800009e9:	fa                   	cli    

800009ea <halt2>:
800009ea:	eb fe                	jmp    800009ea <halt2>

800009ec <DefaultIntHandlerMsg>:
800009ec:	55                   	push   %ebp
800009ed:	6e                   	outsb  %ds:(%esi),(%dx)
800009ee:	6b 6e 6f 77          	imul   $0x77,0x6f(%esi),%ebp
800009f2:	6e                   	outsb  %ds:(%esi),(%dx)
800009f3:	20 69 6e             	and    %ch,0x6e(%ecx)
800009f6:	74 65                	je     80000a5d <EXC_00+0x13>
800009f8:	72 72                	jb     80000a6c <EXC_00+0x22>
800009fa:	75 70                	jne    80000a6c <EXC_00+0x22>
800009fc:	74 20                	je     80000a1e <DefaultExceptionMsg+0x15>
800009fe:	2d 20 48 61 6c       	sub    $0x6c614820,%eax
80000a03:	74 69                	je     80000a6e <EXC_00+0x24>
80000a05:	6e                   	outsb  %ds:(%esi),(%dx)
80000a06:	67 0a 00             	addr16 or (%bx,%si),%al

80000a09 <DefaultExceptionMsg>:
80000a09:	55                   	push   %ebp
80000a0a:	6e                   	outsb  %ds:(%esi),(%dx)
80000a0b:	68 61 6e 64 6c       	push   $0x6c646e61
80000a10:	65 64 20 45 78       	and    %al,%fs:%gs:0x78(%ebp)
80000a15:	63 65 70             	arpl   %sp,0x70(%ebp)
80000a18:	74 69                	je     80000a83 <EXC_01+0x8>
80000a1a:	6f                   	outsl  %ds:(%esi),(%dx)
80000a1b:	6e                   	outsb  %ds:(%esi),(%dx)
80000a1c:	20 25 64 20 2d 20    	and    %ah,0x202d2064
80000a22:	48                   	dec    %eax
80000a23:	61                   	popa   
80000a24:	6c                   	insb   (%dx),%es:(%edi)
80000a25:	74 69                	je     80000a90 <EXC_01+0x15>
80000a27:	6e                   	outsb  %ds:(%esi),(%dx)
80000a28:	67 0a 00             	addr16 or (%bx,%si),%al

80000a2b <ModuleName>:
80000a2b:	42                   	inc    %edx
80000a2c:	4f                   	dec    %edi
80000a2d:	4f                   	dec    %edi
80000a2e:	54                   	push   %esp
80000a2f:	2e                   	cs
80000a30:	53                   	push   %ebx
80000a31:	00 89 f6 6a 02 68    	add    %cl,0x68026af6(%ecx)

80000a34 <DefaultIntHandler>:
80000a34:	6a 02                	push   $0x2
80000a36:	68 ec 09 00 80       	push   $0x800009ec
80000a3b:	68 2b 0a 00 80       	push   $0x80000a2b
80000a40:	e8 bb 67 00 00       	call   80007200 <KPrint>
80000a45:	e9 9f ff ff ff       	jmp    800009e9 <halt>

80000a4a <EXC_00>:
80000a4a:	fc                   	cld    
80000a4b:	1e                   	push   %ds
80000a4c:	06                   	push   %es
80000a4d:	0f a0                	push   %fs
80000a4f:	0f a8                	push   %gs
80000a51:	50                   	push   %eax
80000a52:	53                   	push   %ebx
80000a53:	51                   	push   %ecx
80000a54:	52                   	push   %edx
80000a55:	55                   	push   %ebp
80000a56:	56                   	push   %esi
80000a57:	57                   	push   %edi
80000a58:	6a 00                	push   $0x0
80000a5a:	68 09 0a 00 80       	push   $0x80000a09
80000a5f:	68 2b 0a 00 80       	push   $0x80000a2b
80000a64:	6a 02                	push   $0x2
80000a66:	e8 95 67 00 00       	call   80007200 <KPrint>
80000a6b:	fa                   	cli    
80000a6c:	f4                   	hlt    
80000a6d:	5f                   	pop    %edi
80000a6e:	5e                   	pop    %esi
80000a6f:	5d                   	pop    %ebp
80000a70:	5a                   	pop    %edx
80000a71:	59                   	pop    %ecx
80000a72:	5b                   	pop    %ebx
80000a73:	58                   	pop    %eax
80000a74:	0f a9                	pop    %gs
80000a76:	0f a1                	pop    %fs
80000a78:	07                   	pop    %es
80000a79:	1f                   	pop    %ds
80000a7a:	cf                   	iret   

80000a7b <EXC_01>:
80000a7b:	fc                   	cld    
80000a7c:	1e                   	push   %ds
80000a7d:	06                   	push   %es
80000a7e:	0f a0                	push   %fs
80000a80:	0f a8                	push   %gs
80000a82:	50                   	push   %eax
80000a83:	53                   	push   %ebx
80000a84:	51                   	push   %ecx
80000a85:	52                   	push   %edx
80000a86:	55                   	push   %ebp
80000a87:	56                   	push   %esi
80000a88:	57                   	push   %edi
80000a89:	e8 c2 70 00 00       	call   80007b50 <Exception_Debug>
80000a8e:	fa                   	cli    
80000a8f:	f4                   	hlt    
80000a90:	5f                   	pop    %edi
80000a91:	5e                   	pop    %esi
80000a92:	5d                   	pop    %ebp
80000a93:	5a                   	pop    %edx
80000a94:	59                   	pop    %ecx
80000a95:	5b                   	pop    %ebx
80000a96:	58                   	pop    %eax
80000a97:	0f a9                	pop    %gs
80000a99:	0f a1                	pop    %fs
80000a9b:	07                   	pop    %es
80000a9c:	1f                   	pop    %ds
80000a9d:	cf                   	iret   

80000a9e <EXC_02>:
80000a9e:	fc                   	cld    
80000a9f:	1e                   	push   %ds
80000aa0:	06                   	push   %es
80000aa1:	0f a0                	push   %fs
80000aa3:	0f a8                	push   %gs
80000aa5:	50                   	push   %eax
80000aa6:	53                   	push   %ebx
80000aa7:	51                   	push   %ecx
80000aa8:	52                   	push   %edx
80000aa9:	55                   	push   %ebp
80000aaa:	56                   	push   %esi
80000aab:	57                   	push   %edi
80000aac:	6a 02                	push   $0x2
80000aae:	68 09 0a 00 80       	push   $0x80000a09
80000ab3:	68 2b 0a 00 80       	push   $0x80000a2b
80000ab8:	6a 02                	push   $0x2
80000aba:	e8 41 67 00 00       	call   80007200 <KPrint>
80000abf:	fa                   	cli    
80000ac0:	f4                   	hlt    

80000ac1 <EXC_03>:
80000ac1:	fc                   	cld    
80000ac2:	1e                   	push   %ds
80000ac3:	06                   	push   %es
80000ac4:	0f a0                	push   %fs
80000ac6:	0f a8                	push   %gs
80000ac8:	50                   	push   %eax
80000ac9:	53                   	push   %ebx
80000aca:	51                   	push   %ecx
80000acb:	52                   	push   %edx
80000acc:	55                   	push   %ebp
80000acd:	56                   	push   %esi
80000ace:	57                   	push   %edi
80000acf:	6a 03                	push   $0x3
80000ad1:	68 09 0a 00 80       	push   $0x80000a09
80000ad6:	68 2b 0a 00 80       	push   $0x80000a2b
80000adb:	6a 02                	push   $0x2
80000add:	e8 1e 67 00 00       	call   80007200 <KPrint>
80000ae2:	fa                   	cli    
80000ae3:	f4                   	hlt    

80000ae4 <EXC_04>:
80000ae4:	fc                   	cld    
80000ae5:	1e                   	push   %ds
80000ae6:	06                   	push   %es
80000ae7:	0f a0                	push   %fs
80000ae9:	0f a8                	push   %gs
80000aeb:	50                   	push   %eax
80000aec:	53                   	push   %ebx
80000aed:	51                   	push   %ecx
80000aee:	52                   	push   %edx
80000aef:	55                   	push   %ebp
80000af0:	56                   	push   %esi
80000af1:	57                   	push   %edi
80000af2:	6a 04                	push   $0x4
80000af4:	68 09 0a 00 80       	push   $0x80000a09
80000af9:	68 2b 0a 00 80       	push   $0x80000a2b
80000afe:	6a 02                	push   $0x2
80000b00:	e8 fb 66 00 00       	call   80007200 <KPrint>
80000b05:	fa                   	cli    
80000b06:	f4                   	hlt    

80000b07 <EXC_05>:
80000b07:	fc                   	cld    
80000b08:	1e                   	push   %ds
80000b09:	06                   	push   %es
80000b0a:	0f a0                	push   %fs
80000b0c:	0f a8                	push   %gs
80000b0e:	50                   	push   %eax
80000b0f:	53                   	push   %ebx
80000b10:	51                   	push   %ecx
80000b11:	52                   	push   %edx
80000b12:	55                   	push   %ebp
80000b13:	56                   	push   %esi
80000b14:	57                   	push   %edi
80000b15:	6a 05                	push   $0x5
80000b17:	68 09 0a 00 80       	push   $0x80000a09
80000b1c:	68 2b 0a 00 80       	push   $0x80000a2b
80000b21:	6a 02                	push   $0x2
80000b23:	e8 d8 66 00 00       	call   80007200 <KPrint>
80000b28:	fa                   	cli    
80000b29:	f4                   	hlt    
80000b2a:	5f                   	pop    %edi
80000b2b:	5e                   	pop    %esi
80000b2c:	5d                   	pop    %ebp
80000b2d:	5a                   	pop    %edx
80000b2e:	59                   	pop    %ecx
80000b2f:	5b                   	pop    %ebx
80000b30:	58                   	pop    %eax
80000b31:	0f a9                	pop    %gs
80000b33:	0f a1                	pop    %fs
80000b35:	07                   	pop    %es
80000b36:	1f                   	pop    %ds
80000b37:	cf                   	iret   

80000b38 <EXC_INVALIDOPCODE>:
80000b38:	fc                   	cld    
80000b39:	1e                   	push   %ds
80000b3a:	06                   	push   %es
80000b3b:	0f a0                	push   %fs
80000b3d:	0f a8                	push   %gs
80000b3f:	50                   	push   %eax
80000b40:	53                   	push   %ebx
80000b41:	51                   	push   %ecx
80000b42:	52                   	push   %edx
80000b43:	55                   	push   %ebp
80000b44:	56                   	push   %esi
80000b45:	57                   	push   %edi
80000b46:	e8 35 70 00 00       	call   80007b80 <Exception_InvalidOpCode>
80000b4b:	fa                   	cli    
80000b4c:	f4                   	hlt    
80000b4d:	5f                   	pop    %edi
80000b4e:	5e                   	pop    %esi
80000b4f:	5d                   	pop    %ebp
80000b50:	5a                   	pop    %edx
80000b51:	59                   	pop    %ecx
80000b52:	5b                   	pop    %ebx
80000b53:	58                   	pop    %eax
80000b54:	0f a9                	pop    %gs
80000b56:	0f a1                	pop    %fs
80000b58:	07                   	pop    %es
80000b59:	1f                   	pop    %ds
80000b5a:	cf                   	iret   

80000b5b <EXC_07>:
80000b5b:	fc                   	cld    
80000b5c:	1e                   	push   %ds
80000b5d:	06                   	push   %es
80000b5e:	0f a0                	push   %fs
80000b60:	0f a8                	push   %gs
80000b62:	50                   	push   %eax
80000b63:	53                   	push   %ebx
80000b64:	51                   	push   %ecx
80000b65:	52                   	push   %edx
80000b66:	55                   	push   %ebp
80000b67:	56                   	push   %esi
80000b68:	57                   	push   %edi
80000b69:	6a 07                	push   $0x7
80000b6b:	68 09 0a 00 80       	push   $0x80000a09
80000b70:	68 2b 0a 00 80       	push   $0x80000a2b
80000b75:	6a 02                	push   $0x2
80000b77:	e8 84 66 00 00       	call   80007200 <KPrint>
80000b7c:	fa                   	cli    
80000b7d:	f4                   	hlt    
80000b7e:	5f                   	pop    %edi
80000b7f:	5e                   	pop    %esi
80000b80:	5d                   	pop    %ebp
80000b81:	5a                   	pop    %edx
80000b82:	59                   	pop    %ecx
80000b83:	5b                   	pop    %ebx
80000b84:	58                   	pop    %eax
80000b85:	0f a9                	pop    %gs
80000b87:	0f a1                	pop    %fs
80000b89:	07                   	pop    %es
80000b8a:	1f                   	pop    %ds
80000b8b:	cf                   	iret   

80000b8c <EXC_DOUBLEFAULT>:
80000b8c:	fc                   	cld    
80000b8d:	1e                   	push   %ds
80000b8e:	06                   	push   %es
80000b8f:	0f a0                	push   %fs
80000b91:	0f a8                	push   %gs
80000b93:	50                   	push   %eax
80000b94:	53                   	push   %ebx
80000b95:	51                   	push   %ecx
80000b96:	52                   	push   %edx
80000b97:	55                   	push   %ebp
80000b98:	56                   	push   %esi
80000b99:	57                   	push   %edi
80000b9a:	e8 11 70 00 00       	call   80007bb0 <Exception_Double>
80000b9f:	fa                   	cli    
80000ba0:	f4                   	hlt    
80000ba1:	5f                   	pop    %edi
80000ba2:	5e                   	pop    %esi
80000ba3:	5d                   	pop    %ebp
80000ba4:	5a                   	pop    %edx
80000ba5:	59                   	pop    %ecx
80000ba6:	5b                   	pop    %ebx
80000ba7:	58                   	pop    %eax
80000ba8:	0f a9                	pop    %gs
80000baa:	0f a1                	pop    %fs
80000bac:	07                   	pop    %es
80000bad:	1f                   	pop    %ds
80000bae:	83 c4 04             	add    $0x4,%esp
80000bb1:	cf                   	iret   

80000bb2 <EXC_09>:
80000bb2:	fc                   	cld    
80000bb3:	1e                   	push   %ds
80000bb4:	06                   	push   %es
80000bb5:	0f a0                	push   %fs
80000bb7:	0f a8                	push   %gs
80000bb9:	50                   	push   %eax
80000bba:	53                   	push   %ebx
80000bbb:	51                   	push   %ecx
80000bbc:	52                   	push   %edx
80000bbd:	55                   	push   %ebp
80000bbe:	56                   	push   %esi
80000bbf:	57                   	push   %edi
80000bc0:	6a 09                	push   $0x9
80000bc2:	68 09 0a 00 80       	push   $0x80000a09
80000bc7:	68 2b 0a 00 80       	push   $0x80000a2b
80000bcc:	6a 02                	push   $0x2
80000bce:	e8 2d 66 00 00       	call   80007200 <KPrint>
80000bd3:	fa                   	cli    
80000bd4:	f4                   	hlt    
80000bd5:	5f                   	pop    %edi
80000bd6:	5e                   	pop    %esi
80000bd7:	5d                   	pop    %ebp
80000bd8:	5a                   	pop    %edx
80000bd9:	59                   	pop    %ecx
80000bda:	5b                   	pop    %ebx
80000bdb:	58                   	pop    %eax
80000bdc:	0f a9                	pop    %gs
80000bde:	0f a1                	pop    %fs
80000be0:	07                   	pop    %es
80000be1:	1f                   	pop    %ds
80000be2:	cf                   	iret   

80000be3 <EXC_0A>:
80000be3:	fc                   	cld    
80000be4:	1e                   	push   %ds
80000be5:	06                   	push   %es
80000be6:	0f a0                	push   %fs
80000be8:	0f a8                	push   %gs
80000bea:	50                   	push   %eax
80000beb:	53                   	push   %ebx
80000bec:	51                   	push   %ecx
80000bed:	52                   	push   %edx
80000bee:	55                   	push   %ebp
80000bef:	56                   	push   %esi
80000bf0:	57                   	push   %edi
80000bf1:	6a 0a                	push   $0xa
80000bf3:	68 09 0a 00 80       	push   $0x80000a09
80000bf8:	68 2b 0a 00 80       	push   $0x80000a2b
80000bfd:	6a 02                	push   $0x2
80000bff:	e8 fc 65 00 00       	call   80007200 <KPrint>
80000c04:	fa                   	cli    
80000c05:	f4                   	hlt    
80000c06:	5f                   	pop    %edi
80000c07:	5e                   	pop    %esi
80000c08:	5d                   	pop    %ebp
80000c09:	5a                   	pop    %edx
80000c0a:	59                   	pop    %ecx
80000c0b:	5b                   	pop    %ebx
80000c0c:	58                   	pop    %eax
80000c0d:	0f a9                	pop    %gs
80000c0f:	0f a1                	pop    %fs
80000c11:	07                   	pop    %es
80000c12:	1f                   	pop    %ds
80000c13:	83 c4 04             	add    $0x4,%esp
80000c16:	cf                   	iret   

80000c17 <EXC_0B>:
80000c17:	fc                   	cld    
80000c18:	1e                   	push   %ds
80000c19:	06                   	push   %es
80000c1a:	0f a0                	push   %fs
80000c1c:	0f a8                	push   %gs
80000c1e:	50                   	push   %eax
80000c1f:	53                   	push   %ebx
80000c20:	51                   	push   %ecx
80000c21:	52                   	push   %edx
80000c22:	55                   	push   %ebp
80000c23:	56                   	push   %esi
80000c24:	57                   	push   %edi
80000c25:	6a 0b                	push   $0xb
80000c27:	68 09 0a 00 80       	push   $0x80000a09
80000c2c:	68 2b 0a 00 80       	push   $0x80000a2b
80000c31:	6a 02                	push   $0x2
80000c33:	e8 c8 65 00 00       	call   80007200 <KPrint>
80000c38:	fa                   	cli    
80000c39:	f4                   	hlt    
80000c3a:	5f                   	pop    %edi
80000c3b:	5e                   	pop    %esi
80000c3c:	5d                   	pop    %ebp
80000c3d:	5a                   	pop    %edx
80000c3e:	59                   	pop    %ecx
80000c3f:	5b                   	pop    %ebx
80000c40:	58                   	pop    %eax
80000c41:	0f a9                	pop    %gs
80000c43:	0f a1                	pop    %fs
80000c45:	07                   	pop    %es
80000c46:	1f                   	pop    %ds
80000c47:	83 c4 04             	add    $0x4,%esp
80000c4a:	cf                   	iret   

80000c4b <EXC_STACKFAULT>:
80000c4b:	fc                   	cld    
80000c4c:	1e                   	push   %ds
80000c4d:	06                   	push   %es
80000c4e:	0f a0                	push   %fs
80000c50:	0f a8                	push   %gs
80000c52:	50                   	push   %eax
80000c53:	53                   	push   %ebx
80000c54:	51                   	push   %ecx
80000c55:	52                   	push   %edx
80000c56:	55                   	push   %ebp
80000c57:	56                   	push   %esi
80000c58:	57                   	push   %edi
80000c59:	e8 82 6f 00 00       	call   80007be0 <Exception_StackFault>
80000c5e:	fa                   	cli    
80000c5f:	f4                   	hlt    
80000c60:	5f                   	pop    %edi
80000c61:	5e                   	pop    %esi
80000c62:	5d                   	pop    %ebp
80000c63:	5a                   	pop    %edx
80000c64:	59                   	pop    %ecx
80000c65:	5b                   	pop    %ebx
80000c66:	58                   	pop    %eax
80000c67:	0f a9                	pop    %gs
80000c69:	0f a1                	pop    %fs
80000c6b:	07                   	pop    %es
80000c6c:	1f                   	pop    %ds
80000c6d:	83 c4 04             	add    $0x4,%esp
80000c70:	cf                   	iret   

80000c71 <EXC_GPF>:
80000c71:	fc                   	cld    
80000c72:	1e                   	push   %ds
80000c73:	06                   	push   %es
80000c74:	0f a0                	push   %fs
80000c76:	0f a8                	push   %gs
80000c78:	50                   	push   %eax
80000c79:	53                   	push   %ebx
80000c7a:	51                   	push   %ecx
80000c7b:	52                   	push   %edx
80000c7c:	55                   	push   %ebp
80000c7d:	56                   	push   %esi
80000c7e:	57                   	push   %edi
80000c7f:	e8 3c 70 00 00       	call   80007cc0 <Exception_GPF>
80000c84:	fa                   	cli    
80000c85:	f4                   	hlt    
80000c86:	5f                   	pop    %edi
80000c87:	5e                   	pop    %esi
80000c88:	5d                   	pop    %ebp
80000c89:	5a                   	pop    %edx
80000c8a:	59                   	pop    %ecx
80000c8b:	5b                   	pop    %ebx
80000c8c:	58                   	pop    %eax
80000c8d:	0f a9                	pop    %gs
80000c8f:	0f a1                	pop    %fs
80000c91:	07                   	pop    %es
80000c92:	1f                   	pop    %ds
80000c93:	83 c4 04             	add    $0x4,%esp
80000c96:	cf                   	iret   

80000c97 <EXC_PAGEFAULT>:
80000c97:	fc                   	cld    
80000c98:	1e                   	push   %ds
80000c99:	06                   	push   %es
80000c9a:	0f a0                	push   %fs
80000c9c:	0f a8                	push   %gs
80000c9e:	50                   	push   %eax
80000c9f:	53                   	push   %ebx
80000ca0:	51                   	push   %ecx
80000ca1:	52                   	push   %edx
80000ca2:	55                   	push   %ebp
80000ca3:	56                   	push   %esi
80000ca4:	57                   	push   %edi
80000ca5:	e8 66 6f 00 00       	call   80007c10 <Exception_Page>
80000caa:	5f                   	pop    %edi
80000cab:	5e                   	pop    %esi
80000cac:	5d                   	pop    %ebp
80000cad:	5a                   	pop    %edx
80000cae:	59                   	pop    %ecx
80000caf:	5b                   	pop    %ebx
80000cb0:	58                   	pop    %eax
80000cb1:	0f a9                	pop    %gs
80000cb3:	0f a1                	pop    %fs
80000cb5:	07                   	pop    %es
80000cb6:	1f                   	pop    %ds
80000cb7:	83 c4 04             	add    $0x4,%esp
80000cba:	cf                   	iret   

80000cbb <IRQ_00>:
80000cbb:	fc                   	cld    
80000cbc:	1e                   	push   %ds
80000cbd:	06                   	push   %es
80000cbe:	0f a0                	push   %fs
80000cc0:	0f a8                	push   %gs
80000cc2:	50                   	push   %eax
80000cc3:	53                   	push   %ebx
80000cc4:	51                   	push   %ecx
80000cc5:	52                   	push   %edx
80000cc6:	55                   	push   %ebp
80000cc7:	56                   	push   %esi
80000cc8:	57                   	push   %edi
80000cc9:	16                   	push   %ss
80000cca:	54                   	push   %esp
80000ccb:	54                   	push   %esp
80000ccc:	6a 00                	push   $0x0
80000cce:	e8 4d 20 00 00       	call   80002d20 <InterruptManager_Handle>
80000cd3:	83 c4 04             	add    $0x4,%esp
80000cd6:	83 c4 04             	add    $0x4,%esp
80000cd9:	0f b2 24 24          	lss    (%esp,1),%esp
80000cdd:	83 c4 04             	add    $0x4,%esp
80000ce0:	5f                   	pop    %edi
80000ce1:	5e                   	pop    %esi
80000ce2:	5d                   	pop    %ebp
80000ce3:	5a                   	pop    %edx
80000ce4:	59                   	pop    %ecx
80000ce5:	5b                   	pop    %ebx
80000ce6:	58                   	pop    %eax
80000ce7:	0f a9                	pop    %gs
80000ce9:	0f a1                	pop    %fs
80000ceb:	07                   	pop    %es
80000cec:	1f                   	pop    %ds
80000ced:	cf                   	iret   

80000cee <IRQ_01>:
80000cee:	fc                   	cld    
80000cef:	1e                   	push   %ds
80000cf0:	06                   	push   %es
80000cf1:	0f a0                	push   %fs
80000cf3:	0f a8                	push   %gs
80000cf5:	50                   	push   %eax
80000cf6:	53                   	push   %ebx
80000cf7:	51                   	push   %ecx
80000cf8:	52                   	push   %edx
80000cf9:	55                   	push   %ebp
80000cfa:	56                   	push   %esi
80000cfb:	57                   	push   %edi
80000cfc:	16                   	push   %ss
80000cfd:	54                   	push   %esp
80000cfe:	54                   	push   %esp
80000cff:	6a 01                	push   $0x1
80000d01:	e8 1a 20 00 00       	call   80002d20 <InterruptManager_Handle>
80000d06:	83 c4 04             	add    $0x4,%esp
80000d09:	83 c4 04             	add    $0x4,%esp
80000d0c:	0f b2 24 24          	lss    (%esp,1),%esp
80000d10:	83 c4 04             	add    $0x4,%esp
80000d13:	5f                   	pop    %edi
80000d14:	5e                   	pop    %esi
80000d15:	5d                   	pop    %ebp
80000d16:	5a                   	pop    %edx
80000d17:	59                   	pop    %ecx
80000d18:	5b                   	pop    %ebx
80000d19:	58                   	pop    %eax
80000d1a:	0f a9                	pop    %gs
80000d1c:	0f a1                	pop    %fs
80000d1e:	07                   	pop    %es
80000d1f:	1f                   	pop    %ds
80000d20:	cf                   	iret   

80000d21 <IRQ_02>:
80000d21:	fc                   	cld    
80000d22:	1e                   	push   %ds
80000d23:	06                   	push   %es
80000d24:	0f a0                	push   %fs
80000d26:	0f a8                	push   %gs
80000d28:	50                   	push   %eax
80000d29:	53                   	push   %ebx
80000d2a:	51                   	push   %ecx
80000d2b:	52                   	push   %edx
80000d2c:	55                   	push   %ebp
80000d2d:	56                   	push   %esi
80000d2e:	57                   	push   %edi
80000d2f:	16                   	push   %ss
80000d30:	54                   	push   %esp
80000d31:	54                   	push   %esp
80000d32:	6a 02                	push   $0x2
80000d34:	e8 e7 1f 00 00       	call   80002d20 <InterruptManager_Handle>
80000d39:	83 c4 04             	add    $0x4,%esp
80000d3c:	83 c4 04             	add    $0x4,%esp
80000d3f:	0f b2 24 24          	lss    (%esp,1),%esp
80000d43:	83 c4 04             	add    $0x4,%esp
80000d46:	5f                   	pop    %edi
80000d47:	5e                   	pop    %esi
80000d48:	5d                   	pop    %ebp
80000d49:	5a                   	pop    %edx
80000d4a:	59                   	pop    %ecx
80000d4b:	5b                   	pop    %ebx
80000d4c:	58                   	pop    %eax
80000d4d:	0f a9                	pop    %gs
80000d4f:	0f a1                	pop    %fs
80000d51:	07                   	pop    %es
80000d52:	1f                   	pop    %ds
80000d53:	cf                   	iret   

80000d54 <IRQ_03>:
80000d54:	fc                   	cld    
80000d55:	1e                   	push   %ds
80000d56:	06                   	push   %es
80000d57:	0f a0                	push   %fs
80000d59:	0f a8                	push   %gs
80000d5b:	50                   	push   %eax
80000d5c:	53                   	push   %ebx
80000d5d:	51                   	push   %ecx
80000d5e:	52                   	push   %edx
80000d5f:	55                   	push   %ebp
80000d60:	56                   	push   %esi
80000d61:	57                   	push   %edi
80000d62:	16                   	push   %ss
80000d63:	54                   	push   %esp
80000d64:	54                   	push   %esp
80000d65:	6a 03                	push   $0x3
80000d67:	e8 b4 1f 00 00       	call   80002d20 <InterruptManager_Handle>
80000d6c:	83 c4 04             	add    $0x4,%esp
80000d6f:	83 c4 04             	add    $0x4,%esp
80000d72:	0f b2 24 24          	lss    (%esp,1),%esp
80000d76:	83 c4 04             	add    $0x4,%esp
80000d79:	5f                   	pop    %edi
80000d7a:	5e                   	pop    %esi
80000d7b:	5d                   	pop    %ebp
80000d7c:	5a                   	pop    %edx
80000d7d:	59                   	pop    %ecx
80000d7e:	5b                   	pop    %ebx
80000d7f:	58                   	pop    %eax
80000d80:	0f a9                	pop    %gs
80000d82:	0f a1                	pop    %fs
80000d84:	07                   	pop    %es
80000d85:	1f                   	pop    %ds
80000d86:	cf                   	iret   

80000d87 <IRQ_04>:
80000d87:	fc                   	cld    
80000d88:	1e                   	push   %ds
80000d89:	06                   	push   %es
80000d8a:	0f a0                	push   %fs
80000d8c:	0f a8                	push   %gs
80000d8e:	50                   	push   %eax
80000d8f:	53                   	push   %ebx
80000d90:	51                   	push   %ecx
80000d91:	52                   	push   %edx
80000d92:	55                   	push   %ebp
80000d93:	56                   	push   %esi
80000d94:	57                   	push   %edi
80000d95:	16                   	push   %ss
80000d96:	54                   	push   %esp
80000d97:	54                   	push   %esp
80000d98:	6a 04                	push   $0x4
80000d9a:	e8 81 1f 00 00       	call   80002d20 <InterruptManager_Handle>
80000d9f:	83 c4 04             	add    $0x4,%esp
80000da2:	83 c4 04             	add    $0x4,%esp
80000da5:	0f b2 24 24          	lss    (%esp,1),%esp
80000da9:	83 c4 04             	add    $0x4,%esp
80000dac:	5f                   	pop    %edi
80000dad:	5e                   	pop    %esi
80000dae:	5d                   	pop    %ebp
80000daf:	5a                   	pop    %edx
80000db0:	59                   	pop    %ecx
80000db1:	5b                   	pop    %ebx
80000db2:	58                   	pop    %eax
80000db3:	0f a9                	pop    %gs
80000db5:	0f a1                	pop    %fs
80000db7:	07                   	pop    %es
80000db8:	1f                   	pop    %ds
80000db9:	cf                   	iret   

80000dba <IRQ_05>:
80000dba:	fc                   	cld    
80000dbb:	1e                   	push   %ds
80000dbc:	06                   	push   %es
80000dbd:	0f a0                	push   %fs
80000dbf:	0f a8                	push   %gs
80000dc1:	50                   	push   %eax
80000dc2:	53                   	push   %ebx
80000dc3:	51                   	push   %ecx
80000dc4:	52                   	push   %edx
80000dc5:	55                   	push   %ebp
80000dc6:	56                   	push   %esi
80000dc7:	57                   	push   %edi
80000dc8:	16                   	push   %ss
80000dc9:	54                   	push   %esp
80000dca:	54                   	push   %esp
80000dcb:	6a 05                	push   $0x5
80000dcd:	e8 4e 1f 00 00       	call   80002d20 <InterruptManager_Handle>
80000dd2:	83 c4 04             	add    $0x4,%esp
80000dd5:	83 c4 04             	add    $0x4,%esp
80000dd8:	0f b2 24 24          	lss    (%esp,1),%esp
80000ddc:	83 c4 04             	add    $0x4,%esp
80000ddf:	5f                   	pop    %edi
80000de0:	5e                   	pop    %esi
80000de1:	5d                   	pop    %ebp
80000de2:	5a                   	pop    %edx
80000de3:	59                   	pop    %ecx
80000de4:	5b                   	pop    %ebx
80000de5:	58                   	pop    %eax
80000de6:	0f a9                	pop    %gs
80000de8:	0f a1                	pop    %fs
80000dea:	07                   	pop    %es
80000deb:	1f                   	pop    %ds
80000dec:	cf                   	iret   

80000ded <IRQ_06>:
80000ded:	fc                   	cld    
80000dee:	1e                   	push   %ds
80000def:	06                   	push   %es
80000df0:	0f a0                	push   %fs
80000df2:	0f a8                	push   %gs
80000df4:	50                   	push   %eax
80000df5:	53                   	push   %ebx
80000df6:	51                   	push   %ecx
80000df7:	52                   	push   %edx
80000df8:	55                   	push   %ebp
80000df9:	56                   	push   %esi
80000dfa:	57                   	push   %edi
80000dfb:	16                   	push   %ss
80000dfc:	54                   	push   %esp
80000dfd:	54                   	push   %esp
80000dfe:	6a 06                	push   $0x6
80000e00:	e8 1b 1f 00 00       	call   80002d20 <InterruptManager_Handle>
80000e05:	83 c4 04             	add    $0x4,%esp
80000e08:	83 c4 04             	add    $0x4,%esp
80000e0b:	0f b2 24 24          	lss    (%esp,1),%esp
80000e0f:	83 c4 04             	add    $0x4,%esp
80000e12:	5f                   	pop    %edi
80000e13:	5e                   	pop    %esi
80000e14:	5d                   	pop    %ebp
80000e15:	5a                   	pop    %edx
80000e16:	59                   	pop    %ecx
80000e17:	5b                   	pop    %ebx
80000e18:	58                   	pop    %eax
80000e19:	0f a9                	pop    %gs
80000e1b:	0f a1                	pop    %fs
80000e1d:	07                   	pop    %es
80000e1e:	1f                   	pop    %ds
80000e1f:	cf                   	iret   

80000e20 <IRQ_07>:
80000e20:	fc                   	cld    
80000e21:	1e                   	push   %ds
80000e22:	06                   	push   %es
80000e23:	0f a0                	push   %fs
80000e25:	0f a8                	push   %gs
80000e27:	50                   	push   %eax
80000e28:	53                   	push   %ebx
80000e29:	51                   	push   %ecx
80000e2a:	52                   	push   %edx
80000e2b:	55                   	push   %ebp
80000e2c:	56                   	push   %esi
80000e2d:	57                   	push   %edi
80000e2e:	16                   	push   %ss
80000e2f:	54                   	push   %esp
80000e30:	54                   	push   %esp
80000e31:	6a 07                	push   $0x7
80000e33:	e8 e8 1e 00 00       	call   80002d20 <InterruptManager_Handle>
80000e38:	83 c4 04             	add    $0x4,%esp
80000e3b:	83 c4 04             	add    $0x4,%esp
80000e3e:	0f b2 24 24          	lss    (%esp,1),%esp
80000e42:	83 c4 04             	add    $0x4,%esp
80000e45:	5f                   	pop    %edi
80000e46:	5e                   	pop    %esi
80000e47:	5d                   	pop    %ebp
80000e48:	5a                   	pop    %edx
80000e49:	59                   	pop    %ecx
80000e4a:	5b                   	pop    %ebx
80000e4b:	58                   	pop    %eax
80000e4c:	0f a9                	pop    %gs
80000e4e:	0f a1                	pop    %fs
80000e50:	07                   	pop    %es
80000e51:	1f                   	pop    %ds
80000e52:	cf                   	iret   

80000e53 <IRQ_08>:
80000e53:	fc                   	cld    
80000e54:	1e                   	push   %ds
80000e55:	06                   	push   %es
80000e56:	0f a0                	push   %fs
80000e58:	0f a8                	push   %gs
80000e5a:	50                   	push   %eax
80000e5b:	53                   	push   %ebx
80000e5c:	51                   	push   %ecx
80000e5d:	52                   	push   %edx
80000e5e:	55                   	push   %ebp
80000e5f:	56                   	push   %esi
80000e60:	57                   	push   %edi
80000e61:	16                   	push   %ss
80000e62:	54                   	push   %esp
80000e63:	54                   	push   %esp
80000e64:	6a 08                	push   $0x8
80000e66:	e8 b5 1e 00 00       	call   80002d20 <InterruptManager_Handle>
80000e6b:	83 c4 04             	add    $0x4,%esp
80000e6e:	83 c4 04             	add    $0x4,%esp
80000e71:	0f b2 24 24          	lss    (%esp,1),%esp
80000e75:	83 c4 04             	add    $0x4,%esp
80000e78:	5f                   	pop    %edi
80000e79:	5e                   	pop    %esi
80000e7a:	5d                   	pop    %ebp
80000e7b:	5a                   	pop    %edx
80000e7c:	59                   	pop    %ecx
80000e7d:	5b                   	pop    %ebx
80000e7e:	58                   	pop    %eax
80000e7f:	0f a9                	pop    %gs
80000e81:	0f a1                	pop    %fs
80000e83:	07                   	pop    %es
80000e84:	1f                   	pop    %ds
80000e85:	cf                   	iret   

80000e86 <IRQ_09>:
80000e86:	fc                   	cld    
80000e87:	1e                   	push   %ds
80000e88:	06                   	push   %es
80000e89:	0f a0                	push   %fs
80000e8b:	0f a8                	push   %gs
80000e8d:	50                   	push   %eax
80000e8e:	53                   	push   %ebx
80000e8f:	51                   	push   %ecx
80000e90:	52                   	push   %edx
80000e91:	55                   	push   %ebp
80000e92:	56                   	push   %esi
80000e93:	57                   	push   %edi
80000e94:	16                   	push   %ss
80000e95:	54                   	push   %esp
80000e96:	54                   	push   %esp
80000e97:	6a 09                	push   $0x9
80000e99:	e8 82 1e 00 00       	call   80002d20 <InterruptManager_Handle>
80000e9e:	83 c4 04             	add    $0x4,%esp
80000ea1:	83 c4 04             	add    $0x4,%esp
80000ea4:	0f b2 24 24          	lss    (%esp,1),%esp
80000ea8:	83 c4 04             	add    $0x4,%esp
80000eab:	5f                   	pop    %edi
80000eac:	5e                   	pop    %esi
80000ead:	5d                   	pop    %ebp
80000eae:	5a                   	pop    %edx
80000eaf:	59                   	pop    %ecx
80000eb0:	5b                   	pop    %ebx
80000eb1:	58                   	pop    %eax
80000eb2:	0f a9                	pop    %gs
80000eb4:	0f a1                	pop    %fs
80000eb6:	07                   	pop    %es
80000eb7:	1f                   	pop    %ds
80000eb8:	cf                   	iret   

80000eb9 <IRQ_0A>:
80000eb9:	fc                   	cld    
80000eba:	1e                   	push   %ds
80000ebb:	06                   	push   %es
80000ebc:	0f a0                	push   %fs
80000ebe:	0f a8                	push   %gs
80000ec0:	50                   	push   %eax
80000ec1:	53                   	push   %ebx
80000ec2:	51                   	push   %ecx
80000ec3:	52                   	push   %edx
80000ec4:	55                   	push   %ebp
80000ec5:	56                   	push   %esi
80000ec6:	57                   	push   %edi
80000ec7:	16                   	push   %ss
80000ec8:	54                   	push   %esp
80000ec9:	54                   	push   %esp
80000eca:	6a 0a                	push   $0xa
80000ecc:	e8 4f 1e 00 00       	call   80002d20 <InterruptManager_Handle>
80000ed1:	83 c4 04             	add    $0x4,%esp
80000ed4:	83 c4 04             	add    $0x4,%esp
80000ed7:	0f b2 24 24          	lss    (%esp,1),%esp
80000edb:	83 c4 04             	add    $0x4,%esp
80000ede:	5f                   	pop    %edi
80000edf:	5e                   	pop    %esi
80000ee0:	5d                   	pop    %ebp
80000ee1:	5a                   	pop    %edx
80000ee2:	59                   	pop    %ecx
80000ee3:	5b                   	pop    %ebx
80000ee4:	58                   	pop    %eax
80000ee5:	0f a9                	pop    %gs
80000ee7:	0f a1                	pop    %fs
80000ee9:	07                   	pop    %es
80000eea:	1f                   	pop    %ds
80000eeb:	cf                   	iret   

80000eec <IRQ_0B>:
80000eec:	fc                   	cld    
80000eed:	1e                   	push   %ds
80000eee:	06                   	push   %es
80000eef:	0f a0                	push   %fs
80000ef1:	0f a8                	push   %gs
80000ef3:	50                   	push   %eax
80000ef4:	53                   	push   %ebx
80000ef5:	51                   	push   %ecx
80000ef6:	52                   	push   %edx
80000ef7:	55                   	push   %ebp
80000ef8:	56                   	push   %esi
80000ef9:	57                   	push   %edi
80000efa:	16                   	push   %ss
80000efb:	54                   	push   %esp
80000efc:	54                   	push   %esp
80000efd:	6a 0b                	push   $0xb
80000eff:	e8 1c 1e 00 00       	call   80002d20 <InterruptManager_Handle>
80000f04:	83 c4 04             	add    $0x4,%esp
80000f07:	83 c4 04             	add    $0x4,%esp
80000f0a:	0f b2 24 24          	lss    (%esp,1),%esp
80000f0e:	83 c4 04             	add    $0x4,%esp
80000f11:	5f                   	pop    %edi
80000f12:	5e                   	pop    %esi
80000f13:	5d                   	pop    %ebp
80000f14:	5a                   	pop    %edx
80000f15:	59                   	pop    %ecx
80000f16:	5b                   	pop    %ebx
80000f17:	58                   	pop    %eax
80000f18:	0f a9                	pop    %gs
80000f1a:	0f a1                	pop    %fs
80000f1c:	07                   	pop    %es
80000f1d:	1f                   	pop    %ds
80000f1e:	cf                   	iret   

80000f1f <IRQ_0C>:
80000f1f:	fc                   	cld    
80000f20:	1e                   	push   %ds
80000f21:	06                   	push   %es
80000f22:	0f a0                	push   %fs
80000f24:	0f a8                	push   %gs
80000f26:	50                   	push   %eax
80000f27:	53                   	push   %ebx
80000f28:	51                   	push   %ecx
80000f29:	52                   	push   %edx
80000f2a:	55                   	push   %ebp
80000f2b:	56                   	push   %esi
80000f2c:	57                   	push   %edi
80000f2d:	16                   	push   %ss
80000f2e:	54                   	push   %esp
80000f2f:	54                   	push   %esp
80000f30:	6a 0c                	push   $0xc
80000f32:	e8 e9 1d 00 00       	call   80002d20 <InterruptManager_Handle>
80000f37:	83 c4 04             	add    $0x4,%esp
80000f3a:	83 c4 04             	add    $0x4,%esp
80000f3d:	0f b2 24 24          	lss    (%esp,1),%esp
80000f41:	83 c4 04             	add    $0x4,%esp
80000f44:	5f                   	pop    %edi
80000f45:	5e                   	pop    %esi
80000f46:	5d                   	pop    %ebp
80000f47:	5a                   	pop    %edx
80000f48:	59                   	pop    %ecx
80000f49:	5b                   	pop    %ebx
80000f4a:	58                   	pop    %eax
80000f4b:	0f a9                	pop    %gs
80000f4d:	0f a1                	pop    %fs
80000f4f:	07                   	pop    %es
80000f50:	1f                   	pop    %ds
80000f51:	cf                   	iret   

80000f52 <IRQ_0D>:
80000f52:	fc                   	cld    
80000f53:	1e                   	push   %ds
80000f54:	06                   	push   %es
80000f55:	0f a0                	push   %fs
80000f57:	0f a8                	push   %gs
80000f59:	50                   	push   %eax
80000f5a:	53                   	push   %ebx
80000f5b:	51                   	push   %ecx
80000f5c:	52                   	push   %edx
80000f5d:	55                   	push   %ebp
80000f5e:	56                   	push   %esi
80000f5f:	57                   	push   %edi
80000f60:	16                   	push   %ss
80000f61:	54                   	push   %esp
80000f62:	54                   	push   %esp
80000f63:	6a 0d                	push   $0xd
80000f65:	e8 b6 1d 00 00       	call   80002d20 <InterruptManager_Handle>
80000f6a:	83 c4 04             	add    $0x4,%esp
80000f6d:	83 c4 04             	add    $0x4,%esp
80000f70:	0f b2 24 24          	lss    (%esp,1),%esp
80000f74:	83 c4 04             	add    $0x4,%esp
80000f77:	5f                   	pop    %edi
80000f78:	5e                   	pop    %esi
80000f79:	5d                   	pop    %ebp
80000f7a:	5a                   	pop    %edx
80000f7b:	59                   	pop    %ecx
80000f7c:	5b                   	pop    %ebx
80000f7d:	58                   	pop    %eax
80000f7e:	0f a9                	pop    %gs
80000f80:	0f a1                	pop    %fs
80000f82:	07                   	pop    %es
80000f83:	1f                   	pop    %ds
80000f84:	cf                   	iret   

80000f85 <IRQ_0E>:
80000f85:	fc                   	cld    
80000f86:	1e                   	push   %ds
80000f87:	06                   	push   %es
80000f88:	0f a0                	push   %fs
80000f8a:	0f a8                	push   %gs
80000f8c:	50                   	push   %eax
80000f8d:	53                   	push   %ebx
80000f8e:	51                   	push   %ecx
80000f8f:	52                   	push   %edx
80000f90:	55                   	push   %ebp
80000f91:	56                   	push   %esi
80000f92:	57                   	push   %edi
80000f93:	16                   	push   %ss
80000f94:	54                   	push   %esp
80000f95:	54                   	push   %esp
80000f96:	e8 85 1d 00 00       	call   80002d20 <InterruptManager_Handle>
80000f9b:	83 c4 04             	add    $0x4,%esp
80000f9e:	0f b2 24 24          	lss    (%esp,1),%esp
80000fa2:	83 c4 04             	add    $0x4,%esp
80000fa5:	5f                   	pop    %edi
80000fa6:	5e                   	pop    %esi
80000fa7:	5d                   	pop    %ebp
80000fa8:	5a                   	pop    %edx
80000fa9:	59                   	pop    %ecx
80000faa:	5b                   	pop    %ebx
80000fab:	58                   	pop    %eax
80000fac:	0f a9                	pop    %gs
80000fae:	0f a1                	pop    %fs
80000fb0:	07                   	pop    %es
80000fb1:	1f                   	pop    %ds
80000fb2:	cf                   	iret   

80000fb3 <IRQ_0F>:
80000fb3:	fc                   	cld    
80000fb4:	1e                   	push   %ds
80000fb5:	06                   	push   %es
80000fb6:	0f a0                	push   %fs
80000fb8:	0f a8                	push   %gs
80000fba:	50                   	push   %eax
80000fbb:	53                   	push   %ebx
80000fbc:	51                   	push   %ecx
80000fbd:	52                   	push   %edx
80000fbe:	55                   	push   %ebp
80000fbf:	56                   	push   %esi
80000fc0:	57                   	push   %edi
80000fc1:	16                   	push   %ss
80000fc2:	54                   	push   %esp
80000fc3:	54                   	push   %esp
80000fc4:	e8 57 1d 00 00       	call   80002d20 <InterruptManager_Handle>
80000fc9:	83 c4 04             	add    $0x4,%esp
80000fcc:	0f b2 24 24          	lss    (%esp,1),%esp
80000fd0:	83 c4 04             	add    $0x4,%esp
80000fd3:	5f                   	pop    %edi
80000fd4:	5e                   	pop    %esi
80000fd5:	5d                   	pop    %ebp
80000fd6:	5a                   	pop    %edx
80000fd7:	59                   	pop    %ecx
80000fd8:	5b                   	pop    %ebx
80000fd9:	58                   	pop    %eax
80000fda:	0f a9                	pop    %gs
80000fdc:	0f a1                	pop    %fs
80000fde:	07                   	pop    %es
80000fdf:	1f                   	pop    %ds
80000fe0:	cf                   	iret   

80000fe1 <ModuleManagerGetCallID>:
80000fe1:	fc                   	cld    
80000fe2:	1e                   	push   %ds
80000fe3:	06                   	push   %es
80000fe4:	0f a0                	push   %fs
80000fe6:	0f a8                	push   %gs
80000fe8:	50                   	push   %eax
80000fe9:	53                   	push   %ebx
80000fea:	51                   	push   %ecx
80000feb:	52                   	push   %edx
80000fec:	55                   	push   %ebp
80000fed:	56                   	push   %esi
80000fee:	57                   	push   %edi
80000fef:	16                   	push   %ss
80000ff0:	54                   	push   %esp
80000ff1:	54                   	push   %esp
80000ff2:	e8 a9 43 00 00       	call   800053a0 <ModuleManager_GetCallID>
80000ff7:	83 c4 04             	add    $0x4,%esp
80000ffa:	0f b2 24 24          	lss    (%esp,1),%esp
80000ffe:	83 c4 04             	add    $0x4,%esp
80001001:	5f                   	pop    %edi
80001002:	5e                   	pop    %esi
80001003:	5d                   	pop    %ebp
80001004:	5a                   	pop    %edx
80001005:	59                   	pop    %ecx
80001006:	5b                   	pop    %ebx
80001007:	58                   	pop    %eax
80001008:	0f a9                	pop    %gs
8000100a:	0f a1                	pop    %fs
8000100c:	07                   	pop    %es
8000100d:	1f                   	pop    %ds
8000100e:	cf                   	iret   

8000100f <ModuleManagerCall>:
8000100f:	fc                   	cld    
80001010:	1e                   	push   %ds
80001011:	06                   	push   %es
80001012:	0f a0                	push   %fs
80001014:	0f a8                	push   %gs
80001016:	50                   	push   %eax
80001017:	53                   	push   %ebx
80001018:	51                   	push   %ecx
80001019:	52                   	push   %edx
8000101a:	55                   	push   %ebp
8000101b:	56                   	push   %esi
8000101c:	57                   	push   %edi
8000101d:	16                   	push   %ss
8000101e:	54                   	push   %esp
8000101f:	54                   	push   %esp
80001020:	e8 6b 44 00 00       	call   80005490 <ModuleManager_Call>
80001025:	83 c4 04             	add    $0x4,%esp
80001028:	0f b2 24 24          	lss    (%esp,1),%esp
8000102c:	83 c4 04             	add    $0x4,%esp
8000102f:	5f                   	pop    %edi
80001030:	5e                   	pop    %esi
80001031:	5d                   	pop    %ebp
80001032:	5a                   	pop    %edx
80001033:	59                   	pop    %ecx
80001034:	5b                   	pop    %ebx
80001035:	58                   	pop    %eax
80001036:	0f a9                	pop    %gs
80001038:	0f a1                	pop    %fs
8000103a:	07                   	pop    %es
8000103b:	1f                   	pop    %ds
8000103c:	cf                   	iret   

8000103d <MemoryManagerAllocCall>:
8000103d:	fc                   	cld    
8000103e:	1e                   	push   %ds
8000103f:	06                   	push   %es
80001040:	0f a0                	push   %fs
80001042:	0f a8                	push   %gs
80001044:	50                   	push   %eax
80001045:	53                   	push   %ebx
80001046:	51                   	push   %ecx
80001047:	52                   	push   %edx
80001048:	55                   	push   %ebp
80001049:	56                   	push   %esi
8000104a:	57                   	push   %edi
8000104b:	16                   	push   %ss
8000104c:	54                   	push   %esp
8000104d:	54                   	push   %esp
8000104e:	e8 7d 34 00 00       	call   800044d0 <MemoryManager_AllocCall>
80001053:	83 c4 04             	add    $0x4,%esp
80001056:	0f b2 24 24          	lss    (%esp,1),%esp
8000105a:	83 c4 04             	add    $0x4,%esp
8000105d:	5f                   	pop    %edi
8000105e:	5e                   	pop    %esi
8000105f:	5d                   	pop    %ebp
80001060:	5a                   	pop    %edx
80001061:	59                   	pop    %ecx
80001062:	5b                   	pop    %ebx
80001063:	58                   	pop    %eax
80001064:	0f a9                	pop    %gs
80001066:	0f a1                	pop    %fs
80001068:	07                   	pop    %es
80001069:	1f                   	pop    %ds
8000106a:	cf                   	iret   

8000106b <MemoryManagerFreeCall>:
8000106b:	fc                   	cld    
8000106c:	1e                   	push   %ds
8000106d:	06                   	push   %es
8000106e:	0f a0                	push   %fs
80001070:	0f a8                	push   %gs
80001072:	50                   	push   %eax
80001073:	53                   	push   %ebx
80001074:	51                   	push   %ecx
80001075:	52                   	push   %edx
80001076:	55                   	push   %ebp
80001077:	56                   	push   %esi
80001078:	57                   	push   %edi
80001079:	16                   	push   %ss
8000107a:	54                   	push   %esp
8000107b:	54                   	push   %esp
8000107c:	e8 af 34 00 00       	call   80004530 <MemoryManager_FreeCall>
80001081:	83 c4 04             	add    $0x4,%esp
80001084:	0f b2 24 24          	lss    (%esp,1),%esp
80001088:	83 c4 04             	add    $0x4,%esp
8000108b:	5f                   	pop    %edi
8000108c:	5e                   	pop    %esi
8000108d:	5d                   	pop    %ebp
8000108e:	5a                   	pop    %edx
8000108f:	59                   	pop    %ecx
80001090:	5b                   	pop    %ebx
80001091:	58                   	pop    %eax
80001092:	0f a9                	pop    %gs
80001094:	0f a1                	pop    %fs
80001096:	07                   	pop    %es
80001097:	1f                   	pop    %ds
80001098:	cf                   	iret   
80001099:	00 00                	add    %al,(%eax)
8000109b:	00 00                	add    %al,(%eax)
8000109d:	00 00                	add    %al,(%eax)
	...

800010a0 <Kernel_Main>:
800010a0:	55                   	push   %ebp
800010a1:	89 e5                	mov    %esp,%ebp
800010a3:	53                   	push   %ebx
800010a4:	83 ec 14             	sub    $0x14,%esp
800010a7:	a1 52 08 00 80       	mov    0x80000852,%eax
800010ac:	8b 5d 08             	mov    0x8(%ebp),%ebx
800010af:	a3 6c ac 00 80       	mov    %eax,0x8000ac6c
800010b4:	c1 e0 0c             	shl    $0xc,%eax
800010b7:	2d 00 a0 ff 7f       	sub    $0x7fffa000,%eax
800010bc:	a3 70 ac 00 80       	mov    %eax,0x8000ac70
800010c1:	a1 56 08 00 80       	mov    0x80000856,%eax
800010c6:	a3 74 ac 00 80       	mov    %eax,0x8000ac74
800010cb:	b8 00 00 c0 8f       	mov    $0x8fc00000,%eax
800010d0:	a3 78 ac 00 80       	mov    %eax,0x8000ac78
800010d5:	a1 62 08 00 80       	mov    0x80000862,%eax
800010da:	a3 7c ac 00 80       	mov    %eax,0x8000ac7c
800010df:	b8 4c 00 00 80       	mov    $0x8000004c,%eax
800010e4:	a3 60 ac 00 80       	mov    %eax,0x8000ac60
800010e9:	b8 14 00 00 80       	mov    $0x80000014,%eax
800010ee:	a3 64 ac 00 80       	mov    %eax,0x8000ac64
800010f3:	8b 43 10             	mov    0x10(%ebx),%eax
800010f6:	89 04 24             	mov    %eax,(%esp,1)
800010f9:	e8 92 00 00 00       	call   80001190 <Kernel_ParseParameters>
800010fe:	e8 5d 64 00 00       	call   80007560 <Console_Init>
80001103:	89 1c 24             	mov    %ebx,(%esp,1)
80001106:	e8 85 01 00 00       	call   80001290 <Kernel_ParseBootModules>
8000110b:	e8 40 19 00 00       	call   80002a50 <InterruptManager_Init>
80001110:	89 1c 24             	mov    %ebx,(%esp,1)
80001113:	e8 48 25 00 00       	call   80003660 <MemoryManager_Init>
80001118:	e8 33 40 00 00       	call   80005150 <ModuleManager_Init>
8000111d:	e8 de 47 00 00       	call   80005900 <ObjectManager_Init>
80001122:	e8 39 1e 00 00       	call   80002f60 <InterruptManager_CreateModuleInterface>
80001127:	e8 b4 2e 00 00       	call   80003fe0 <MemoryManager_CreateModuleInterface>
8000112c:	e8 3f 68 00 00       	call   80007970 <Console_CreateModuleInterface>
80001131:	e8 ba 45 00 00       	call   800056f0 <ModuleManager_CreateModuleInterface>
80001136:	e8 45 04 00 00       	call   80001580 <DeviceManager_Init>
8000113b:	e8 20 5f 00 00       	call   80007060 <PIC_Init>
80001140:	e8 5b 60 00 00       	call   800071a0 <PIT_Init>
80001145:	e8 d6 52 00 00       	call   80006420 <TimerManager_Init>
8000114a:	e8 61 54 00 00       	call   800065b0 <ProcessManager_Init>
8000114f:	e8 ac 36 00 00       	call   80004800 <MessageManager_Init>
80001154:	e8 f7 20 00 00       	call   80003250 <IOManager_Init>
80001159:	e8 a2 16 00 00       	call   80002800 <FS_Init>
8000115e:	b8 01 00 00 00       	mov    $0x1,%eax
80001163:	a3 e4 aa 00 80       	mov    %eax,0x8000aae4
80001168:	e8 23 06 00 00       	call   80001790 <DMMFileIO_Init>
8000116d:	e8 1e 02 00 00       	call   80001390 <Kernel_LoadBootModules>
80001172:	fb                   	sti    
80001173:	8d b6 00 00 00 00    	lea    0x0(%esi),%esi
80001179:	8d bc 27 00 00 00 00 	lea    0x0(%edi,1),%edi
80001180:	eb fe                	jmp    80001180 <Kernel_Main+0xe0>
80001182:	8d b4 26 00 00 00 00 	lea    0x0(%esi,1),%esi
80001189:	8d bc 27 00 00 00 00 	lea    0x0(%edi,1),%edi

80001190 <Kernel_ParseParameters>:
80001190:	55                   	push   %ebp
80001191:	89 e5                	mov    %esp,%ebp
80001193:	57                   	push   %edi
80001194:	56                   	push   %esi
80001195:	8b 75 08             	mov    0x8(%ebp),%esi
80001198:	53                   	push   %ebx
80001199:	31 db                	xor    %ebx,%ebx
8000119b:	0f b6 16             	movzbl (%esi),%edx
8000119e:	84 d2                	test   %dl,%dl
800011a0:	0f 84 e0 00 00 00    	je     80001286 <Kernel_ParseParameters+0xf6>
800011a6:	0f b6 fa             	movzbl %dl,%edi
800011a9:	0f b6 8f 20 ab 00 80 	movzbl 0x8000ab20(%edi),%ecx
800011b0:	80 e1 20             	and    $0x20,%cl
800011b3:	84 c9                	test   %cl,%cl
800011b5:	75 27                	jne    800011de <Kernel_ParseParameters+0x4e>
800011b7:	89 f6                	mov    %esi,%esi
800011b9:	8d bc 27 00 00 00 00 	lea    0x0(%edi,1),%edi
800011c0:	43                   	inc    %ebx
800011c1:	0f b6 14 33          	movzbl (%ebx,%esi,1),%edx
800011c5:	84 d2                	test   %dl,%dl
800011c7:	0f 84 a2 00 00 00    	je     8000126f <Kernel_ParseParameters+0xdf>
800011cd:	0f b6 fa             	movzbl %dl,%edi
800011d0:	0f b6 8f 20 ab 00 80 	movzbl 0x8000ab20(%edi),%ecx
800011d7:	80 e1 20             	and    $0x20,%cl
800011da:	84 c9                	test   %cl,%cl
800011dc:	74 e2                	je     800011c0 <Kernel_ParseParameters+0x30>
800011de:	31 ff                	xor    %edi,%edi
800011e0:	84 d2                	test   %dl,%dl
800011e2:	0f 84 87 00 00 00    	je     8000126f <Kernel_ParseParameters+0xdf>
800011e8:	90                   	nop    
800011e9:	8d b4 26 00 00 00 00 	lea    0x0(%esi,1),%esi
800011f0:	0f b6 c2             	movzbl %dl,%eax
800011f3:	0f b6 88 20 ab 00 80 	movzbl 0x8000ab20(%eax),%ecx
800011fa:	80 e1 20             	and    $0x20,%cl
800011fd:	84 c9                	test   %cl,%cl
800011ff:	74 25                	je     80001226 <Kernel_ParseParameters+0x96>
80001201:	eb 0d                	jmp    80001210 <Kernel_ParseParameters+0x80>
80001203:	90                   	nop    
80001204:	90                   	nop    
80001205:	90                   	nop    
80001206:	90                   	nop    
80001207:	90                   	nop    
80001208:	90                   	nop    
80001209:	90                   	nop    
8000120a:	90                   	nop    
8000120b:	90                   	nop    
8000120c:	90                   	nop    
8000120d:	90                   	nop    
8000120e:	90                   	nop    
8000120f:	90                   	nop    
80001210:	43                   	inc    %ebx
80001211:	0f b6 14 33          	movzbl (%ebx,%esi,1),%edx
80001215:	0f b6 c2             	movzbl %dl,%eax
80001218:	0f b6 88 20 ab 00 80 	movzbl 0x8000ab20(%eax),%ecx
8000121f:	80 e1 20             	and    $0x20,%cl
80001222:	84 c9                	test   %cl,%cl
80001224:	75 ea                	jne    80001210 <Kernel_ParseParameters+0x80>
80001226:	84 d2                	test   %dl,%dl
80001228:	89 d9                	mov    %ebx,%ecx
8000122a:	74 54                	je     80001280 <Kernel_ParseParameters+0xf0>
8000122c:	0f b6 c2             	movzbl %dl,%eax
8000122f:	0f b6 90 20 ab 00 80 	movzbl 0x8000ab20(%eax),%edx
80001236:	80 e2 20             	and    $0x20,%dl
80001239:	84 d2                	test   %dl,%dl
8000123b:	75 43                	jne    80001280 <Kernel_ParseParameters+0xf0>
8000123d:	8d 76 00             	lea    0x0(%esi),%esi
80001240:	41                   	inc    %ecx
80001241:	0f b6 14 31          	movzbl (%ecx,%esi,1),%edx
80001245:	84 d2                	test   %dl,%dl
80001247:	74 15                	je     8000125e <Kernel_ParseParameters+0xce>
80001249:	0f b6 c2             	movzbl %dl,%eax
8000124c:	0f b6 98 20 ab 00 80 	movzbl 0x8000ab20(%eax),%ebx
80001253:	80 e3 20             	and    $0x20,%bl
80001256:	84 db                	test   %bl,%bl
80001258:	74 e6                	je     80001240 <Kernel_ParseParameters+0xb0>
8000125a:	84 d2                	test   %dl,%dl
8000125c:	75 05                	jne    80001263 <Kernel_ParseParameters+0xd3>
8000125e:	bf 01 00 00 00       	mov    $0x1,%edi
80001263:	85 ff                	test   %edi,%edi
80001265:	89 cb                	mov    %ecx,%ebx
80001267:	75 06                	jne    8000126f <Kernel_ParseParameters+0xdf>
80001269:	0f b6 14 31          	movzbl (%ecx,%esi,1),%edx
8000126d:	eb 81                	jmp    800011f0 <Kernel_ParseParameters+0x60>
8000126f:	5b                   	pop    %ebx
80001270:	5e                   	pop    %esi
80001271:	5f                   	pop    %edi
80001272:	5d                   	pop    %ebp
80001273:	c3                   	ret    
80001274:	8d b6 00 00 00 00    	lea    0x0(%esi),%esi
8000127a:	8d bf 00 00 00 00    	lea    0x0(%edi),%edi
80001280:	0f b6 14 33          	movzbl (%ebx,%esi,1),%edx
80001284:	eb d4                	jmp    8000125a <Kernel_ParseParameters+0xca>
80001286:	0f b6 16             	movzbl (%esi),%edx
80001289:	e9 50 ff ff ff       	jmp    800011de <Kernel_ParseParameters+0x4e>
8000128e:	89 f6                	mov    %esi,%esi

80001290 <Kernel_ParseBootModules>:
80001290:	55                   	push   %ebp
80001291:	89 e5                	mov    %esp,%ebp
80001293:	31 c9                	xor    %ecx,%ecx
80001295:	57                   	push   %edi
80001296:	56                   	push   %esi
80001297:	53                   	push   %ebx
80001298:	83 ec 1c             	sub    $0x1c,%esp
8000129b:	89 0d 50 ad 00 80    	mov    %ecx,0x8000ad50
800012a1:	8b 5d 08             	mov    0x8(%ebp),%ebx
800012a4:	8b 43 14             	mov    0x14(%ebx),%eax
800012a7:	a3 4c ad 00 80       	mov    %eax,0x8000ad4c
800012ac:	83 f8 08             	cmp    $0x8,%eax
800012af:	0f 87 b3 00 00 00    	ja     80001368 <Kernel_ParseBootModules+0xd8>
800012b5:	c7 44 24 04 20 8f 00 	movl   $0x80008f20,0x4(%esp,1)
800012bc:	80 
800012bd:	a1 4c ad 00 80       	mov    0x8000ad4c,%eax
800012c2:	31 ff                	xor    %edi,%edi
800012c4:	c7 04 24 3c 8f 00 80 	movl   $0x80008f3c,(%esp,1)
800012cb:	89 44 24 08          	mov    %eax,0x8(%esp,1)
800012cf:	e8 2c 5f 00 00       	call   80007200 <KPrint>
800012d4:	3b 3d 4c ad 00 80    	cmp    0x8000ad4c,%edi
800012da:	8b 73 18             	mov    0x18(%ebx),%esi
800012dd:	72 11                	jb     800012f0 <Kernel_ParseBootModules+0x60>
800012df:	83 c4 1c             	add    $0x1c,%esp
800012e2:	5b                   	pop    %ebx
800012e3:	5e                   	pop    %esi
800012e4:	5f                   	pop    %edi
800012e5:	5d                   	pop    %ebp
800012e6:	c3                   	ret    
800012e7:	89 f6                	mov    %esi,%esi
800012e9:	8d bc 27 00 00 00 00 	lea    0x0(%edi,1),%edi
800012f0:	89 fb                	mov    %edi,%ebx
800012f2:	c1 e3 04             	shl    $0x4,%ebx
800012f5:	8b 46 04             	mov    0x4(%esi),%eax
800012f8:	8d 93 54 ad 00 80    	lea    0x8000ad54(%ebx),%edx
800012fe:	47                   	inc    %edi
800012ff:	89 55 f0             	mov    %edx,0xfffffff0(%ebp)
80001302:	8b 16                	mov    (%esi),%edx
80001304:	83 c6 10             	add    $0x10,%esi
80001307:	8b 4d f0             	mov    0xfffffff0(%ebp),%ecx
8000130a:	89 93 54 ad 00 80    	mov    %edx,0x8000ad54(%ebx)
80001310:	89 41 04             	mov    %eax,0x4(%ecx)
80001313:	89 c1                	mov    %eax,%ecx
80001315:	25 00 f0 ff ff       	and    $0xfffff000,%eax
8000131a:	29 d1                	sub    %edx,%ecx
8000131c:	89 ca                	mov    %ecx,%edx
8000131e:	8b 4d f0             	mov    0xfffffff0(%ebp),%ecx
80001321:	05 00 10 00 00       	add    $0x1000,%eax
80001326:	a3 50 ad 00 80       	mov    %eax,0x8000ad50
8000132b:	89 51 08             	mov    %edx,0x8(%ecx)
8000132e:	89 44 24 14          	mov    %eax,0x14(%esp,1)
80001332:	89 54 24 10          	mov    %edx,0x10(%esp,1)
80001336:	8b 41 04             	mov    0x4(%ecx),%eax
80001339:	c7 04 24 3c 8f 00 80 	movl   $0x80008f3c,(%esp,1)
80001340:	c7 44 24 04 80 8f 00 	movl   $0x80008f80,0x4(%esp,1)
80001347:	80 
80001348:	89 44 24 0c          	mov    %eax,0xc(%esp,1)
8000134c:	8b 83 54 ad 00 80    	mov    0x8000ad54(%ebx),%eax
80001352:	89 44 24 08          	mov    %eax,0x8(%esp,1)
80001356:	e8 a5 5e 00 00       	call   80007200 <KPrint>
8000135b:	3b 3d 4c ad 00 80    	cmp    0x8000ad4c,%edi
80001361:	72 8d                	jb     800012f0 <Kernel_ParseBootModules+0x60>
80001363:	e9 77 ff ff ff       	jmp    800012df <Kernel_ParseBootModules+0x4f>
80001368:	c7 44 24 04 c0 8f 00 	movl   $0x80008fc0,0x4(%esp,1)
8000136f:	80 
80001370:	c7 04 24 3c 8f 00 80 	movl   $0x80008f3c,(%esp,1)
80001377:	e8 84 5e 00 00       	call   80007200 <KPrint>
8000137c:	e8 68 f6 ff ff       	call   800009e9 <halt>
80001381:	e9 2f ff ff ff       	jmp    800012b5 <Kernel_ParseBootModules+0x25>
80001386:	8d 76 00             	lea    0x0(%esi),%esi
80001389:	8d bc 27 00 00 00 00 	lea    0x0(%edi,1),%edi

80001390 <Kernel_LoadBootModules>:
80001390:	55                   	push   %ebp
80001391:	89 e5                	mov    %esp,%ebp
80001393:	57                   	push   %edi
80001394:	56                   	push   %esi
80001395:	31 f6                	xor    %esi,%esi
80001397:	53                   	push   %ebx
80001398:	83 ec 6c             	sub    $0x6c,%esp
8000139b:	3b 35 4c ad 00 80    	cmp    0x8000ad4c,%esi
800013a1:	0f 83 81 00 00 00    	jae    80001428 <Kernel_LoadBootModules+0x98>
800013a7:	8d 7d a8             	lea    0xffffffa8(%ebp),%edi
800013aa:	31 db                	xor    %ebx,%ebx
800013ac:	8d 74 26 00          	lea    0x0(%esi,1),%esi
800013b0:	c7 44 24 08 43 8f 00 	movl   $0x80008f43,0x8(%esp,1)
800013b7:	80 
800013b8:	8b 83 5c ad 00 80    	mov    0x8000ad5c(%ebx),%eax
800013be:	46                   	inc    %esi
800013bf:	c7 44 24 04 40 00 00 	movl   $0x40,0x4(%esp,1)
800013c6:	00 
800013c7:	89 3c 24             	mov    %edi,(%esp,1)
800013ca:	05 ff 0f 00 00       	add    $0xfff,%eax
800013cf:	c1 e8 0c             	shr    $0xc,%eax
800013d2:	89 44 24 10          	mov    %eax,0x10(%esp,1)
800013d6:	8b 83 54 ad 00 80    	mov    0x8000ad54(%ebx),%eax
800013dc:	83 c3 10             	add    $0x10,%ebx
800013df:	89 44 24 0c          	mov    %eax,0xc(%esp,1)
800013e3:	e8 d8 6d 00 00       	call   800081c0 <snprintf>
800013e8:	89 7c 24 0c          	mov    %edi,0xc(%esp,1)
800013ec:	c7 44 24 08 4d 8f 00 	movl   $0x80008f4d,0x8(%esp,1)
800013f3:	80 
800013f4:	c7 44 24 04 53 8f 00 	movl   $0x80008f53,0x4(%esp,1)
800013fb:	80 
800013fc:	c7 04 24 5e 8f 00 80 	movl   $0x80008f5e,(%esp,1)
80001403:	e8 08 0c 00 00       	call   80002010 <FS_Mount>
80001408:	c7 04 24 63 8f 00 80 	movl   $0x80008f63,(%esp,1)
8000140f:	e8 4c 41 00 00       	call   80005560 <ModuleManager_Load>
80001414:	c7 04 24 5e 8f 00 80 	movl   $0x80008f5e,(%esp,1)
8000141b:	e8 a0 0d 00 00       	call   800021c0 <FS_Unmount>
80001420:	3b 35 4c ad 00 80    	cmp    0x8000ad4c,%esi
80001426:	72 88                	jb     800013b0 <Kernel_LoadBootModules+0x20>
80001428:	83 c4 6c             	add    $0x6c,%esp
8000142b:	5b                   	pop    %ebx
8000142c:	5e                   	pop    %esi
8000142d:	5f                   	pop    %edi
8000142e:	5d                   	pop    %ebp
8000142f:	c3                   	ret    

80001430 <DeviceManager_AttachResource>:
80001430:	55                   	push   %ebp
80001431:	89 e5                	mov    %esp,%ebp
80001433:	57                   	push   %edi
80001434:	56                   	push   %esi
80001435:	53                   	push   %ebx
80001436:	83 ec 3c             	sub    $0x3c,%esp
80001439:	8b 75 08             	mov    0x8(%ebp),%esi
8000143c:	8b 5d 0c             	mov    0xc(%ebp),%ebx
8000143f:	8b 7d 10             	mov    0x10(%ebp),%edi
80001442:	e8 79 44 00 00       	call   800058c0 <ObjectManager_Lock>
80001447:	c7 04 24 00 90 00 80 	movl   $0x80009000,(%esp,1)
8000144e:	e8 9d 47 00 00       	call   80005bf0 <ObjectManager_ConstructPath>
80001453:	89 34 24             	mov    %esi,(%esp,1)
80001456:	e8 b5 48 00 00       	call   80005d10 <ObjectManager_ConstructKey>
8000145b:	c7 44 24 04 08 00 00 	movl   $0x8,0x4(%esp,1)
80001462:	00 
80001463:	c7 04 24 00 00 00 00 	movl   $0x0,(%esp,1)
8000146a:	e8 81 4a 00 00       	call   80005ef0 <ObjectManager_SearchNameInClass>
8000146f:	85 c0                	test   %eax,%eax
80001471:	0f 84 d7 00 00 00    	je     8000154e <DeviceManager_AttachResource+0x11e>
80001477:	83 fb 01             	cmp    $0x1,%ebx
8000147a:	0f 84 c0 00 00 00    	je     80001540 <DeviceManager_AttachResource+0x110>
80001480:	83 fb 01             	cmp    $0x1,%ebx
80001483:	0f 82 a7 00 00 00    	jb     80001530 <DeviceManager_AttachResource+0x100>
80001489:	83 fb 02             	cmp    $0x2,%ebx
8000148c:	74 75                	je     80001503 <DeviceManager_AttachResource+0xd3>
8000148e:	c7 04 24 00 90 00 80 	movl   $0x80009000,(%esp,1)
80001495:	e8 56 47 00 00       	call   80005bf0 <ObjectManager_ConstructPath>
8000149a:	c7 04 24 79 92 00 80 	movl   $0x80009279,(%esp,1)
800014a1:	e8 ba 47 00 00       	call   80005c60 <ObjectManager_ConstructPathAppend>
800014a6:	89 34 24             	mov    %esi,(%esp,1)
800014a9:	e8 b2 47 00 00       	call   80005c60 <ObjectManager_ConstructPathAppend>
800014ae:	8d 4d c8             	lea    0xffffffc8(%ebp),%ecx
800014b1:	89 0c 24             	mov    %ecx,(%esp,1)
800014b4:	e8 57 48 00 00       	call   80005d10 <ObjectManager_ConstructKey>
800014b9:	c7 44 24 04 08 00 00 	movl   $0x8,0x4(%esp,1)
800014c0:	00 
800014c1:	c7 04 24 09 00 00 00 	movl   $0x9,(%esp,1)
800014c8:	e8 f3 42 00 00       	call   800057c0 <ObjectManager_CreateObject>
800014cd:	8b 40 4c             	mov    0x4c(%eax),%eax
800014d0:	89 18                	mov    %ebx,(%eax)
800014d2:	89 78 04             	mov    %edi,0x4(%eax)
800014d5:	e8 06 44 00 00       	call   800058e0 <ObjectManager_Unlock>
800014da:	c7 04 24 44 90 00 80 	movl   $0x80009044,(%esp,1)
800014e1:	8d 55 c8             	lea    0xffffffc8(%ebp),%edx
800014e4:	89 54 24 0c          	mov    %edx,0xc(%esp,1)
800014e8:	89 74 24 08          	mov    %esi,0x8(%esp,1)
800014ec:	c7 44 24 04 20 90 00 	movl   $0x80009020,0x4(%esp,1)
800014f3:	80 
800014f4:	e8 07 5d 00 00       	call   80007200 <KPrint>
800014f9:	31 c0                	xor    %eax,%eax
800014fb:	83 c4 3c             	add    $0x3c,%esp
800014fe:	5b                   	pop    %ebx
800014ff:	5e                   	pop    %esi
80001500:	5f                   	pop    %edi
80001501:	5d                   	pop    %ebp
80001502:	c3                   	ret    
80001503:	89 7c 24 0c          	mov    %edi,0xc(%esp,1)
80001507:	c7 44 24 08 4b 90 00 	movl   $0x8000904b,0x8(%esp,1)
8000150e:	80 
8000150f:	c7 44 24 04 30 00 00 	movl   $0x30,0x4(%esp,1)
80001516:	00 
80001517:	8d 55 c8             	lea    0xffffffc8(%ebp),%edx
8000151a:	89 14 24             	mov    %edx,(%esp,1)
8000151d:	e8 9e 6c 00 00       	call   800081c0 <snprintf>
80001522:	e9 67 ff ff ff       	jmp    8000148e <DeviceManager_AttachResource+0x5e>
80001527:	89 f6                	mov    %esi,%esi
80001529:	8d bc 27 00 00 00 00 	lea    0x0(%edi,1),%edi
80001530:	89 7c 24 0c          	mov    %edi,0xc(%esp,1)
80001534:	c7 44 24 08 54 90 00 	movl   $0x80009054,0x8(%esp,1)
8000153b:	80 
8000153c:	eb d1                	jmp    8000150f <DeviceManager_AttachResource+0xdf>
8000153e:	89 f6                	mov    %esi,%esi
80001540:	89 7c 24 0c          	mov    %edi,0xc(%esp,1)
80001544:	c7 44 24 08 5e 90 00 	movl   $0x8000905e,0x8(%esp,1)
8000154b:	80 
8000154c:	eb c1                	jmp    8000150f <DeviceManager_AttachResource+0xdf>
8000154e:	e8 8d 43 00 00       	call   800058e0 <ObjectManager_Unlock>
80001553:	c7 04 24 44 90 00 80 	movl   $0x80009044,(%esp,1)
8000155a:	89 74 24 08          	mov    %esi,0x8(%esp,1)
8000155e:	c7 44 24 04 67 90 00 	movl   $0x80009067,0x4(%esp,1)
80001565:	80 
80001566:	e8 95 5c 00 00       	call   80007200 <KPrint>
8000156b:	b8 ff ff ff ff       	mov    $0xffffffff,%eax
80001570:	eb 89                	jmp    800014fb <DeviceManager_AttachResource+0xcb>
80001572:	8d b4 26 00 00 00 00 	lea    0x0(%esi,1),%esi
80001579:	8d bc 27 00 00 00 00 	lea    0x0(%edi,1),%edi

80001580 <DeviceManager_Init>:
80001580:	55                   	push   %ebp
80001581:	89 e5                	mov    %esp,%ebp
80001583:	83 ec 18             	sub    $0x18,%esp
80001586:	c7 04 24 85 90 00 80 	movl   $0x80009085,(%esp,1)
8000158d:	e8 4e 3c 00 00       	call   800051e0 <ModuleManager_CreateModule>
80001592:	c7 44 24 08 70 16 00 	movl   $0x80001670,0x8(%esp,1)
80001599:	80 
8000159a:	c7 44 24 04 93 90 00 	movl   $0x80009093,0x4(%esp,1)
800015a1:	80 
800015a2:	c7 04 24 85 90 00 80 	movl   $0x80009085,(%esp,1)
800015a9:	e8 d2 3c 00 00       	call   80005280 <ModuleManager_CreateModuleCall>
800015ae:	c7 44 24 08 00 17 00 	movl   $0x80001700,0x8(%esp,1)
800015b5:	80 
800015b6:	c7 44 24 04 a2 90 00 	movl   $0x800090a2,0x4(%esp,1)
800015bd:	80 
800015be:	c7 04 24 85 90 00 80 	movl   $0x80009085,(%esp,1)
800015c5:	e8 b6 3c 00 00       	call   80005280 <ModuleManager_CreateModuleCall>
800015ca:	c7 44 24 04 b1 90 00 	movl   $0x800090b1,0x4(%esp,1)
800015d1:	80 
800015d2:	c7 04 24 44 90 00 80 	movl   $0x80009044,(%esp,1)
800015d9:	e8 22 5c 00 00       	call   80007200 <KPrint>
800015de:	89 ec                	mov    %ebp,%esp
800015e0:	5d                   	pop    %ebp
800015e1:	c3                   	ret    
800015e2:	8d b4 26 00 00 00 00 	lea    0x0(%esi,1),%esi
800015e9:	8d bc 27 00 00 00 00 	lea    0x0(%edi,1),%edi

800015f0 <DeviceManager_RegisterDevice>:
800015f0:	55                   	push   %ebp
800015f1:	89 e5                	mov    %esp,%ebp
800015f3:	83 ec 18             	sub    $0x18,%esp
800015f6:	89 5d fc             	mov    %ebx,0xfffffffc(%ebp)
800015f9:	8b 5d 08             	mov    0x8(%ebp),%ebx
800015fc:	e8 bf 42 00 00       	call   800058c0 <ObjectManager_Lock>
80001601:	c7 04 24 00 90 00 80 	movl   $0x80009000,(%esp,1)
80001608:	e8 e3 45 00 00       	call   80005bf0 <ObjectManager_ConstructPath>
8000160d:	c7 04 24 79 92 00 80 	movl   $0x80009279,(%esp,1)
80001614:	e8 47 46 00 00       	call   80005c60 <ObjectManager_ConstructPathAppend>
80001619:	89 1c 24             	mov    %ebx,(%esp,1)
8000161c:	e8 3f 46 00 00       	call   80005c60 <ObjectManager_ConstructPathAppend>
80001621:	c7 04 24 cd 90 00 80 	movl   $0x800090cd,(%esp,1)
80001628:	e8 e3 46 00 00       	call   80005d10 <ObjectManager_ConstructKey>
8000162d:	c7 44 24 04 00 00 00 	movl   $0x0,0x4(%esp,1)
80001634:	00 
80001635:	c7 04 24 08 00 00 00 	movl   $0x8,(%esp,1)
8000163c:	e8 7f 41 00 00       	call   800057c0 <ObjectManager_CreateObject>
80001641:	e8 9a 42 00 00       	call   800058e0 <ObjectManager_Unlock>
80001646:	89 5c 24 08          	mov    %ebx,0x8(%esp,1)
8000164a:	c7 44 24 04 ce 90 00 	movl   $0x800090ce,0x4(%esp,1)
80001651:	80 
80001652:	c7 04 24 44 90 00 80 	movl   $0x80009044,(%esp,1)
80001659:	e8 a2 5b 00 00       	call   80007200 <KPrint>
8000165e:	8b 5d fc             	mov    0xfffffffc(%ebp),%ebx
80001661:	31 c0                	xor    %eax,%eax
80001663:	89 ec                	mov    %ebp,%esp
80001665:	5d                   	pop    %ebp
80001666:	c3                   	ret    
80001667:	89 f6                	mov    %esi,%esi
80001669:	8d bc 27 00 00 00 00 	lea    0x0(%edi,1),%edi

80001670 <DeviceManager_Call_RegisterDevice>:
80001670:	55                   	push   %ebp
80001671:	89 e5                	mov    %esp,%ebp
80001673:	83 ec 18             	sub    $0x18,%esp
80001676:	89 5d fc             	mov    %ebx,0xfffffffc(%ebp)
80001679:	8b 45 0c             	mov    0xc(%ebp),%eax
8000167c:	8b 48 0c             	mov    0xc(%eax),%ecx
8000167f:	8b 5c 88 10          	mov    0x10(%eax,%ecx,4),%ebx
80001683:	41                   	inc    %ecx
80001684:	89 48 0c             	mov    %ecx,0xc(%eax)
80001687:	e8 34 42 00 00       	call   800058c0 <ObjectManager_Lock>
8000168c:	c7 04 24 00 90 00 80 	movl   $0x80009000,(%esp,1)
80001693:	e8 58 45 00 00       	call   80005bf0 <ObjectManager_ConstructPath>
80001698:	c7 04 24 79 92 00 80 	movl   $0x80009279,(%esp,1)
8000169f:	e8 bc 45 00 00       	call   80005c60 <ObjectManager_ConstructPathAppend>
800016a4:	89 1c 24             	mov    %ebx,(%esp,1)
800016a7:	e8 b4 45 00 00       	call   80005c60 <ObjectManager_ConstructPathAppend>
800016ac:	c7 04 24 cd 90 00 80 	movl   $0x800090cd,(%esp,1)
800016b3:	e8 58 46 00 00       	call   80005d10 <ObjectManager_ConstructKey>
800016b8:	c7 44 24 04 00 00 00 	movl   $0x0,0x4(%esp,1)
800016bf:	00 
800016c0:	c7 04 24 08 00 00 00 	movl   $0x8,(%esp,1)
800016c7:	e8 f4 40 00 00       	call   800057c0 <ObjectManager_CreateObject>
800016cc:	e8 0f 42 00 00       	call   800058e0 <ObjectManager_Unlock>
800016d1:	89 5c 24 08          	mov    %ebx,0x8(%esp,1)
800016d5:	c7 44 24 04 ce 90 00 	movl   $0x800090ce,0x4(%esp,1)
800016dc:	80 
800016dd:	c7 04 24 44 90 00 80 	movl   $0x80009044,(%esp,1)
800016e4:	e8 17 5b 00 00       	call   80007200 <KPrint>
800016e9:	8b 5d fc             	mov    0xfffffffc(%ebp),%ebx
800016ec:	31 c0                	xor    %eax,%eax
800016ee:	89 ec                	mov    %ebp,%esp
800016f0:	5d                   	pop    %ebp
800016f1:	c3                   	ret    
800016f2:	8d b4 26 00 00 00 00 	lea    0x0(%esi,1),%esi
800016f9:	8d bc 27 00 00 00 00 	lea    0x0(%edi,1),%edi

80001700 <DeviceManager_Call_AttachResource>:
80001700:	55                   	push   %ebp
80001701:	89 e5                	mov    %esp,%ebp
80001703:	83 ec 18             	sub    $0x18,%esp
80001706:	89 5d f8             	mov    %ebx,0xfffffff8(%ebp)
80001709:	8b 55 0c             	mov    0xc(%ebp),%edx
8000170c:	89 75 fc             	mov    %esi,0xfffffffc(%ebp)
8000170f:	8b 42 0c             	mov    0xc(%edx),%eax
80001712:	8b 74 82 10          	mov    0x10(%edx,%eax,4),%esi
80001716:	8b 5c 82 14          	mov    0x14(%edx,%eax,4),%ebx
8000171a:	8b 4c 82 18          	mov    0x18(%edx,%eax,4),%ecx
8000171e:	83 c0 03             	add    $0x3,%eax
80001721:	89 42 0c             	mov    %eax,0xc(%edx)
80001724:	89 5c 24 04          	mov    %ebx,0x4(%esp,1)
80001728:	89 34 24             	mov    %esi,(%esp,1)
8000172b:	89 4c 24 08          	mov    %ecx,0x8(%esp,1)
8000172f:	e8 fc fc ff ff       	call   80001430 <DeviceManager_AttachResource>
80001734:	8b 75 fc             	mov    0xfffffffc(%ebp),%esi
80001737:	8b 5d f8             	mov    0xfffffff8(%ebp),%ebx
8000173a:	89 ec                	mov    %ebp,%esp
8000173c:	5d                   	pop    %ebp
8000173d:	c3                   	ret    
8000173e:	89 f6                	mov    %esi,%esi

80001740 <DeviceManager_CreateModuleInterface>:
80001740:	55                   	push   %ebp
80001741:	89 e5                	mov    %esp,%ebp
80001743:	83 ec 18             	sub    $0x18,%esp
80001746:	c7 04 24 85 90 00 80 	movl   $0x80009085,(%esp,1)
8000174d:	e8 8e 3a 00 00       	call   800051e0 <ModuleManager_CreateModule>
80001752:	c7 44 24 08 70 16 00 	movl   $0x80001670,0x8(%esp,1)
80001759:	80 
8000175a:	c7 44 24 04 93 90 00 	movl   $0x80009093,0x4(%esp,1)
80001761:	80 
80001762:	c7 04 24 85 90 00 80 	movl   $0x80009085,(%esp,1)
80001769:	e8 12 3b 00 00       	call   80005280 <ModuleManager_CreateModuleCall>
8000176e:	c7 44 24 08 00 17 00 	movl   $0x80001700,0x8(%esp,1)
80001775:	80 
80001776:	c7 44 24 04 a2 90 00 	movl   $0x800090a2,0x4(%esp,1)
8000177d:	80 
8000177e:	c7 04 24 85 90 00 80 	movl   $0x80009085,(%esp,1)
80001785:	e8 f6 3a 00 00       	call   80005280 <ModuleManager_CreateModuleCall>
8000178a:	89 ec                	mov    %ebp,%esp
8000178c:	5d                   	pop    %ebp
8000178d:	c3                   	ret    
	...

80001790 <DMMFileIO_Init>:
80001790:	55                   	push   %ebp
80001791:	89 e5                	mov    %esp,%ebp
80001793:	83 ec 08             	sub    $0x8,%esp
80001796:	c7 44 24 04 e0 17 00 	movl   $0x800017e0,0x4(%esp,1)
8000179d:	80 
8000179e:	c7 04 24 53 8f 00 80 	movl   $0x80008f53,(%esp,1)
800017a5:	e8 b6 1b 00 00       	call   80003360 <IOManager_RegisterIODevice>
800017aa:	c7 44 24 04 00 18 00 	movl   $0x80001800,0x4(%esp,1)
800017b1:	80 
800017b2:	c7 04 24 4d 8f 00 80 	movl   $0x80008f4d,(%esp,1)
800017b9:	e8 b2 10 00 00       	call   80002870 <FS_RegisterFilesystem>
800017be:	c7 44 24 04 e1 90 00 	movl   $0x800090e1,0x4(%esp,1)
800017c5:	80 
800017c6:	c7 04 24 f6 90 00 80 	movl   $0x800090f6,(%esp,1)
800017cd:	e8 2e 5a 00 00       	call   80007200 <KPrint>
800017d2:	89 ec                	mov    %ebp,%esp
800017d4:	5d                   	pop    %ebp
800017d5:	c3                   	ret    
800017d6:	8d 76 00             	lea    0x0(%esi),%esi
800017d9:	8d bc 27 00 00 00 00 	lea    0x0(%edi,1),%edi

800017e0 <DMMFileIO_RegisterIOCallback>:
800017e0:	55                   	push   %ebp
800017e1:	89 e5                	mov    %esp,%ebp
800017e3:	8b 45 08             	mov    0x8(%ebp),%eax
800017e6:	c7 40 08 00 10 00 00 	movl   $0x1000,0x8(%eax)
800017ed:	c7 40 14 20 18 00 80 	movl   $0x80001820,0x14(%eax)
800017f4:	c7 40 18 a0 18 00 80 	movl   $0x800018a0,0x18(%eax)
800017fb:	31 c0                	xor    %eax,%eax
800017fd:	5d                   	pop    %ebp
800017fe:	c3                   	ret    
800017ff:	90                   	nop    

80001800 <DMMFileIO_RegisterFilesystemCallback>:
80001800:	55                   	push   %ebp
80001801:	89 e5                	mov    %esp,%ebp
80001803:	8b 45 08             	mov    0x8(%ebp),%eax
80001806:	c7 00 f0 18 00 80    	movl   $0x800018f0,(%eax)
8000180c:	c7 40 04 00 19 00 80 	movl   $0x80001900,0x4(%eax)
80001813:	31 c0                	xor    %eax,%eax
80001815:	5d                   	pop    %ebp
80001816:	c3                   	ret    
80001817:	89 f6                	mov    %esi,%esi
80001819:	8d bc 27 00 00 00 00 	lea    0x0(%edi,1),%edi

80001820 <DMMFileIO_Mount>:
80001820:	55                   	push   %ebp
80001821:	89 e5                	mov    %esp,%ebp
80001823:	56                   	push   %esi
80001824:	8d 55 f4             	lea    0xfffffff4(%ebp),%edx
80001827:	53                   	push   %ebx
80001828:	31 db                	xor    %ebx,%ebx
8000182a:	83 ec 20             	sub    $0x20,%esp
8000182d:	89 54 24 0c          	mov    %edx,0xc(%esp,1)
80001831:	8b 45 0c             	mov    0xc(%ebp),%eax
80001834:	8d 55 f0             	lea    0xfffffff0(%ebp),%edx
80001837:	89 54 24 08          	mov    %edx,0x8(%esp,1)
8000183b:	8b 75 08             	mov    0x8(%ebp),%esi
8000183e:	c7 44 24 04 fe 90 00 	movl   $0x800090fe,0x4(%esp,1)
80001845:	80 
80001846:	89 04 24             	mov    %eax,(%esp,1)
80001849:	e8 62 74 00 00       	call   80008cb0 <sscanf>
8000184e:	8b 45 f4             	mov    0xfffffff4(%ebp),%eax
80001851:	39 c3                	cmp    %eax,%ebx
80001853:	72 1b                	jb     80001870 <DMMFileIO_Mount+0x50>
80001855:	89 46 04             	mov    %eax,0x4(%esi)
80001858:	83 c4 20             	add    $0x20,%esp
8000185b:	31 c0                	xor    %eax,%eax
8000185d:	5b                   	pop    %ebx
8000185e:	5e                   	pop    %esi
8000185f:	5d                   	pop    %ebp
80001860:	c3                   	ret    
80001861:	eb 0d                	jmp    80001870 <DMMFileIO_Mount+0x50>
80001863:	90                   	nop    
80001864:	90                   	nop    
80001865:	90                   	nop    
80001866:	90                   	nop    
80001867:	90                   	nop    
80001868:	90                   	nop    
80001869:	90                   	nop    
8000186a:	90                   	nop    
8000186b:	90                   	nop    
8000186c:	90                   	nop    
8000186d:	90                   	nop    
8000186e:	90                   	nop    
8000186f:	90                   	nop    
80001870:	89 5c 24 08          	mov    %ebx,0x8(%esp,1)
80001874:	8b 45 f0             	mov    0xfffffff0(%ebp),%eax
80001877:	43                   	inc    %ebx
80001878:	89 34 24             	mov    %esi,(%esp,1)
8000187b:	89 44 24 04          	mov    %eax,0x4(%esp,1)
8000187f:	e8 8c 18 00 00       	call   80003110 <IOManager_MapCacheDirectPage>
80001884:	8b 45 f4             	mov    0xfffffff4(%ebp),%eax
80001887:	81 45 f0 00 10 00 00 	addl   $0x1000,0xfffffff0(%ebp)
8000188e:	39 c3                	cmp    %eax,%ebx
80001890:	72 de                	jb     80001870 <DMMFileIO_Mount+0x50>
80001892:	eb c1                	jmp    80001855 <DMMFileIO_Mount+0x35>
80001894:	8d b6 00 00 00 00    	lea    0x0(%esi),%esi
8000189a:	8d bf 00 00 00 00    	lea    0x0(%edi),%edi

800018a0 <DMMFileIO_Dismount>:
800018a0:	55                   	push   %ebp
800018a1:	89 e5                	mov    %esp,%ebp
800018a3:	83 ec 18             	sub    $0x18,%esp
800018a6:	89 75 fc             	mov    %esi,0xfffffffc(%ebp)
800018a9:	8b 75 08             	mov    0x8(%ebp),%esi
800018ac:	89 5d f8             	mov    %ebx,0xfffffff8(%ebp)
800018af:	31 db                	xor    %ebx,%ebx
800018b1:	3b 5e 04             	cmp    0x4(%esi),%ebx
800018b4:	72 1a                	jb     800018d0 <DMMFileIO_Dismount+0x30>
800018b6:	8b 5d f8             	mov    0xfffffff8(%ebp),%ebx
800018b9:	31 c0                	xor    %eax,%eax
800018bb:	8b 75 fc             	mov    0xfffffffc(%ebp),%esi
800018be:	89 ec                	mov    %ebp,%esp
800018c0:	5d                   	pop    %ebp
800018c1:	c3                   	ret    
800018c2:	8d b4 26 00 00 00 00 	lea    0x0(%esi,1),%esi
800018c9:	8d bc 27 00 00 00 00 	lea    0x0(%edi,1),%edi
800018d0:	89 5c 24 04          	mov    %ebx,0x4(%esp,1)
800018d4:	43                   	inc    %ebx
800018d5:	89 34 24             	mov    %esi,(%esp,1)
800018d8:	e8 23 1c 00 00       	call   80003500 <IOManager_UnmapCacheDirectPage>
800018dd:	3b 5e 04             	cmp    0x4(%esi),%ebx
800018e0:	72 ee                	jb     800018d0 <DMMFileIO_Dismount+0x30>
800018e2:	eb d2                	jmp    800018b6 <DMMFileIO_Dismount+0x16>
800018e4:	8d b6 00 00 00 00    	lea    0x0(%esi),%esi
800018ea:	8d bf 00 00 00 00    	lea    0x0(%edi),%edi

800018f0 <DMMFileIO_Open>:
800018f0:	55                   	push   %ebp
800018f1:	89 e5                	mov    %esp,%ebp
800018f3:	31 c0                	xor    %eax,%eax
800018f5:	5d                   	pop    %ebp
800018f6:	c3                   	ret    
800018f7:	89 f6                	mov    %esi,%esi
800018f9:	8d bc 27 00 00 00 00 	lea    0x0(%edi,1),%edi

80001900 <DMMFileIO_Read>:
80001900:	55                   	push   %ebp
80001901:	89 e5                	mov    %esp,%ebp
80001903:	5d                   	pop    %ebp
80001904:	e9 a7 16 00 00       	jmp    80002fb0 <IOManager_Read>
80001909:	00 00                	add    %al,(%eax)
8000190b:	00 00                	add    %al,(%eax)
8000190d:	00 00                	add    %al,(%eax)
	...

80001910 <FS_CheckELFHeader>:
80001910:	55                   	push   %ebp
80001911:	ba e8 aa 00 80       	mov    $0x8000aae8,%edx
80001916:	89 e5                	mov    %esp,%ebp
80001918:	83 ec 18             	sub    $0x18,%esp
8000191b:	b8 04 00 00 00       	mov    $0x4,%eax
80001920:	89 75 f8             	mov    %esi,0xfffffff8(%ebp)
80001923:	8b 75 08             	mov    0x8(%ebp),%esi
80001926:	89 5d f4             	mov    %ebx,0xfffffff4(%ebp)
80001929:	89 7d fc             	mov    %edi,0xfffffffc(%ebp)
8000192c:	8b 7d 0c             	mov    0xc(%ebp),%edi
8000192f:	89 f3                	mov    %esi,%ebx
80001931:	48                   	dec    %eax
80001932:	78 0c                	js     80001940 <FS_CheckELFHeader+0x30>
80001934:	8a 0b                	mov    (%ebx),%cl
80001936:	43                   	inc    %ebx
80001937:	38 0a                	cmp    %cl,(%edx)
80001939:	75 09                	jne    80001944 <FS_CheckELFHeader+0x34>
8000193b:	42                   	inc    %edx
8000193c:	84 c9                	test   %cl,%cl
8000193e:	75 f1                	jne    80001931 <FS_CheckELFHeader+0x21>
80001940:	31 c9                	xor    %ecx,%ecx
80001942:	eb 09                	jmp    8000194d <FS_CheckELFHeader+0x3d>
80001944:	b9 01 00 00 00       	mov    $0x1,%ecx
80001949:	72 02                	jb     8000194d <FS_CheckELFHeader+0x3d>
8000194b:	f7 d9                	neg    %ecx
8000194d:	85 c9                	test   %ecx,%ecx
8000194f:	75 7f                	jne    800019d0 <FS_CheckELFHeader+0xc0>
80001951:	80 7e 04 01          	cmpb   $0x1,0x4(%esi)
80001955:	74 29                	je     80001980 <FS_CheckELFHeader+0x70>
80001957:	89 7c 24 08          	mov    %edi,0x8(%esp,1)
8000195b:	c7 44 24 04 20 91 00 	movl   $0x80009120,0x4(%esp,1)
80001962:	80 
80001963:	c7 04 24 50 8f 00 80 	movl   $0x80008f50,(%esp,1)
8000196a:	e8 91 58 00 00       	call   80007200 <KPrint>
8000196f:	31 c0                	xor    %eax,%eax
80001971:	8b 5d f4             	mov    0xfffffff4(%ebp),%ebx
80001974:	8b 75 f8             	mov    0xfffffff8(%ebp),%esi
80001977:	8b 7d fc             	mov    0xfffffffc(%ebp),%edi
8000197a:	89 ec                	mov    %ebp,%esp
8000197c:	5d                   	pop    %ebp
8000197d:	c3                   	ret    
8000197e:	89 f6                	mov    %esi,%esi
80001980:	66 83 7e 10 01       	cmpw   $0x1,0x10(%esi)
80001985:	74 19                	je     800019a0 <FS_CheckELFHeader+0x90>
80001987:	89 7c 24 08          	mov    %edi,0x8(%esp,1)
8000198b:	c7 44 24 04 60 91 00 	movl   $0x80009160,0x4(%esp,1)
80001992:	80 
80001993:	eb ce                	jmp    80001963 <FS_CheckELFHeader+0x53>
80001995:	8d 74 26 00          	lea    0x0(%esi,1),%esi
80001999:	8d bc 27 00 00 00 00 	lea    0x0(%edi,1),%edi
800019a0:	66 83 7e 12 03       	cmpw   $0x3,0x12(%esi)
800019a5:	74 0e                	je     800019b5 <FS_CheckELFHeader+0xa5>
800019a7:	89 7c 24 08          	mov    %edi,0x8(%esp,1)
800019ab:	c7 44 24 04 a0 91 00 	movl   $0x800091a0,0x4(%esp,1)
800019b2:	80 
800019b3:	eb ae                	jmp    80001963 <FS_CheckELFHeader+0x53>
800019b5:	83 7e 14 01          	cmpl   $0x1,0x14(%esi)
800019b9:	74 0e                	je     800019c9 <FS_CheckELFHeader+0xb9>
800019bb:	89 7c 24 08          	mov    %edi,0x8(%esp,1)
800019bf:	c7 44 24 04 e0 91 00 	movl   $0x800091e0,0x4(%esp,1)
800019c6:	80 
800019c7:	eb 9a                	jmp    80001963 <FS_CheckELFHeader+0x53>
800019c9:	b8 01 00 00 00       	mov    $0x1,%eax
800019ce:	eb a1                	jmp    80001971 <FS_CheckELFHeader+0x61>
800019d0:	89 7c 24 08          	mov    %edi,0x8(%esp,1)
800019d4:	c7 44 24 04 14 92 00 	movl   $0x80009214,0x4(%esp,1)
800019db:	80 
800019dc:	eb 85                	jmp    80001963 <FS_CheckELFHeader+0x53>
800019de:	89 f6                	mov    %esi,%esi

800019e0 <FS_LoadElf>:
800019e0:	55                   	push   %ebp
800019e1:	89 e5                	mov    %esp,%ebp
800019e3:	81 ec b8 00 00 00    	sub    $0xb8,%esp
800019e9:	89 7d fc             	mov    %edi,0xfffffffc(%ebp)
800019ec:	8d 55 a4             	lea    0xffffffa4(%ebp),%edx
800019ef:	8b 7d 08             	mov    0x8(%ebp),%edi
800019f2:	89 54 24 08          	mov    %edx,0x8(%esp,1)
800019f6:	89 5d f4             	mov    %ebx,0xfffffff4(%ebp)
800019f9:	89 75 f8             	mov    %esi,0xfffffff8(%ebp)
800019fc:	c7 44 24 04 01 00 00 	movl   $0x1,0x4(%esp,1)
80001a03:	00 
80001a04:	89 3c 24             	mov    %edi,(%esp,1)
80001a07:	e8 24 0b 00 00       	call   80002530 <FS_Open>
80001a0c:	ba f9 ff ff ff       	mov    $0xfffffff9,%edx
80001a11:	85 c0                	test   %eax,%eax
80001a13:	74 1b                	je     80001a30 <FS_LoadElf+0x50>
80001a15:	8b 5d f4             	mov    0xfffffff4(%ebp),%ebx
80001a18:	89 d0                	mov    %edx,%eax
80001a1a:	8b 75 f8             	mov    0xfffffff8(%ebp),%esi
80001a1d:	8b 7d fc             	mov    0xfffffffc(%ebp),%edi
80001a20:	89 ec                	mov    %ebp,%esp
80001a22:	5d                   	pop    %ebp
80001a23:	c3                   	ret    
80001a24:	8d b6 00 00 00 00    	lea    0x0(%esi),%esi
80001a2a:	8d bf 00 00 00 00    	lea    0x0(%edi),%edi
80001a30:	c7 44 24 08 34 00 00 	movl   $0x34,0x8(%esp,1)
80001a37:	00 
80001a38:	8b 45 a4             	mov    0xffffffa4(%ebp),%eax
80001a3b:	8d 55 a0             	lea    0xffffffa0(%ebp),%edx
80001a3e:	89 54 24 0c          	mov    %edx,0xc(%esp,1)
80001a42:	8d 5d a8             	lea    0xffffffa8(%ebp),%ebx
80001a45:	89 5c 24 04          	mov    %ebx,0x4(%esp,1)
80001a49:	89 04 24             	mov    %eax,(%esp,1)
80001a4c:	e8 2f 0f 00 00       	call   80002980 <FS_Read>
80001a51:	ba f6 ff ff ff       	mov    $0xfffffff6,%edx
80001a56:	85 c0                	test   %eax,%eax
80001a58:	75 bb                	jne    80001a15 <FS_LoadElf+0x35>
80001a5a:	89 7c 24 04          	mov    %edi,0x4(%esp,1)
80001a5e:	89 1c 24             	mov    %ebx,(%esp,1)
80001a61:	e8 aa fe ff ff       	call   80001910 <FS_CheckELFHeader>
80001a66:	ba f5 ff ff ff       	mov    $0xfffffff5,%edx
80001a6b:	85 c0                	test   %eax,%eax
80001a6d:	74 a6                	je     80001a15 <FS_LoadElf+0x35>
80001a6f:	0f b7 7d d8          	movzwl 0xffffffd8(%ebp),%edi
80001a73:	8d 75 a0             	lea    0xffffffa0(%ebp),%esi
80001a76:	0f b7 45 d6          	movzwl 0xffffffd6(%ebp),%eax
80001a7a:	0f af f8             	imul   %eax,%edi
80001a7d:	89 3c 24             	mov    %edi,(%esp,1)
80001a80:	e8 db 29 00 00       	call   80004460 <MemoryManager_KAlloc>
80001a85:	89 45 94             	mov    %eax,0xffffff94(%ebp)
80001a88:	8b 45 c8             	mov    0xffffffc8(%ebp),%eax
80001a8b:	89 44 24 04          	mov    %eax,0x4(%esp,1)
80001a8f:	8b 45 a4             	mov    0xffffffa4(%ebp),%eax
80001a92:	89 04 24             	mov    %eax,(%esp,1)
80001a95:	e8 66 0f 00 00       	call   80002a00 <FS_Seek>
80001a9a:	8b 45 94             	mov    0xffffff94(%ebp),%eax
80001a9d:	0f b7 4d d8          	movzwl 0xffffffd8(%ebp),%ecx
80001aa1:	0f b7 5d d6          	movzwl 0xffffffd6(%ebp),%ebx
80001aa5:	89 44 24 04          	mov    %eax,0x4(%esp,1)
80001aa9:	8b 45 a4             	mov    0xffffffa4(%ebp),%eax
80001aac:	89 74 24 0c          	mov    %esi,0xc(%esp,1)
80001ab0:	0f af cb             	imul   %ebx,%ecx
80001ab3:	89 04 24             	mov    %eax,(%esp,1)
80001ab6:	89 4c 24 08          	mov    %ecx,0x8(%esp,1)
80001aba:	e8 c1 0e 00 00       	call   80002980 <FS_Read>
80001abf:	85 c0                	test   %eax,%eax
80001ac1:	0f 85 53 04 00 00    	jne    80001f1a <FS_LoadElf+0x53a>
80001ac7:	0f b7 55 d8          	movzwl 0xffffffd8(%ebp),%edx
80001acb:	c1 e2 04             	shl    $0x4,%edx
80001ace:	89 14 24             	mov    %edx,(%esp,1)
80001ad1:	e8 8a 29 00 00       	call   80004460 <MemoryManager_KAlloc>
80001ad6:	89 45 90             	mov    %eax,0xffffff90(%ebp)
80001ad9:	8b 45 d8             	mov    0xffffffd8(%ebp),%eax
80001adc:	c7 45 8c 00 00 00 00 	movl   $0x0,0xffffff8c(%ebp)
80001ae3:	c7 45 9c 00 00 00 00 	movl   $0x0,0xffffff9c(%ebp)
80001aea:	66 85 c0             	test   %ax,%ax
80001aed:	66 89 85 70 ff ff ff 	mov    %ax,0xffffff70(%ebp)
80001af4:	74 52                	je     80001b48 <FS_LoadElf+0x168>
80001af6:	8b 5d 90             	mov    0xffffff90(%ebp),%ebx
80001af9:	0f b7 4d d6          	movzwl 0xffffffd6(%ebp),%ecx
80001afd:	c7 43 04 00 00 00 00 	movl   $0x0,0x4(%ebx)
80001b04:	8b 75 9c             	mov    0xffffff9c(%ebp),%esi
80001b07:	c7 03 00 00 00 00    	movl   $0x0,(%ebx)
80001b0d:	c7 43 0c 00 00 00 00 	movl   $0x0,0xc(%ebx)
80001b14:	0f af ce             	imul   %esi,%ecx
80001b17:	8b 75 94             	mov    0xffffff94(%ebp),%esi
80001b1a:	01 ce                	add    %ecx,%esi
80001b1c:	8b 46 04             	mov    0x4(%esi),%eax
80001b1f:	83 f8 02             	cmp    $0x2,%eax
80001b22:	72 12                	jb     80001b36 <FS_LoadElf+0x156>
80001b24:	83 f8 03             	cmp    $0x3,%eax
80001b27:	0f 86 16 04 00 00    	jbe    80001f43 <FS_LoadElf+0x563>
80001b2d:	83 f8 09             	cmp    $0x9,%eax
80001b30:	0f 84 0d 04 00 00    	je     80001f43 <FS_LoadElf+0x563>
80001b36:	ff 45 9c             	incl   0xffffff9c(%ebp)
80001b39:	83 c3 10             	add    $0x10,%ebx
80001b3c:	0f b7 b5 70 ff ff ff 	movzwl 0xffffff70(%ebp),%esi
80001b43:	39 75 9c             	cmp    %esi,0xffffff9c(%ebp)
80001b46:	72 b1                	jb     80001af9 <FS_LoadElf+0x119>
80001b48:	66 83 bd 70 ff ff ff 	cmpw   $0x0,0xffffff70(%ebp)
80001b4f:	00 
80001b50:	c7 45 9c 00 00 00 00 	movl   $0x0,0xffffff9c(%ebp)
80001b57:	8b 45 0c             	mov    0xc(%ebp),%eax
80001b5a:	8b 38                	mov    (%eax),%edi
80001b5c:	89 7d 88             	mov    %edi,0xffffff88(%ebp)
80001b5f:	74 39                	je     80001b9a <FS_LoadElf+0x1ba>
80001b61:	8b 75 90             	mov    0xffffff90(%ebp),%esi
80001b64:	0f b7 4d d6          	movzwl 0xffffffd6(%ebp),%ecx
80001b68:	8b 5d 9c             	mov    0xffffff9c(%ebp),%ebx
80001b6b:	0f af cb             	imul   %ebx,%ecx
80001b6e:	8b 5d 94             	mov    0xffffff94(%ebp),%ebx
80001b71:	01 cb                	add    %ecx,%ebx
80001b73:	8b 43 04             	mov    0x4(%ebx),%eax
80001b76:	83 f8 01             	cmp    $0x1,%eax
80001b79:	0f 84 f3 02 00 00    	je     80001e72 <FS_LoadElf+0x492>
80001b7f:	83 f8 08             	cmp    $0x8,%eax
80001b82:	0f 84 9f 02 00 00    	je     80001e27 <FS_LoadElf+0x447>
80001b88:	ff 45 9c             	incl   0xffffff9c(%ebp)
80001b8b:	83 c6 10             	add    $0x10,%esi
80001b8e:	0f b7 9d 70 ff ff ff 	movzwl 0xffffff70(%ebp),%ebx
80001b95:	39 5d 9c             	cmp    %ebx,0xffffff9c(%ebp)
80001b98:	72 ca                	jb     80001b64 <FS_LoadElf+0x184>
80001b9a:	f7 45 88 0f 00 00 00 	testl  $0xf,0xffffff88(%ebp)
80001ba1:	74 08                	je     80001bab <FS_LoadElf+0x1cb>
80001ba3:	83 65 88 f0          	andl   $0xfffffff0,0xffffff88(%ebp)
80001ba7:	83 45 88 10          	addl   $0x10,0xffffff88(%ebp)
80001bab:	66 83 bd 70 ff ff ff 	cmpw   $0x0,0xffffff70(%ebp)
80001bb2:	00 
80001bb3:	c7 45 80 00 00 00 00 	movl   $0x0,0xffffff80(%ebp)
80001bba:	8b 45 88             	mov    0xffffff88(%ebp),%eax
80001bbd:	c7 45 9c 00 00 00 00 	movl   $0x0,0xffffff9c(%ebp)
80001bc4:	89 45 84             	mov    %eax,0xffffff84(%ebp)
80001bc7:	89 85 7c ff ff ff    	mov    %eax,0xffffff7c(%ebp)
80001bcd:	74 41                	je     80001c10 <FS_LoadElf+0x230>
80001bcf:	0f b7 75 d6          	movzwl 0xffffffd6(%ebp),%esi
80001bd3:	66 89 b5 72 ff ff ff 	mov    %si,0xffffff72(%ebp)
80001bda:	0f b7 bd 72 ff ff ff 	movzwl 0xffffff72(%ebp),%edi
80001be1:	8b 4d 9c             	mov    0xffffff9c(%ebp),%ecx
80001be4:	8b 75 94             	mov    0xffffff94(%ebp),%esi
80001be7:	8b 45 9c             	mov    0xffffff9c(%ebp),%eax
80001bea:	0f af f9             	imul   %ecx,%edi
80001bed:	8b 55 90             	mov    0xffffff90(%ebp),%edx
80001bf0:	c1 e0 04             	shl    $0x4,%eax
80001bf3:	01 fe                	add    %edi,%esi
80001bf5:	01 c2                	add    %eax,%edx
80001bf7:	83 7e 04 09          	cmpl   $0x9,0x4(%esi)
80001bfb:	0f 84 b7 00 00 00    	je     80001cb8 <FS_LoadElf+0x2d8>
80001c01:	ff 45 9c             	incl   0xffffff9c(%ebp)
80001c04:	0f b7 b5 70 ff ff ff 	movzwl 0xffffff70(%ebp),%esi
80001c0b:	39 75 9c             	cmp    %esi,0xffffff9c(%ebp)
80001c0e:	72 ca                	jb     80001bda <FS_LoadElf+0x1fa>
80001c10:	8b 45 a4             	mov    0xffffffa4(%ebp),%eax
80001c13:	89 04 24             	mov    %eax,(%esp,1)
80001c16:	e8 d5 0c 00 00       	call   800028f0 <FS_Close>
80001c1b:	ba f2 ff ff ff       	mov    $0xfffffff2,%edx
80001c20:	85 c0                	test   %eax,%eax
80001c22:	0f 85 ed fd ff ff    	jne    80001a15 <FS_LoadElf+0x35>
80001c28:	8b 85 7c ff ff ff    	mov    0xffffff7c(%ebp),%eax
80001c2e:	89 45 88             	mov    %eax,0xffffff88(%ebp)
80001c31:	25 ff 0f 00 00       	and    $0xfff,%eax
80001c36:	74 0e                	je     80001c46 <FS_LoadElf+0x266>
80001c38:	81 65 88 00 f0 ff ff 	andl   $0xfffff000,0xffffff88(%ebp)
80001c3f:	81 45 88 00 10 00 00 	addl   $0x1000,0xffffff88(%ebp)
80001c46:	c7 45 9c 00 00 00 00 	movl   $0x0,0xffffff9c(%ebp)
80001c4d:	8b 7d 0c             	mov    0xc(%ebp),%edi
80001c50:	8b 5d c0             	mov    0xffffffc0(%ebp),%ebx
80001c53:	8b 4d 88             	mov    0xffffff88(%ebp),%ecx
80001c56:	8b 07                	mov    (%edi),%eax
80001c58:	01 c3                	add    %eax,%ebx
80001c5a:	66 83 7d d8 00       	cmpw   $0x0,0xffffffd8(%ebp)
80001c5f:	8b 45 10             	mov    0x10(%ebp),%eax
80001c62:	89 18                	mov    %ebx,(%eax)
80001c64:	89 0f                	mov    %ecx,(%edi)
80001c66:	74 1f                	je     80001c87 <FS_LoadElf+0x2a7>
80001c68:	8b 5d 90             	mov    0xffffff90(%ebp),%ebx
80001c6b:	8b 43 04             	mov    0x4(%ebx),%eax
80001c6e:	85 c0                	test   %eax,%eax
80001c70:	75 3c                	jne    80001cae <FS_LoadElf+0x2ce>
80001c72:	8b 03                	mov    (%ebx),%eax
80001c74:	85 c0                	test   %eax,%eax
80001c76:	75 2c                	jne    80001ca4 <FS_LoadElf+0x2c4>
80001c78:	ff 45 9c             	incl   0xffffff9c(%ebp)
80001c7b:	83 c3 10             	add    $0x10,%ebx
80001c7e:	0f b7 55 d8          	movzwl 0xffffffd8(%ebp),%edx
80001c82:	39 55 9c             	cmp    %edx,0xffffff9c(%ebp)
80001c85:	72 e4                	jb     80001c6b <FS_LoadElf+0x28b>
80001c87:	8b 45 90             	mov    0xffffff90(%ebp),%eax
80001c8a:	89 04 24             	mov    %eax,(%esp,1)
80001c8d:	e8 ee 27 00 00       	call   80004480 <MemoryManager_KFree>
80001c92:	8b 75 94             	mov    0xffffff94(%ebp),%esi
80001c95:	89 34 24             	mov    %esi,(%esp,1)
80001c98:	e8 e3 27 00 00       	call   80004480 <MemoryManager_KFree>
80001c9d:	31 d2                	xor    %edx,%edx
80001c9f:	e9 71 fd ff ff       	jmp    80001a15 <FS_LoadElf+0x35>
80001ca4:	89 04 24             	mov    %eax,(%esp,1)
80001ca7:	e8 d4 27 00 00       	call   80004480 <MemoryManager_KFree>
80001cac:	eb ca                	jmp    80001c78 <FS_LoadElf+0x298>
80001cae:	89 04 24             	mov    %eax,(%esp,1)
80001cb1:	e8 ca 27 00 00       	call   80004480 <MemoryManager_KFree>
80001cb6:	eb ba                	jmp    80001c72 <FS_LoadElf+0x292>
80001cb8:	c7 45 98 00 00 00 00 	movl   $0x0,0xffffff98(%ebp)
80001cbf:	8b 46 14             	mov    0x14(%esi),%eax
80001cc2:	89 c3                	mov    %eax,%ebx
80001cc4:	89 85 68 ff ff ff    	mov    %eax,0xffffff68(%ebp)
80001cca:	c1 eb 03             	shr    $0x3,%ebx
80001ccd:	39 5d 98             	cmp    %ebx,0xffffff98(%ebp)
80001cd0:	0f 83 2b ff ff ff    	jae    80001c01 <FS_LoadElf+0x221>
80001cd6:	8b 7a 04             	mov    0x4(%edx),%edi
80001cd9:	89 bd 6c ff ff ff    	mov    %edi,0xffffff6c(%ebp)
80001cdf:	90                   	nop    
80001ce0:	8b 4d 98             	mov    0xffffff98(%ebp),%ecx
80001ce3:	8b 85 6c ff ff ff    	mov    0xffffff6c(%ebp),%eax
80001ce9:	8b 5d 90             	mov    0xffffff90(%ebp),%ebx
80001cec:	8d 14 c8             	lea    (%eax,%ecx,8),%edx
80001cef:	8b 7a 04             	mov    0x4(%edx),%edi
80001cf2:	0f b6 42 04          	movzbl 0x4(%edx),%eax
80001cf6:	8b 12                	mov    (%edx),%edx
80001cf8:	c1 ef 08             	shr    $0x8,%edi
80001cfb:	89 f9                	mov    %edi,%ecx
80001cfd:	c1 e1 04             	shl    $0x4,%ecx
80001d00:	89 85 64 ff ff ff    	mov    %eax,0xffffff64(%ebp)
80001d06:	8b 46 18             	mov    0x18(%esi),%eax
80001d09:	c1 e0 04             	shl    $0x4,%eax
80001d0c:	01 d8                	add    %ebx,%eax
80001d0e:	8b 58 04             	mov    0x4(%eax),%ebx
80001d11:	89 85 78 ff ff ff    	mov    %eax,0xffffff78(%ebp)
80001d17:	8b 46 1c             	mov    0x1c(%esi),%eax
80001d1a:	01 d9                	add    %ebx,%ecx
80001d1c:	8b 5d 90             	mov    0xffffff90(%ebp),%ebx
80001d1f:	c1 e0 04             	shl    $0x4,%eax
80001d22:	03 54 18 0c          	add    0xc(%eax,%ebx,1),%edx
80001d26:	0f b7 41 0e          	movzwl 0xe(%ecx),%eax
80001d2a:	c1 e0 04             	shl    $0x4,%eax
80001d2d:	01 d8                	add    %ebx,%eax
80001d2f:	83 bd 64 ff ff ff 0a 	cmpl   $0xa,0xffffff64(%ebp)
80001d36:	89 85 74 ff ff ff    	mov    %eax,0xffffff74(%ebp)
80001d3c:	77 26                	ja     80001d64 <FS_LoadElf+0x384>
80001d3e:	8b 85 64 ff ff ff    	mov    0xffffff64(%ebp),%eax
80001d44:	ff 24 85 34 92 00 80 	jmp    *0x80009234(,%eax,4)
80001d4b:	8b 9d 74 ff ff ff    	mov    0xffffff74(%ebp),%ebx
80001d51:	8b 41 04             	mov    0x4(%ecx),%eax
80001d54:	8b 7b 0c             	mov    0xc(%ebx),%edi
80001d57:	01 f8                	add    %edi,%eax
80001d59:	01 02                	add    %eax,(%edx)
80001d5b:	8b 56 14             	mov    0x14(%esi),%edx
80001d5e:	89 95 68 ff ff ff    	mov    %edx,0xffffff68(%ebp)
80001d64:	ff 45 98             	incl   0xffffff98(%ebp)
80001d67:	8b 85 68 ff ff ff    	mov    0xffffff68(%ebp),%eax
80001d6d:	c1 e8 03             	shr    $0x3,%eax
80001d70:	39 45 98             	cmp    %eax,0xffffff98(%ebp)
80001d73:	0f 82 67 ff ff ff    	jb     80001ce0 <FS_LoadElf+0x300>
80001d79:	e9 83 fe ff ff       	jmp    80001c01 <FS_LoadElf+0x221>
80001d7e:	8b bd 74 ff ff ff    	mov    0xffffff74(%ebp),%edi
80001d84:	8b 41 04             	mov    0x4(%ecx),%eax
80001d87:	8b 5f 0c             	mov    0xc(%edi),%ebx
80001d8a:	01 d8                	add    %ebx,%eax
80001d8c:	29 d0                	sub    %edx,%eax
80001d8e:	eb c9                	jmp    80001d59 <FS_LoadElf+0x379>
80001d90:	8b 9d 78 ff ff ff    	mov    0xffffff78(%ebp),%ebx
80001d96:	8b 03                	mov    (%ebx),%eax
80001d98:	8b 1c b8             	mov    (%eax,%edi,4),%ebx
80001d9b:	85 db                	test   %ebx,%ebx
80001d9d:	75 1f                	jne    80001dbe <FS_LoadElf+0x3de>
80001d9f:	8b 5d 88             	mov    0xffffff88(%ebp),%ebx
80001da2:	89 1c b8             	mov    %ebx,(%eax,%edi,4)
80001da5:	8b 41 08             	mov    0x8(%ecx),%eax
80001da8:	01 c3                	add    %eax,%ebx
80001daa:	89 5d 88             	mov    %ebx,0xffffff88(%ebp)
80001dad:	f7 c3 03 00 00 00    	test   $0x3,%ebx
80001db3:	74 09                	je     80001dbe <FS_LoadElf+0x3de>
80001db5:	83 e3 fc             	and    $0xfffffffc,%ebx
80001db8:	83 c3 04             	add    $0x4,%ebx
80001dbb:	89 5d 88             	mov    %ebx,0xffffff88(%ebp)
80001dbe:	8b bd 74 ff ff ff    	mov    0xffffff74(%ebp),%edi
80001dc4:	8b 41 04             	mov    0x4(%ecx),%eax
80001dc7:	8b 8d 7c ff ff ff    	mov    0xffffff7c(%ebp),%ecx
80001dcd:	8b 5f 0c             	mov    0xc(%edi),%ebx
80001dd0:	01 d8                	add    %ebx,%eax
80001dd2:	89 01                	mov    %eax,(%ecx)
80001dd4:	83 c1 04             	add    $0x4,%ecx
80001dd7:	8b 45 80             	mov    0xffffff80(%ebp),%eax
80001dda:	89 8d 7c ff ff ff    	mov    %ecx,0xffffff7c(%ebp)
80001de0:	89 02                	mov    %eax,(%edx)
80001de2:	83 c0 04             	add    $0x4,%eax
80001de5:	89 45 80             	mov    %eax,0xffffff80(%ebp)
80001de8:	8b 46 14             	mov    0x14(%esi),%eax
80001deb:	89 85 68 ff ff ff    	mov    %eax,0xffffff68(%ebp)
80001df1:	e9 6e ff ff ff       	jmp    80001d64 <FS_LoadElf+0x384>
80001df6:	8b 5d 0c             	mov    0xc(%ebp),%ebx
80001df9:	8b 41 04             	mov    0x4(%ecx),%eax
80001dfc:	8b 3b                	mov    (%ebx),%edi
80001dfe:	01 f8                	add    %edi,%eax
80001e00:	eb 8a                	jmp    80001d8c <FS_LoadElf+0x3ac>
80001e02:	8b bd 74 ff ff ff    	mov    0xffffff74(%ebp),%edi
80001e08:	8b 47 0c             	mov    0xc(%edi),%eax
80001e0b:	89 02                	mov    %eax,(%edx)
80001e0d:	e9 49 ff ff ff       	jmp    80001d5b <FS_LoadElf+0x37b>
80001e12:	8b 45 84             	mov    0xffffff84(%ebp),%eax
80001e15:	29 d0                	sub    %edx,%eax
80001e17:	01 02                	add    %eax,(%edx)
80001e19:	8b 46 14             	mov    0x14(%esi),%eax
80001e1c:	89 85 68 ff ff ff    	mov    %eax,0xffffff68(%ebp)
80001e22:	e9 3d ff ff ff       	jmp    80001d64 <FS_LoadElf+0x384>
80001e27:	8b 4b 20             	mov    0x20(%ebx),%ecx
80001e2a:	83 f9 01             	cmp    $0x1,%ecx
80001e2d:	76 15                	jbe    80001e44 <FS_LoadElf+0x464>
80001e2f:	8b 45 88             	mov    0xffffff88(%ebp),%eax
80001e32:	31 d2                	xor    %edx,%edx
80001e34:	f7 f1                	div    %ecx
80001e36:	85 d2                	test   %edx,%edx
80001e38:	74 0a                	je     80001e44 <FS_LoadElf+0x464>
80001e3a:	89 cf                	mov    %ecx,%edi
80001e3c:	f7 df                	neg    %edi
80001e3e:	21 7d 88             	and    %edi,0xffffff88(%ebp)
80001e41:	01 4d 88             	add    %ecx,0xffffff88(%ebp)
80001e44:	8b 4b 14             	mov    0x14(%ebx),%ecx
80001e47:	31 c0                	xor    %eax,%eax
80001e49:	8b 7d 88             	mov    0xffffff88(%ebp),%edi
80001e4c:	d1 e9                	shr    %ecx
80001e4e:	f3 66 ab             	repz stos %ax,%es:(%edi)
80001e51:	73 02                	jae    80001e55 <FS_LoadElf+0x475>
80001e53:	88 07                	mov    %al,(%edi)
80001e55:	8b 45 88             	mov    0xffffff88(%ebp),%eax
80001e58:	8b 53 14             	mov    0x14(%ebx),%edx
80001e5b:	8b 4d d8             	mov    0xffffffd8(%ebp),%ecx
80001e5e:	89 46 0c             	mov    %eax,0xc(%esi)
80001e61:	01 d0                	add    %edx,%eax
80001e63:	89 45 88             	mov    %eax,0xffffff88(%ebp)
80001e66:	66 89 8d 70 ff ff ff 	mov    %cx,0xffffff70(%ebp)
80001e6d:	e9 16 fd ff ff       	jmp    80001b88 <FS_LoadElf+0x1a8>
80001e72:	8b 4b 20             	mov    0x20(%ebx),%ecx
80001e75:	83 f9 01             	cmp    $0x1,%ecx
80001e78:	76 15                	jbe    80001e8f <FS_LoadElf+0x4af>
80001e7a:	8b 45 88             	mov    0xffffff88(%ebp),%eax
80001e7d:	31 d2                	xor    %edx,%edx
80001e7f:	f7 f1                	div    %ecx
80001e81:	85 d2                	test   %edx,%edx
80001e83:	74 0a                	je     80001e8f <FS_LoadElf+0x4af>
80001e85:	89 ca                	mov    %ecx,%edx
80001e87:	f7 da                	neg    %edx
80001e89:	21 55 88             	and    %edx,0xffffff88(%ebp)
80001e8c:	01 4d 88             	add    %ecx,0xffffff88(%ebp)
80001e8f:	8b 43 10             	mov    0x10(%ebx),%eax
80001e92:	89 44 24 04          	mov    %eax,0x4(%esp,1)
80001e96:	8b 45 a4             	mov    0xffffffa4(%ebp),%eax
80001e99:	89 04 24             	mov    %eax,(%esp,1)
80001e9c:	e8 5f 0b 00 00       	call   80002a00 <FS_Seek>
80001ea1:	8b 7d 88             	mov    0xffffff88(%ebp),%edi
80001ea4:	8d 4d a0             	lea    0xffffffa0(%ebp),%ecx
80001ea7:	89 4c 24 0c          	mov    %ecx,0xc(%esp,1)
80001eab:	8b 43 14             	mov    0x14(%ebx),%eax
80001eae:	89 7c 24 04          	mov    %edi,0x4(%esp,1)
80001eb2:	89 44 24 08          	mov    %eax,0x8(%esp,1)
80001eb6:	8b 45 a4             	mov    0xffffffa4(%ebp),%eax
80001eb9:	89 04 24             	mov    %eax,(%esp,1)
80001ebc:	e8 bf 0a 00 00       	call   80002980 <FS_Read>
80001ec1:	85 c0                	test   %eax,%eax
80001ec3:	75 1d                	jne    80001ee2 <FS_LoadElf+0x502>
80001ec5:	8b 55 88             	mov    0xffffff88(%ebp),%edx
80001ec8:	8b 43 14             	mov    0x14(%ebx),%eax
80001ecb:	89 56 0c             	mov    %edx,0xc(%esi)
80001ece:	01 c2                	add    %eax,%edx
80001ed0:	8b 45 d8             	mov    0xffffffd8(%ebp),%eax
80001ed3:	89 55 88             	mov    %edx,0xffffff88(%ebp)
80001ed6:	66 89 85 70 ff ff ff 	mov    %ax,0xffffff70(%ebp)
80001edd:	e9 a6 fc ff ff       	jmp    80001b88 <FS_LoadElf+0x1a8>
80001ee2:	66 83 7d d8 00       	cmpw   $0x0,0xffffffd8(%ebp)
80001ee7:	c7 45 9c 00 00 00 00 	movl   $0x0,0xffffff9c(%ebp)
80001eee:	74 1f                	je     80001f0f <FS_LoadElf+0x52f>
80001ef0:	8b 5d 90             	mov    0xffffff90(%ebp),%ebx
80001ef3:	8b 43 04             	mov    0x4(%ebx),%eax
80001ef6:	85 c0                	test   %eax,%eax
80001ef8:	75 3f                	jne    80001f39 <FS_LoadElf+0x559>
80001efa:	8b 03                	mov    (%ebx),%eax
80001efc:	85 c0                	test   %eax,%eax
80001efe:	75 2f                	jne    80001f2f <FS_LoadElf+0x54f>
80001f00:	ff 45 9c             	incl   0xffffff9c(%ebp)
80001f03:	83 c3 10             	add    $0x10,%ebx
80001f06:	0f b7 7d d8          	movzwl 0xffffffd8(%ebp),%edi
80001f0a:	39 7d 9c             	cmp    %edi,0xffffff9c(%ebp)
80001f0d:	72 e4                	jb     80001ef3 <FS_LoadElf+0x513>
80001f0f:	8b 45 90             	mov    0xffffff90(%ebp),%eax
80001f12:	89 04 24             	mov    %eax,(%esp,1)
80001f15:	e8 66 25 00 00       	call   80004480 <MemoryManager_KFree>
80001f1a:	8b 4d 94             	mov    0xffffff94(%ebp),%ecx
80001f1d:	89 0c 24             	mov    %ecx,(%esp,1)
80001f20:	e8 5b 25 00 00       	call   80004480 <MemoryManager_KFree>
80001f25:	ba f6 ff ff ff       	mov    $0xfffffff6,%edx
80001f2a:	e9 e6 fa ff ff       	jmp    80001a15 <FS_LoadElf+0x35>
80001f2f:	89 04 24             	mov    %eax,(%esp,1)
80001f32:	e8 49 25 00 00       	call   80004480 <MemoryManager_KFree>
80001f37:	eb c7                	jmp    80001f00 <FS_LoadElf+0x520>
80001f39:	89 04 24             	mov    %eax,(%esp,1)
80001f3c:	e8 3f 25 00 00       	call   80004480 <MemoryManager_KFree>
80001f41:	eb b7                	jmp    80001efa <FS_LoadElf+0x51a>
80001f43:	e8 58 20 00 00       	call   80003fa0 <MemoryManager_Lock>
80001f48:	8b 46 14             	mov    0x14(%esi),%eax
80001f4b:	89 04 24             	mov    %eax,(%esp,1)
80001f4e:	e8 0d 25 00 00       	call   80004460 <MemoryManager_KAlloc>
80001f53:	83 7e 04 02          	cmpl   $0x2,0x4(%esi)
80001f57:	89 43 04             	mov    %eax,0x4(%ebx)
80001f5a:	74 7f                	je     80001fdb <FS_LoadElf+0x5fb>
80001f5c:	e8 5f 20 00 00       	call   80003fc0 <MemoryManager_Unlock>
80001f61:	8b 46 10             	mov    0x10(%esi),%eax
80001f64:	8d 7d a0             	lea    0xffffffa0(%ebp),%edi
80001f67:	89 44 24 04          	mov    %eax,0x4(%esp,1)
80001f6b:	8b 45 a4             	mov    0xffffffa4(%ebp),%eax
80001f6e:	89 04 24             	mov    %eax,(%esp,1)
80001f71:	e8 8a 0a 00 00       	call   80002a00 <FS_Seek>
80001f76:	89 7c 24 0c          	mov    %edi,0xc(%esp,1)
80001f7a:	8b 46 14             	mov    0x14(%esi),%eax
80001f7d:	89 44 24 08          	mov    %eax,0x8(%esp,1)
80001f81:	8b 43 04             	mov    0x4(%ebx),%eax
80001f84:	89 44 24 04          	mov    %eax,0x4(%esp,1)
80001f88:	8b 45 a4             	mov    0xffffffa4(%ebp),%eax
80001f8b:	89 04 24             	mov    %eax,(%esp,1)
80001f8e:	e8 ed 09 00 00       	call   80002980 <FS_Read>
80001f93:	85 c0                	test   %eax,%eax
80001f95:	0f 85 47 ff ff ff    	jne    80001ee2 <FS_LoadElf+0x502>
80001f9b:	83 7e 04 03          	cmpl   $0x3,0x4(%esi)
80001f9f:	74 0f                	je     80001fb0 <FS_LoadElf+0x5d0>
80001fa1:	8b 4d d8             	mov    0xffffffd8(%ebp),%ecx
80001fa4:	66 89 8d 70 ff ff ff 	mov    %cx,0xffffff70(%ebp)
80001fab:	e9 86 fb ff ff       	jmp    80001b36 <FS_LoadElf+0x156>
80001fb0:	8b 45 8c             	mov    0xffffff8c(%ebp),%eax
80001fb3:	85 c0                	test   %eax,%eax
80001fb5:	74 0f                	je     80001fc6 <FS_LoadElf+0x5e6>
80001fb7:	8b 55 d8             	mov    0xffffffd8(%ebp),%edx
80001fba:	66 89 95 70 ff ff ff 	mov    %dx,0xffffff70(%ebp)
80001fc1:	e9 70 fb ff ff       	jmp    80001b36 <FS_LoadElf+0x156>
80001fc6:	8b 43 04             	mov    0x4(%ebx),%eax
80001fc9:	89 45 8c             	mov    %eax,0xffffff8c(%ebp)
80001fcc:	8b 45 d8             	mov    0xffffffd8(%ebp),%eax
80001fcf:	66 89 85 70 ff ff ff 	mov    %ax,0xffffff70(%ebp)
80001fd6:	e9 5b fb ff ff       	jmp    80001b36 <FS_LoadElf+0x156>
80001fdb:	8b 46 14             	mov    0x14(%esi),%eax
80001fde:	c1 e8 04             	shr    $0x4,%eax
80001fe1:	c1 e0 02             	shl    $0x2,%eax
80001fe4:	89 04 24             	mov    %eax,(%esp,1)
80001fe7:	e8 74 24 00 00       	call   80004460 <MemoryManager_KAlloc>
80001fec:	8b 4e 14             	mov    0x14(%esi),%ecx
80001fef:	89 c7                	mov    %eax,%edi
80001ff1:	89 03                	mov    %eax,(%ebx)
80001ff3:	31 c0                	xor    %eax,%eax
80001ff5:	c1 e9 04             	shr    $0x4,%ecx
80001ff8:	c1 e1 02             	shl    $0x2,%ecx
80001ffb:	d1 e9                	shr    %ecx
80001ffd:	f3 66 ab             	repz stos %ax,%es:(%edi)
80002000:	73 02                	jae    80002004 <FS_LoadElf+0x624>
80002002:	88 07                	mov    %al,(%edi)
80002004:	e9 53 ff ff ff       	jmp    80001f5c <FS_LoadElf+0x57c>
80002009:	00 00                	add    %al,(%eax)
8000200b:	00 00                	add    %al,(%eax)
8000200d:	00 00                	add    %al,(%eax)
	...

80002010 <FS_Mount>:
80002010:	55                   	push   %ebp
80002011:	89 e5                	mov    %esp,%ebp
80002013:	57                   	push   %edi
80002014:	56                   	push   %esi
80002015:	53                   	push   %ebx
80002016:	83 ec 1c             	sub    $0x1c,%esp
80002019:	e8 a2 38 00 00       	call   800058c0 <ObjectManager_Lock>
8000201e:	c7 04 24 60 92 00 80 	movl   $0x80009260,(%esp,1)
80002025:	e8 c6 3b 00 00       	call   80005bf0 <ObjectManager_ConstructPath>
8000202a:	8b 45 0c             	mov    0xc(%ebp),%eax
8000202d:	89 04 24             	mov    %eax,(%esp,1)
80002030:	e8 db 3c 00 00       	call   80005d10 <ObjectManager_ConstructKey>
80002035:	c7 44 24 04 0a 00 00 	movl   $0xa,0x4(%esp,1)
8000203c:	00 
8000203d:	c7 04 24 00 00 00 00 	movl   $0x0,(%esp,1)
80002044:	e8 a7 3e 00 00       	call   80005ef0 <ObjectManager_SearchNameInClass>
80002049:	85 c0                	test   %eax,%eax
8000204b:	89 c7                	mov    %eax,%edi
8000204d:	0f 84 2d 01 00 00    	je     80002180 <FS_Mount+0x170>
80002053:	8b 40 4c             	mov    0x4c(%eax),%eax
80002056:	c7 04 24 80 93 00 80 	movl   $0x80009380,(%esp,1)
8000205d:	89 45 f0             	mov    %eax,0xfffffff0(%ebp)
80002060:	e8 8b 3b 00 00       	call   80005bf0 <ObjectManager_ConstructPath>
80002065:	8b 45 10             	mov    0x10(%ebp),%eax
80002068:	89 04 24             	mov    %eax,(%esp,1)
8000206b:	e8 a0 3c 00 00       	call   80005d10 <ObjectManager_ConstructKey>
80002070:	c7 44 24 04 0b 00 00 	movl   $0xb,0x4(%esp,1)
80002077:	00 
80002078:	c7 04 24 00 00 00 00 	movl   $0x0,(%esp,1)
8000207f:	e8 6c 3e 00 00       	call   80005ef0 <ObjectManager_SearchNameInClass>
80002084:	85 c0                	test   %eax,%eax
80002086:	89 c6                	mov    %eax,%esi
80002088:	0f 84 c2 00 00 00    	je     80002150 <FS_Mount+0x140>
8000208e:	8b 58 4c             	mov    0x4c(%eax),%ebx
80002091:	c7 04 24 c0 93 00 80 	movl   $0x800093c0,(%esp,1)
80002098:	e8 53 3b 00 00       	call   80005bf0 <ObjectManager_ConstructPath>
8000209d:	8b 45 08             	mov    0x8(%ebp),%eax
800020a0:	89 04 24             	mov    %eax,(%esp,1)
800020a3:	e8 68 3c 00 00       	call   80005d10 <ObjectManager_ConstructKey>
800020a8:	c7 44 24 04 08 00 00 	movl   $0x8,0x4(%esp,1)
800020af:	00 
800020b0:	c7 04 24 0c 00 00 00 	movl   $0xc,(%esp,1)
800020b7:	e8 04 37 00 00       	call   800057c0 <ObjectManager_CreateObject>
800020bc:	8b 4d f0             	mov    0xfffffff0(%ebp),%ecx
800020bf:	8b 40 4c             	mov    0x4c(%eax),%eax
800020c2:	ff 47 48             	incl   0x48(%edi)
800020c5:	89 58 04             	mov    %ebx,0x4(%eax)
800020c8:	8b 59 14             	mov    0x14(%ecx),%ebx
800020cb:	89 08                	mov    %ecx,(%eax)
800020cd:	8b 45 14             	mov    0x14(%ebp),%eax
800020d0:	ff 46 48             	incl   0x48(%esi)
800020d3:	89 44 24 04          	mov    %eax,0x4(%esp,1)
800020d7:	8b 45 f0             	mov    0xfffffff0(%ebp),%eax
800020da:	89 04 24             	mov    %eax,(%esp,1)
800020dd:	ff d3                	call   *%ebx
800020df:	85 c0                	test   %eax,%eax
800020e1:	74 2d                	je     80002110 <FS_Mount+0x100>
800020e3:	89 7c 24 08          	mov    %edi,0x8(%esp,1)
800020e7:	c7 44 24 04 7b 92 00 	movl   $0x8000927b,0x4(%esp,1)
800020ee:	80 
800020ef:	c7 04 24 50 8f 00 80 	movl   $0x80008f50,(%esp,1)
800020f6:	e8 05 51 00 00       	call   80007200 <KPrint>
800020fb:	b8 f8 ff ff ff       	mov    $0xfffffff8,%eax
80002100:	83 c4 1c             	add    $0x1c,%esp
80002103:	5b                   	pop    %ebx
80002104:	5e                   	pop    %esi
80002105:	5f                   	pop    %edi
80002106:	5d                   	pop    %ebp
80002107:	c3                   	ret    
80002108:	90                   	nop    
80002109:	8d b4 26 00 00 00 00 	lea    0x0(%esi,1),%esi
80002110:	8b 5d f0             	mov    0xfffffff0(%ebp),%ebx
80002113:	89 1c 24             	mov    %ebx,(%esp,1)
80002116:	e8 e5 12 00 00       	call   80003400 <IOManager_RecalculateDevice>
8000211b:	e8 c0 37 00 00       	call   800058e0 <ObjectManager_Unlock>
80002120:	8b 7d 0c             	mov    0xc(%ebp),%edi
80002123:	8b 45 10             	mov    0x10(%ebp),%eax
80002126:	c7 44 24 04 00 94 00 	movl   $0x80009400,0x4(%esp,1)
8000212d:	80 
8000212e:	89 7c 24 0c          	mov    %edi,0xc(%esp,1)
80002132:	89 44 24 10          	mov    %eax,0x10(%esp,1)
80002136:	8b 45 08             	mov    0x8(%ebp),%eax
80002139:	c7 04 24 50 8f 00 80 	movl   $0x80008f50,(%esp,1)
80002140:	89 44 24 08          	mov    %eax,0x8(%esp,1)
80002144:	e8 b7 50 00 00       	call   80007200 <KPrint>
80002149:	31 c0                	xor    %eax,%eax
8000214b:	eb b3                	jmp    80002100 <FS_Mount+0xf0>
8000214d:	8d 76 00             	lea    0x0(%esi),%esi
80002150:	e8 8b 37 00 00       	call   800058e0 <ObjectManager_Unlock>
80002155:	c7 04 24 50 8f 00 80 	movl   $0x80008f50,(%esp,1)
8000215c:	8b 45 08             	mov    0x8(%ebp),%eax
8000215f:	8b 4d 10             	mov    0x10(%ebp),%ecx
80002162:	c7 44 24 04 40 94 00 	movl   $0x80009440,0x4(%esp,1)
80002169:	80 
8000216a:	89 44 24 08          	mov    %eax,0x8(%esp,1)
8000216e:	89 4c 24 0c          	mov    %ecx,0xc(%esp,1)
80002172:	e8 89 50 00 00       	call   80007200 <KPrint>
80002177:	b8 fa ff ff ff       	mov    $0xfffffffa,%eax
8000217c:	eb 82                	jmp    80002100 <FS_Mount+0xf0>
8000217e:	89 f6                	mov    %esi,%esi
80002180:	e8 5b 37 00 00       	call   800058e0 <ObjectManager_Unlock>
80002185:	c7 04 24 50 8f 00 80 	movl   $0x80008f50,(%esp,1)
8000218c:	8b 45 0c             	mov    0xc(%ebp),%eax
8000218f:	c7 44 24 04 80 94 00 	movl   $0x80009480,0x4(%esp,1)
80002196:	80 
80002197:	89 44 24 0c          	mov    %eax,0xc(%esp,1)
8000219b:	8b 45 08             	mov    0x8(%ebp),%eax
8000219e:	89 44 24 08          	mov    %eax,0x8(%esp,1)
800021a2:	e8 59 50 00 00       	call   80007200 <KPrint>
800021a7:	b8 f4 ff ff ff       	mov    $0xfffffff4,%eax
800021ac:	e9 4f ff ff ff       	jmp    80002100 <FS_Mount+0xf0>
800021b1:	eb 0d                	jmp    800021c0 <FS_Unmount>
800021b3:	90                   	nop    
800021b4:	90                   	nop    
800021b5:	90                   	nop    
800021b6:	90                   	nop    
800021b7:	90                   	nop    
800021b8:	90                   	nop    
800021b9:	90                   	nop    
800021ba:	90                   	nop    
800021bb:	90                   	nop    
800021bc:	90                   	nop    
800021bd:	90                   	nop    
800021be:	90                   	nop    
800021bf:	90                   	nop    

800021c0 <FS_Unmount>:
800021c0:	55                   	push   %ebp
800021c1:	89 e5                	mov    %esp,%ebp
800021c3:	83 ec 28             	sub    $0x28,%esp
800021c6:	89 7d fc             	mov    %edi,0xfffffffc(%ebp)
800021c9:	8b 7d 08             	mov    0x8(%ebp),%edi
800021cc:	89 5d f4             	mov    %ebx,0xfffffff4(%ebp)
800021cf:	89 75 f8             	mov    %esi,0xfffffff8(%ebp)
800021d2:	e8 e9 36 00 00       	call   800058c0 <ObjectManager_Lock>
800021d7:	c7 04 24 c0 93 00 80 	movl   $0x800093c0,(%esp,1)
800021de:	e8 0d 3a 00 00       	call   80005bf0 <ObjectManager_ConstructPath>
800021e3:	89 3c 24             	mov    %edi,(%esp,1)
800021e6:	e8 25 3b 00 00       	call   80005d10 <ObjectManager_ConstructKey>
800021eb:	c7 44 24 04 0c 00 00 	movl   $0xc,0x4(%esp,1)
800021f2:	00 
800021f3:	c7 04 24 00 00 00 00 	movl   $0x0,(%esp,1)
800021fa:	e8 f1 3c 00 00       	call   80005ef0 <ObjectManager_SearchNameInClass>
800021ff:	85 c0                	test   %eax,%eax
80002201:	89 c3                	mov    %eax,%ebx
80002203:	0f 84 b5 00 00 00    	je     800022be <FS_Unmount+0xfe>
80002209:	8b 40 4c             	mov    0x4c(%eax),%eax
8000220c:	8b 30                	mov    (%eax),%esi
8000220e:	8b 43 48             	mov    0x48(%ebx),%eax
80002211:	85 c0                	test   %eax,%eax
80002213:	74 3b                	je     80002250 <FS_Unmount+0x90>
80002215:	e8 c6 36 00 00       	call   800058e0 <ObjectManager_Unlock>
8000221a:	8b 43 48             	mov    0x48(%ebx),%eax
8000221d:	c7 04 24 50 8f 00 80 	movl   $0x80008f50,(%esp,1)
80002224:	89 7c 24 08          	mov    %edi,0x8(%esp,1)
80002228:	c7 44 24 04 c0 94 00 	movl   $0x800094c0,0x4(%esp,1)
8000222f:	80 
80002230:	89 44 24 0c          	mov    %eax,0xc(%esp,1)
80002234:	e8 c7 4f 00 00       	call   80007200 <KPrint>
80002239:	b8 f3 ff ff ff       	mov    $0xfffffff3,%eax
8000223e:	8b 5d f4             	mov    0xfffffff4(%ebp),%ebx
80002241:	8b 75 f8             	mov    0xfffffff8(%ebp),%esi
80002244:	8b 7d fc             	mov    0xfffffffc(%ebp),%edi
80002247:	89 ec                	mov    %ebp,%esp
80002249:	5d                   	pop    %ebp
8000224a:	c3                   	ret    
8000224b:	90                   	nop    
8000224c:	8d 74 26 00          	lea    0x0(%esi,1),%esi
80002250:	e8 8b 36 00 00       	call   800058e0 <ObjectManager_Unlock>
80002255:	8b 46 18             	mov    0x18(%esi),%eax
80002258:	89 34 24             	mov    %esi,(%esp,1)
8000225b:	ff d0                	call   *%eax
8000225d:	85 c0                	test   %eax,%eax
8000225f:	74 2f                	je     80002290 <FS_Unmount+0xd0>
80002261:	e8 7a 36 00 00       	call   800058e0 <ObjectManager_Unlock>
80002266:	89 34 24             	mov    %esi,(%esp,1)
80002269:	e8 42 3e 00 00       	call   800060b0 <ObjectManager_GetObjectContainingData>
8000226e:	89 44 24 08          	mov    %eax,0x8(%esp,1)
80002272:	c7 44 24 04 95 92 00 	movl   $0x80009295,0x4(%esp,1)
80002279:	80 
8000227a:	c7 04 24 50 8f 00 80 	movl   $0x80008f50,(%esp,1)
80002281:	e8 7a 4f 00 00       	call   80007200 <KPrint>
80002286:	b8 f1 ff ff ff       	mov    $0xfffffff1,%eax
8000228b:	eb b1                	jmp    8000223e <FS_Unmount+0x7e>
8000228d:	8d 76 00             	lea    0x0(%esi),%esi
80002290:	e8 2b 36 00 00       	call   800058c0 <ObjectManager_Lock>
80002295:	89 1c 24             	mov    %ebx,(%esp,1)
80002298:	e8 c3 3b 00 00       	call   80005e60 <ObjectManager_DeleteObject>
8000229d:	e8 3e 36 00 00       	call   800058e0 <ObjectManager_Unlock>
800022a2:	c7 04 24 50 8f 00 80 	movl   $0x80008f50,(%esp,1)
800022a9:	89 7c 24 08          	mov    %edi,0x8(%esp,1)
800022ad:	c7 44 24 04 00 95 00 	movl   $0x80009500,0x4(%esp,1)
800022b4:	80 
800022b5:	e8 46 4f 00 00       	call   80007200 <KPrint>
800022ba:	31 c0                	xor    %eax,%eax
800022bc:	eb 80                	jmp    8000223e <FS_Unmount+0x7e>
800022be:	e8 1d 36 00 00       	call   800058e0 <ObjectManager_Unlock>
800022c3:	c7 04 24 50 8f 00 80 	movl   $0x80008f50,(%esp,1)
800022ca:	89 7c 24 08          	mov    %edi,0x8(%esp,1)
800022ce:	c7 44 24 04 40 95 00 	movl   $0x80009540,0x4(%esp,1)
800022d5:	80 
800022d6:	e8 25 4f 00 00       	call   80007200 <KPrint>
800022db:	b8 fd ff ff ff       	mov    $0xfffffffd,%eax
800022e0:	e9 59 ff ff ff       	jmp    8000223e <FS_Unmount+0x7e>
800022e5:	8d 74 26 00          	lea    0x0(%esi,1),%esi
800022e9:	8d bc 27 00 00 00 00 	lea    0x0(%edi,1),%edi

800022f0 <FS_CheckFilename>:
800022f0:	55                   	push   %ebp
800022f1:	89 e5                	mov    %esp,%ebp
800022f3:	56                   	push   %esi
800022f4:	8b 4d 0c             	mov    0xc(%ebp),%ecx
800022f7:	53                   	push   %ebx
800022f8:	8b 75 08             	mov    0x8(%ebp),%esi
800022fb:	31 db                	xor    %ebx,%ebx
800022fd:	89 c8                	mov    %ecx,%eax
800022ff:	8a 10                	mov    (%eax),%dl
80002301:	40                   	inc    %eax
80002302:	84 d2                	test   %dl,%dl
80002304:	75 f9                	jne    800022ff <FS_CheckFilename+0xf>
80002306:	29 c8                	sub    %ecx,%eax
80002308:	48                   	dec    %eax
80002309:	39 c3                	cmp    %eax,%ebx
8000230b:	73 44                	jae    80002351 <FS_CheckFilename+0x61>
8000230d:	8d 76 00             	lea    0x0(%esi),%esi
80002310:	0f b6 14 0b          	movzbl (%ebx,%ecx,1),%edx
80002314:	88 d0                	mov    %dl,%al
80002316:	2c 41                	sub    $0x41,%al
80002318:	3c 19                	cmp    $0x19,%al
8000231a:	76 24                	jbe    80002340 <FS_CheckFilename+0x50>
8000231c:	2c 20                	sub    $0x20,%al
8000231e:	3c 19                	cmp    $0x19,%al
80002320:	76 1e                	jbe    80002340 <FS_CheckFilename+0x50>
80002322:	04 31                	add    $0x31,%al
80002324:	3c 09                	cmp    $0x9,%al
80002326:	76 18                	jbe    80002340 <FS_CheckFilename+0x50>
80002328:	0f b6 c2             	movzbl %dl,%eax
8000232b:	83 f8 2f             	cmp    $0x2f,%eax
8000232e:	74 3d                	je     8000236d <FS_CheckFilename+0x7d>
80002330:	83 f8 2f             	cmp    $0x2f,%eax
80002333:	7f 2b                	jg     80002360 <FS_CheckFilename+0x70>
80002335:	83 f8 2d             	cmp    $0x2d,%eax
80002338:	75 20                	jne    8000235a <FS_CheckFilename+0x6a>
8000233a:	8d b6 00 00 00 00    	lea    0x0(%esi),%esi
80002340:	43                   	inc    %ebx
80002341:	89 c8                	mov    %ecx,%eax
80002343:	8a 10                	mov    (%eax),%dl
80002345:	40                   	inc    %eax
80002346:	84 d2                	test   %dl,%dl
80002348:	75 f9                	jne    80002343 <FS_CheckFilename+0x53>
8000234a:	29 c8                	sub    %ecx,%eax
8000234c:	48                   	dec    %eax
8000234d:	39 c3                	cmp    %eax,%ebx
8000234f:	72 bf                	jb     80002310 <FS_CheckFilename+0x20>
80002351:	b8 01 00 00 00       	mov    $0x1,%eax
80002356:	5b                   	pop    %ebx
80002357:	5e                   	pop    %esi
80002358:	5d                   	pop    %ebp
80002359:	c3                   	ret    
8000235a:	31 c0                	xor    %eax,%eax
8000235c:	eb f8                	jmp    80002356 <FS_CheckFilename+0x66>
8000235e:	89 f6                	mov    %esi,%esi
80002360:	83 f8 3a             	cmp    $0x3a,%eax
80002363:	75 f5                	jne    8000235a <FS_CheckFilename+0x6a>
80002365:	31 c0                	xor    %eax,%eax
80002367:	85 f6                	test   %esi,%esi
80002369:	75 eb                	jne    80002356 <FS_CheckFilename+0x66>
8000236b:	eb d3                	jmp    80002340 <FS_CheckFilename+0x50>
8000236d:	31 c0                	xor    %eax,%eax
8000236f:	83 fe 01             	cmp    $0x1,%esi
80002372:	eb f5                	jmp    80002369 <FS_CheckFilename+0x79>
80002374:	8d b6 00 00 00 00    	lea    0x0(%esi),%esi
8000237a:	8d bf 00 00 00 00    	lea    0x0(%edi),%edi

80002380 <FS_Parse>:
80002380:	55                   	push   %ebp
80002381:	89 e5                	mov    %esp,%ebp
80002383:	57                   	push   %edi
80002384:	56                   	push   %esi
80002385:	53                   	push   %ebx
80002386:	83 ec 1c             	sub    $0x1c,%esp
80002389:	a1 14 ae 00 80       	mov    0x8000ae14,%eax
8000238e:	c6 00 00             	movb   $0x0,(%eax)
80002391:	a1 ec aa 00 80       	mov    0x8000aaec,%eax
80002396:	c6 00 00             	movb   $0x0,(%eax)
80002399:	a1 18 ae 00 80       	mov    0x8000ae18,%eax
8000239e:	c6 00 00             	movb   $0x0,(%eax)
800023a1:	8b 45 08             	mov    0x8(%ebp),%eax
800023a4:	8a 10                	mov    (%eax),%dl
800023a6:	40                   	inc    %eax
800023a7:	84 d2                	test   %dl,%dl
800023a9:	75 f9                	jne    800023a4 <FS_Parse+0x24>
800023ab:	31 f6                	xor    %esi,%esi
800023ad:	8b 4d 08             	mov    0x8(%ebp),%ecx
800023b0:	29 c8                	sub    %ecx,%eax
800023b2:	8d 78 ff             	lea    0xffffffff(%eax),%edi
800023b5:	39 fe                	cmp    %edi,%esi
800023b7:	73 19                	jae    800023d2 <FS_Parse+0x52>
800023b9:	8d b4 26 00 00 00 00 	lea    0x0(%esi,1),%esi
800023c0:	8b 45 08             	mov    0x8(%ebp),%eax
800023c3:	80 3c 06 3a          	cmpb   $0x3a,(%esi,%eax,1)
800023c7:	0f 84 01 01 00 00    	je     800024ce <FS_Parse+0x14e>
800023cd:	46                   	inc    %esi
800023ce:	39 fe                	cmp    %edi,%esi
800023d0:	72 ee                	jb     800023c0 <FS_Parse+0x40>
800023d2:	85 ff                	test   %edi,%edi
800023d4:	8b 1d ec aa 00 80    	mov    0x8000aaec,%ebx
800023da:	74 1e                	je     800023fa <FS_Parse+0x7a>
800023dc:	8b 75 08             	mov    0x8(%ebp),%esi
800023df:	89 d8                	mov    %ebx,%eax
800023e1:	8a 16                	mov    (%esi),%dl
800023e3:	46                   	inc    %esi
800023e4:	88 10                	mov    %dl,(%eax)
800023e6:	40                   	inc    %eax
800023e7:	4f                   	dec    %edi
800023e8:	74 0a                	je     800023f4 <FS_Parse+0x74>
800023ea:	84 d2                	test   %dl,%dl
800023ec:	75 f3                	jne    800023e1 <FS_Parse+0x61>
800023ee:	88 10                	mov    %dl,(%eax)
800023f0:	40                   	inc    %eax
800023f1:	4f                   	dec    %edi
800023f2:	75 fa                	jne    800023ee <FS_Parse+0x6e>
800023f4:	8b 1d ec aa 00 80    	mov    0x8000aaec,%ebx
800023fa:	89 d9                	mov    %ebx,%ecx
800023fc:	8a 11                	mov    (%ecx),%dl
800023fe:	41                   	inc    %ecx
800023ff:	84 d2                	test   %dl,%dl
80002401:	75 f9                	jne    800023fc <FS_Parse+0x7c>
80002403:	29 d9                	sub    %ebx,%ecx
80002405:	8d 71 ff             	lea    0xffffffff(%ecx),%esi
80002408:	85 f6                	test   %esi,%esi
8000240a:	89 f2                	mov    %esi,%edx
8000240c:	78 1b                	js     80002429 <FS_Parse+0xa9>
8000240e:	8b 1d ec aa 00 80    	mov    0x8000aaec,%ebx
80002414:	8d b6 00 00 00 00    	lea    0x0(%esi),%esi
8000241a:	8d bf 00 00 00 00    	lea    0x0(%edi),%edi
80002420:	80 3c 1e 2f          	cmpb   $0x2f,(%esi,%ebx,1)
80002424:	74 03                	je     80002429 <FS_Parse+0xa9>
80002426:	4e                   	dec    %esi
80002427:	79 f7                	jns    80002420 <FS_Parse+0xa0>
80002429:	83 fe ff             	cmp    $0xffffffff,%esi
8000242c:	74 36                	je     80002464 <FS_Parse+0xe4>
8000242e:	29 f2                	sub    %esi,%edx
80002430:	8b 1d ec aa 00 80    	mov    0x8000aaec,%ebx
80002436:	89 d1                	mov    %edx,%ecx
80002438:	49                   	dec    %ecx
80002439:	a1 18 ae 00 80       	mov    0x8000ae18,%eax
8000243e:	8d 7c 1e 01          	lea    0x1(%esi,%ebx,1),%edi
80002442:	74 1b                	je     8000245f <FS_Parse+0xdf>
80002444:	89 c3                	mov    %eax,%ebx
80002446:	8a 07                	mov    (%edi),%al
80002448:	47                   	inc    %edi
80002449:	88 03                	mov    %al,(%ebx)
8000244b:	43                   	inc    %ebx
8000244c:	49                   	dec    %ecx
8000244d:	74 0a                	je     80002459 <FS_Parse+0xd9>
8000244f:	84 c0                	test   %al,%al
80002451:	75 f3                	jne    80002446 <FS_Parse+0xc6>
80002453:	88 03                	mov    %al,(%ebx)
80002455:	43                   	inc    %ebx
80002456:	49                   	dec    %ecx
80002457:	75 fa                	jne    80002453 <FS_Parse+0xd3>
80002459:	8b 1d ec aa 00 80    	mov    0x8000aaec,%ebx
8000245f:	c6 44 1e 01 00       	movb   $0x0,0x1(%esi,%ebx,1)
80002464:	c7 04 24 00 00 00 00 	movl   $0x0,(%esp,1)
8000246b:	a1 14 ae 00 80       	mov    0x8000ae14,%eax
80002470:	89 44 24 04          	mov    %eax,0x4(%esp,1)
80002474:	e8 77 fe ff ff       	call   800022f0 <FS_CheckFilename>
80002479:	ba fd ff ff ff       	mov    $0xfffffffd,%edx
8000247e:	48                   	dec    %eax
8000247f:	74 0a                	je     8000248b <FS_Parse+0x10b>
80002481:	83 c4 1c             	add    $0x1c,%esp
80002484:	89 d0                	mov    %edx,%eax
80002486:	5b                   	pop    %ebx
80002487:	5e                   	pop    %esi
80002488:	5f                   	pop    %edi
80002489:	5d                   	pop    %ebp
8000248a:	c3                   	ret    
8000248b:	c7 04 24 01 00 00 00 	movl   $0x1,(%esp,1)
80002492:	a1 ec aa 00 80       	mov    0x8000aaec,%eax
80002497:	89 44 24 04          	mov    %eax,0x4(%esp,1)
8000249b:	e8 50 fe ff ff       	call   800022f0 <FS_CheckFilename>
800024a0:	ba fc ff ff ff       	mov    $0xfffffffc,%edx
800024a5:	48                   	dec    %eax
800024a6:	75 d9                	jne    80002481 <FS_Parse+0x101>
800024a8:	c7 04 24 02 00 00 00 	movl   $0x2,(%esp,1)
800024af:	a1 18 ae 00 80       	mov    0x8000ae18,%eax
800024b4:	89 44 24 04          	mov    %eax,0x4(%esp,1)
800024b8:	e8 33 fe ff ff       	call   800022f0 <FS_CheckFilename>
800024bd:	31 c9                	xor    %ecx,%ecx
800024bf:	83 f8 01             	cmp    $0x1,%eax
800024c2:	0f 94 c1             	sete   %cl
800024c5:	8d 14 8d fc ff ff ff 	lea    0xfffffffc(,%ecx,4),%edx
800024cc:	eb b3                	jmp    80002481 <FS_Parse+0x101>
800024ce:	39 fe                	cmp    %edi,%esi
800024d0:	0f 83 fc fe ff ff    	jae    800023d2 <FS_Parse+0x52>
800024d6:	46                   	inc    %esi
800024d7:	8b 0d 14 ae 00 80    	mov    0x8000ae14,%ecx
800024dd:	74 18                	je     800024f7 <FS_Parse+0x177>
800024df:	8b 5d 08             	mov    0x8(%ebp),%ebx
800024e2:	89 f0                	mov    %esi,%eax
800024e4:	8a 13                	mov    (%ebx),%dl
800024e6:	43                   	inc    %ebx
800024e7:	88 11                	mov    %dl,(%ecx)
800024e9:	41                   	inc    %ecx
800024ea:	48                   	dec    %eax
800024eb:	74 0a                	je     800024f7 <FS_Parse+0x177>
800024ed:	84 d2                	test   %dl,%dl
800024ef:	75 f3                	jne    800024e4 <FS_Parse+0x164>
800024f1:	88 11                	mov    %dl,(%ecx)
800024f3:	41                   	inc    %ecx
800024f4:	48                   	dec    %eax
800024f5:	75 fa                	jne    800024f1 <FS_Parse+0x171>
800024f7:	8b 55 08             	mov    0x8(%ebp),%edx
800024fa:	89 f9                	mov    %edi,%ecx
800024fc:	8b 1d ec aa 00 80    	mov    0x8000aaec,%ebx
80002502:	01 f2                	add    %esi,%edx
80002504:	29 f1                	sub    %esi,%ecx
80002506:	89 55 f0             	mov    %edx,0xfffffff0(%ebp)
80002509:	0f 84 eb fe ff ff    	je     800023fa <FS_Parse+0x7a>
8000250f:	89 d6                	mov    %edx,%esi
80002511:	8a 06                	mov    (%esi),%al
80002513:	46                   	inc    %esi
80002514:	88 03                	mov    %al,(%ebx)
80002516:	43                   	inc    %ebx
80002517:	49                   	dec    %ecx
80002518:	74 0a                	je     80002524 <FS_Parse+0x1a4>
8000251a:	84 c0                	test   %al,%al
8000251c:	75 f3                	jne    80002511 <FS_Parse+0x191>
8000251e:	88 03                	mov    %al,(%ebx)
80002520:	43                   	inc    %ebx
80002521:	49                   	dec    %ecx
80002522:	75 fa                	jne    8000251e <FS_Parse+0x19e>
80002524:	e9 cb fe ff ff       	jmp    800023f4 <FS_Parse+0x74>
80002529:	8d b4 26 00 00 00 00 	lea    0x0(%esi,1),%esi

80002530 <FS_Open>:
80002530:	55                   	push   %ebp
80002531:	89 e5                	mov    %esp,%ebp
80002533:	57                   	push   %edi
80002534:	56                   	push   %esi
80002535:	53                   	push   %ebx
80002536:	81 ec 3c 01 00 00    	sub    $0x13c,%esp
8000253c:	8b 7d 08             	mov    0x8(%ebp),%edi
8000253f:	c7 04 24 e0 ad 00 80 	movl   $0x8000ade0,(%esp,1)
80002546:	e8 a5 10 00 00       	call   800035f0 <Lock_Lock>
8000254b:	ba 00 20 00 00       	mov    $0x2000,%edx
80002550:	89 f9                	mov    %edi,%ecx
80002552:	89 c8                	mov    %ecx,%eax
80002554:	eb 06                	jmp    8000255c <FS_Open+0x2c>
80002556:	80 38 00             	cmpb   $0x0,(%eax)
80002559:	74 07                	je     80002562 <FS_Open+0x32>
8000255b:	40                   	inc    %eax
8000255c:	4a                   	dec    %edx
8000255d:	83 fa ff             	cmp    $0xffffffff,%edx
80002560:	75 f4                	jne    80002556 <FS_Open+0x26>
80002562:	29 c8                	sub    %ecx,%eax
80002564:	3d ff 1f 00 00       	cmp    $0x1fff,%eax
80002569:	76 35                	jbe    800025a0 <FS_Open+0x70>
8000256b:	c7 04 24 e0 ad 00 80 	movl   $0x8000ade0,(%esp,1)
80002572:	e8 b9 10 00 00       	call   80003630 <Lock_Unlock>
80002577:	89 7c 24 08          	mov    %edi,0x8(%esp,1)
8000257b:	c7 44 24 04 b2 92 00 	movl   $0x800092b2,0x4(%esp,1)
80002582:	80 
80002583:	c7 04 24 50 8f 00 80 	movl   $0x80008f50,(%esp,1)
8000258a:	e8 71 4c 00 00       	call   80007200 <KPrint>
8000258f:	b8 ff ff ff ff       	mov    $0xffffffff,%eax
80002594:	81 c4 3c 01 00 00    	add    $0x13c,%esp
8000259a:	5b                   	pop    %ebx
8000259b:	5e                   	pop    %esi
8000259c:	5f                   	pop    %edi
8000259d:	5d                   	pop    %ebp
8000259e:	c3                   	ret    
8000259f:	90                   	nop    
800025a0:	89 3c 24             	mov    %edi,(%esp,1)
800025a3:	e8 d8 fd ff ff       	call   80002380 <FS_Parse>
800025a8:	85 c0                	test   %eax,%eax
800025aa:	74 34                	je     800025e0 <FS_Open+0xb0>
800025ac:	c7 04 24 e0 ad 00 80 	movl   $0x8000ade0,(%esp,1)
800025b3:	e8 78 10 00 00       	call   80003630 <Lock_Unlock>
800025b8:	89 7c 24 08          	mov    %edi,0x8(%esp,1)
800025bc:	c7 44 24 04 c9 92 00 	movl   $0x800092c9,0x4(%esp,1)
800025c3:	80 
800025c4:	c7 04 24 50 8f 00 80 	movl   $0x80008f50,(%esp,1)
800025cb:	e8 30 4c 00 00       	call   80007200 <KPrint>
800025d0:	b8 fe ff ff ff       	mov    $0xfffffffe,%eax
800025d5:	eb bd                	jmp    80002594 <FS_Open+0x64>
800025d7:	89 f6                	mov    %esi,%esi
800025d9:	8d bc 27 00 00 00 00 	lea    0x0(%edi,1),%edi
800025e0:	e8 db 32 00 00       	call   800058c0 <ObjectManager_Lock>
800025e5:	c7 04 24 c0 93 00 80 	movl   $0x800093c0,(%esp,1)
800025ec:	e8 ff 35 00 00       	call   80005bf0 <ObjectManager_ConstructPath>
800025f1:	a1 14 ae 00 80       	mov    0x8000ae14,%eax
800025f6:	89 04 24             	mov    %eax,(%esp,1)
800025f9:	e8 12 37 00 00       	call   80005d10 <ObjectManager_ConstructKey>
800025fe:	c7 44 24 04 0c 00 00 	movl   $0xc,0x4(%esp,1)
80002605:	00 
80002606:	c7 04 24 00 00 00 00 	movl   $0x0,(%esp,1)
8000260d:	e8 de 38 00 00       	call   80005ef0 <ObjectManager_SearchNameInClass>
80002612:	85 c0                	test   %eax,%eax
80002614:	0f 84 41 01 00 00    	je     8000275b <FS_Open+0x22b>
8000261a:	ff 40 48             	incl   0x48(%eax)
8000261d:	8d b5 e8 fe ff ff    	lea    0xfffffee8(%ebp),%esi
80002623:	8b 48 4c             	mov    0x4c(%eax),%ecx
80002626:	c7 04 24 80 95 00 80 	movl   $0x80009580,(%esp,1)
8000262d:	89 8d e4 fe ff ff    	mov    %ecx,0xfffffee4(%ebp)
80002633:	e8 b8 35 00 00       	call   80005bf0 <ObjectManager_ConstructPath>
80002638:	8d 95 e9 fe ff ff    	lea    0xfffffee9(%ebp),%edx
8000263e:	0f b6 1d e7 95 00 80 	movzbl 0x800095e7,%ebx
80002645:	89 14 24             	mov    %edx,(%esp,1)
80002648:	c7 44 24 08 ff 00 00 	movl   $0xff,0x8(%esp,1)
8000264f:	00 
80002650:	c7 44 24 04 00 00 00 	movl   $0x0,0x4(%esp,1)
80002657:	00 
80002658:	88 9d e8 fe ff ff    	mov    %bl,0xfffffee8(%ebp)
8000265e:	e8 8d 68 00 00       	call   80008ef0 <memset>
80002663:	a1 dc ad 00 80       	mov    0x8000addc,%eax
80002668:	89 34 24             	mov    %esi,(%esp,1)
8000266b:	c7 44 24 08 e1 92 00 	movl   $0x800092e1,0x8(%esp,1)
80002672:	80 
80002673:	89 44 24 0c          	mov    %eax,0xc(%esp,1)
80002677:	c7 44 24 04 00 01 00 	movl   $0x100,0x4(%esp,1)
8000267e:	00 
8000267f:	e8 3c 5b 00 00       	call   800081c0 <snprintf>
80002684:	89 34 24             	mov    %esi,(%esp,1)
80002687:	e8 84 36 00 00       	call   80005d10 <ObjectManager_ConstructKey>
8000268c:	c7 44 24 04 08 00 00 	movl   $0x8,0x4(%esp,1)
80002693:	00 
80002694:	c7 04 24 0d 00 00 00 	movl   $0xd,(%esp,1)
8000269b:	e8 20 31 00 00       	call   800057c0 <ObjectManager_CreateObject>
800026a0:	89 c6                	mov    %eax,%esi
800026a2:	a1 dc ad 00 80       	mov    0x8000addc,%eax
800026a7:	8b 5e 4c             	mov    0x4c(%esi),%ebx
800026aa:	89 46 34             	mov    %eax,0x34(%esi)
800026ad:	8b 85 e4 fe ff ff    	mov    0xfffffee4(%ebp),%eax
800026b3:	ff 05 dc ad 00 80    	incl   0x8000addc
800026b9:	c7 43 04 00 00 00 00 	movl   $0x0,0x4(%ebx)
800026c0:	89 03                	mov    %eax,(%ebx)
800026c2:	e8 19 32 00 00       	call   800058e0 <ObjectManager_Unlock>
800026c7:	8b 8d e4 fe ff ff    	mov    0xfffffee4(%ebp),%ecx
800026cd:	8b 41 04             	mov    0x4(%ecx),%eax
800026d0:	8b 10                	mov    (%eax),%edx
800026d2:	89 5c 24 10          	mov    %ebx,0x10(%esp,1)
800026d6:	a1 18 ae 00 80       	mov    0x8000ae18,%eax
800026db:	89 44 24 0c          	mov    %eax,0xc(%esp,1)
800026df:	a1 ec aa 00 80       	mov    0x8000aaec,%eax
800026e4:	89 44 24 08          	mov    %eax,0x8(%esp,1)
800026e8:	a1 14 ae 00 80       	mov    0x8000ae14,%eax
800026ed:	89 44 24 04          	mov    %eax,0x4(%esp,1)
800026f1:	8b 85 e4 fe ff ff    	mov    0xfffffee4(%ebp),%eax
800026f7:	89 04 24             	mov    %eax,(%esp,1)
800026fa:	ff d2                	call   *%edx
800026fc:	85 c0                	test   %eax,%eax
800026fe:	74 40                	je     80002740 <FS_Open+0x210>
80002700:	c7 04 24 e0 ad 00 80 	movl   $0x8000ade0,(%esp,1)
80002707:	e8 24 0f 00 00       	call   80003630 <Lock_Unlock>
8000270c:	e8 af 31 00 00       	call   800058c0 <ObjectManager_Lock>
80002711:	89 34 24             	mov    %esi,(%esp,1)
80002714:	e8 47 37 00 00       	call   80005e60 <ObjectManager_DeleteObject>
80002719:	e8 c2 31 00 00       	call   800058e0 <ObjectManager_Unlock>
8000271e:	89 7c 24 08          	mov    %edi,0x8(%esp,1)
80002722:	c7 44 24 04 eb 92 00 	movl   $0x800092eb,0x4(%esp,1)
80002729:	80 
8000272a:	c7 04 24 50 8f 00 80 	movl   $0x80008f50,(%esp,1)
80002731:	e8 ca 4a 00 00       	call   80007200 <KPrint>
80002736:	b8 f9 ff ff ff       	mov    $0xfffffff9,%eax
8000273b:	e9 54 fe ff ff       	jmp    80002594 <FS_Open+0x64>
80002740:	c7 04 24 e0 ad 00 80 	movl   $0x8000ade0,(%esp,1)
80002747:	e8 e4 0e 00 00       	call   80003630 <Lock_Unlock>
8000274c:	8b 45 10             	mov    0x10(%ebp),%eax
8000274f:	8b 7e 34             	mov    0x34(%esi),%edi
80002752:	89 38                	mov    %edi,(%eax)
80002754:	31 c0                	xor    %eax,%eax
80002756:	e9 39 fe ff ff       	jmp    80002594 <FS_Open+0x64>
8000275b:	c7 04 24 e0 ad 00 80 	movl   $0x8000ade0,(%esp,1)
80002762:	e8 c9 0e 00 00       	call   80003630 <Lock_Unlock>
80002767:	e8 74 31 00 00       	call   800058e0 <ObjectManager_Unlock>
8000276c:	a1 14 ae 00 80       	mov    0x8000ae14,%eax
80002771:	c7 44 24 04 05 93 00 	movl   $0x80009305,0x4(%esp,1)
80002778:	80 
80002779:	c7 04 24 50 8f 00 80 	movl   $0x80008f50,(%esp,1)
80002780:	89 44 24 08          	mov    %eax,0x8(%esp,1)
80002784:	e8 77 4a 00 00       	call   80007200 <KPrint>
80002789:	b8 fd ff ff ff       	mov    $0xfffffffd,%eax
8000278e:	e9 01 fe ff ff       	jmp    80002594 <FS_Open+0x64>
80002793:	8d b6 00 00 00 00    	lea    0x0(%esi),%esi
80002799:	8d bc 27 00 00 00 00 	lea    0x0(%edi,1),%edi

800027a0 <FS_LockInit>:
800027a0:	55                   	push   %ebp
800027a1:	89 e5                	mov    %esp,%ebp
800027a3:	83 ec 08             	sub    $0x8,%esp
800027a6:	c7 44 24 04 e0 ad 00 	movl   $0x8000ade0,0x4(%esp,1)
800027ad:	80 
800027ae:	c7 04 24 1c 93 00 80 	movl   $0x8000931c,(%esp,1)
800027b5:	e8 06 0e 00 00       	call   800035c0 <Lock_Init>
800027ba:	89 ec                	mov    %ebp,%esp
800027bc:	5d                   	pop    %ebp
800027bd:	c3                   	ret    
800027be:	89 f6                	mov    %esi,%esi

800027c0 <FS_Lock>:
800027c0:	55                   	push   %ebp
800027c1:	89 e5                	mov    %esp,%ebp
800027c3:	83 ec 08             	sub    $0x8,%esp
800027c6:	c7 04 24 e0 ad 00 80 	movl   $0x8000ade0,(%esp,1)
800027cd:	e8 1e 0e 00 00       	call   800035f0 <Lock_Lock>
800027d2:	89 ec                	mov    %ebp,%esp
800027d4:	5d                   	pop    %ebp
800027d5:	c3                   	ret    
800027d6:	8d 76 00             	lea    0x0(%esi),%esi
800027d9:	8d bc 27 00 00 00 00 	lea    0x0(%edi,1),%edi

800027e0 <FS_Unlock>:
800027e0:	55                   	push   %ebp
800027e1:	89 e5                	mov    %esp,%ebp
800027e3:	83 ec 08             	sub    $0x8,%esp
800027e6:	c7 04 24 e0 ad 00 80 	movl   $0x8000ade0,(%esp,1)
800027ed:	e8 3e 0e 00 00       	call   80003630 <Lock_Unlock>
800027f2:	89 ec                	mov    %ebp,%esp
800027f4:	5d                   	pop    %ebp
800027f5:	c3                   	ret    
800027f6:	8d 76 00             	lea    0x0(%esi),%esi
800027f9:	8d bc 27 00 00 00 00 	lea    0x0(%edi,1),%edi

80002800 <FS_Init>:
80002800:	55                   	push   %ebp
80002801:	89 e5                	mov    %esp,%ebp
80002803:	83 ec 08             	sub    $0x8,%esp
80002806:	c7 44 24 04 e0 ad 00 	movl   $0x8000ade0,0x4(%esp,1)
8000280d:	80 
8000280e:	c7 04 24 1c 93 00 80 	movl   $0x8000931c,(%esp,1)
80002815:	e8 a6 0d 00 00       	call   800035c0 <Lock_Init>
8000281a:	31 c0                	xor    %eax,%eax
8000281c:	c7 04 24 00 20 00 00 	movl   $0x2000,(%esp,1)
80002823:	a3 dc ad 00 80       	mov    %eax,0x8000addc
80002828:	e8 33 1c 00 00       	call   80004460 <MemoryManager_KAlloc>
8000282d:	a3 14 ae 00 80       	mov    %eax,0x8000ae14
80002832:	c7 04 24 00 20 00 00 	movl   $0x2000,(%esp,1)
80002839:	e8 22 1c 00 00       	call   80004460 <MemoryManager_KAlloc>
8000283e:	a3 ec aa 00 80       	mov    %eax,0x8000aaec
80002843:	c7 04 24 00 20 00 00 	movl   $0x2000,(%esp,1)
8000284a:	e8 11 1c 00 00       	call   80004460 <MemoryManager_KAlloc>
8000284f:	a3 18 ae 00 80       	mov    %eax,0x8000ae18
80002854:	c7 44 24 04 27 93 00 	movl   $0x80009327,0x4(%esp,1)
8000285b:	80 
8000285c:	c7 04 24 50 8f 00 80 	movl   $0x80008f50,(%esp,1)
80002863:	e8 98 49 00 00       	call   80007200 <KPrint>
80002868:	89 ec                	mov    %ebp,%esp
8000286a:	5d                   	pop    %ebp
8000286b:	c3                   	ret    
8000286c:	8d 74 26 00          	lea    0x0(%esi,1),%esi

80002870 <FS_RegisterFilesystem>:
80002870:	55                   	push   %ebp
80002871:	89 e5                	mov    %esp,%ebp
80002873:	83 ec 18             	sub    $0x18,%esp
80002876:	89 5d fc             	mov    %ebx,0xfffffffc(%ebp)
80002879:	8b 5d 08             	mov    0x8(%ebp),%ebx
8000287c:	e8 3f 30 00 00       	call   800058c0 <ObjectManager_Lock>
80002881:	c7 04 24 c0 95 00 80 	movl   $0x800095c0,(%esp,1)
80002888:	e8 63 33 00 00       	call   80005bf0 <ObjectManager_ConstructPath>
8000288d:	89 1c 24             	mov    %ebx,(%esp,1)
80002890:	e8 7b 34 00 00       	call   80005d10 <ObjectManager_ConstructKey>
80002895:	c7 44 24 04 08 00 00 	movl   $0x8,0x4(%esp,1)
8000289c:	00 
8000289d:	c7 04 24 0b 00 00 00 	movl   $0xb,(%esp,1)
800028a4:	e8 17 2f 00 00       	call   800057c0 <ObjectManager_CreateObject>
800028a9:	8b 40 4c             	mov    0x4c(%eax),%eax
800028ac:	c7 00 00 00 00 00    	movl   $0x0,(%eax)
800028b2:	c7 40 04 00 00 00 00 	movl   $0x0,0x4(%eax)
800028b9:	89 04 24             	mov    %eax,(%esp,1)
800028bc:	ff 55 0c             	call   *0xc(%ebp)
800028bf:	e8 1c 30 00 00       	call   800058e0 <ObjectManager_Unlock>
800028c4:	c7 04 24 50 8f 00 80 	movl   $0x80008f50,(%esp,1)
800028cb:	89 5c 24 08          	mov    %ebx,0x8(%esp,1)
800028cf:	c7 44 24 04 40 93 00 	movl   $0x80009340,0x4(%esp,1)
800028d6:	80 
800028d7:	e8 24 49 00 00       	call   80007200 <KPrint>
800028dc:	8b 5d fc             	mov    0xfffffffc(%ebp),%ebx
800028df:	31 c0                	xor    %eax,%eax
800028e1:	89 ec                	mov    %ebp,%esp
800028e3:	5d                   	pop    %ebp
800028e4:	c3                   	ret    
800028e5:	8d 74 26 00          	lea    0x0(%esi,1),%esi
800028e9:	8d bc 27 00 00 00 00 	lea    0x0(%edi,1),%edi

800028f0 <FS_Close>:
800028f0:	55                   	push   %ebp
800028f1:	89 e5                	mov    %esp,%ebp
800028f3:	83 ec 18             	sub    $0x18,%esp
800028f6:	89 75 fc             	mov    %esi,0xfffffffc(%ebp)
800028f9:	8b 75 08             	mov    0x8(%ebp),%esi
800028fc:	89 5d f8             	mov    %ebx,0xfffffff8(%ebp)
800028ff:	e8 bc 2f 00 00       	call   800058c0 <ObjectManager_Lock>
80002904:	c7 44 24 04 0d 00 00 	movl   $0xd,0x4(%esp,1)
8000290b:	00 
8000290c:	89 74 24 08          	mov    %esi,0x8(%esp,1)
80002910:	c7 04 24 00 00 00 00 	movl   $0x0,(%esp,1)
80002917:	e8 14 37 00 00       	call   80006030 <ObjectManager_SearchInClassTypeIndex>
8000291c:	85 c0                	test   %eax,%eax
8000291e:	89 c3                	mov    %eax,%ebx
80002920:	74 2e                	je     80002950 <FS_Close+0x60>
80002922:	8b 40 4c             	mov    0x4c(%eax),%eax
80002925:	8b 00                	mov    (%eax),%eax
80002927:	89 04 24             	mov    %eax,(%esp,1)
8000292a:	e8 81 37 00 00       	call   800060b0 <ObjectManager_GetObjectContainingData>
8000292f:	ff 48 48             	decl   0x48(%eax)
80002932:	89 1c 24             	mov    %ebx,(%esp,1)
80002935:	e8 26 35 00 00       	call   80005e60 <ObjectManager_DeleteObject>
8000293a:	e8 a1 2f 00 00       	call   800058e0 <ObjectManager_Unlock>
8000293f:	31 c0                	xor    %eax,%eax
80002941:	8b 5d f8             	mov    0xfffffff8(%ebp),%ebx
80002944:	8b 75 fc             	mov    0xfffffffc(%ebp),%esi
80002947:	89 ec                	mov    %ebp,%esp
80002949:	5d                   	pop    %ebp
8000294a:	c3                   	ret    
8000294b:	90                   	nop    
8000294c:	8d 74 26 00          	lea    0x0(%esi,1),%esi
80002950:	e8 8b 2f 00 00       	call   800058e0 <ObjectManager_Unlock>
80002955:	c7 04 24 50 8f 00 80 	movl   $0x80008f50,(%esp,1)
8000295c:	89 74 24 08          	mov    %esi,0x8(%esp,1)
80002960:	c7 44 24 04 5c 93 00 	movl   $0x8000935c,0x4(%esp,1)
80002967:	80 
80002968:	e8 93 48 00 00       	call   80007200 <KPrint>
8000296d:	b8 f7 ff ff ff       	mov    $0xfffffff7,%eax
80002972:	eb cd                	jmp    80002941 <FS_Close+0x51>
80002974:	8d b6 00 00 00 00    	lea    0x0(%esi),%esi
8000297a:	8d bf 00 00 00 00    	lea    0x0(%edi),%edi

80002980 <FS_Read>:
80002980:	55                   	push   %ebp
80002981:	89 e5                	mov    %esp,%ebp
80002983:	83 ec 18             	sub    $0x18,%esp
80002986:	89 75 fc             	mov    %esi,0xfffffffc(%ebp)
80002989:	8b 75 14             	mov    0x14(%ebp),%esi
8000298c:	89 5d f8             	mov    %ebx,0xfffffff8(%ebp)
8000298f:	c7 06 00 00 00 00    	movl   $0x0,(%esi)
80002995:	e8 26 2f 00 00       	call   800058c0 <ObjectManager_Lock>
8000299a:	c7 04 24 00 00 00 00 	movl   $0x0,(%esp,1)
800029a1:	8b 45 08             	mov    0x8(%ebp),%eax
800029a4:	c7 44 24 04 0d 00 00 	movl   $0xd,0x4(%esp,1)
800029ab:	00 
800029ac:	89 44 24 08          	mov    %eax,0x8(%esp,1)
800029b0:	e8 7b 36 00 00       	call   80006030 <ObjectManager_SearchInClassTypeIndex>
800029b5:	89 c3                	mov    %eax,%ebx
800029b7:	e8 24 2f 00 00       	call   800058e0 <ObjectManager_Unlock>
800029bc:	85 db                	test   %ebx,%ebx
800029be:	b8 f7 ff ff ff       	mov    $0xfffffff7,%eax
800029c3:	74 22                	je     800029e7 <FS_Read+0x67>
800029c5:	8b 4b 4c             	mov    0x4c(%ebx),%ecx
800029c8:	8b 01                	mov    (%ecx),%eax
800029ca:	8b 40 04             	mov    0x4(%eax),%eax
800029cd:	8b 58 04             	mov    0x4(%eax),%ebx
800029d0:	89 0c 24             	mov    %ecx,(%esp,1)
800029d3:	8b 45 10             	mov    0x10(%ebp),%eax
800029d6:	89 74 24 0c          	mov    %esi,0xc(%esp,1)
800029da:	89 44 24 08          	mov    %eax,0x8(%esp,1)
800029de:	8b 45 0c             	mov    0xc(%ebp),%eax
800029e1:	89 44 24 04          	mov    %eax,0x4(%esp,1)
800029e5:	ff d3                	call   *%ebx
800029e7:	8b 5d f8             	mov    0xfffffff8(%ebp),%ebx
800029ea:	8b 75 fc             	mov    0xfffffffc(%ebp),%esi
800029ed:	89 ec                	mov    %ebp,%esp
800029ef:	5d                   	pop    %ebp
800029f0:	c3                   	ret    
800029f1:	eb 0d                	jmp    80002a00 <FS_Seek>
800029f3:	90                   	nop    
800029f4:	90                   	nop    
800029f5:	90                   	nop    
800029f6:	90                   	nop    
800029f7:	90                   	nop    
800029f8:	90                   	nop    
800029f9:	90                   	nop    
800029fa:	90                   	nop    
800029fb:	90                   	nop    
800029fc:	90                   	nop    
800029fd:	90                   	nop    
800029fe:	90                   	nop    
800029ff:	90                   	nop    

80002a00 <FS_Seek>:
80002a00:	55                   	push   %ebp
80002a01:	89 e5                	mov    %esp,%ebp
80002a03:	83 ec 18             	sub    $0x18,%esp
80002a06:	89 5d fc             	mov    %ebx,0xfffffffc(%ebp)
80002a09:	e8 b2 2e 00 00       	call   800058c0 <ObjectManager_Lock>
80002a0e:	8b 45 08             	mov    0x8(%ebp),%eax
80002a11:	c7 44 24 04 0d 00 00 	movl   $0xd,0x4(%esp,1)
80002a18:	00 
80002a19:	c7 04 24 00 00 00 00 	movl   $0x0,(%esp,1)
80002a20:	89 44 24 08          	mov    %eax,0x8(%esp,1)
80002a24:	e8 07 36 00 00       	call   80006030 <ObjectManager_SearchInClassTypeIndex>
80002a29:	89 c3                	mov    %eax,%ebx
80002a2b:	e8 b0 2e 00 00       	call   800058e0 <ObjectManager_Unlock>
80002a30:	85 db                	test   %ebx,%ebx
80002a32:	b8 f7 ff ff ff       	mov    $0xfffffff7,%eax
80002a37:	74 0b                	je     80002a44 <FS_Seek+0x44>
80002a39:	8b 45 0c             	mov    0xc(%ebp),%eax
80002a3c:	8b 4b 4c             	mov    0x4c(%ebx),%ecx
80002a3f:	89 41 04             	mov    %eax,0x4(%ecx)
80002a42:	31 c0                	xor    %eax,%eax
80002a44:	8b 5d fc             	mov    0xfffffffc(%ebp),%ebx
80002a47:	89 ec                	mov    %ebp,%esp
80002a49:	5d                   	pop    %ebp
80002a4a:	c3                   	ret    
80002a4b:	00 00                	add    %al,(%eax)
80002a4d:	00 00                	add    %al,(%eax)
	...

80002a50 <InterruptManager_Init>:
80002a50:	55                   	push   %ebp
80002a51:	89 e5                	mov    %esp,%ebp
80002a53:	b8 20 ac 00 80       	mov    $0x8000ac20,%eax
80002a58:	53                   	push   %ebx
80002a59:	31 db                	xor    %ebx,%ebx
80002a5b:	83 ec 14             	sub    $0x14,%esp
80002a5e:	c7 04 98 00 00 00 00 	movl   $0x0,(%eax,%ebx,4)
80002a65:	43                   	inc    %ebx
80002a66:	83 fb 0f             	cmp    $0xf,%ebx
80002a69:	76 f3                	jbe    80002a5e <InterruptManager_Init+0xe>
80002a6b:	31 db                	xor    %ebx,%ebx
80002a6d:	8d 76 00             	lea    0x0(%esi),%esi
80002a70:	89 1c 24             	mov    %ebx,(%esp,1)
80002a73:	43                   	inc    %ebx
80002a74:	c7 44 24 04 34 0a 00 	movl   $0x80000a34,0x4(%esp,1)
80002a7b:	80 
80002a7c:	e8 9f 4f 00 00       	call   80007a20 <Descriptor_SetInterruptGate>
80002a81:	81 fb ff 00 00 00    	cmp    $0xff,%ebx
80002a87:	76 e7                	jbe    80002a70 <InterruptManager_Init+0x20>
80002a89:	c7 44 24 04 4a 0a 00 	movl   $0x80000a4a,0x4(%esp,1)
80002a90:	80 
80002a91:	c7 04 24 00 00 00 00 	movl   $0x0,(%esp,1)
80002a98:	e8 83 4f 00 00       	call   80007a20 <Descriptor_SetInterruptGate>
80002a9d:	c7 44 24 04 7b 0a 00 	movl   $0x80000a7b,0x4(%esp,1)
80002aa4:	80 
80002aa5:	c7 04 24 01 00 00 00 	movl   $0x1,(%esp,1)
80002aac:	e8 6f 4f 00 00       	call   80007a20 <Descriptor_SetInterruptGate>
80002ab1:	c7 44 24 04 9e 0a 00 	movl   $0x80000a9e,0x4(%esp,1)
80002ab8:	80 
80002ab9:	c7 04 24 02 00 00 00 	movl   $0x2,(%esp,1)
80002ac0:	e8 5b 4f 00 00       	call   80007a20 <Descriptor_SetInterruptGate>
80002ac5:	c7 44 24 04 c1 0a 00 	movl   $0x80000ac1,0x4(%esp,1)
80002acc:	80 
80002acd:	c7 04 24 03 00 00 00 	movl   $0x3,(%esp,1)
80002ad4:	e8 47 4f 00 00       	call   80007a20 <Descriptor_SetInterruptGate>
80002ad9:	c7 44 24 04 e4 0a 00 	movl   $0x80000ae4,0x4(%esp,1)
80002ae0:	80 
80002ae1:	c7 04 24 04 00 00 00 	movl   $0x4,(%esp,1)
80002ae8:	e8 33 4f 00 00       	call   80007a20 <Descriptor_SetInterruptGate>
80002aed:	c7 44 24 04 07 0b 00 	movl   $0x80000b07,0x4(%esp,1)
80002af4:	80 
80002af5:	c7 04 24 05 00 00 00 	movl   $0x5,(%esp,1)
80002afc:	e8 1f 4f 00 00       	call   80007a20 <Descriptor_SetInterruptGate>
80002b01:	c7 44 24 04 38 0b 00 	movl   $0x80000b38,0x4(%esp,1)
80002b08:	80 
80002b09:	c7 04 24 06 00 00 00 	movl   $0x6,(%esp,1)
80002b10:	e8 0b 4f 00 00       	call   80007a20 <Descriptor_SetInterruptGate>
80002b15:	c7 44 24 04 5b 0b 00 	movl   $0x80000b5b,0x4(%esp,1)
80002b1c:	80 
80002b1d:	c7 04 24 07 00 00 00 	movl   $0x7,(%esp,1)
80002b24:	e8 f7 4e 00 00       	call   80007a20 <Descriptor_SetInterruptGate>
80002b29:	c7 44 24 04 8c 0b 00 	movl   $0x80000b8c,0x4(%esp,1)
80002b30:	80 
80002b31:	c7 04 24 08 00 00 00 	movl   $0x8,(%esp,1)
80002b38:	e8 e3 4e 00 00       	call   80007a20 <Descriptor_SetInterruptGate>
80002b3d:	c7 44 24 04 b2 0b 00 	movl   $0x80000bb2,0x4(%esp,1)
80002b44:	80 
80002b45:	c7 04 24 09 00 00 00 	movl   $0x9,(%esp,1)
80002b4c:	e8 cf 4e 00 00       	call   80007a20 <Descriptor_SetInterruptGate>
80002b51:	c7 44 24 04 e3 0b 00 	movl   $0x80000be3,0x4(%esp,1)
80002b58:	80 
80002b59:	c7 04 24 0a 00 00 00 	movl   $0xa,(%esp,1)
80002b60:	e8 bb 4e 00 00       	call   80007a20 <Descriptor_SetInterruptGate>
80002b65:	c7 44 24 04 17 0c 00 	movl   $0x80000c17,0x4(%esp,1)
80002b6c:	80 
80002b6d:	c7 04 24 0b 00 00 00 	movl   $0xb,(%esp,1)
80002b74:	e8 a7 4e 00 00       	call   80007a20 <Descriptor_SetInterruptGate>
80002b79:	c7 44 24 04 4b 0c 00 	movl   $0x80000c4b,0x4(%esp,1)
80002b80:	80 
80002b81:	c7 04 24 0c 00 00 00 	movl   $0xc,(%esp,1)
80002b88:	e8 93 4e 00 00       	call   80007a20 <Descriptor_SetInterruptGate>
80002b8d:	c7 44 24 04 71 0c 00 	movl   $0x80000c71,0x4(%esp,1)
80002b94:	80 
80002b95:	c7 04 24 0d 00 00 00 	movl   $0xd,(%esp,1)
80002b9c:	e8 7f 4e 00 00       	call   80007a20 <Descriptor_SetInterruptGate>
80002ba1:	c7 44 24 04 97 0c 00 	movl   $0x80000c97,0x4(%esp,1)
80002ba8:	80 
80002ba9:	c7 04 24 0e 00 00 00 	movl   $0xe,(%esp,1)
80002bb0:	e8 6b 4e 00 00       	call   80007a20 <Descriptor_SetInterruptGate>
80002bb5:	c7 44 24 04 bb 0c 00 	movl   $0x80000cbb,0x4(%esp,1)
80002bbc:	80 
80002bbd:	c7 04 24 20 00 00 00 	movl   $0x20,(%esp,1)
80002bc4:	e8 57 4e 00 00       	call   80007a20 <Descriptor_SetInterruptGate>
80002bc9:	c7 44 24 04 ee 0c 00 	movl   $0x80000cee,0x4(%esp,1)
80002bd0:	80 
80002bd1:	c7 04 24 21 00 00 00 	movl   $0x21,(%esp,1)
80002bd8:	e8 43 4e 00 00       	call   80007a20 <Descriptor_SetInterruptGate>
80002bdd:	c7 44 24 04 21 0d 00 	movl   $0x80000d21,0x4(%esp,1)
80002be4:	80 
80002be5:	c7 04 24 22 00 00 00 	movl   $0x22,(%esp,1)
80002bec:	e8 2f 4e 00 00       	call   80007a20 <Descriptor_SetInterruptGate>
80002bf1:	c7 44 24 04 54 0d 00 	movl   $0x80000d54,0x4(%esp,1)
80002bf8:	80 
80002bf9:	c7 04 24 23 00 00 00 	movl   $0x23,(%esp,1)
80002c00:	e8 1b 4e 00 00       	call   80007a20 <Descriptor_SetInterruptGate>
80002c05:	c7 44 24 04 87 0d 00 	movl   $0x80000d87,0x4(%esp,1)
80002c0c:	80 
80002c0d:	c7 04 24 24 00 00 00 	movl   $0x24,(%esp,1)
80002c14:	e8 07 4e 00 00       	call   80007a20 <Descriptor_SetInterruptGate>
80002c19:	c7 44 24 04 ba 0d 00 	movl   $0x80000dba,0x4(%esp,1)
80002c20:	80 
80002c21:	c7 04 24 25 00 00 00 	movl   $0x25,(%esp,1)
80002c28:	e8 f3 4d 00 00       	call   80007a20 <Descriptor_SetInterruptGate>
80002c2d:	c7 44 24 04 ed 0d 00 	movl   $0x80000ded,0x4(%esp,1)
80002c34:	80 
80002c35:	c7 04 24 26 00 00 00 	movl   $0x26,(%esp,1)
80002c3c:	e8 df 4d 00 00       	call   80007a20 <Descriptor_SetInterruptGate>
80002c41:	c7 44 24 04 20 0e 00 	movl   $0x80000e20,0x4(%esp,1)
80002c48:	80 
80002c49:	c7 04 24 27 00 00 00 	movl   $0x27,(%esp,1)
80002c50:	e8 cb 4d 00 00       	call   80007a20 <Descriptor_SetInterruptGate>
80002c55:	c7 44 24 04 53 0e 00 	movl   $0x80000e53,0x4(%esp,1)
80002c5c:	80 
80002c5d:	c7 04 24 28 00 00 00 	movl   $0x28,(%esp,1)
80002c64:	e8 b7 4d 00 00       	call   80007a20 <Descriptor_SetInterruptGate>
80002c69:	c7 44 24 04 86 0e 00 	movl   $0x80000e86,0x4(%esp,1)
80002c70:	80 
80002c71:	c7 04 24 29 00 00 00 	movl   $0x29,(%esp,1)
80002c78:	e8 a3 4d 00 00       	call   80007a20 <Descriptor_SetInterruptGate>
80002c7d:	c7 44 24 04 b9 0e 00 	movl   $0x80000eb9,0x4(%esp,1)
80002c84:	80 
80002c85:	c7 04 24 2a 00 00 00 	movl   $0x2a,(%esp,1)
80002c8c:	e8 8f 4d 00 00       	call   80007a20 <Descriptor_SetInterruptGate>
80002c91:	c7 44 24 04 ec 0e 00 	movl   $0x80000eec,0x4(%esp,1)
80002c98:	80 
80002c99:	c7 04 24 2b 00 00 00 	movl   $0x2b,(%esp,1)
80002ca0:	e8 7b 4d 00 00       	call   80007a20 <Descriptor_SetInterruptGate>
80002ca5:	c7 44 24 04 1f 0f 00 	movl   $0x80000f1f,0x4(%esp,1)
80002cac:	80 
80002cad:	c7 04 24 2c 00 00 00 	movl   $0x2c,(%esp,1)
80002cb4:	e8 67 4d 00 00       	call   80007a20 <Descriptor_SetInterruptGate>
80002cb9:	c7 44 24 04 52 0f 00 	movl   $0x80000f52,0x4(%esp,1)
80002cc0:	80 
80002cc1:	c7 04 24 2d 00 00 00 	movl   $0x2d,(%esp,1)
80002cc8:	e8 53 4d 00 00       	call   80007a20 <Descriptor_SetInterruptGate>
80002ccd:	c7 44 24 04 85 0f 00 	movl   $0x80000f85,0x4(%esp,1)
80002cd4:	80 
80002cd5:	c7 04 24 2e 00 00 00 	movl   $0x2e,(%esp,1)
80002cdc:	e8 3f 4d 00 00       	call   80007a20 <Descriptor_SetInterruptGate>
80002ce1:	c7 44 24 04 b3 0f 00 	movl   $0x80000fb3,0x4(%esp,1)
80002ce8:	80 
80002ce9:	c7 04 24 2f 00 00 00 	movl   $0x2f,(%esp,1)
80002cf0:	e8 2b 4d 00 00       	call   80007a20 <Descriptor_SetInterruptGate>
80002cf5:	0f 01 1d 4c 08 00 80 	lidtl  0x8000084c
80002cfc:	c7 44 24 04 e7 96 00 	movl   $0x800096e7,0x4(%esp,1)
80002d03:	80 
80002d04:	c7 04 24 fa 96 00 80 	movl   $0x800096fa,(%esp,1)
80002d0b:	e8 f0 44 00 00       	call   80007200 <KPrint>
80002d10:	83 c4 14             	add    $0x14,%esp
80002d13:	5b                   	pop    %ebx
80002d14:	5d                   	pop    %ebp
80002d15:	c3                   	ret    
80002d16:	8d 76 00             	lea    0x0(%esi),%esi
80002d19:	8d bc 27 00 00 00 00 	lea    0x0(%edi,1),%edi

80002d20 <InterruptManager_Handle>:
80002d20:	55                   	push   %ebp
80002d21:	89 e5                	mov    %esp,%ebp
80002d23:	57                   	push   %edi
80002d24:	56                   	push   %esi
80002d25:	53                   	push   %ebx
80002d26:	83 ec 1c             	sub    $0x1c,%esp
80002d29:	8b 75 08             	mov    0x8(%ebp),%esi
80002d2c:	8b 7d 0c             	mov    0xc(%ebp),%edi
80002d2f:	8b 04 b5 20 ac 00 80 	mov    0x8000ac20(,%esi,4),%eax
80002d36:	85 c0                	test   %eax,%eax
80002d38:	74 76                	je     80002db0 <InterruptManager_Handle+0x90>
80002d3a:	0f b7 d6             	movzwl %si,%edx
80002d3d:	89 55 f0             	mov    %edx,0xfffffff0(%ebp)
80002d40:	89 14 24             	mov    %edx,(%esp,1)
80002d43:	e8 f8 43 00 00       	call   80007140 <PIC_MaskAndAcknowledge>
80002d48:	31 c0                	xor    %eax,%eax
80002d4a:	8b 1c b5 20 ac 00 80 	mov    0x8000ac20(,%esi,4),%ebx
80002d51:	85 db                	test   %ebx,%ebx
80002d53:	74 1c                	je     80002d71 <InterruptManager_Handle+0x51>
80002d55:	8d 74 26 00          	lea    0x0(%esi,1),%esi
80002d59:	8d bc 27 00 00 00 00 	lea    0x0(%edi,1),%edi
80002d60:	89 3c 24             	mov    %edi,(%esp,1)
80002d63:	ff 53 30             	call   *0x30(%ebx)
80002d66:	85 c0                	test   %eax,%eax
80002d68:	74 0b                	je     80002d75 <InterruptManager_Handle+0x55>
80002d6a:	8b 5b 34             	mov    0x34(%ebx),%ebx
80002d6d:	85 db                	test   %ebx,%ebx
80002d6f:	75 ef                	jne    80002d60 <InterruptManager_Handle+0x40>
80002d71:	85 c0                	test   %eax,%eax
80002d73:	75 12                	jne    80002d87 <InterruptManager_Handle+0x67>
80002d75:	8b 45 f0             	mov    0xfffffff0(%ebp),%eax
80002d78:	89 45 08             	mov    %eax,0x8(%ebp)
80002d7b:	83 c4 1c             	add    $0x1c,%esp
80002d7e:	5b                   	pop    %ebx
80002d7f:	5e                   	pop    %esi
80002d80:	5f                   	pop    %edi
80002d81:	5d                   	pop    %ebp
80002d82:	e9 39 43 00 00       	jmp    800070c0 <PIC_EnableIRQ>
80002d87:	89 74 24 08          	mov    %esi,0x8(%esp,1)
80002d8b:	c7 44 24 04 04 97 00 	movl   $0x80009704,0x4(%esp,1)
80002d92:	80 
80002d93:	c7 04 24 fa 96 00 80 	movl   $0x800096fa,(%esp,1)
80002d9a:	e8 61 44 00 00       	call   80007200 <KPrint>
80002d9f:	eb d4                	jmp    80002d75 <InterruptManager_Handle+0x55>
80002da1:	eb 0d                	jmp    80002db0 <InterruptManager_Handle+0x90>
80002da3:	90                   	nop    
80002da4:	90                   	nop    
80002da5:	90                   	nop    
80002da6:	90                   	nop    
80002da7:	90                   	nop    
80002da8:	90                   	nop    
80002da9:	90                   	nop    
80002daa:	90                   	nop    
80002dab:	90                   	nop    
80002dac:	90                   	nop    
80002dad:	90                   	nop    
80002dae:	90                   	nop    
80002daf:	90                   	nop    
80002db0:	89 74 24 08          	mov    %esi,0x8(%esp,1)
80002db4:	c7 44 24 04 1c 97 00 	movl   $0x8000971c,0x4(%esp,1)
80002dbb:	80 
80002dbc:	c7 04 24 fa 96 00 80 	movl   $0x800096fa,(%esp,1)
80002dc3:	e8 38 44 00 00       	call   80007200 <KPrint>
80002dc8:	0f b7 c6             	movzwl %si,%eax
80002dcb:	eb ab                	jmp    80002d78 <InterruptManager_Handle+0x58>
80002dcd:	8d 76 00             	lea    0x0(%esi),%esi

80002dd0 <InterruptManager_AttachHandler>:
80002dd0:	55                   	push   %ebp
80002dd1:	89 e5                	mov    %esp,%ebp
80002dd3:	57                   	push   %edi
80002dd4:	56                   	push   %esi
80002dd5:	53                   	push   %ebx
80002dd6:	83 ec 1c             	sub    $0x1c,%esp
80002dd9:	8b 7d 08             	mov    0x8(%ebp),%edi
80002ddc:	83 3d e4 aa 00 80 01 	cmpl   $0x1,0x8000aae4
80002de3:	0f 84 97 00 00 00    	je     80002e80 <InterruptManager_AttachHandler+0xb0>
80002de9:	c7 04 24 38 00 00 00 	movl   $0x38,(%esp,1)
80002df0:	89 fe                	mov    %edi,%esi
80002df2:	e8 69 16 00 00       	call   80004460 <MemoryManager_KAlloc>
80002df7:	ba 30 00 00 00       	mov    $0x30,%edx
80002dfc:	89 c3                	mov    %eax,%ebx
80002dfe:	8a 0e                	mov    (%esi),%cl
80002e00:	46                   	inc    %esi
80002e01:	88 0b                	mov    %cl,(%ebx)
80002e03:	43                   	inc    %ebx
80002e04:	4a                   	dec    %edx
80002e05:	74 0a                	je     80002e11 <InterruptManager_AttachHandler+0x41>
80002e07:	84 c9                	test   %cl,%cl
80002e09:	75 f3                	jne    80002dfe <InterruptManager_AttachHandler+0x2e>
80002e0b:	88 0b                	mov    %cl,(%ebx)
80002e0d:	43                   	inc    %ebx
80002e0e:	4a                   	dec    %edx
80002e0f:	75 fa                	jne    80002e0b <InterruptManager_AttachHandler+0x3b>
80002e11:	8b 75 10             	mov    0x10(%ebp),%esi
80002e14:	8b 4d 0c             	mov    0xc(%ebp),%ecx
80002e17:	89 70 30             	mov    %esi,0x30(%eax)
80002e1a:	be 20 ac 00 80       	mov    $0x8000ac20,%esi
80002e1f:	8b 1c 8e             	mov    (%esi,%ecx,4),%ebx
80002e22:	31 c9                	xor    %ecx,%ecx
80002e24:	85 db                	test   %ebx,%ebx
80002e26:	0f 94 c1             	sete   %cl
80002e29:	49                   	dec    %ecx
80002e2a:	21 cb                	and    %ecx,%ebx
80002e2c:	83 3d e4 aa 00 80 01 	cmpl   $0x1,0x8000aae4
80002e33:	8b 4d 0c             	mov    0xc(%ebp),%ecx
80002e36:	89 58 34             	mov    %ebx,0x34(%eax)
80002e39:	89 04 8e             	mov    %eax,(%esi,%ecx,4)
80002e3c:	74 32                	je     80002e70 <InterruptManager_AttachHandler+0xa0>
80002e3e:	89 7c 24 08          	mov    %edi,0x8(%esp,1)
80002e42:	8b 45 0c             	mov    0xc(%ebp),%eax
80002e45:	c7 44 24 04 80 97 00 	movl   $0x80009780,0x4(%esp,1)
80002e4c:	80 
80002e4d:	c7 04 24 fa 96 00 80 	movl   $0x800096fa,(%esp,1)
80002e54:	89 44 24 0c          	mov    %eax,0xc(%esp,1)
80002e58:	e8 a3 43 00 00       	call   80007200 <KPrint>
80002e5d:	83 c4 1c             	add    $0x1c,%esp
80002e60:	31 c0                	xor    %eax,%eax
80002e62:	5b                   	pop    %ebx
80002e63:	5e                   	pop    %esi
80002e64:	5f                   	pop    %edi
80002e65:	5d                   	pop    %ebp
80002e66:	c3                   	ret    
80002e67:	89 f6                	mov    %esi,%esi
80002e69:	8d bc 27 00 00 00 00 	lea    0x0(%edi,1),%edi
80002e70:	fb                   	sti    
80002e71:	eb cb                	jmp    80002e3e <InterruptManager_AttachHandler+0x6e>
80002e73:	8d b6 00 00 00 00    	lea    0x0(%esi),%esi
80002e79:	8d bc 27 00 00 00 00 	lea    0x0(%edi,1),%edi
80002e80:	fa                   	cli    
80002e81:	e9 63 ff ff ff       	jmp    80002de9 <InterruptManager_AttachHandler+0x19>
80002e86:	8d 76 00             	lea    0x0(%esi),%esi
80002e89:	8d bc 27 00 00 00 00 	lea    0x0(%edi,1),%edi

80002e90 <InterruptManager_EnableIRQ>:
80002e90:	55                   	push   %ebp
80002e91:	89 e5                	mov    %esp,%ebp
80002e93:	83 ec 18             	sub    $0x18,%esp
80002e96:	89 5d fc             	mov    %ebx,0xfffffffc(%ebp)
80002e99:	8b 5d 08             	mov    0x8(%ebp),%ebx
80002e9c:	0f b7 d3             	movzwl %bx,%edx
80002e9f:	89 14 24             	mov    %edx,(%esp,1)
80002ea2:	e8 19 42 00 00       	call   800070c0 <PIC_EnableIRQ>
80002ea7:	89 5c 24 08          	mov    %ebx,0x8(%esp,1)
80002eab:	c7 44 24 04 39 97 00 	movl   $0x80009739,0x4(%esp,1)
80002eb2:	80 
80002eb3:	c7 04 24 fa 96 00 80 	movl   $0x800096fa,(%esp,1)
80002eba:	e8 41 43 00 00       	call   80007200 <KPrint>
80002ebf:	8b 5d fc             	mov    0xfffffffc(%ebp),%ebx
80002ec2:	31 c0                	xor    %eax,%eax
80002ec4:	89 ec                	mov    %ebp,%esp
80002ec6:	5d                   	pop    %ebp
80002ec7:	c3                   	ret    
80002ec8:	90                   	nop    
80002ec9:	8d b4 26 00 00 00 00 	lea    0x0(%esi,1),%esi

80002ed0 <InterruptManager_Call_EnableInterrupt>:
80002ed0:	55                   	push   %ebp
80002ed1:	89 e5                	mov    %esp,%ebp
80002ed3:	83 ec 18             	sub    $0x18,%esp
80002ed6:	89 5d fc             	mov    %ebx,0xfffffffc(%ebp)
80002ed9:	8b 4d 0c             	mov    0xc(%ebp),%ecx
80002edc:	8b 41 0c             	mov    0xc(%ecx),%eax
80002edf:	8b 5c 81 10          	mov    0x10(%ecx,%eax,4),%ebx
80002ee3:	40                   	inc    %eax
80002ee4:	89 41 0c             	mov    %eax,0xc(%ecx)
80002ee7:	0f b7 d3             	movzwl %bx,%edx
80002eea:	89 14 24             	mov    %edx,(%esp,1)
80002eed:	e8 ce 41 00 00       	call   800070c0 <PIC_EnableIRQ>
80002ef2:	89 5c 24 08          	mov    %ebx,0x8(%esp,1)
80002ef6:	c7 44 24 04 39 97 00 	movl   $0x80009739,0x4(%esp,1)
80002efd:	80 
80002efe:	c7 04 24 fa 96 00 80 	movl   $0x800096fa,(%esp,1)
80002f05:	e8 f6 42 00 00       	call   80007200 <KPrint>
80002f0a:	8b 5d fc             	mov    0xfffffffc(%ebp),%ebx
80002f0d:	31 c0                	xor    %eax,%eax
80002f0f:	89 ec                	mov    %ebp,%esp
80002f11:	5d                   	pop    %ebp
80002f12:	c3                   	ret    
80002f13:	8d b6 00 00 00 00    	lea    0x0(%esi),%esi
80002f19:	8d bc 27 00 00 00 00 	lea    0x0(%edi,1),%edi

80002f20 <InterruptManager_Call_AttachHandler>:
80002f20:	55                   	push   %ebp
80002f21:	89 e5                	mov    %esp,%ebp
80002f23:	83 ec 18             	sub    $0x18,%esp
80002f26:	89 5d f8             	mov    %ebx,0xfffffff8(%ebp)
80002f29:	8b 55 0c             	mov    0xc(%ebp),%edx
80002f2c:	89 75 fc             	mov    %esi,0xfffffffc(%ebp)
80002f2f:	8b 42 0c             	mov    0xc(%edx),%eax
80002f32:	8b 74 82 10          	mov    0x10(%edx,%eax,4),%esi
80002f36:	8b 5c 82 14          	mov    0x14(%edx,%eax,4),%ebx
80002f3a:	8b 4c 82 18          	mov    0x18(%edx,%eax,4),%ecx
80002f3e:	83 c0 03             	add    $0x3,%eax
80002f41:	89 42 0c             	mov    %eax,0xc(%edx)
80002f44:	89 5c 24 04          	mov    %ebx,0x4(%esp,1)
80002f48:	89 34 24             	mov    %esi,(%esp,1)
80002f4b:	89 4c 24 08          	mov    %ecx,0x8(%esp,1)
80002f4f:	e8 7c fe ff ff       	call   80002dd0 <InterruptManager_AttachHandler>
80002f54:	8b 75 fc             	mov    0xfffffffc(%ebp),%esi
80002f57:	8b 5d f8             	mov    0xfffffff8(%ebp),%ebx
80002f5a:	89 ec                	mov    %ebp,%esp
80002f5c:	5d                   	pop    %ebp
80002f5d:	c3                   	ret    
80002f5e:	89 f6                	mov    %esi,%esi

80002f60 <InterruptManager_CreateModuleInterface>:
80002f60:	55                   	push   %ebp
80002f61:	89 e5                	mov    %esp,%ebp
80002f63:	83 ec 18             	sub    $0x18,%esp
80002f66:	c7 04 24 4c 97 00 80 	movl   $0x8000974c,(%esp,1)
80002f6d:	e8 6e 22 00 00       	call   800051e0 <ModuleManager_CreateModule>
80002f72:	c7 44 24 08 d0 2e 00 	movl   $0x80002ed0,0x8(%esp,1)
80002f79:	80 
80002f7a:	c7 44 24 04 5d 97 00 	movl   $0x8000975d,0x4(%esp,1)
80002f81:	80 
80002f82:	c7 04 24 4c 97 00 80 	movl   $0x8000974c,(%esp,1)
80002f89:	e8 f2 22 00 00       	call   80005280 <ModuleManager_CreateModuleCall>
80002f8e:	c7 44 24 08 20 2f 00 	movl   $0x80002f20,0x8(%esp,1)
80002f95:	80 
80002f96:	c7 44 24 04 6d 97 00 	movl   $0x8000976d,0x4(%esp,1)
80002f9d:	80 
80002f9e:	c7 04 24 4c 97 00 80 	movl   $0x8000974c,(%esp,1)
80002fa5:	e8 d6 22 00 00       	call   80005280 <ModuleManager_CreateModuleCall>
80002faa:	89 ec                	mov    %ebp,%esp
80002fac:	5d                   	pop    %ebp
80002fad:	c3                   	ret    
	...

80002fb0 <IOManager_Read>:
80002fb0:	55                   	push   %ebp
80002fb1:	89 e5                	mov    %esp,%ebp
80002fb3:	57                   	push   %edi
80002fb4:	56                   	push   %esi
80002fb5:	53                   	push   %ebx
80002fb6:	83 ec 2c             	sub    $0x2c,%esp
80002fb9:	8b 5d 0c             	mov    0xc(%ebp),%ebx
80002fbc:	c7 04 24 20 ae 00 80 	movl   $0x8000ae20,(%esp,1)
80002fc3:	e8 28 06 00 00       	call   800035f0 <Lock_Lock>
80002fc8:	8b 4d 08             	mov    0x8(%ebp),%ecx
80002fcb:	89 5d ec             	mov    %ebx,0xffffffec(%ebp)
80002fce:	8b 01                	mov    (%ecx),%eax
80002fd0:	8b 00                	mov    (%eax),%eax
80002fd2:	89 45 f0             	mov    %eax,0xfffffff0(%ebp)
80002fd5:	8b 45 10             	mov    0x10(%ebp),%eax
80002fd8:	85 c0                	test   %eax,%eax
80002fda:	89 45 e8             	mov    %eax,0xffffffe8(%ebp)
80002fdd:	0f 84 b4 00 00 00    	je     80003097 <IOManager_Read+0xe7>
80002fe3:	8d b6 00 00 00 00    	lea    0x0(%esi),%esi
80002fe9:	8d bc 27 00 00 00 00 	lea    0x0(%edi,1),%edi
80002ff0:	8b 45 08             	mov    0x8(%ebp),%eax
80002ff3:	31 d2                	xor    %edx,%edx
80002ff5:	8b 4d e8             	mov    0xffffffe8(%ebp),%ecx
80002ff8:	8b 70 04             	mov    0x4(%eax),%esi
80002ffb:	8b 45 f0             	mov    0xfffffff0(%ebp),%eax
80002ffe:	8b 78 08             	mov    0x8(%eax),%edi
80003001:	89 f0                	mov    %esi,%eax
80003003:	f7 f7                	div    %edi
80003005:	29 d7                	sub    %edx,%edi
80003007:	39 cf                	cmp    %ecx,%edi
80003009:	89 55 e0             	mov    %edx,0xffffffe0(%ebp)
8000300c:	89 45 e4             	mov    %eax,0xffffffe4(%ebp)
8000300f:	89 7d dc             	mov    %edi,0xffffffdc(%ebp)
80003012:	76 03                	jbe    80003017 <IOManager_Read+0x67>
80003014:	89 4d dc             	mov    %ecx,0xffffffdc(%ebp)
80003017:	8b 5d f0             	mov    0xfffffff0(%ebp),%ebx
8000301a:	31 d2                	xor    %edx,%edx
8000301c:	31 f6                	xor    %esi,%esi
8000301e:	8b 45 e4             	mov    0xffffffe4(%ebp),%eax
80003021:	8b 3d d4 ad 00 80    	mov    0x8000add4,%edi
80003027:	f7 73 10             	divl   0x10(%ebx)
8000302a:	39 fe                	cmp    %edi,%esi
8000302c:	89 45 d8             	mov    %eax,0xffffffd8(%ebp)
8000302f:	73 23                	jae    80003054 <IOManager_Read+0xa4>
80003031:	8b 15 d8 ad 00 80    	mov    0x8000add8,%edx
80003037:	89 f6                	mov    %esi,%esi
80003039:	8d bc 27 00 00 00 00 	lea    0x0(%edi,1),%edi
80003040:	89 f1                	mov    %esi,%ecx
80003042:	c1 e1 04             	shl    $0x4,%ecx
80003045:	8d 1c 11             	lea    (%ecx,%edx,1),%ebx
80003048:	8b 0b                	mov    (%ebx),%ecx
8000304a:	3b 4d f0             	cmp    0xfffffff0(%ebp),%ecx
8000304d:	74 71                	je     800030c0 <IOManager_Read+0x110>
8000304f:	46                   	inc    %esi
80003050:	39 fe                	cmp    %edi,%esi
80003052:	72 ec                	jb     80003040 <IOManager_Read+0x90>
80003054:	c7 44 24 04 a5 97 00 	movl   $0x800097a5,0x4(%esp,1)
8000305b:	80 
8000305c:	8b 7d d8             	mov    0xffffffd8(%ebp),%edi
8000305f:	c7 04 24 be 97 00 80 	movl   $0x800097be,(%esp,1)
80003066:	89 7c 24 08          	mov    %edi,0x8(%esp,1)
8000306a:	e8 91 41 00 00       	call   80007200 <KPrint>
8000306f:	e8 75 d9 ff ff       	call   800009e9 <halt>
80003074:	b8 ff ff ff ff       	mov    $0xffffffff,%eax
80003079:	85 c0                	test   %eax,%eax
8000307b:	75 30                	jne    800030ad <IOManager_Read+0xfd>
8000307d:	8b 45 14             	mov    0x14(%ebp),%eax
80003080:	8b 75 dc             	mov    0xffffffdc(%ebp),%esi
80003083:	8b 5d 08             	mov    0x8(%ebp),%ebx
80003086:	01 30                	add    %esi,(%eax)
80003088:	01 75 ec             	add    %esi,0xffffffec(%ebp)
8000308b:	01 73 04             	add    %esi,0x4(%ebx)
8000308e:	29 75 e8             	sub    %esi,0xffffffe8(%ebp)
80003091:	0f 85 59 ff ff ff    	jne    80002ff0 <IOManager_Read+0x40>
80003097:	c7 04 24 20 ae 00 80 	movl   $0x8000ae20,(%esp,1)
8000309e:	e8 8d 05 00 00       	call   80003630 <Lock_Unlock>
800030a3:	31 c0                	xor    %eax,%eax
800030a5:	83 c4 2c             	add    $0x2c,%esp
800030a8:	5b                   	pop    %ebx
800030a9:	5e                   	pop    %esi
800030aa:	5f                   	pop    %edi
800030ab:	5d                   	pop    %ebp
800030ac:	c3                   	ret    
800030ad:	c7 04 24 20 ae 00 80 	movl   $0x8000ae20,(%esp,1)
800030b4:	e8 77 05 00 00       	call   80003630 <Lock_Unlock>
800030b9:	b8 ff ff ff ff       	mov    $0xffffffff,%eax
800030be:	eb e5                	jmp    800030a5 <IOManager_Read+0xf5>
800030c0:	8b 45 d8             	mov    0xffffffd8(%ebp),%eax
800030c3:	39 43 04             	cmp    %eax,0x4(%ebx)
800030c6:	75 87                	jne    8000304f <IOManager_Read+0x9f>
800030c8:	8b 45 e4             	mov    0xffffffe4(%ebp),%eax
800030cb:	31 d2                	xor    %edx,%edx
800030cd:	c1 e6 0c             	shl    $0xc,%esi
800030d0:	f7 71 10             	divl   0x10(%ecx)
800030d3:	8b 41 08             	mov    0x8(%ecx),%eax
800030d6:	8b 7d ec             	mov    0xffffffec(%ebp),%edi
800030d9:	8b 4d dc             	mov    0xffffffdc(%ebp),%ecx
800030dc:	0f af d0             	imul   %eax,%edx
800030df:	8b 45 e0             	mov    0xffffffe0(%ebp),%eax
800030e2:	8d b4 32 00 00 00 b0 	lea    0xb0000000(%edx,%esi,1),%esi
800030e9:	01 c6                	add    %eax,%esi
800030eb:	d1 e9                	shr    %ecx
800030ed:	73 01                	jae    800030f0 <IOManager_Read+0x140>
800030ef:	a4                   	movsb  %ds:(%esi),%es:(%edi)
800030f0:	d1 e9                	shr    %ecx
800030f2:	73 02                	jae    800030f6 <IOManager_Read+0x146>
800030f4:	66 a5                	movsw  %ds:(%esi),%es:(%edi)
800030f6:	f3 a5                	repz movsl %ds:(%esi),%es:(%edi)
800030f8:	31 c0                	xor    %eax,%eax
800030fa:	83 63 0c fb          	andl   $0xfffffffb,0xc(%ebx)
800030fe:	e9 76 ff ff ff       	jmp    80003079 <IOManager_Read+0xc9>
80003103:	8d b6 00 00 00 00    	lea    0x0(%esi),%esi
80003109:	8d bc 27 00 00 00 00 	lea    0x0(%edi,1),%edi

80003110 <IOManager_MapCacheDirectPage>:
80003110:	55                   	push   %ebp
80003111:	89 e5                	mov    %esp,%ebp
80003113:	57                   	push   %edi
80003114:	56                   	push   %esi
80003115:	31 f6                	xor    %esi,%esi
80003117:	53                   	push   %ebx
80003118:	83 ec 1c             	sub    $0x1c,%esp
8000311b:	c7 04 24 20 ae 00 80 	movl   $0x8000ae20,(%esp,1)
80003122:	e8 c9 04 00 00       	call   800035f0 <Lock_Lock>
80003127:	a1 d4 ad 00 80       	mov    0x8000add4,%eax
8000312c:	39 c6                	cmp    %eax,%esi
8000312e:	73 18                	jae    80003148 <IOManager_MapCacheDirectPage+0x38>
80003130:	8b 0d d8 ad 00 80    	mov    0x8000add8,%ecx
80003136:	89 f3                	mov    %esi,%ebx
80003138:	c1 e3 04             	shl    $0x4,%ebx
8000313b:	01 cb                	add    %ecx,%ebx
8000313d:	f6 43 0c 01          	testb  $0x1,0xc(%ebx)
80003141:	74 3d                	je     80003180 <IOManager_MapCacheDirectPage+0x70>
80003143:	46                   	inc    %esi
80003144:	39 c6                	cmp    %eax,%esi
80003146:	72 e8                	jb     80003130 <IOManager_MapCacheDirectPage+0x20>
80003148:	c7 04 24 20 ae 00 80 	movl   $0x8000ae20,(%esp,1)
8000314f:	e8 dc 04 00 00       	call   80003630 <Lock_Unlock>
80003154:	8b 45 0c             	mov    0xc(%ebp),%eax
80003157:	c7 44 24 04 20 98 00 	movl   $0x80009820,0x4(%esp,1)
8000315e:	80 
8000315f:	c7 04 24 be 97 00 80 	movl   $0x800097be,(%esp,1)
80003166:	89 44 24 08          	mov    %eax,0x8(%esp,1)
8000316a:	e8 91 40 00 00       	call   80007200 <KPrint>
8000316f:	31 c0                	xor    %eax,%eax
80003171:	83 c4 1c             	add    $0x1c,%esp
80003174:	5b                   	pop    %ebx
80003175:	5e                   	pop    %esi
80003176:	5f                   	pop    %edi
80003177:	5d                   	pop    %ebp
80003178:	c3                   	ret    
80003179:	8d b4 26 00 00 00 00 	lea    0x0(%esi,1),%esi
80003180:	89 f2                	mov    %esi,%edx
80003182:	c1 e2 0c             	shl    $0xc,%edx
80003185:	8d ba 00 00 00 b0    	lea    0xb0000000(%edx),%edi
8000318b:	89 3c 24             	mov    %edi,(%esp,1)
8000318e:	e8 9d 0e 00 00       	call   80004030 <MemoryManager_GetPTValue>
80003193:	83 e0 01             	and    $0x1,%eax
80003196:	74 07                	je     8000319f <IOManager_MapCacheDirectPage+0x8f>
80003198:	a1 d4 ad 00 80       	mov    0x8000add4,%eax
8000319d:	eb a4                	jmp    80003143 <IOManager_MapCacheDirectPage+0x33>
8000319f:	c7 44 24 0c 0a 00 00 	movl   $0xa,0xc(%esp,1)
800031a6:	00 
800031a7:	8b 45 0c             	mov    0xc(%ebp),%eax
800031aa:	c7 44 24 08 01 00 00 	movl   $0x1,0x8(%esp,1)
800031b1:	00 
800031b2:	89 7c 24 04          	mov    %edi,0x4(%esp,1)
800031b6:	89 04 24             	mov    %eax,(%esp,1)
800031b9:	e8 92 07 00 00       	call   80003950 <MemoryManager_Page_Map>
800031be:	8b 45 08             	mov    0x8(%ebp),%eax
800031c1:	89 03                	mov    %eax,(%ebx)
800031c3:	8b 45 10             	mov    0x10(%ebp),%eax
800031c6:	c7 43 08 00 00 00 00 	movl   $0x0,0x8(%ebx)
800031cd:	c7 43 0c 0b 00 00 00 	movl   $0xb,0xc(%ebx)
800031d4:	89 43 04             	mov    %eax,0x4(%ebx)
800031d7:	c7 04 24 20 ae 00 80 	movl   $0x8000ae20,(%esp,1)
800031de:	e8 4d 04 00 00       	call   80003630 <Lock_Unlock>
800031e3:	89 f8                	mov    %edi,%eax
800031e5:	eb 8a                	jmp    80003171 <IOManager_MapCacheDirectPage+0x61>
800031e7:	89 f6                	mov    %esi,%esi
800031e9:	8d bc 27 00 00 00 00 	lea    0x0(%edi,1),%edi

800031f0 <IOManager_LockInit>:
800031f0:	55                   	push   %ebp
800031f1:	89 e5                	mov    %esp,%ebp
800031f3:	83 ec 08             	sub    $0x8,%esp
800031f6:	c7 44 24 04 20 ae 00 	movl   $0x8000ae20,0x4(%esp,1)
800031fd:	80 
800031fe:	c7 04 24 c6 97 00 80 	movl   $0x800097c6,(%esp,1)
80003205:	e8 b6 03 00 00       	call   800035c0 <Lock_Init>
8000320a:	89 ec                	mov    %ebp,%esp
8000320c:	5d                   	pop    %ebp
8000320d:	c3                   	ret    
8000320e:	89 f6                	mov    %esi,%esi

80003210 <IOManager_Lock>:
80003210:	55                   	push   %ebp
80003211:	89 e5                	mov    %esp,%ebp
80003213:	83 ec 08             	sub    $0x8,%esp
80003216:	c7 04 24 20 ae 00 80 	movl   $0x8000ae20,(%esp,1)
8000321d:	e8 ce 03 00 00       	call   800035f0 <Lock_Lock>
80003222:	89 ec                	mov    %ebp,%esp
80003224:	5d                   	pop    %ebp
80003225:	c3                   	ret    
80003226:	8d 76 00             	lea    0x0(%esi),%esi
80003229:	8d bc 27 00 00 00 00 	lea    0x0(%edi,1),%edi

80003230 <IOManager_Unlock>:
80003230:	55                   	push   %ebp
80003231:	89 e5                	mov    %esp,%ebp
80003233:	83 ec 08             	sub    $0x8,%esp
80003236:	c7 04 24 20 ae 00 80 	movl   $0x8000ae20,(%esp,1)
8000323d:	e8 ee 03 00 00       	call   80003630 <Lock_Unlock>
80003242:	89 ec                	mov    %ebp,%esp
80003244:	5d                   	pop    %ebp
80003245:	c3                   	ret    
80003246:	8d 76 00             	lea    0x0(%esi),%esi
80003249:	8d bc 27 00 00 00 00 	lea    0x0(%edi,1),%edi

80003250 <IOManager_Init>:
80003250:	55                   	push   %ebp
80003251:	89 e5                	mov    %esp,%ebp
80003253:	83 ec 18             	sub    $0x18,%esp
80003256:	c7 44 24 04 20 ae 00 	movl   $0x8000ae20,0x4(%esp,1)
8000325d:	80 
8000325e:	c7 04 24 c6 97 00 80 	movl   $0x800097c6,(%esp,1)
80003265:	e8 56 03 00 00       	call   800035c0 <Lock_Init>
8000326a:	a1 68 ac 00 80       	mov    0x8000ac68,%eax
8000326f:	ba 00 00 03 00       	mov    $0x30000,%edx
80003274:	d1 e8                	shr    %eax
80003276:	39 c2                	cmp    %eax,%edx
80003278:	76 02                	jbe    8000327c <IOManager_Init+0x2c>
8000327a:	89 c2                	mov    %eax,%edx
8000327c:	89 15 d4 ad 00 80    	mov    %edx,0x8000add4
80003282:	89 54 24 04          	mov    %edx,0x4(%esp,1)
80003286:	c7 44 24 08 0a 00 00 	movl   $0xa,0x8(%esp,1)
8000328d:	00 
8000328e:	c7 04 24 00 00 00 b0 	movl   $0xb0000000,(%esp,1)
80003295:	e8 86 0f 00 00       	call   80004220 <MemoryManager_Page_MapZeroFill>
8000329a:	a1 d4 ad 00 80       	mov    0x8000add4,%eax
8000329f:	c1 e0 04             	shl    $0x4,%eax
800032a2:	89 04 24             	mov    %eax,(%esp,1)
800032a5:	e8 b6 11 00 00       	call   80004460 <MemoryManager_KAlloc>
800032aa:	31 d2                	xor    %edx,%edx
800032ac:	3b 15 d4 ad 00 80    	cmp    0x8000add4,%edx
800032b2:	a3 d8 ad 00 80       	mov    %eax,0x8000add8
800032b7:	73 19                	jae    800032d2 <IOManager_Init+0x82>
800032b9:	83 c0 0c             	add    $0xc,%eax
800032bc:	8d 74 26 00          	lea    0x0(%esi,1),%esi
800032c0:	c7 00 00 00 00 00    	movl   $0x0,(%eax)
800032c6:	42                   	inc    %edx
800032c7:	83 c0 10             	add    $0x10,%eax
800032ca:	3b 15 d4 ad 00 80    	cmp    0x8000add4,%edx
800032d0:	72 ee                	jb     800032c0 <IOManager_Init+0x70>
800032d2:	c7 44 24 08 00 10 00 	movl   $0x1000,0x8(%esp,1)
800032d9:	00 
800032da:	c7 44 24 04 d0 97 00 	movl   $0x800097d0,0x4(%esp,1)
800032e1:	80 
800032e2:	c7 04 24 be 97 00 80 	movl   $0x800097be,(%esp,1)
800032e9:	e8 12 3f 00 00       	call   80007200 <KPrint>
800032ee:	a1 d4 ad 00 80       	mov    0x8000add4,%eax
800032f3:	c7 44 24 04 60 98 00 	movl   $0x80009860,0x4(%esp,1)
800032fa:	80 
800032fb:	c7 04 24 be 97 00 80 	movl   $0x800097be,(%esp,1)
80003302:	c1 e0 04             	shl    $0x4,%eax
80003305:	c1 e8 0a             	shr    $0xa,%eax
80003308:	89 44 24 08          	mov    %eax,0x8(%esp,1)
8000330c:	e8 ef 3e 00 00       	call   80007200 <KPrint>
80003311:	8b 0d d4 ad 00 80    	mov    0x8000add4,%ecx
80003317:	c7 44 24 04 a0 98 00 	movl   $0x800098a0,0x4(%esp,1)
8000331e:	80 
8000331f:	c7 04 24 be 97 00 80 	movl   $0x800097be,(%esp,1)
80003326:	89 ca                	mov    %ecx,%edx
80003328:	c1 e2 0c             	shl    $0xc,%edx
8000332b:	89 4c 24 08          	mov    %ecx,0x8(%esp,1)
8000332f:	c1 ea 0a             	shr    $0xa,%edx
80003332:	89 54 24 0c          	mov    %edx,0xc(%esp,1)
80003336:	e8 c5 3e 00 00       	call   80007200 <KPrint>
8000333b:	c7 44 24 04 eb 97 00 	movl   $0x800097eb,0x4(%esp,1)
80003342:	80 
80003343:	c7 04 24 c6 97 00 80 	movl   $0x800097c6,(%esp,1)
8000334a:	e8 b1 3e 00 00       	call   80007200 <KPrint>
8000334f:	c9                   	leave  
80003350:	c3                   	ret    
80003351:	eb 0d                	jmp    80003360 <IOManager_RegisterIODevice>
80003353:	90                   	nop    
80003354:	90                   	nop    
80003355:	90                   	nop    
80003356:	90                   	nop    
80003357:	90                   	nop    
80003358:	90                   	nop    
80003359:	90                   	nop    
8000335a:	90                   	nop    
8000335b:	90                   	nop    
8000335c:	90                   	nop    
8000335d:	90                   	nop    
8000335e:	90                   	nop    
8000335f:	90                   	nop    

80003360 <IOManager_RegisterIODevice>:
80003360:	55                   	push   %ebp
80003361:	89 e5                	mov    %esp,%ebp
80003363:	83 ec 18             	sub    $0x18,%esp
80003366:	89 5d fc             	mov    %ebx,0xfffffffc(%ebp)
80003369:	8b 5d 08             	mov    0x8(%ebp),%ebx
8000336c:	e8 4f 25 00 00       	call   800058c0 <ObjectManager_Lock>
80003371:	c7 04 24 60 92 00 80 	movl   $0x80009260,(%esp,1)
80003378:	e8 73 28 00 00       	call   80005bf0 <ObjectManager_ConstructPath>
8000337d:	89 1c 24             	mov    %ebx,(%esp,1)
80003380:	e8 8b 29 00 00       	call   80005d10 <ObjectManager_ConstructKey>
80003385:	c7 04 24 20 ae 00 80 	movl   $0x8000ae20,(%esp,1)
8000338c:	e8 5f 02 00 00       	call   800035f0 <Lock_Lock>
80003391:	c7 44 24 04 1c 00 00 	movl   $0x1c,0x4(%esp,1)
80003398:	00 
80003399:	c7 04 24 0a 00 00 00 	movl   $0xa,(%esp,1)
800033a0:	e8 1b 24 00 00       	call   800057c0 <ObjectManager_CreateObject>
800033a5:	8b 40 4c             	mov    0x4c(%eax),%eax
800033a8:	c7 00 00 00 00 00    	movl   $0x0,(%eax)
800033ae:	c7 40 0c 00 00 00 00 	movl   $0x0,0xc(%eax)
800033b5:	c7 40 14 00 00 00 00 	movl   $0x0,0x14(%eax)
800033bc:	89 04 24             	mov    %eax,(%esp,1)
800033bf:	ff 55 0c             	call   *0xc(%ebp)
800033c2:	c7 04 24 20 ae 00 80 	movl   $0x8000ae20,(%esp,1)
800033c9:	e8 62 02 00 00       	call   80003630 <Lock_Unlock>
800033ce:	e8 0d 25 00 00       	call   800058e0 <ObjectManager_Unlock>
800033d3:	c7 04 24 c6 97 00 80 	movl   $0x800097c6,(%esp,1)
800033da:	89 5c 24 08          	mov    %ebx,0x8(%esp,1)
800033de:	c7 44 24 04 04 98 00 	movl   $0x80009804,0x4(%esp,1)
800033e5:	80 
800033e6:	e8 15 3e 00 00       	call   80007200 <KPrint>
800033eb:	8b 5d fc             	mov    0xfffffffc(%ebp),%ebx
800033ee:	31 c0                	xor    %eax,%eax
800033f0:	89 ec                	mov    %ebp,%esp
800033f2:	5d                   	pop    %ebp
800033f3:	c3                   	ret    
800033f4:	8d b6 00 00 00 00    	lea    0x0(%esi),%esi
800033fa:	8d bf 00 00 00 00    	lea    0x0(%edi),%edi

80003400 <IOManager_RecalculateDevice>:
80003400:	55                   	push   %ebp
80003401:	89 e5                	mov    %esp,%ebp
80003403:	83 ec 08             	sub    $0x8,%esp
80003406:	89 5d fc             	mov    %ebx,0xfffffffc(%ebp)
80003409:	8b 5d 08             	mov    0x8(%ebp),%ebx
8000340c:	c7 04 24 20 ae 00 80 	movl   $0x8000ae20,(%esp,1)
80003413:	e8 d8 01 00 00       	call   800035f0 <Lock_Lock>
80003418:	31 d2                	xor    %edx,%edx
8000341a:	b8 00 10 00 00       	mov    $0x1000,%eax
8000341f:	f7 73 08             	divl   0x8(%ebx)
80003422:	c7 43 0c 00 00 00 00 	movl   $0x0,0xc(%ebx)
80003429:	89 43 10             	mov    %eax,0x10(%ebx)
8000342c:	c7 04 24 20 ae 00 80 	movl   $0x8000ae20,(%esp,1)
80003433:	e8 f8 01 00 00       	call   80003630 <Lock_Unlock>
80003438:	8b 5d fc             	mov    0xfffffffc(%ebp),%ebx
8000343b:	31 c0                	xor    %eax,%eax
8000343d:	89 ec                	mov    %ebp,%esp
8000343f:	5d                   	pop    %ebp
80003440:	c3                   	ret    
80003441:	eb 0d                	jmp    80003450 <IOManager_ReadFromBlock>
80003443:	90                   	nop    
80003444:	90                   	nop    
80003445:	90                   	nop    
80003446:	90                   	nop    
80003447:	90                   	nop    
80003448:	90                   	nop    
80003449:	90                   	nop    
8000344a:	90                   	nop    
8000344b:	90                   	nop    
8000344c:	90                   	nop    
8000344d:	90                   	nop    
8000344e:	90                   	nop    
8000344f:	90                   	nop    

80003450 <IOManager_ReadFromBlock>:
80003450:	55                   	push   %ebp
80003451:	89 e5                	mov    %esp,%ebp
80003453:	31 d2                	xor    %edx,%edx
80003455:	57                   	push   %edi
80003456:	56                   	push   %esi
80003457:	31 f6                	xor    %esi,%esi
80003459:	53                   	push   %ebx
8000345a:	83 ec 1c             	sub    $0x1c,%esp
8000345d:	8b 7d 08             	mov    0x8(%ebp),%edi
80003460:	8b 45 0c             	mov    0xc(%ebp),%eax
80003463:	f7 77 10             	divl   0x10(%edi)
80003466:	8b 15 d4 ad 00 80    	mov    0x8000add4,%edx
8000346c:	39 d6                	cmp    %edx,%esi
8000346e:	89 45 f0             	mov    %eax,0xfffffff0(%ebp)
80003471:	73 1b                	jae    8000348e <IOManager_ReadFromBlock+0x3e>
80003473:	8b 1d d8 ad 00 80    	mov    0x8000add8,%ebx
80003479:	8d b4 26 00 00 00 00 	lea    0x0(%esi,1),%esi
80003480:	8b 0b                	mov    (%ebx),%ecx
80003482:	39 f9                	cmp    %edi,%ecx
80003484:	74 3a                	je     800034c0 <IOManager_ReadFromBlock+0x70>
80003486:	46                   	inc    %esi
80003487:	83 c3 10             	add    $0x10,%ebx
8000348a:	39 d6                	cmp    %edx,%esi
8000348c:	72 f2                	jb     80003480 <IOManager_ReadFromBlock+0x30>
8000348e:	c7 44 24 04 a5 97 00 	movl   $0x800097a5,0x4(%esp,1)
80003495:	80 
80003496:	8b 4d f0             	mov    0xfffffff0(%ebp),%ecx
80003499:	c7 04 24 be 97 00 80 	movl   $0x800097be,(%esp,1)
800034a0:	89 4c 24 08          	mov    %ecx,0x8(%esp,1)
800034a4:	e8 57 3d 00 00       	call   80007200 <KPrint>
800034a9:	e8 3b d5 ff ff       	call   800009e9 <halt>
800034ae:	b8 ff ff ff ff       	mov    $0xffffffff,%eax
800034b3:	83 c4 1c             	add    $0x1c,%esp
800034b6:	5b                   	pop    %ebx
800034b7:	5e                   	pop    %esi
800034b8:	5f                   	pop    %edi
800034b9:	5d                   	pop    %ebp
800034ba:	c3                   	ret    
800034bb:	90                   	nop    
800034bc:	8d 74 26 00          	lea    0x0(%esi,1),%esi
800034c0:	8b 45 f0             	mov    0xfffffff0(%ebp),%eax
800034c3:	39 43 04             	cmp    %eax,0x4(%ebx)
800034c6:	75 be                	jne    80003486 <IOManager_ReadFromBlock+0x36>
800034c8:	8b 45 0c             	mov    0xc(%ebp),%eax
800034cb:	31 d2                	xor    %edx,%edx
800034cd:	c1 e6 0c             	shl    $0xc,%esi
800034d0:	f7 71 10             	divl   0x10(%ecx)
800034d3:	8b 41 08             	mov    0x8(%ecx),%eax
800034d6:	8b 7d 18             	mov    0x18(%ebp),%edi
800034d9:	8b 4d 14             	mov    0x14(%ebp),%ecx
800034dc:	0f af d0             	imul   %eax,%edx
800034df:	8b 45 10             	mov    0x10(%ebp),%eax
800034e2:	8d b4 32 00 00 00 b0 	lea    0xb0000000(%edx,%esi,1),%esi
800034e9:	01 c6                	add    %eax,%esi
800034eb:	d1 e9                	shr    %ecx
800034ed:	73 01                	jae    800034f0 <IOManager_ReadFromBlock+0xa0>
800034ef:	a4                   	movsb  %ds:(%esi),%es:(%edi)
800034f0:	d1 e9                	shr    %ecx
800034f2:	73 02                	jae    800034f6 <IOManager_ReadFromBlock+0xa6>
800034f4:	66 a5                	movsw  %ds:(%esi),%es:(%edi)
800034f6:	f3 a5                	repz movsl %ds:(%esi),%es:(%edi)
800034f8:	31 c0                	xor    %eax,%eax
800034fa:	83 63 0c fb          	andl   $0xfffffffb,0xc(%ebx)
800034fe:	eb b3                	jmp    800034b3 <IOManager_ReadFromBlock+0x63>

80003500 <IOManager_UnmapCacheDirectPage>:
80003500:	55                   	push   %ebp
80003501:	89 e5                	mov    %esp,%ebp
80003503:	57                   	push   %edi
80003504:	56                   	push   %esi
80003505:	53                   	push   %ebx
80003506:	83 ec 0c             	sub    $0xc,%esp
80003509:	8b 7d 08             	mov    0x8(%ebp),%edi
8000350c:	c7 04 24 20 ae 00 80 	movl   $0x8000ae20,(%esp,1)
80003513:	e8 d8 00 00 00       	call   800035f0 <Lock_Lock>
80003518:	8b 15 d4 ad 00 80    	mov    0x8000add4,%edx
8000351e:	31 c0                	xor    %eax,%eax
80003520:	39 d0                	cmp    %edx,%eax
80003522:	73 1e                	jae    80003542 <IOManager_UnmapCacheDirectPage+0x42>
80003524:	8b 1d d8 ad 00 80    	mov    0x8000add8,%ebx
8000352a:	be 00 00 00 b0       	mov    $0xb0000000,%esi
8000352f:	90                   	nop    
80003530:	39 3b                	cmp    %edi,(%ebx)
80003532:	74 4c                	je     80003580 <IOManager_UnmapCacheDirectPage+0x80>
80003534:	40                   	inc    %eax
80003535:	81 c6 00 10 00 00    	add    $0x1000,%esi
8000353b:	83 c3 10             	add    $0x10,%ebx
8000353e:	39 d0                	cmp    %edx,%eax
80003540:	72 ee                	jb     80003530 <IOManager_UnmapCacheDirectPage+0x30>
80003542:	c7 04 24 20 ae 00 80 	movl   $0x8000ae20,(%esp,1)
80003549:	e8 e2 00 00 00       	call   80003630 <Lock_Unlock>
8000354e:	8b 45 0c             	mov    0xc(%ebp),%eax
80003551:	c7 44 24 04 e0 98 00 	movl   $0x800098e0,0x4(%esp,1)
80003558:	80 
80003559:	c7 04 24 be 97 00 80 	movl   $0x800097be,(%esp,1)
80003560:	89 44 24 08          	mov    %eax,0x8(%esp,1)
80003564:	e8 97 3c 00 00       	call   80007200 <KPrint>
80003569:	31 c0                	xor    %eax,%eax
8000356b:	83 c4 0c             	add    $0xc,%esp
8000356e:	5b                   	pop    %ebx
8000356f:	5e                   	pop    %esi
80003570:	5f                   	pop    %edi
80003571:	5d                   	pop    %ebp
80003572:	c3                   	ret    
80003573:	8d b6 00 00 00 00    	lea    0x0(%esi),%esi
80003579:	8d bc 27 00 00 00 00 	lea    0x0(%edi,1),%edi
80003580:	8b 4d 0c             	mov    0xc(%ebp),%ecx
80003583:	39 4b 04             	cmp    %ecx,0x4(%ebx)
80003586:	75 ac                	jne    80003534 <IOManager_UnmapCacheDirectPage+0x34>
80003588:	c7 44 24 04 01 00 00 	movl   $0x1,0x4(%esp,1)
8000358f:	00 
80003590:	89 34 24             	mov    %esi,(%esp,1)
80003593:	e8 f8 0b 00 00       	call   80004190 <MemoryManager_Page_Unmap>
80003598:	c7 03 00 00 00 00    	movl   $0x0,(%ebx)
8000359e:	c7 43 0c 00 00 00 00 	movl   $0x0,0xc(%ebx)
800035a5:	c7 04 24 20 ae 00 80 	movl   $0x8000ae20,(%esp,1)
800035ac:	e8 7f 00 00 00       	call   80003630 <Lock_Unlock>
800035b1:	89 f0                	mov    %esi,%eax
800035b3:	eb b6                	jmp    8000356b <IOManager_UnmapCacheDirectPage+0x6b>
	...

800035c0 <Lock_Init>:
800035c0:	55                   	push   %ebp
800035c1:	89 e5                	mov    %esp,%ebp
800035c3:	53                   	push   %ebx
800035c4:	8b 4d 0c             	mov    0xc(%ebp),%ecx
800035c7:	8b 55 08             	mov    0x8(%ebp),%edx
800035ca:	8d 41 04             	lea    0x4(%ecx),%eax
800035cd:	89 c3                	mov    %eax,%ebx
800035cf:	8a 02                	mov    (%edx),%al
800035d1:	42                   	inc    %edx
800035d2:	88 03                	mov    %al,(%ebx)
800035d4:	43                   	inc    %ebx
800035d5:	84 c0                	test   %al,%al
800035d7:	75 f6                	jne    800035cf <Lock_Init+0xf>
800035d9:	c7 01 00 00 00 00    	movl   $0x0,(%ecx)
800035df:	5b                   	pop    %ebx
800035e0:	5d                   	pop    %ebp
800035e1:	c3                   	ret    
800035e2:	8d b4 26 00 00 00 00 	lea    0x0(%esi,1),%esi
800035e9:	8d bc 27 00 00 00 00 	lea    0x0(%edi,1),%edi

800035f0 <Lock_Lock>:
800035f0:	55                   	push   %ebp
800035f1:	a1 e4 aa 00 80       	mov    0x8000aae4,%eax
800035f6:	89 e5                	mov    %esp,%ebp
800035f8:	8b 55 08             	mov    0x8(%ebp),%edx
800035fb:	83 f8 01             	cmp    $0x1,%eax
800035fe:	74 10                	je     80003610 <Lock_Lock+0x20>
80003600:	5d                   	pop    %ebp
80003601:	c3                   	ret    
80003602:	8d b4 26 00 00 00 00 	lea    0x0(%esi,1),%esi
80003609:	8d bc 27 00 00 00 00 	lea    0x0(%edi,1),%edi
80003610:	f0 01 05 e0 aa 00 80 	lock add %eax,0x8000aae0
80003617:	89 f6                	mov    %esi,%esi
80003619:	8d bc 27 00 00 00 00 	lea    0x0(%edi,1),%edi
80003620:	b8 01 00 00 00       	mov    $0x1,%eax
80003625:	87 02                	xchg   %eax,(%edx)
80003627:	85 c0                	test   %eax,%eax
80003629:	75 f5                	jne    80003620 <Lock_Lock+0x30>
8000362b:	eb d3                	jmp    80003600 <Lock_Lock+0x10>
8000362d:	8d 76 00             	lea    0x0(%esi),%esi

80003630 <Lock_Unlock>:
80003630:	55                   	push   %ebp
80003631:	8b 15 e4 aa 00 80    	mov    0x8000aae4,%edx
80003637:	89 e5                	mov    %esp,%ebp
80003639:	83 fa 01             	cmp    $0x1,%edx
8000363c:	74 02                	je     80003640 <Lock_Unlock+0x10>
8000363e:	5d                   	pop    %ebp
8000363f:	c3                   	ret    
80003640:	8b 45 08             	mov    0x8(%ebp),%eax
80003643:	c7 00 00 00 00 00    	movl   $0x0,(%eax)
80003649:	f0 29 15 e0 aa 00 80 	lock sub %edx,0x8000aae0
80003650:	eb ec                	jmp    8000363e <Lock_Unlock+0xe>
	...

80003660 <MemoryManager_Init>:
80003660:	55                   	push   %ebp
80003661:	89 e5                	mov    %esp,%ebp
80003663:	57                   	push   %edi
80003664:	56                   	push   %esi
80003665:	53                   	push   %ebx
80003666:	83 ec 2c             	sub    $0x2c,%esp
80003669:	8b 45 08             	mov    0x8(%ebp),%eax
8000366c:	f6 00 40             	testb  $0x40,(%eax)
8000366f:	0f 84 b0 02 00 00    	je     80003925 <MemoryManager_Init+0x2c5>
80003675:	c7 44 24 04 60 ae 00 	movl   $0x8000ae60,0x4(%esp,1)
8000367c:	80 
8000367d:	ba 00 00 00 f0       	mov    $0xf0000000,%edx
80003682:	b8 00 00 00 e0       	mov    $0xe0000000,%eax
80003687:	89 15 88 ac 00 80    	mov    %edx,0x8000ac88
8000368d:	31 ff                	xor    %edi,%edi
8000368f:	31 f6                	xor    %esi,%esi
80003691:	a3 8c ac 00 80       	mov    %eax,0x8000ac8c
80003696:	c7 04 24 08 99 00 80 	movl   $0x80009908,(%esp,1)
8000369d:	e8 1e ff ff ff       	call   800035c0 <Lock_Init>
800036a2:	8b 4d 08             	mov    0x8(%ebp),%ecx
800036a5:	a1 5a 08 00 80       	mov    0x8000085a,%eax
800036aa:	8b 1d 7c ac 00 80    	mov    0x8000ac7c,%ebx
800036b0:	83 c8 03             	or     $0x3,%eax
800036b3:	89 83 00 08 00 00    	mov    %eax,0x800(%ebx)
800036b9:	a1 62 08 00 80       	mov    0x80000862,%eax
800036be:	83 c8 03             	or     $0x3,%eax
800036c1:	89 83 fc 08 00 00    	mov    %eax,0x8fc(%ebx)
800036c7:	b8 ab aa aa aa       	mov    $0xaaaaaaab,%eax
800036cc:	f7 61 2c             	mull   0x2c(%ecx)
800036cf:	8b 45 08             	mov    0x8(%ebp),%eax
800036d2:	8b 48 30             	mov    0x30(%eax),%ecx
800036d5:	c1 ea 04             	shr    $0x4,%edx
800036d8:	39 d7                	cmp    %edx,%edi
800036da:	89 55 f0             	mov    %edx,0xfffffff0(%ebp)
800036dd:	73 1a                	jae    800036f9 <MemoryManager_Init+0x99>
800036df:	90                   	nop    
800036e0:	83 79 14 01          	cmpl   $0x1,0x14(%ecx)
800036e4:	0f 84 26 02 00 00    	je     80003910 <MemoryManager_Init+0x2b0>
800036ea:	8b 01                	mov    (%ecx),%eax
800036ec:	89 cb                	mov    %ecx,%ebx
800036ee:	47                   	inc    %edi
800036ef:	01 c3                	add    %eax,%ebx
800036f1:	3b 7d f0             	cmp    0xfffffff0(%ebp),%edi
800036f4:	8d 4b 04             	lea    0x4(%ebx),%ecx
800036f7:	72 e7                	jb     800036e0 <MemoryManager_Init+0x80>
800036f9:	c7 44 24 04 e0 99 00 	movl   $0x800099e0,0x4(%esp,1)
80003700:	80 
80003701:	8b 1d 6c ac 00 80    	mov    0x8000ac6c,%ebx
80003707:	c7 04 24 0f 99 00 80 	movl   $0x8000990f,(%esp,1)
8000370e:	29 de                	sub    %ebx,%esi
80003710:	89 f2                	mov    %esi,%edx
80003712:	c1 ea 0a             	shr    $0xa,%edx
80003715:	29 d6                	sub    %edx,%esi
80003717:	8d 3c b5 00 00 00 00 	lea    0x0(,%esi,4),%edi
8000371e:	89 35 68 ac 00 80    	mov    %esi,0x8000ac68
80003724:	89 74 24 08          	mov    %esi,0x8(%esp,1)
80003728:	8d b7 ff 0f 00 00    	lea    0xfff(%edi),%esi
8000372e:	c1 ee 0c             	shr    $0xc,%esi
80003731:	89 7c 24 0c          	mov    %edi,0xc(%esp,1)
80003735:	89 f7                	mov    %esi,%edi
80003737:	e8 c4 3a 00 00       	call   80007200 <KPrint>
8000373c:	89 74 24 08          	mov    %esi,0x8(%esp,1)
80003740:	c1 e7 0c             	shl    $0xc,%edi
80003743:	c7 44 24 04 20 9a 00 	movl   $0x80009a20,0x4(%esp,1)
8000374a:	80 
8000374b:	c7 04 24 0f 99 00 80 	movl   $0x8000990f,(%esp,1)
80003752:	e8 a9 3a 00 00       	call   80007200 <KPrint>
80003757:	8d 8f 00 40 21 00    	lea    0x214000(%edi),%ecx
8000375d:	a1 70 ac 00 80       	mov    0x8000ac70,%eax
80003762:	89 4d ec             	mov    %ecx,0xffffffec(%ebp)
80003765:	c7 04 24 60 ae 00 80 	movl   $0x8000ae60,(%esp,1)
8000376c:	a3 80 ac 00 80       	mov    %eax,0x8000ac80
80003771:	e8 7a fe ff ff       	call   800035f0 <Lock_Lock>
80003776:	a1 80 ac 00 80       	mov    0x8000ac80,%eax
8000377b:	89 74 24 08          	mov    %esi,0x8(%esp,1)
8000377f:	c7 44 24 0c 0a 00 00 	movl   $0xa,0xc(%esp,1)
80003786:	00 
80003787:	89 44 24 04          	mov    %eax,0x4(%esp,1)
8000378b:	c7 04 24 00 40 21 00 	movl   $0x214000,(%esp,1)
80003792:	e8 b9 01 00 00       	call   80003950 <MemoryManager_Page_Map>
80003797:	c7 04 24 60 ae 00 80 	movl   $0x8000ae60,(%esp,1)
8000379e:	e8 8d fe ff ff       	call   80003630 <Lock_Unlock>
800037a3:	8b 75 08             	mov    0x8(%ebp),%esi
800037a6:	01 3d 70 ac 00 80    	add    %edi,0x8000ac70
800037ac:	31 ff                	xor    %edi,%edi
800037ae:	89 3d 84 ac 00 80    	mov    %edi,0x8000ac84
800037b4:	31 ff                	xor    %edi,%edi
800037b6:	8b 4e 30             	mov    0x30(%esi),%ecx
800037b9:	3b 7d f0             	cmp    0xfffffff0(%ebp),%edi
800037bc:	73 2b                	jae    800037e9 <MemoryManager_Init+0x189>
800037be:	a1 50 ad 00 80       	mov    0x8000ad50,%eax
800037c3:	89 45 e0             	mov    %eax,0xffffffe0(%ebp)
800037c6:	a1 80 ac 00 80       	mov    0x8000ac80,%eax
800037cb:	89 45 dc             	mov    %eax,0xffffffdc(%ebp)
800037ce:	89 f6                	mov    %esi,%esi
800037d0:	83 79 14 01          	cmpl   $0x1,0x14(%ecx)
800037d4:	0f 84 b6 00 00 00    	je     80003890 <MemoryManager_Init+0x230>
800037da:	8b 31                	mov    (%ecx),%esi
800037dc:	89 cb                	mov    %ecx,%ebx
800037de:	47                   	inc    %edi
800037df:	01 f3                	add    %esi,%ebx
800037e1:	3b 7d f0             	cmp    0xfffffff0(%ebp),%edi
800037e4:	8d 4b 04             	lea    0x4(%ebx),%ecx
800037e7:	72 e7                	jb     800037d0 <MemoryManager_Init+0x170>
800037e9:	c7 04 24 60 ae 00 80 	movl   $0x8000ae60,(%esp,1)
800037f0:	ff 0d 84 ac 00 80    	decl   0x8000ac84
800037f6:	e8 f5 fd ff ff       	call   800035f0 <Lock_Lock>
800037fb:	c7 44 24 08 00 00 02 	movl   $0x20000,0x8(%esp,1)
80003802:	00 
80003803:	c7 44 24 04 00 00 00 	movl   $0x90000000,0x4(%esp,1)
8000380a:	90 
8000380b:	c7 04 24 90 ac 00 80 	movl   $0x8000ac90,(%esp,1)
80003812:	e8 d9 02 00 00       	call   80003af0 <MemoryManager_AllocInit>
80003817:	c7 04 24 60 ae 00 80 	movl   $0x8000ae60,(%esp,1)
8000381e:	e8 0d fe ff ff       	call   80003630 <Lock_Unlock>
80003823:	c7 44 24 08 00 00 08 	movl   $0x80000,0x8(%esp,1)
8000382a:	00 
8000382b:	c7 44 24 04 60 9a 00 	movl   $0x80009a60,0x4(%esp,1)
80003832:	80 
80003833:	c7 04 24 0f 99 00 80 	movl   $0x8000990f,(%esp,1)
8000383a:	e8 c1 39 00 00       	call   80007200 <KPrint>
8000383f:	e8 ac 3d 00 00       	call   800075f0 <Console_Remap>
80003844:	c7 44 24 04 3d 10 00 	movl   $0x8000103d,0x4(%esp,1)
8000384b:	80 
8000384c:	c7 04 24 90 00 00 00 	movl   $0x90,(%esp,1)
80003853:	e8 c8 41 00 00       	call   80007a20 <Descriptor_SetInterruptGate>
80003858:	c7 44 24 04 6b 10 00 	movl   $0x8000106b,0x4(%esp,1)
8000385f:	80 
80003860:	c7 04 24 91 00 00 00 	movl   $0x91,(%esp,1)
80003867:	e8 b4 41 00 00       	call   80007a20 <Descriptor_SetInterruptGate>
8000386c:	c7 44 24 04 13 99 00 	movl   $0x80009913,0x4(%esp,1)
80003873:	80 
80003874:	c7 04 24 0f 99 00 80 	movl   $0x8000990f,(%esp,1)
8000387b:	e8 80 39 00 00       	call   80007200 <KPrint>
80003880:	83 c4 2c             	add    $0x2c,%esp
80003883:	5b                   	pop    %ebx
80003884:	5e                   	pop    %esi
80003885:	5f                   	pop    %edi
80003886:	5d                   	pop    %ebp
80003887:	c3                   	ret    
80003888:	90                   	nop    
80003889:	8d b4 26 00 00 00 00 	lea    0x0(%esi,1),%esi
80003890:	8b 59 10             	mov    0x10(%ecx),%ebx
80003893:	8b 51 08             	mov    0x8(%ecx),%edx
80003896:	8b 41 0c             	mov    0xc(%ecx),%eax
80003899:	8b 71 04             	mov    0x4(%ecx),%esi
8000389c:	c1 e3 08             	shl    $0x8,%ebx
8000389f:	c1 e2 08             	shl    $0x8,%edx
800038a2:	01 c3                	add    %eax,%ebx
800038a4:	01 f2                	add    %esi,%edx
800038a6:	c1 eb 0c             	shr    $0xc,%ebx
800038a9:	89 5d d8             	mov    %ebx,0xffffffd8(%ebp)
800038ac:	31 f6                	xor    %esi,%esi
800038ae:	39 de                	cmp    %ebx,%esi
800038b0:	0f 83 24 ff ff ff    	jae    800037da <MemoryManager_Init+0x17a>
800038b6:	8b 45 e0             	mov    0xffffffe0(%ebp),%eax
800038b9:	89 45 e8             	mov    %eax,0xffffffe8(%ebp)
800038bc:	8b 45 dc             	mov    0xffffffdc(%ebp),%eax
800038bf:	89 45 e4             	mov    %eax,0xffffffe4(%ebp)
800038c2:	8d b4 26 00 00 00 00 	lea    0x0(%esi,1),%esi
800038c9:	8d bc 27 00 00 00 00 	lea    0x0(%edi,1),%edi
800038d0:	81 fa ff ff 0f 00    	cmp    $0xfffff,%edx
800038d6:	76 05                	jbe    800038dd <MemoryManager_Init+0x27d>
800038d8:	3b 55 e8             	cmp    0xffffffe8(%ebp),%edx
800038db:	72 1f                	jb     800038fc <MemoryManager_Init+0x29c>
800038dd:	81 fa ff ff 1f 00    	cmp    $0x1fffff,%edx
800038e3:	76 05                	jbe    800038ea <MemoryManager_Init+0x28a>
800038e5:	3b 55 ec             	cmp    0xffffffec(%ebp),%edx
800038e8:	72 12                	jb     800038fc <MemoryManager_Init+0x29c>
800038ea:	8b 1d 84 ac 00 80    	mov    0x8000ac84,%ebx
800038f0:	8b 45 e4             	mov    0xffffffe4(%ebp),%eax
800038f3:	89 14 98             	mov    %edx,(%eax,%ebx,4)
800038f6:	ff 05 84 ac 00 80    	incl   0x8000ac84
800038fc:	46                   	inc    %esi
800038fd:	81 c2 00 10 00 00    	add    $0x1000,%edx
80003903:	3b 75 d8             	cmp    0xffffffd8(%ebp),%esi
80003906:	72 c8                	jb     800038d0 <MemoryManager_Init+0x270>
80003908:	e9 cd fe ff ff       	jmp    800037da <MemoryManager_Init+0x17a>
8000390d:	8d 76 00             	lea    0x0(%esi),%esi
80003910:	8b 41 10             	mov    0x10(%ecx),%eax
80003913:	8b 51 0c             	mov    0xc(%ecx),%edx
80003916:	c1 e0 08             	shl    $0x8,%eax
80003919:	01 d0                	add    %edx,%eax
8000391b:	c1 e8 0c             	shr    $0xc,%eax
8000391e:	01 c6                	add    %eax,%esi
80003920:	e9 c5 fd ff ff       	jmp    800036ea <MemoryManager_Init+0x8a>
80003925:	c7 44 24 04 a0 9a 00 	movl   $0x80009aa0,0x4(%esp,1)
8000392c:	80 
8000392d:	c7 04 24 0f 99 00 80 	movl   $0x8000990f,(%esp,1)
80003934:	e8 c7 38 00 00       	call   80007200 <KPrint>
80003939:	e8 ab d0 ff ff       	call   800009e9 <halt>
8000393e:	e9 32 fd ff ff       	jmp    80003675 <MemoryManager_Init+0x15>
80003943:	8d b6 00 00 00 00    	lea    0x0(%esi),%esi
80003949:	8d bc 27 00 00 00 00 	lea    0x0(%edi,1),%edi

80003950 <MemoryManager_Page_Map>:
80003950:	55                   	push   %ebp
80003951:	89 e5                	mov    %esp,%ebp
80003953:	57                   	push   %edi
80003954:	56                   	push   %esi
80003955:	53                   	push   %ebx
80003956:	83 ec 1c             	sub    $0x1c,%esp
80003959:	8b 7d 0c             	mov    0xc(%ebp),%edi
8000395c:	a1 74 ac 00 80       	mov    0x8000ac74,%eax
80003961:	c1 ef 16             	shr    $0x16,%edi
80003964:	8b 1c b8             	mov    (%eax,%edi,4),%ebx
80003967:	89 45 e8             	mov    %eax,0xffffffe8(%ebp)
8000396a:	85 db                	test   %ebx,%ebx
8000396c:	75 4d                	jne    800039bb <MemoryManager_Page_Map+0x6b>
8000396e:	8b 35 84 ac 00 80    	mov    0x8000ac84,%esi
80003974:	83 fe ff             	cmp    $0xffffffff,%esi
80003977:	0f 84 40 01 00 00    	je     80003abd <MemoryManager_Page_Map+0x16d>
8000397d:	a1 80 ac 00 80       	mov    0x8000ac80,%eax
80003982:	89 fa                	mov    %edi,%edx
80003984:	c1 e2 0c             	shl    $0xc,%edx
80003987:	8b 0c b0             	mov    (%eax,%esi,4),%ecx
8000398a:	4e                   	dec    %esi
8000398b:	a1 7c ac 00 80       	mov    0x8000ac7c,%eax
80003990:	89 35 84 ac 00 80    	mov    %esi,0x8000ac84
80003996:	83 c9 03             	or     $0x3,%ecx
80003999:	89 0c b8             	mov    %ecx,(%eax,%edi,4)
8000399c:	a1 78 ac 00 80       	mov    0x8000ac78,%eax
800039a1:	01 c2                	add    %eax,%edx
800039a3:	b8 00 04 00 00       	mov    $0x400,%eax
800039a8:	89 1a                	mov    %ebx,(%edx)
800039aa:	83 c2 04             	add    $0x4,%edx
800039ad:	48                   	dec    %eax
800039ae:	75 f8                	jne    800039a8 <MemoryManager_Page_Map+0x58>
800039b0:	a1 74 ac 00 80       	mov    0x8000ac74,%eax
800039b5:	89 45 e8             	mov    %eax,0xffffffe8(%ebp)
800039b8:	89 0c b8             	mov    %ecx,(%eax,%edi,4)
800039bb:	c7 45 f0 00 00 00 00 	movl   $0x0,0xfffffff0(%ebp)
800039c2:	8b 5d 0c             	mov    0xc(%ebp),%ebx
800039c5:	89 fe                	mov    %edi,%esi
800039c7:	c1 e6 16             	shl    $0x16,%esi
800039ca:	8b 55 10             	mov    0x10(%ebp),%edx
800039cd:	29 f3                	sub    %esi,%ebx
800039cf:	c1 ee 0c             	shr    $0xc,%esi
800039d2:	c1 eb 0c             	shr    $0xc,%ebx
800039d5:	39 55 f0             	cmp    %edx,0xfffffff0(%ebp)
800039d8:	73 39                	jae    80003a13 <MemoryManager_Page_Map+0xc3>
800039da:	8d b6 00 00 00 00    	lea    0x0(%esi),%esi
800039e0:	81 fb 00 04 00 00    	cmp    $0x400,%ebx
800039e6:	74 48                	je     80003a30 <MemoryManager_Page_Map+0xe0>
800039e8:	ff 45 f0             	incl   0xfffffff0(%ebp)
800039eb:	8d 3c 33             	lea    (%ebx,%esi,1),%edi
800039ee:	8b 4d 08             	mov    0x8(%ebp),%ecx
800039f1:	a1 78 ac 00 80       	mov    0x8000ac78,%eax
800039f6:	43                   	inc    %ebx
800039f7:	83 c9 03             	or     $0x3,%ecx
800039fa:	89 0c b8             	mov    %ecx,(%eax,%edi,4)
800039fd:	8b 45 10             	mov    0x10(%ebp),%eax
80003a00:	81 45 0c 00 10 00 00 	addl   $0x1000,0xc(%ebp)
80003a07:	81 45 08 00 10 00 00 	addl   $0x1000,0x8(%ebp)
80003a0e:	39 45 f0             	cmp    %eax,0xfffffff0(%ebp)
80003a11:	72 cd                	jb     800039e0 <MemoryManager_Page_Map+0x90>
80003a13:	0f 20 d8             	mov    %cr3,%eax
80003a16:	0f 22 d8             	mov    %eax,%cr3
80003a19:	83 c4 1c             	add    $0x1c,%esp
80003a1c:	5b                   	pop    %ebx
80003a1d:	5e                   	pop    %esi
80003a1e:	5f                   	pop    %edi
80003a1f:	5d                   	pop    %ebp
80003a20:	c3                   	ret    
80003a21:	eb 0d                	jmp    80003a30 <MemoryManager_Page_Map+0xe0>
80003a23:	90                   	nop    
80003a24:	90                   	nop    
80003a25:	90                   	nop    
80003a26:	90                   	nop    
80003a27:	90                   	nop    
80003a28:	90                   	nop    
80003a29:	90                   	nop    
80003a2a:	90                   	nop    
80003a2b:	90                   	nop    
80003a2c:	90                   	nop    
80003a2d:	90                   	nop    
80003a2e:	90                   	nop    
80003a2f:	90                   	nop    
80003a30:	8b 45 0c             	mov    0xc(%ebp),%eax
80003a33:	8b 4d e8             	mov    0xffffffe8(%ebp),%ecx
80003a36:	c1 e8 16             	shr    $0x16,%eax
80003a39:	89 45 ec             	mov    %eax,0xffffffec(%ebp)
80003a3c:	8b 3c 81             	mov    (%ecx,%eax,4),%edi
80003a3f:	85 ff                	test   %edi,%edi
80003a41:	75 4c                	jne    80003a8f <MemoryManager_Page_Map+0x13f>
80003a43:	8b 35 84 ac 00 80    	mov    0x8000ac84,%esi
80003a49:	83 fe ff             	cmp    $0xffffffff,%esi
80003a4c:	74 4e                	je     80003a9c <MemoryManager_Page_Map+0x14c>
80003a4e:	a1 80 ac 00 80       	mov    0x8000ac80,%eax
80003a53:	8b 4d ec             	mov    0xffffffec(%ebp),%ecx
80003a56:	8b 14 b0             	mov    (%eax,%esi,4),%edx
80003a59:	4e                   	dec    %esi
80003a5a:	a1 7c ac 00 80       	mov    0x8000ac7c,%eax
80003a5f:	89 35 84 ac 00 80    	mov    %esi,0x8000ac84
80003a65:	89 ce                	mov    %ecx,%esi
80003a67:	83 ca 03             	or     $0x3,%edx
80003a6a:	89 14 88             	mov    %edx,(%eax,%ecx,4)
80003a6d:	a1 78 ac 00 80       	mov    0x8000ac78,%eax
80003a72:	c1 e6 0c             	shl    $0xc,%esi
80003a75:	89 f9                	mov    %edi,%ecx
80003a77:	01 c6                	add    %eax,%esi
80003a79:	89 0e                	mov    %ecx,(%esi)
80003a7b:	83 c6 04             	add    $0x4,%esi
80003a7e:	4b                   	dec    %ebx
80003a7f:	75 f8                	jne    80003a79 <MemoryManager_Page_Map+0x129>
80003a81:	a1 74 ac 00 80       	mov    0x8000ac74,%eax
80003a86:	8b 5d ec             	mov    0xffffffec(%ebp),%ebx
80003a89:	89 45 e8             	mov    %eax,0xffffffe8(%ebp)
80003a8c:	89 14 98             	mov    %edx,(%eax,%ebx,4)
80003a8f:	8b 75 ec             	mov    0xffffffec(%ebp),%esi
80003a92:	31 db                	xor    %ebx,%ebx
80003a94:	c1 e6 0a             	shl    $0xa,%esi
80003a97:	e9 4c ff ff ff       	jmp    800039e8 <MemoryManager_Page_Map+0x98>
80003a9c:	c7 44 24 04 e0 9a 00 	movl   $0x80009ae0,0x4(%esp,1)
80003aa3:	80 
80003aa4:	c7 04 24 0f 99 00 80 	movl   $0x8000990f,(%esp,1)
80003aab:	e8 50 37 00 00       	call   80007200 <KPrint>
80003ab0:	e8 34 cf ff ff       	call   800009e9 <halt>
80003ab5:	8b 35 84 ac 00 80    	mov    0x8000ac84,%esi
80003abb:	eb 91                	jmp    80003a4e <MemoryManager_Page_Map+0xfe>
80003abd:	c7 44 24 04 e0 9a 00 	movl   $0x80009ae0,0x4(%esp,1)
80003ac4:	80 
80003ac5:	c7 04 24 0f 99 00 80 	movl   $0x8000990f,(%esp,1)
80003acc:	e8 2f 37 00 00       	call   80007200 <KPrint>
80003ad1:	e8 13 cf ff ff       	call   800009e9 <halt>
80003ad6:	8b 35 84 ac 00 80    	mov    0x8000ac84,%esi
80003adc:	e9 9c fe ff ff       	jmp    8000397d <MemoryManager_Page_Map+0x2d>
80003ae1:	eb 0d                	jmp    80003af0 <MemoryManager_AllocInit>
80003ae3:	90                   	nop    
80003ae4:	90                   	nop    
80003ae5:	90                   	nop    
80003ae6:	90                   	nop    
80003ae7:	90                   	nop    
80003ae8:	90                   	nop    
80003ae9:	90                   	nop    
80003aea:	90                   	nop    
80003aeb:	90                   	nop    
80003aec:	90                   	nop    
80003aed:	90                   	nop    
80003aee:	90                   	nop    
80003aef:	90                   	nop    

80003af0 <MemoryManager_AllocInit>:
80003af0:	55                   	push   %ebp
80003af1:	89 e5                	mov    %esp,%ebp
80003af3:	57                   	push   %edi
80003af4:	56                   	push   %esi
80003af5:	53                   	push   %ebx
80003af6:	83 ec 1c             	sub    $0x1c,%esp
80003af9:	8b 45 08             	mov    0x8(%ebp),%eax
80003afc:	8b 55 10             	mov    0x10(%ebp),%edx
80003aff:	8b 7d 0c             	mov    0xc(%ebp),%edi
80003b02:	8b 5d 0c             	mov    0xc(%ebp),%ebx
80003b05:	89 50 04             	mov    %edx,0x4(%eax)
80003b08:	8b 35 74 ac 00 80    	mov    0x8000ac74,%esi
80003b0e:	c1 ef 16             	shr    $0x16,%edi
80003b11:	c7 40 08 00 00 00 00 	movl   $0x0,0x8(%eax)
80003b18:	89 18                	mov    %ebx,(%eax)
80003b1a:	89 5d f0             	mov    %ebx,0xfffffff0(%ebp)
80003b1d:	8b 1c be             	mov    (%esi,%edi,4),%ebx
80003b20:	85 db                	test   %ebx,%ebx
80003b22:	75 4b                	jne    80003b6f <MemoryManager_AllocInit+0x7f>
80003b24:	8b 35 84 ac 00 80    	mov    0x8000ac84,%esi
80003b2a:	83 fe ff             	cmp    $0xffffffff,%esi
80003b2d:	0f 84 55 01 00 00    	je     80003c88 <MemoryManager_AllocInit+0x198>
80003b33:	a1 80 ac 00 80       	mov    0x8000ac80,%eax
80003b38:	89 fa                	mov    %edi,%edx
80003b3a:	c1 e2 0c             	shl    $0xc,%edx
80003b3d:	8b 0c b0             	mov    (%eax,%esi,4),%ecx
80003b40:	4e                   	dec    %esi
80003b41:	a1 7c ac 00 80       	mov    0x8000ac7c,%eax
80003b46:	89 35 84 ac 00 80    	mov    %esi,0x8000ac84
80003b4c:	83 c9 03             	or     $0x3,%ecx
80003b4f:	89 0c b8             	mov    %ecx,(%eax,%edi,4)
80003b52:	a1 78 ac 00 80       	mov    0x8000ac78,%eax
80003b57:	01 c2                	add    %eax,%edx
80003b59:	b8 00 04 00 00       	mov    $0x400,%eax
80003b5e:	89 1a                	mov    %ebx,(%edx)
80003b60:	83 c2 04             	add    $0x4,%edx
80003b63:	48                   	dec    %eax
80003b64:	75 f8                	jne    80003b5e <MemoryManager_AllocInit+0x6e>
80003b66:	8b 35 74 ac 00 80    	mov    0x8000ac74,%esi
80003b6c:	89 0c be             	mov    %ecx,(%esi,%edi,4)
80003b6f:	c7 45 ec 00 00 00 00 	movl   $0x0,0xffffffec(%ebp)
80003b76:	8b 5d 0c             	mov    0xc(%ebp),%ebx
80003b79:	89 f9                	mov    %edi,%ecx
80003b7b:	c1 e1 16             	shl    $0x16,%ecx
80003b7e:	8b 45 10             	mov    0x10(%ebp),%eax
80003b81:	29 cb                	sub    %ecx,%ebx
80003b83:	c1 e9 0c             	shr    $0xc,%ecx
80003b86:	c1 eb 0c             	shr    $0xc,%ebx
80003b89:	39 45 ec             	cmp    %eax,0xffffffec(%ebp)
80003b8c:	73 2c                	jae    80003bba <MemoryManager_AllocInit+0xca>
80003b8e:	89 f6                	mov    %esi,%esi
80003b90:	81 fb 00 04 00 00    	cmp    $0x400,%ebx
80003b96:	74 68                	je     80003c00 <MemoryManager_AllocInit+0x110>
80003b98:	ff 45 ec             	incl   0xffffffec(%ebp)
80003b9b:	8d 3c 0b             	lea    (%ebx,%ecx,1),%edi
80003b9e:	a1 78 ac 00 80       	mov    0x8000ac78,%eax
80003ba3:	81 45 f0 00 10 00 00 	addl   $0x1000,0xfffffff0(%ebp)
80003baa:	43                   	inc    %ebx
80003bab:	c7 04 b8 02 02 00 00 	movl   $0x202,(%eax,%edi,4)
80003bb2:	8b 7d 10             	mov    0x10(%ebp),%edi
80003bb5:	39 7d ec             	cmp    %edi,0xffffffec(%ebp)
80003bb8:	72 d6                	jb     80003b90 <MemoryManager_AllocInit+0xa0>
80003bba:	0f 20 d8             	mov    %cr3,%eax
80003bbd:	0f 22 d8             	mov    %eax,%cr3
80003bc0:	8b 45 0c             	mov    0xc(%ebp),%eax
80003bc3:	8b 75 08             	mov    0x8(%ebp),%esi
80003bc6:	8b 55 0c             	mov    0xc(%ebp),%edx
80003bc9:	c7 00 00 00 00 00    	movl   $0x0,(%eax)
80003bcf:	89 c3                	mov    %eax,%ebx
80003bd1:	83 c3 08             	add    $0x8,%ebx
80003bd4:	c1 65 10 0c          	shll   $0xc,0x10(%ebp)
80003bd8:	89 46 0c             	mov    %eax,0xc(%esi)
80003bdb:	c7 40 04 00 00 00 00 	movl   $0x0,0x4(%eax)
80003be2:	8b 45 10             	mov    0x10(%ebp),%eax
80003be5:	89 5e 10             	mov    %ebx,0x10(%esi)
80003be8:	c7 43 04 00 00 00 00 	movl   $0x0,0x4(%ebx)
80003bef:	83 e8 10             	sub    $0x10,%eax
80003bf2:	89 42 08             	mov    %eax,0x8(%edx)
80003bf5:	83 c4 1c             	add    $0x1c,%esp
80003bf8:	5b                   	pop    %ebx
80003bf9:	5e                   	pop    %esi
80003bfa:	5f                   	pop    %edi
80003bfb:	5d                   	pop    %ebp
80003bfc:	c3                   	ret    
80003bfd:	8d 76 00             	lea    0x0(%esi),%esi
80003c00:	8b 4d f0             	mov    0xfffffff0(%ebp),%ecx
80003c03:	c1 e9 16             	shr    $0x16,%ecx
80003c06:	8b 3c 8e             	mov    (%esi,%ecx,4),%edi
80003c09:	89 4d e8             	mov    %ecx,0xffffffe8(%ebp)
80003c0c:	85 ff                	test   %edi,%edi
80003c0e:	75 4a                	jne    80003c5a <MemoryManager_AllocInit+0x16a>
80003c10:	8b 35 84 ac 00 80    	mov    0x8000ac84,%esi
80003c16:	83 fe ff             	cmp    $0xffffffff,%esi
80003c19:	74 4c                	je     80003c67 <MemoryManager_AllocInit+0x177>
80003c1b:	a1 80 ac 00 80       	mov    0x8000ac80,%eax
80003c20:	8b 4d e8             	mov    0xffffffe8(%ebp),%ecx
80003c23:	8b 14 b0             	mov    (%eax,%esi,4),%edx
80003c26:	4e                   	dec    %esi
80003c27:	a1 7c ac 00 80       	mov    0x8000ac7c,%eax
80003c2c:	89 35 84 ac 00 80    	mov    %esi,0x8000ac84
80003c32:	89 ce                	mov    %ecx,%esi
80003c34:	83 ca 03             	or     $0x3,%edx
80003c37:	89 14 88             	mov    %edx,(%eax,%ecx,4)
80003c3a:	a1 78 ac 00 80       	mov    0x8000ac78,%eax
80003c3f:	c1 e6 0c             	shl    $0xc,%esi
80003c42:	89 f9                	mov    %edi,%ecx
80003c44:	01 c6                	add    %eax,%esi
80003c46:	89 0e                	mov    %ecx,(%esi)
80003c48:	83 c6 04             	add    $0x4,%esi
80003c4b:	4b                   	dec    %ebx
80003c4c:	75 f8                	jne    80003c46 <MemoryManager_AllocInit+0x156>
80003c4e:	8b 35 74 ac 00 80    	mov    0x8000ac74,%esi
80003c54:	8b 45 e8             	mov    0xffffffe8(%ebp),%eax
80003c57:	89 14 86             	mov    %edx,(%esi,%eax,4)
80003c5a:	8b 4d e8             	mov    0xffffffe8(%ebp),%ecx
80003c5d:	31 db                	xor    %ebx,%ebx
80003c5f:	c1 e1 0a             	shl    $0xa,%ecx
80003c62:	e9 31 ff ff ff       	jmp    80003b98 <MemoryManager_AllocInit+0xa8>
80003c67:	c7 44 24 04 e0 9a 00 	movl   $0x80009ae0,0x4(%esp,1)
80003c6e:	80 
80003c6f:	c7 04 24 0f 99 00 80 	movl   $0x8000990f,(%esp,1)
80003c76:	e8 85 35 00 00       	call   80007200 <KPrint>
80003c7b:	e8 69 cd ff ff       	call   800009e9 <halt>
80003c80:	8b 35 84 ac 00 80    	mov    0x8000ac84,%esi
80003c86:	eb 93                	jmp    80003c1b <MemoryManager_AllocInit+0x12b>
80003c88:	c7 44 24 04 e0 9a 00 	movl   $0x80009ae0,0x4(%esp,1)
80003c8f:	80 
80003c90:	c7 04 24 0f 99 00 80 	movl   $0x8000990f,(%esp,1)
80003c97:	e8 64 35 00 00       	call   80007200 <KPrint>
80003c9c:	e8 48 cd ff ff       	call   800009e9 <halt>
80003ca1:	8b 35 84 ac 00 80    	mov    0x8000ac84,%esi
80003ca7:	e9 87 fe ff ff       	jmp    80003b33 <MemoryManager_AllocInit+0x43>
80003cac:	8d 74 26 00          	lea    0x0(%esi,1),%esi

80003cb0 <MemoryManager_Alloc>:
80003cb0:	55                   	push   %ebp
80003cb1:	89 e5                	mov    %esp,%ebp
80003cb3:	57                   	push   %edi
80003cb4:	56                   	push   %esi
80003cb5:	31 f6                	xor    %esi,%esi
80003cb7:	53                   	push   %ebx
80003cb8:	83 ec 1c             	sub    $0x1c,%esp
80003cbb:	8b 7d 0c             	mov    0xc(%ebp),%edi
80003cbe:	8b 4d 08             	mov    0x8(%ebp),%ecx
80003cc1:	8b 57 10             	mov    0x10(%edi),%edx
80003cc4:	83 c1 0b             	add    $0xb,%ecx
80003cc7:	83 e1 fc             	and    $0xfffffffc,%ecx
80003cca:	85 d2                	test   %edx,%edx
80003ccc:	89 55 f0             	mov    %edx,0xfffffff0(%ebp)
80003ccf:	74 1e                	je     80003cef <MemoryManager_Alloc+0x3f>
80003cd1:	eb 0d                	jmp    80003ce0 <MemoryManager_Alloc+0x30>
80003cd3:	90                   	nop    
80003cd4:	90                   	nop    
80003cd5:	90                   	nop    
80003cd6:	90                   	nop    
80003cd7:	90                   	nop    
80003cd8:	90                   	nop    
80003cd9:	90                   	nop    
80003cda:	90                   	nop    
80003cdb:	90                   	nop    
80003cdc:	90                   	nop    
80003cdd:	90                   	nop    
80003cde:	90                   	nop    
80003cdf:	90                   	nop    
80003ce0:	8b 02                	mov    (%edx),%eax
80003ce2:	39 c8                	cmp    %ecx,%eax
80003ce4:	73 30                	jae    80003d16 <MemoryManager_Alloc+0x66>
80003ce6:	89 d6                	mov    %edx,%esi
80003ce8:	8b 52 04             	mov    0x4(%edx),%edx
80003ceb:	85 d2                	test   %edx,%edx
80003ced:	75 f1                	jne    80003ce0 <MemoryManager_Alloc+0x30>
80003cef:	89 4c 24 08          	mov    %ecx,0x8(%esp,1)
80003cf3:	c7 44 24 04 20 9b 00 	movl   $0x80009b20,0x4(%esp,1)
80003cfa:	80 
80003cfb:	c7 04 24 0f 99 00 80 	movl   $0x8000990f,(%esp,1)
80003d02:	e8 f9 34 00 00       	call   80007200 <KPrint>
80003d07:	e8 dd cc ff ff       	call   800009e9 <halt>
80003d0c:	31 c0                	xor    %eax,%eax
80003d0e:	83 c4 1c             	add    $0x1c,%esp
80003d11:	5b                   	pop    %ebx
80003d12:	5e                   	pop    %esi
80003d13:	5f                   	pop    %edi
80003d14:	5d                   	pop    %ebp
80003d15:	c3                   	ret    
80003d16:	29 c8                	sub    %ecx,%eax
80003d18:	8d 1c 11             	lea    (%ecx,%edx,1),%ebx
80003d1b:	39 55 f0             	cmp    %edx,0xfffffff0(%ebp)
80003d1e:	89 03                	mov    %eax,(%ebx)
80003d20:	74 19                	je     80003d3b <MemoryManager_Alloc+0x8b>
80003d22:	89 5e 04             	mov    %ebx,0x4(%esi)
80003d25:	89 0a                	mov    %ecx,(%edx)
80003d27:	8b 42 04             	mov    0x4(%edx),%eax
80003d2a:	89 43 04             	mov    %eax,0x4(%ebx)
80003d2d:	8b 47 0c             	mov    0xc(%edi),%eax
80003d30:	89 42 04             	mov    %eax,0x4(%edx)
80003d33:	8d 42 08             	lea    0x8(%edx),%eax
80003d36:	89 57 0c             	mov    %edx,0xc(%edi)
80003d39:	eb d3                	jmp    80003d0e <MemoryManager_Alloc+0x5e>
80003d3b:	89 5f 10             	mov    %ebx,0x10(%edi)
80003d3e:	eb e5                	jmp    80003d25 <MemoryManager_Alloc+0x75>

80003d40 <MemoryManager_Coalesce>:
80003d40:	55                   	push   %ebp
80003d41:	89 e5                	mov    %esp,%ebp
80003d43:	57                   	push   %edi
80003d44:	8b 7d 08             	mov    0x8(%ebp),%edi
80003d47:	56                   	push   %esi
80003d48:	31 f6                	xor    %esi,%esi
80003d4a:	53                   	push   %ebx
80003d4b:	8b 57 10             	mov    0x10(%edi),%edx
80003d4e:	8b 5a 04             	mov    0x4(%edx),%ebx
80003d51:	85 db                	test   %ebx,%ebx
80003d53:	74 20                	je     80003d75 <MemoryManager_Coalesce+0x35>
80003d55:	8d 74 26 00          	lea    0x0(%esi,1),%esi
80003d59:	8d bc 27 00 00 00 00 	lea    0x0(%edi,1),%edi
80003d60:	8b 0b                	mov    (%ebx),%ecx
80003d62:	8d 04 19             	lea    (%ecx,%ebx,1),%eax
80003d65:	39 c2                	cmp    %eax,%edx
80003d67:	74 17                	je     80003d80 <MemoryManager_Coalesce+0x40>
80003d69:	89 d6                	mov    %edx,%esi
80003d6b:	8b 52 04             	mov    0x4(%edx),%edx
80003d6e:	8b 5a 04             	mov    0x4(%edx),%ebx
80003d71:	85 db                	test   %ebx,%ebx
80003d73:	75 eb                	jne    80003d60 <MemoryManager_Coalesce+0x20>
80003d75:	5b                   	pop    %ebx
80003d76:	5e                   	pop    %esi
80003d77:	5f                   	pop    %edi
80003d78:	5d                   	pop    %ebp
80003d79:	c3                   	ret    
80003d7a:	8d b6 00 00 00 00    	lea    0x0(%esi),%esi
80003d80:	8b 02                	mov    (%edx),%eax
80003d82:	01 c1                	add    %eax,%ecx
80003d84:	3b 57 10             	cmp    0x10(%edi),%edx
80003d87:	89 0b                	mov    %ecx,(%ebx)
80003d89:	74 0e                	je     80003d99 <MemoryManager_Coalesce+0x59>
80003d8b:	85 f6                	test   %esi,%esi
80003d8d:	74 03                	je     80003d92 <MemoryManager_Coalesce+0x52>
80003d8f:	89 5e 04             	mov    %ebx,0x4(%esi)
80003d92:	89 da                	mov    %ebx,%edx
80003d94:	8b 5b 04             	mov    0x4(%ebx),%ebx
80003d97:	eb d8                	jmp    80003d71 <MemoryManager_Coalesce+0x31>
80003d99:	89 5f 10             	mov    %ebx,0x10(%edi)
80003d9c:	eb ed                	jmp    80003d8b <MemoryManager_Coalesce+0x4b>
80003d9e:	89 f6                	mov    %esi,%esi

80003da0 <MemoryManager_Free>:
80003da0:	55                   	push   %ebp
80003da1:	89 e5                	mov    %esp,%ebp
80003da3:	57                   	push   %edi
80003da4:	56                   	push   %esi
80003da5:	53                   	push   %ebx
80003da6:	31 db                	xor    %ebx,%ebx
80003da8:	83 ec 0c             	sub    $0xc,%esp
80003dab:	8b 75 0c             	mov    0xc(%ebp),%esi
80003dae:	8b 7d 08             	mov    0x8(%ebp),%edi
80003db1:	8b 56 0c             	mov    0xc(%esi),%edx
80003db4:	8d 4f f8             	lea    0xfffffff8(%edi),%ecx
80003db7:	39 ca                	cmp    %ecx,%edx
80003db9:	74 14                	je     80003dcf <MemoryManager_Free+0x2f>
80003dbb:	90                   	nop    
80003dbc:	8d 74 26 00          	lea    0x0(%esi,1),%esi
80003dc0:	8b 42 04             	mov    0x4(%edx),%eax
80003dc3:	85 c0                	test   %eax,%eax
80003dc5:	74 79                	je     80003e40 <MemoryManager_Free+0xa0>
80003dc7:	39 c8                	cmp    %ecx,%eax
80003dc9:	89 d3                	mov    %edx,%ebx
80003dcb:	89 c2                	mov    %eax,%edx
80003dcd:	75 f1                	jne    80003dc0 <MemoryManager_Free+0x20>
80003dcf:	8b 42 04             	mov    0x4(%edx),%eax
80003dd2:	85 c0                	test   %eax,%eax
80003dd4:	74 6a                	je     80003e40 <MemoryManager_Free+0xa0>
80003dd6:	85 db                	test   %ebx,%ebx
80003dd8:	74 5f                	je     80003e39 <MemoryManager_Free+0x99>
80003dda:	89 43 04             	mov    %eax,0x4(%ebx)
80003ddd:	8b 46 10             	mov    0x10(%esi),%eax
80003de0:	31 c9                	xor    %ecx,%ecx
80003de2:	39 d0                	cmp    %edx,%eax
80003de4:	76 13                	jbe    80003df9 <MemoryManager_Free+0x59>
80003de6:	8d 76 00             	lea    0x0(%esi),%esi
80003de9:	8d bc 27 00 00 00 00 	lea    0x0(%edi,1),%edi
80003df0:	89 c1                	mov    %eax,%ecx
80003df2:	8b 40 04             	mov    0x4(%eax),%eax
80003df5:	39 d0                	cmp    %edx,%eax
80003df7:	77 f7                	ja     80003df0 <MemoryManager_Free+0x50>
80003df9:	85 c0                	test   %eax,%eax
80003dfb:	74 33                	je     80003e30 <MemoryManager_Free+0x90>
80003dfd:	8b 41 04             	mov    0x4(%ecx),%eax
80003e00:	89 42 04             	mov    %eax,0x4(%edx)
80003e03:	89 51 04             	mov    %edx,0x4(%ecx)
80003e06:	8b 46 08             	mov    0x8(%esi),%eax
80003e09:	40                   	inc    %eax
80003e0a:	89 46 08             	mov    %eax,0x8(%esi)
80003e0d:	83 f8 0a             	cmp    $0xa,%eax
80003e10:	77 08                	ja     80003e1a <MemoryManager_Free+0x7a>
80003e12:	83 c4 0c             	add    $0xc,%esp
80003e15:	5b                   	pop    %ebx
80003e16:	5e                   	pop    %esi
80003e17:	5f                   	pop    %edi
80003e18:	5d                   	pop    %ebp
80003e19:	c3                   	ret    
80003e1a:	c7 46 08 00 00 00 00 	movl   $0x0,0x8(%esi)
80003e21:	89 75 08             	mov    %esi,0x8(%ebp)
80003e24:	83 c4 0c             	add    $0xc,%esp
80003e27:	5b                   	pop    %ebx
80003e28:	5e                   	pop    %esi
80003e29:	5f                   	pop    %edi
80003e2a:	5d                   	pop    %ebp
80003e2b:	e9 10 ff ff ff       	jmp    80003d40 <MemoryManager_Coalesce>
80003e30:	c7 42 04 00 00 00 00 	movl   $0x0,0x4(%edx)
80003e37:	eb ca                	jmp    80003e03 <MemoryManager_Free+0x63>
80003e39:	89 46 0c             	mov    %eax,0xc(%esi)
80003e3c:	eb 9f                	jmp    80003ddd <MemoryManager_Free+0x3d>
80003e3e:	89 f6                	mov    %esi,%esi
80003e40:	89 7c 24 08          	mov    %edi,0x8(%esp,1)
80003e44:	c7 44 24 04 60 9b 00 	movl   $0x80009b60,0x4(%esp,1)
80003e4b:	80 
80003e4c:	c7 04 24 0f 99 00 80 	movl   $0x8000990f,(%esp,1)
80003e53:	e8 a8 33 00 00       	call   80007200 <KPrint>
80003e58:	83 c4 0c             	add    $0xc,%esp
80003e5b:	5b                   	pop    %ebx
80003e5c:	5e                   	pop    %esi
80003e5d:	5f                   	pop    %edi
80003e5e:	5d                   	pop    %ebp
80003e5f:	e9 85 cb ff ff       	jmp    800009e9 <halt>
80003e64:	8d b6 00 00 00 00    	lea    0x0(%esi),%esi
80003e6a:	8d bf 00 00 00 00    	lea    0x0(%edi),%edi

80003e70 <MemoryManager_Expand>:
80003e70:	55                   	push   %ebp
80003e71:	89 e5                	mov    %esp,%ebp
80003e73:	57                   	push   %edi
80003e74:	56                   	push   %esi
80003e75:	53                   	push   %ebx
80003e76:	83 ec 1c             	sub    $0x1c,%esp
80003e79:	c7 45 f0 00 00 00 00 	movl   $0x0,0xfffffff0(%ebp)
80003e80:	8b 45 10             	mov    0x10(%ebp),%eax
80003e83:	8b 75 08             	mov    0x8(%ebp),%esi
80003e86:	8b 4d 0c             	mov    0xc(%ebp),%ecx
80003e89:	8b 58 0c             	mov    0xc(%eax),%ebx
80003e8c:	8d 56 f8             	lea    0xfffffff8(%esi),%edx
80003e8f:	39 d3                	cmp    %edx,%ebx
80003e91:	74 1d                	je     80003eb0 <MemoryManager_Expand+0x40>
80003e93:	8d b6 00 00 00 00    	lea    0x0(%esi),%esi
80003e99:	8d bc 27 00 00 00 00 	lea    0x0(%edi,1),%edi
80003ea0:	8b 43 04             	mov    0x4(%ebx),%eax
80003ea3:	85 c0                	test   %eax,%eax
80003ea5:	74 10                	je     80003eb7 <MemoryManager_Expand+0x47>
80003ea7:	89 5d f0             	mov    %ebx,0xfffffff0(%ebp)
80003eaa:	39 d0                	cmp    %edx,%eax
80003eac:	89 c3                	mov    %eax,%ebx
80003eae:	75 f0                	jne    80003ea0 <MemoryManager_Expand+0x30>
80003eb0:	8b 43 04             	mov    0x4(%ebx),%eax
80003eb3:	85 c0                	test   %eax,%eax
80003eb5:	75 27                	jne    80003ede <MemoryManager_Expand+0x6e>
80003eb7:	89 74 24 08          	mov    %esi,0x8(%esp,1)
80003ebb:	c7 44 24 04 60 9b 00 	movl   $0x80009b60,0x4(%esp,1)
80003ec2:	80 
80003ec3:	c7 04 24 0f 99 00 80 	movl   $0x8000990f,(%esp,1)
80003eca:	e8 31 33 00 00       	call   80007200 <KPrint>
80003ecf:	e8 15 cb ff ff       	call   800009e9 <halt>
80003ed4:	31 c0                	xor    %eax,%eax
80003ed6:	83 c4 1c             	add    $0x1c,%esp
80003ed9:	5b                   	pop    %ebx
80003eda:	5e                   	pop    %esi
80003edb:	5f                   	pop    %edi
80003edc:	5d                   	pop    %ebp
80003edd:	c3                   	ret    
80003ede:	8b 13                	mov    (%ebx),%edx
80003ee0:	8d 73 08             	lea    0x8(%ebx),%esi
80003ee3:	8b 45 10             	mov    0x10(%ebp),%eax
80003ee6:	01 d1                	add    %edx,%ecx
80003ee8:	89 0c 24             	mov    %ecx,(%esp,1)
80003eeb:	89 44 24 04          	mov    %eax,0x4(%esp,1)
80003eef:	e8 bc fd ff ff       	call   80003cb0 <MemoryManager_Alloc>
80003ef4:	8b 0b                	mov    (%ebx),%ecx
80003ef6:	89 c7                	mov    %eax,%edi
80003ef8:	89 45 ec             	mov    %eax,0xffffffec(%ebp)
80003efb:	d1 e9                	shr    %ecx
80003efd:	73 01                	jae    80003f00 <MemoryManager_Expand+0x90>
80003eff:	a4                   	movsb  %ds:(%esi),%es:(%edi)
80003f00:	d1 e9                	shr    %ecx
80003f02:	73 02                	jae    80003f06 <MemoryManager_Expand+0x96>
80003f04:	66 a5                	movsw  %ds:(%esi),%es:(%edi)
80003f06:	f3 a5                	repz movsl %ds:(%esi),%es:(%edi)
80003f08:	8b 4d f0             	mov    0xfffffff0(%ebp),%ecx
80003f0b:	8b 43 04             	mov    0x4(%ebx),%eax
80003f0e:	85 c9                	test   %ecx,%ecx
80003f10:	74 65                	je     80003f77 <MemoryManager_Expand+0x107>
80003f12:	8b 75 f0             	mov    0xfffffff0(%ebp),%esi
80003f15:	89 46 04             	mov    %eax,0x4(%esi)
80003f18:	8b 7d 10             	mov    0x10(%ebp),%edi
80003f1b:	31 d2                	xor    %edx,%edx
80003f1d:	8b 47 10             	mov    0x10(%edi),%eax
80003f20:	39 d8                	cmp    %ebx,%eax
80003f22:	76 15                	jbe    80003f39 <MemoryManager_Expand+0xc9>
80003f24:	8d b6 00 00 00 00    	lea    0x0(%esi),%esi
80003f2a:	8d bf 00 00 00 00    	lea    0x0(%edi),%edi
80003f30:	89 c2                	mov    %eax,%edx
80003f32:	8b 40 04             	mov    0x4(%eax),%eax
80003f35:	39 d8                	cmp    %ebx,%eax
80003f37:	77 f7                	ja     80003f30 <MemoryManager_Expand+0xc0>
80003f39:	85 c0                	test   %eax,%eax
80003f3b:	74 31                	je     80003f6e <MemoryManager_Expand+0xfe>
80003f3d:	8b 42 04             	mov    0x4(%edx),%eax
80003f40:	89 43 04             	mov    %eax,0x4(%ebx)
80003f43:	89 5a 04             	mov    %ebx,0x4(%edx)
80003f46:	8b 55 10             	mov    0x10(%ebp),%edx
80003f49:	8b 42 08             	mov    0x8(%edx),%eax
80003f4c:	40                   	inc    %eax
80003f4d:	83 f8 0a             	cmp    $0xa,%eax
80003f50:	89 42 08             	mov    %eax,0x8(%edx)
80003f53:	77 08                	ja     80003f5d <MemoryManager_Expand+0xed>
80003f55:	8b 45 ec             	mov    0xffffffec(%ebp),%eax
80003f58:	e9 79 ff ff ff       	jmp    80003ed6 <MemoryManager_Expand+0x66>
80003f5d:	c7 42 08 00 00 00 00 	movl   $0x0,0x8(%edx)
80003f64:	89 14 24             	mov    %edx,(%esp,1)
80003f67:	e8 d4 fd ff ff       	call   80003d40 <MemoryManager_Coalesce>
80003f6c:	eb e7                	jmp    80003f55 <MemoryManager_Expand+0xe5>
80003f6e:	c7 43 04 00 00 00 00 	movl   $0x0,0x4(%ebx)
80003f75:	eb cc                	jmp    80003f43 <MemoryManager_Expand+0xd3>
80003f77:	8b 4d 10             	mov    0x10(%ebp),%ecx
80003f7a:	89 41 0c             	mov    %eax,0xc(%ecx)
80003f7d:	eb 99                	jmp    80003f18 <MemoryManager_Expand+0xa8>
80003f7f:	90                   	nop    

80003f80 <MemoryManager_LockInit>:
80003f80:	55                   	push   %ebp
80003f81:	89 e5                	mov    %esp,%ebp
80003f83:	83 ec 08             	sub    $0x8,%esp
80003f86:	c7 44 24 04 60 ae 00 	movl   $0x8000ae60,0x4(%esp,1)
80003f8d:	80 
80003f8e:	c7 04 24 08 99 00 80 	movl   $0x80009908,(%esp,1)
80003f95:	e8 26 f6 ff ff       	call   800035c0 <Lock_Init>
80003f9a:	89 ec                	mov    %ebp,%esp
80003f9c:	5d                   	pop    %ebp
80003f9d:	c3                   	ret    
80003f9e:	89 f6                	mov    %esi,%esi

80003fa0 <MemoryManager_Lock>:
80003fa0:	55                   	push   %ebp
80003fa1:	89 e5                	mov    %esp,%ebp
80003fa3:	83 ec 08             	sub    $0x8,%esp
80003fa6:	c7 04 24 60 ae 00 80 	movl   $0x8000ae60,(%esp,1)
80003fad:	e8 3e f6 ff ff       	call   800035f0 <Lock_Lock>
80003fb2:	89 ec                	mov    %ebp,%esp
80003fb4:	5d                   	pop    %ebp
80003fb5:	c3                   	ret    
80003fb6:	8d 76 00             	lea    0x0(%esi),%esi
80003fb9:	8d bc 27 00 00 00 00 	lea    0x0(%edi,1),%edi

80003fc0 <MemoryManager_Unlock>:
80003fc0:	55                   	push   %ebp
80003fc1:	89 e5                	mov    %esp,%ebp
80003fc3:	83 ec 08             	sub    $0x8,%esp
80003fc6:	c7 04 24 60 ae 00 80 	movl   $0x8000ae60,(%esp,1)
80003fcd:	e8 5e f6 ff ff       	call   80003630 <Lock_Unlock>
80003fd2:	89 ec                	mov    %ebp,%esp
80003fd4:	5d                   	pop    %ebp
80003fd5:	c3                   	ret    
80003fd6:	8d 76 00             	lea    0x0(%esi),%esi
80003fd9:	8d bc 27 00 00 00 00 	lea    0x0(%edi,1),%edi

80003fe0 <MemoryManager_CreateModuleInterface>:
80003fe0:	55                   	push   %ebp
80003fe1:	89 e5                	mov    %esp,%ebp
80003fe3:	83 ec 08             	sub    $0x8,%esp
80003fe6:	c7 04 24 2f 99 00 80 	movl   $0x8000992f,(%esp,1)
80003fed:	e8 fe 1b 00 00       	call   80005bf0 <ObjectManager_ConstructPath>
80003ff2:	c7 04 24 3f 99 00 80 	movl   $0x8000993f,(%esp,1)
80003ff9:	e8 12 1d 00 00       	call   80005d10 <ObjectManager_ConstructKey>
80003ffe:	a1 68 ac 00 80       	mov    0x8000ac68,%eax
80004003:	89 04 24             	mov    %eax,(%esp,1)
80004006:	e8 c5 20 00 00       	call   800060d0 <ObjectManager_CreateEntityWord>
8000400b:	89 ec                	mov    %ebp,%esp
8000400d:	5d                   	pop    %ebp
8000400e:	c3                   	ret    
8000400f:	90                   	nop    

80004010 <MemoryManager_Page_AddFree>:
80004010:	55                   	push   %ebp
80004011:	8b 15 84 ac 00 80    	mov    0x8000ac84,%edx
80004017:	89 e5                	mov    %esp,%ebp
80004019:	8b 4d 08             	mov    0x8(%ebp),%ecx
8000401c:	a1 80 ac 00 80       	mov    0x8000ac80,%eax
80004021:	89 0c 90             	mov    %ecx,(%eax,%edx,4)
80004024:	ff 05 84 ac 00 80    	incl   0x8000ac84
8000402a:	5d                   	pop    %ebp
8000402b:	c3                   	ret    
8000402c:	8d 74 26 00          	lea    0x0(%esi,1),%esi

80004030 <MemoryManager_GetPTValue>:
80004030:	55                   	push   %ebp
80004031:	89 e5                	mov    %esp,%ebp
80004033:	83 ec 18             	sub    $0x18,%esp
80004036:	89 7d fc             	mov    %edi,0xfffffffc(%ebp)
80004039:	a1 74 ac 00 80       	mov    0x8000ac74,%eax
8000403e:	8b 7d 08             	mov    0x8(%ebp),%edi
80004041:	89 75 f8             	mov    %esi,0xfffffff8(%ebp)
80004044:	89 5d f4             	mov    %ebx,0xfffffff4(%ebp)
80004047:	89 fe                	mov    %edi,%esi
80004049:	c1 ee 16             	shr    $0x16,%esi
8000404c:	8b 1c b0             	mov    (%eax,%esi,4),%ebx
8000404f:	85 db                	test   %ebx,%ebx
80004051:	75 46                	jne    80004099 <MemoryManager_GetPTValue+0x69>
80004053:	8b 15 84 ac 00 80    	mov    0x8000ac84,%edx
80004059:	83 fa ff             	cmp    $0xffffffff,%edx
8000405c:	74 60                	je     800040be <MemoryManager_GetPTValue+0x8e>
8000405e:	a1 80 ac 00 80       	mov    0x8000ac80,%eax
80004063:	8b 0c 90             	mov    (%eax,%edx,4),%ecx
80004066:	4a                   	dec    %edx
80004067:	89 15 84 ac 00 80    	mov    %edx,0x8000ac84
8000406d:	a1 7c ac 00 80       	mov    0x8000ac7c,%eax
80004072:	83 c9 03             	or     $0x3,%ecx
80004075:	89 f2                	mov    %esi,%edx
80004077:	c1 e2 0c             	shl    $0xc,%edx
8000407a:	89 0c b0             	mov    %ecx,(%eax,%esi,4)
8000407d:	a1 78 ac 00 80       	mov    0x8000ac78,%eax
80004082:	01 c2                	add    %eax,%edx
80004084:	b8 00 04 00 00       	mov    $0x400,%eax
80004089:	89 1a                	mov    %ebx,(%edx)
8000408b:	83 c2 04             	add    $0x4,%edx
8000408e:	48                   	dec    %eax
8000408f:	75 f8                	jne    80004089 <MemoryManager_GetPTValue+0x59>
80004091:	a1 74 ac 00 80       	mov    0x8000ac74,%eax
80004096:	89 0c b0             	mov    %ecx,(%eax,%esi,4)
80004099:	89 f1                	mov    %esi,%ecx
8000409b:	c1 e1 16             	shl    $0x16,%ecx
8000409e:	8b 1d 78 ac 00 80    	mov    0x8000ac78,%ebx
800040a4:	29 cf                	sub    %ecx,%edi
800040a6:	c1 ef 0c             	shr    $0xc,%edi
800040a9:	8b 75 f8             	mov    0xfffffff8(%ebp),%esi
800040ac:	c1 e9 0c             	shr    $0xc,%ecx
800040af:	01 f9                	add    %edi,%ecx
800040b1:	8b 7d fc             	mov    0xfffffffc(%ebp),%edi
800040b4:	8b 04 8b             	mov    (%ebx,%ecx,4),%eax
800040b7:	8b 5d f4             	mov    0xfffffff4(%ebp),%ebx
800040ba:	89 ec                	mov    %ebp,%esp
800040bc:	5d                   	pop    %ebp
800040bd:	c3                   	ret    
800040be:	c7 44 24 04 e0 9a 00 	movl   $0x80009ae0,0x4(%esp,1)
800040c5:	80 
800040c6:	c7 04 24 0f 99 00 80 	movl   $0x8000990f,(%esp,1)
800040cd:	e8 2e 31 00 00       	call   80007200 <KPrint>
800040d2:	e8 12 c9 ff ff       	call   800009e9 <halt>
800040d7:	8b 15 84 ac 00 80    	mov    0x8000ac84,%edx
800040dd:	e9 7c ff ff ff       	jmp    8000405e <MemoryManager_GetPTValue+0x2e>
800040e2:	8d b4 26 00 00 00 00 	lea    0x0(%esi,1),%esi
800040e9:	8d bc 27 00 00 00 00 	lea    0x0(%edi,1),%edi

800040f0 <MemoryManager_GetPTAddress>:
800040f0:	55                   	push   %ebp
800040f1:	89 e5                	mov    %esp,%ebp
800040f3:	83 ec 18             	sub    $0x18,%esp
800040f6:	89 5d f4             	mov    %ebx,0xfffffff4(%ebp)
800040f9:	a1 74 ac 00 80       	mov    0x8000ac74,%eax
800040fe:	8b 5d 08             	mov    0x8(%ebp),%ebx
80004101:	89 75 f8             	mov    %esi,0xfffffff8(%ebp)
80004104:	89 7d fc             	mov    %edi,0xfffffffc(%ebp)
80004107:	c1 eb 16             	shr    $0x16,%ebx
8000410a:	8b 34 98             	mov    (%eax,%ebx,4),%esi
8000410d:	85 f6                	test   %esi,%esi
8000410f:	75 48                	jne    80004159 <MemoryManager_GetPTAddress+0x69>
80004111:	8b 15 84 ac 00 80    	mov    0x8000ac84,%edx
80004117:	83 fa ff             	cmp    $0xffffffff,%edx
8000411a:	74 4f                	je     8000416b <MemoryManager_GetPTAddress+0x7b>
8000411c:	a1 80 ac 00 80       	mov    0x8000ac80,%eax
80004121:	89 f1                	mov    %esi,%ecx
80004123:	8b 3c 90             	mov    (%eax,%edx,4),%edi
80004126:	4a                   	dec    %edx
80004127:	a1 7c ac 00 80       	mov    0x8000ac7c,%eax
8000412c:	89 15 84 ac 00 80    	mov    %edx,0x8000ac84
80004132:	89 da                	mov    %ebx,%edx
80004134:	83 cf 03             	or     $0x3,%edi
80004137:	89 3c 98             	mov    %edi,(%eax,%ebx,4)
8000413a:	a1 78 ac 00 80       	mov    0x8000ac78,%eax
8000413f:	c1 e2 0c             	shl    $0xc,%edx
80004142:	01 c2                	add    %eax,%edx
80004144:	b8 00 04 00 00       	mov    $0x400,%eax
80004149:	89 0a                	mov    %ecx,(%edx)
8000414b:	83 c2 04             	add    $0x4,%edx
8000414e:	48                   	dec    %eax
8000414f:	75 f8                	jne    80004149 <MemoryManager_GetPTAddress+0x59>
80004151:	a1 74 ac 00 80       	mov    0x8000ac74,%eax
80004156:	89 3c 98             	mov    %edi,(%eax,%ebx,4)
80004159:	c1 e3 16             	shl    $0x16,%ebx
8000415c:	8b 75 f8             	mov    0xfffffff8(%ebp),%esi
8000415f:	89 d8                	mov    %ebx,%eax
80004161:	8b 7d fc             	mov    0xfffffffc(%ebp),%edi
80004164:	8b 5d f4             	mov    0xfffffff4(%ebp),%ebx
80004167:	89 ec                	mov    %ebp,%esp
80004169:	5d                   	pop    %ebp
8000416a:	c3                   	ret    
8000416b:	c7 44 24 04 e0 9a 00 	movl   $0x80009ae0,0x4(%esp,1)
80004172:	80 
80004173:	c7 04 24 0f 99 00 80 	movl   $0x8000990f,(%esp,1)
8000417a:	e8 81 30 00 00       	call   80007200 <KPrint>
8000417f:	e8 65 c8 ff ff       	call   800009e9 <halt>
80004184:	8b 15 84 ac 00 80    	mov    0x8000ac84,%edx
8000418a:	eb 90                	jmp    8000411c <MemoryManager_GetPTAddress+0x2c>
8000418c:	8d 74 26 00          	lea    0x0(%esi,1),%esi

80004190 <MemoryManager_Page_Unmap>:
80004190:	55                   	push   %ebp
80004191:	89 e5                	mov    %esp,%ebp
80004193:	57                   	push   %edi
80004194:	31 ff                	xor    %edi,%edi
80004196:	56                   	push   %esi
80004197:	53                   	push   %ebx
80004198:	83 ec 0c             	sub    $0xc,%esp
8000419b:	8b 75 08             	mov    0x8(%ebp),%esi
8000419e:	89 34 24             	mov    %esi,(%esp,1)
800041a1:	e8 4a ff ff ff       	call   800040f0 <MemoryManager_GetPTAddress>
800041a6:	89 f1                	mov    %esi,%ecx
800041a8:	29 c1                	sub    %eax,%ecx
800041aa:	89 c3                	mov    %eax,%ebx
800041ac:	c1 e9 0c             	shr    $0xc,%ecx
800041af:	c1 eb 0c             	shr    $0xc,%ebx
800041b2:	3b 7d 0c             	cmp    0xc(%ebp),%edi
800041b5:	73 2d                	jae    800041e4 <MemoryManager_Page_Unmap+0x54>
800041b7:	89 f6                	mov    %esi,%esi
800041b9:	8d bc 27 00 00 00 00 	lea    0x0(%edi,1),%edi
800041c0:	81 f9 00 04 00 00    	cmp    $0x400,%ecx
800041c6:	74 38                	je     80004200 <MemoryManager_Page_Unmap+0x70>
800041c8:	a1 78 ac 00 80       	mov    0x8000ac78,%eax
800041cd:	8d 14 19             	lea    (%ecx,%ebx,1),%edx
800041d0:	47                   	inc    %edi
800041d1:	41                   	inc    %ecx
800041d2:	81 c6 00 10 00 00    	add    $0x1000,%esi
800041d8:	c7 04 90 00 00 00 00 	movl   $0x0,(%eax,%edx,4)
800041df:	3b 7d 0c             	cmp    0xc(%ebp),%edi
800041e2:	72 dc                	jb     800041c0 <MemoryManager_Page_Unmap+0x30>
800041e4:	0f 20 d8             	mov    %cr3,%eax
800041e7:	0f 22 d8             	mov    %eax,%cr3
800041ea:	83 c4 0c             	add    $0xc,%esp
800041ed:	5b                   	pop    %ebx
800041ee:	5e                   	pop    %esi
800041ef:	5f                   	pop    %edi
800041f0:	5d                   	pop    %ebp
800041f1:	c3                   	ret    
800041f2:	8d b4 26 00 00 00 00 	lea    0x0(%esi,1),%esi
800041f9:	8d bc 27 00 00 00 00 	lea    0x0(%edi,1),%edi
80004200:	89 34 24             	mov    %esi,(%esp,1)
80004203:	e8 e8 fe ff ff       	call   800040f0 <MemoryManager_GetPTAddress>
80004208:	31 c9                	xor    %ecx,%ecx
8000420a:	89 c3                	mov    %eax,%ebx
8000420c:	c1 eb 0c             	shr    $0xc,%ebx
8000420f:	eb b7                	jmp    800041c8 <MemoryManager_Page_Unmap+0x38>
80004211:	eb 0d                	jmp    80004220 <MemoryManager_Page_MapZeroFill>
80004213:	90                   	nop    
80004214:	90                   	nop    
80004215:	90                   	nop    
80004216:	90                   	nop    
80004217:	90                   	nop    
80004218:	90                   	nop    
80004219:	90                   	nop    
8000421a:	90                   	nop    
8000421b:	90                   	nop    
8000421c:	90                   	nop    
8000421d:	90                   	nop    
8000421e:	90                   	nop    
8000421f:	90                   	nop    

80004220 <MemoryManager_Page_MapZeroFill>:
80004220:	55                   	push   %ebp
80004221:	89 e5                	mov    %esp,%ebp
80004223:	57                   	push   %edi
80004224:	31 ff                	xor    %edi,%edi
80004226:	56                   	push   %esi
80004227:	53                   	push   %ebx
80004228:	83 ec 0c             	sub    $0xc,%esp
8000422b:	8b 75 08             	mov    0x8(%ebp),%esi
8000422e:	89 34 24             	mov    %esi,(%esp,1)
80004231:	e8 ba fe ff ff       	call   800040f0 <MemoryManager_GetPTAddress>
80004236:	89 f1                	mov    %esi,%ecx
80004238:	29 c1                	sub    %eax,%ecx
8000423a:	89 c3                	mov    %eax,%ebx
8000423c:	c1 e9 0c             	shr    $0xc,%ecx
8000423f:	c1 eb 0c             	shr    $0xc,%ebx
80004242:	3b 7d 0c             	cmp    0xc(%ebp),%edi
80004245:	73 2d                	jae    80004274 <MemoryManager_Page_MapZeroFill+0x54>
80004247:	89 f6                	mov    %esi,%esi
80004249:	8d bc 27 00 00 00 00 	lea    0x0(%edi,1),%edi
80004250:	81 f9 00 04 00 00    	cmp    $0x400,%ecx
80004256:	74 38                	je     80004290 <MemoryManager_Page_MapZeroFill+0x70>
80004258:	a1 78 ac 00 80       	mov    0x8000ac78,%eax
8000425d:	8d 14 19             	lea    (%ecx,%ebx,1),%edx
80004260:	47                   	inc    %edi
80004261:	41                   	inc    %ecx
80004262:	81 c6 00 10 00 00    	add    $0x1000,%esi
80004268:	c7 04 90 02 02 00 00 	movl   $0x202,(%eax,%edx,4)
8000426f:	3b 7d 0c             	cmp    0xc(%ebp),%edi
80004272:	72 dc                	jb     80004250 <MemoryManager_Page_MapZeroFill+0x30>
80004274:	0f 20 d8             	mov    %cr3,%eax
80004277:	0f 22 d8             	mov    %eax,%cr3
8000427a:	83 c4 0c             	add    $0xc,%esp
8000427d:	5b                   	pop    %ebx
8000427e:	5e                   	pop    %esi
8000427f:	5f                   	pop    %edi
80004280:	5d                   	pop    %ebp
80004281:	c3                   	ret    
80004282:	8d b4 26 00 00 00 00 	lea    0x0(%esi,1),%esi
80004289:	8d bc 27 00 00 00 00 	lea    0x0(%edi,1),%edi
80004290:	89 34 24             	mov    %esi,(%esp,1)
80004293:	e8 58 fe ff ff       	call   800040f0 <MemoryManager_GetPTAddress>
80004298:	31 c9                	xor    %ecx,%ecx
8000429a:	89 c3                	mov    %eax,%ebx
8000429c:	c1 eb 0c             	shr    $0xc,%ebx
8000429f:	eb b7                	jmp    80004258 <MemoryManager_Page_MapZeroFill+0x38>
800042a1:	eb 0d                	jmp    800042b0 <MemoryManager_Page_Allocate>
800042a3:	90                   	nop    
800042a4:	90                   	nop    
800042a5:	90                   	nop    
800042a6:	90                   	nop    
800042a7:	90                   	nop    
800042a8:	90                   	nop    
800042a9:	90                   	nop    
800042aa:	90                   	nop    
800042ab:	90                   	nop    
800042ac:	90                   	nop    
800042ad:	90                   	nop    
800042ae:	90                   	nop    
800042af:	90                   	nop    

800042b0 <MemoryManager_Page_Allocate>:
800042b0:	55                   	push   %ebp
800042b1:	89 e5                	mov    %esp,%ebp
800042b3:	83 ec 18             	sub    $0x18,%esp
800042b6:	89 5d f4             	mov    %ebx,0xfffffff4(%ebp)
800042b9:	8b 5d 08             	mov    0x8(%ebp),%ebx
800042bc:	89 75 f8             	mov    %esi,0xfffffff8(%ebp)
800042bf:	89 7d fc             	mov    %edi,0xfffffffc(%ebp)
800042c2:	89 1c 24             	mov    %ebx,(%esp,1)
800042c5:	e8 26 fe ff ff       	call   800040f0 <MemoryManager_GetPTAddress>
800042ca:	8b 15 84 ac 00 80    	mov    0x8000ac84,%edx
800042d0:	89 d9                	mov    %ebx,%ecx
800042d2:	29 c1                	sub    %eax,%ecx
800042d4:	c1 e9 0c             	shr    $0xc,%ecx
800042d7:	8b 35 78 ac 00 80    	mov    0x8000ac78,%esi
800042dd:	c1 e8 0c             	shr    $0xc,%eax
800042e0:	83 fa ff             	cmp    $0xffffffff,%edx
800042e3:	8d 3c 01             	lea    (%ecx,%eax,1),%edi
800042e6:	74 58                	je     80004340 <MemoryManager_Page_Allocate+0x90>
800042e8:	a1 80 ac 00 80       	mov    0x8000ac80,%eax
800042ed:	8b 04 90             	mov    (%eax,%edx,4),%eax
800042f0:	4a                   	dec    %edx
800042f1:	89 15 84 ac 00 80    	mov    %edx,0x8000ac84
800042f7:	83 c8 03             	or     $0x3,%eax
800042fa:	89 04 be             	mov    %eax,(%esi,%edi,4)
800042fd:	83 7d 0c 01          	cmpl   $0x1,0xc(%ebp)
80004301:	74 1d                	je     80004320 <MemoryManager_Page_Allocate+0x70>
80004303:	89 5d f0             	mov    %ebx,0xfffffff0(%ebp)
80004306:	0f 01 7d f0          	invlpg 0xfffffff0(%ebp)
8000430a:	8b 5d f4             	mov    0xfffffff4(%ebp),%ebx
8000430d:	8b 75 f8             	mov    0xfffffff8(%ebp),%esi
80004310:	8b 7d fc             	mov    0xfffffffc(%ebp),%edi
80004313:	89 ec                	mov    %ebp,%esp
80004315:	5d                   	pop    %ebp
80004316:	c3                   	ret    
80004317:	89 f6                	mov    %esi,%esi
80004319:	8d bc 27 00 00 00 00 	lea    0x0(%edi,1),%edi
80004320:	31 d2                	xor    %edx,%edx
80004322:	b8 00 04 00 00       	mov    $0x400,%eax
80004327:	89 d9                	mov    %ebx,%ecx
80004329:	89 11                	mov    %edx,(%ecx)
8000432b:	83 c1 04             	add    $0x4,%ecx
8000432e:	48                   	dec    %eax
8000432f:	75 f8                	jne    80004329 <MemoryManager_Page_Allocate+0x79>
80004331:	eb d0                	jmp    80004303 <MemoryManager_Page_Allocate+0x53>
80004333:	8d b6 00 00 00 00    	lea    0x0(%esi),%esi
80004339:	8d bc 27 00 00 00 00 	lea    0x0(%edi,1),%edi
80004340:	c7 44 24 04 e0 9a 00 	movl   $0x80009ae0,0x4(%esp,1)
80004347:	80 
80004348:	c7 04 24 0f 99 00 80 	movl   $0x8000990f,(%esp,1)
8000434f:	e8 ac 2e 00 00       	call   80007200 <KPrint>
80004354:	e8 90 c6 ff ff       	call   800009e9 <halt>
80004359:	8b 15 84 ac 00 80    	mov    0x8000ac84,%edx
8000435f:	eb 87                	jmp    800042e8 <MemoryManager_Page_Allocate+0x38>
80004361:	eb 0d                	jmp    80004370 <MemoryManager_DumpAllocation>
80004363:	90                   	nop    
80004364:	90                   	nop    
80004365:	90                   	nop    
80004366:	90                   	nop    
80004367:	90                   	nop    
80004368:	90                   	nop    
80004369:	90                   	nop    
8000436a:	90                   	nop    
8000436b:	90                   	nop    
8000436c:	90                   	nop    
8000436d:	90                   	nop    
8000436e:	90                   	nop    
8000436f:	90                   	nop    

80004370 <MemoryManager_DumpAllocation>:
80004370:	55                   	push   %ebp
80004371:	89 e5                	mov    %esp,%ebp
80004373:	53                   	push   %ebx
80004374:	83 ec 24             	sub    $0x24,%esp
80004377:	c7 44 24 04 53 99 00 	movl   $0x80009953,0x4(%esp,1)
8000437e:	80 
8000437f:	c7 04 24 0f 99 00 80 	movl   $0x8000990f,(%esp,1)
80004386:	e8 75 2e 00 00       	call   80007200 <KPrint>
8000438b:	8b 45 08             	mov    0x8(%ebp),%eax
8000438e:	8b 58 0c             	mov    0xc(%eax),%ebx
80004391:	85 db                	test   %ebx,%ebx
80004393:	74 47                	je     800043dc <MemoryManager_DumpAllocation+0x6c>
80004395:	8d 74 26 00          	lea    0x0(%esi,1),%esi
80004399:	8d bc 27 00 00 00 00 	lea    0x0(%edi,1),%edi
800043a0:	8b 43 04             	mov    0x4(%ebx),%eax
800043a3:	89 d9                	mov    %ebx,%ecx
800043a5:	8d 53 08             	lea    0x8(%ebx),%edx
800043a8:	89 44 24 14          	mov    %eax,0x14(%esp,1)
800043ac:	8b 03                	mov    (%ebx),%eax
800043ae:	89 44 24 10          	mov    %eax,0x10(%esp,1)
800043b2:	8b 03                	mov    (%ebx),%eax
800043b4:	c7 04 24 0f 99 00 80 	movl   $0x8000990f,(%esp,1)
800043bb:	89 54 24 08          	mov    %edx,0x8(%esp,1)
800043bf:	c7 44 24 04 71 99 00 	movl   $0x80009971,0x4(%esp,1)
800043c6:	80 
800043c7:	01 c1                	add    %eax,%ecx
800043c9:	83 c1 08             	add    $0x8,%ecx
800043cc:	89 4c 24 0c          	mov    %ecx,0xc(%esp,1)
800043d0:	e8 2b 2e 00 00       	call   80007200 <KPrint>
800043d5:	8b 5b 04             	mov    0x4(%ebx),%ebx
800043d8:	85 db                	test   %ebx,%ebx
800043da:	75 c4                	jne    800043a0 <MemoryManager_DumpAllocation+0x30>
800043dc:	83 c4 24             	add    $0x24,%esp
800043df:	5b                   	pop    %ebx
800043e0:	5d                   	pop    %ebp
800043e1:	c3                   	ret    
800043e2:	8d b4 26 00 00 00 00 	lea    0x0(%esi,1),%esi
800043e9:	8d bc 27 00 00 00 00 	lea    0x0(%edi,1),%edi

800043f0 <MemoryManager_DumpFreeMap>:
800043f0:	55                   	push   %ebp
800043f1:	89 e5                	mov    %esp,%ebp
800043f3:	53                   	push   %ebx
800043f4:	83 ec 14             	sub    $0x14,%esp
800043f7:	c7 44 24 04 8f 99 00 	movl   $0x8000998f,0x4(%esp,1)
800043fe:	80 
800043ff:	c7 04 24 0f 99 00 80 	movl   $0x8000990f,(%esp,1)
80004406:	e8 f5 2d 00 00       	call   80007200 <KPrint>
8000440b:	8b 45 08             	mov    0x8(%ebp),%eax
8000440e:	8b 58 10             	mov    0x10(%eax),%ebx
80004411:	85 db                	test   %ebx,%ebx
80004413:	74 40                	je     80004455 <MemoryManager_DumpFreeMap+0x65>
80004415:	8d 74 26 00          	lea    0x0(%esi,1),%esi
80004419:	8d bc 27 00 00 00 00 	lea    0x0(%edi,1),%edi
80004420:	8b 03                	mov    (%ebx),%eax
80004422:	89 da                	mov    %ebx,%edx
80004424:	89 44 24 10          	mov    %eax,0x10(%esp,1)
80004428:	8b 03                	mov    (%ebx),%eax
8000442a:	c7 04 24 0f 99 00 80 	movl   $0x8000990f,(%esp,1)
80004431:	c7 44 24 04 ad 99 00 	movl   $0x800099ad,0x4(%esp,1)
80004438:	80 
80004439:	01 c2                	add    %eax,%edx
8000443b:	83 c2 08             	add    $0x8,%edx
8000443e:	89 54 24 0c          	mov    %edx,0xc(%esp,1)
80004442:	8d 53 08             	lea    0x8(%ebx),%edx
80004445:	89 54 24 08          	mov    %edx,0x8(%esp,1)
80004449:	e8 b2 2d 00 00       	call   80007200 <KPrint>
8000444e:	8b 5b 04             	mov    0x4(%ebx),%ebx
80004451:	85 db                	test   %ebx,%ebx
80004453:	75 cb                	jne    80004420 <MemoryManager_DumpFreeMap+0x30>
80004455:	83 c4 14             	add    $0x14,%esp
80004458:	5b                   	pop    %ebx
80004459:	5d                   	pop    %ebp
8000445a:	c3                   	ret    
8000445b:	90                   	nop    
8000445c:	8d 74 26 00          	lea    0x0(%esi,1),%esi

80004460 <MemoryManager_KAlloc>:
80004460:	55                   	push   %ebp
80004461:	89 e5                	mov    %esp,%ebp
80004463:	83 ec 08             	sub    $0x8,%esp
80004466:	c7 44 24 04 90 ac 00 	movl   $0x8000ac90,0x4(%esp,1)
8000446d:	80 
8000446e:	8b 45 08             	mov    0x8(%ebp),%eax
80004471:	89 04 24             	mov    %eax,(%esp,1)
80004474:	e8 37 f8 ff ff       	call   80003cb0 <MemoryManager_Alloc>
80004479:	89 ec                	mov    %ebp,%esp
8000447b:	5d                   	pop    %ebp
8000447c:	c3                   	ret    
8000447d:	8d 76 00             	lea    0x0(%esi),%esi

80004480 <MemoryManager_KFree>:
80004480:	55                   	push   %ebp
80004481:	89 e5                	mov    %esp,%ebp
80004483:	83 ec 08             	sub    $0x8,%esp
80004486:	c7 44 24 04 90 ac 00 	movl   $0x8000ac90,0x4(%esp,1)
8000448d:	80 
8000448e:	8b 45 08             	mov    0x8(%ebp),%eax
80004491:	89 04 24             	mov    %eax,(%esp,1)
80004494:	e8 07 f9 ff ff       	call   80003da0 <MemoryManager_Free>
80004499:	89 ec                	mov    %ebp,%esp
8000449b:	5d                   	pop    %ebp
8000449c:	c3                   	ret    
8000449d:	8d 76 00             	lea    0x0(%esi),%esi

800044a0 <MemoryManager_KExpand>:
800044a0:	55                   	push   %ebp
800044a1:	89 e5                	mov    %esp,%ebp
800044a3:	83 ec 18             	sub    $0x18,%esp
800044a6:	c7 44 24 08 90 ac 00 	movl   $0x8000ac90,0x8(%esp,1)
800044ad:	80 
800044ae:	8b 45 0c             	mov    0xc(%ebp),%eax
800044b1:	89 44 24 04          	mov    %eax,0x4(%esp,1)
800044b5:	8b 45 08             	mov    0x8(%ebp),%eax
800044b8:	89 04 24             	mov    %eax,(%esp,1)
800044bb:	e8 b0 f9 ff ff       	call   80003e70 <MemoryManager_Expand>
800044c0:	89 ec                	mov    %ebp,%esp
800044c2:	5d                   	pop    %ebp
800044c3:	c3                   	ret    
800044c4:	8d b6 00 00 00 00    	lea    0x0(%esi),%esi
800044ca:	8d bf 00 00 00 00    	lea    0x0(%edi),%edi

800044d0 <MemoryManager_AllocCall>:
800044d0:	55                   	push   %ebp
800044d1:	89 e5                	mov    %esp,%ebp
800044d3:	83 ec 28             	sub    $0x28,%esp
800044d6:	89 75 f8             	mov    %esi,0xfffffff8(%ebp)
800044d9:	a1 18 ad 00 80       	mov    0x8000ad18,%eax
800044de:	8b 75 08             	mov    0x8(%ebp),%esi
800044e1:	89 5d f4             	mov    %ebx,0xfffffff4(%ebp)
800044e4:	89 7d fc             	mov    %edi,0xfffffffc(%ebp)
800044e7:	8b 40 4c             	mov    0x4c(%eax),%eax
800044ea:	8b 7e 20             	mov    0x20(%esi),%edi
800044ed:	8b 98 84 00 00 00    	mov    0x84(%eax),%ebx
800044f3:	89 3c 24             	mov    %edi,(%esp,1)
800044f6:	89 5c 24 04          	mov    %ebx,0x4(%esp,1)
800044fa:	e8 b1 f7 ff ff       	call   80003cb0 <MemoryManager_Alloc>
800044ff:	89 46 20             	mov    %eax,0x20(%esi)
80004502:	89 5c 24 0c          	mov    %ebx,0xc(%esp,1)
80004506:	89 7c 24 08          	mov    %edi,0x8(%esp,1)
8000450a:	89 44 24 10          	mov    %eax,0x10(%esp,1)
8000450e:	c7 44 24 04 a0 9b 00 	movl   $0x80009ba0,0x4(%esp,1)
80004515:	80 
80004516:	c7 04 24 0f 99 00 80 	movl   $0x8000990f,(%esp,1)
8000451d:	e8 de 2c 00 00       	call   80007200 <KPrint>
80004522:	8b 7d fc             	mov    0xfffffffc(%ebp),%edi
80004525:	8b 5d f4             	mov    0xfffffff4(%ebp),%ebx
80004528:	8b 75 f8             	mov    0xfffffff8(%ebp),%esi
8000452b:	89 ec                	mov    %ebp,%esp
8000452d:	5d                   	pop    %ebp
8000452e:	c3                   	ret    
8000452f:	90                   	nop    

80004530 <MemoryManager_FreeCall>:
80004530:	55                   	push   %ebp
80004531:	89 e5                	mov    %esp,%ebp
80004533:	83 ec 18             	sub    $0x18,%esp
80004536:	89 5d f8             	mov    %ebx,0xfffffff8(%ebp)
80004539:	a1 18 ad 00 80       	mov    0x8000ad18,%eax
8000453e:	8b 5d 08             	mov    0x8(%ebp),%ebx
80004541:	89 75 fc             	mov    %esi,0xfffffffc(%ebp)
80004544:	8b 40 4c             	mov    0x4c(%eax),%eax
80004547:	8b 73 20             	mov    0x20(%ebx),%esi
8000454a:	8b 80 84 00 00 00    	mov    0x84(%eax),%eax
80004550:	89 34 24             	mov    %esi,(%esp,1)
80004553:	89 44 24 04          	mov    %eax,0x4(%esp,1)
80004557:	e8 44 f8 ff ff       	call   80003da0 <MemoryManager_Free>
8000455c:	c7 43 20 00 00 00 00 	movl   $0x0,0x20(%ebx)
80004563:	89 74 24 08          	mov    %esi,0x8(%esp,1)
80004567:	c7 44 24 04 e0 9b 00 	movl   $0x80009be0,0x4(%esp,1)
8000456e:	80 
8000456f:	c7 04 24 0f 99 00 80 	movl   $0x8000990f,(%esp,1)
80004576:	e8 85 2c 00 00       	call   80007200 <KPrint>
8000457b:	8b 75 fc             	mov    0xfffffffc(%ebp),%esi
8000457e:	8b 5d f8             	mov    0xfffffff8(%ebp),%ebx
80004581:	89 ec                	mov    %ebp,%esp
80004583:	5d                   	pop    %ebp
80004584:	c3                   	ret    
	...

80004590 <MessageManager_CreateMessage>:
80004590:	55                   	push   %ebp
80004591:	89 e5                	mov    %esp,%ebp
80004593:	83 ec 58             	sub    $0x58,%esp
80004596:	89 5d f4             	mov    %ebx,0xfffffff4(%ebp)
80004599:	89 75 f8             	mov    %esi,0xfffffff8(%ebp)
8000459c:	89 7d fc             	mov    %edi,0xfffffffc(%ebp)
8000459f:	e8 1c 13 00 00       	call   800058c0 <ObjectManager_Lock>
800045a4:	a1 1c ad 00 80       	mov    0x8000ad1c,%eax
800045a9:	8b 40 4c             	mov    0x4c(%eax),%eax
800045ac:	8b 40 4c             	mov    0x4c(%eax),%eax
800045af:	85 c0                	test   %eax,%eax
800045b1:	0f 84 19 01 00 00    	je     800046d0 <MessageManager_CreateMessage+0x140>
800045b7:	8b 70 4c             	mov    0x4c(%eax),%esi
800045ba:	8b 5e 10             	mov    0x10(%esi),%ebx
800045bd:	85 db                	test   %ebx,%ebx
800045bf:	74 3f                	je     80004600 <MessageManager_CreateMessage+0x70>
800045c1:	e8 1a 13 00 00       	call   800058e0 <ObjectManager_Unlock>
800045c6:	c7 04 24 01 9c 00 80 	movl   $0x80009c01,(%esp,1)
800045cd:	a1 24 ad 00 80       	mov    0x8000ad24,%eax
800045d2:	c7 44 24 04 e0 9c 00 	movl   $0x80009ce0,0x4(%esp,1)
800045d9:	80 
800045da:	89 44 24 08          	mov    %eax,0x8(%esp,1)
800045de:	e8 1d 2c 00 00       	call   80007200 <KPrint>
800045e3:	b8 fc ff ff ff       	mov    $0xfffffffc,%eax
800045e8:	8b 5d f4             	mov    0xfffffff4(%ebp),%ebx
800045eb:	8b 75 f8             	mov    0xfffffff8(%ebp),%esi
800045ee:	8b 7d fc             	mov    0xfffffffc(%ebp),%edi
800045f1:	89 ec                	mov    %ebp,%esp
800045f3:	5d                   	pop    %ebp
800045f4:	c3                   	ret    
800045f5:	8d 74 26 00          	lea    0x0(%esi,1),%esi
800045f9:	8d bc 27 00 00 00 00 	lea    0x0(%edi,1),%edi
80004600:	c7 04 24 20 9d 00 80 	movl   $0x80009d20,(%esp,1)
80004607:	8d 7d b9             	lea    0xffffffb9(%ebp),%edi
8000460a:	e8 e1 15 00 00       	call   80005bf0 <ObjectManager_ConstructPath>
8000460f:	89 d8                	mov    %ebx,%eax
80004611:	b9 0b 00 00 00       	mov    $0xb,%ecx
80004616:	0f b6 15 05 a0 00 80 	movzbl 0x8000a005,%edx
8000461d:	fc                   	cld    
8000461e:	88 55 b8             	mov    %dl,0xffffffb8(%ebp)
80004621:	f3 ab                	repz stos %eax,%es:(%edi)
80004623:	66 c7 07 00 00       	movw   $0x0,(%edi)
80004628:	c6 47 02 00          	movb   $0x0,0x2(%edi)
8000462c:	8d 7d b8             	lea    0xffffffb8(%ebp),%edi
8000462f:	a1 24 ad 00 80       	mov    0x8000ad24,%eax
80004634:	c7 44 24 08 0a 9c 00 	movl   $0x80009c0a,0x8(%esp,1)
8000463b:	80 
8000463c:	c7 44 24 04 30 00 00 	movl   $0x30,0x4(%esp,1)
80004643:	00 
80004644:	89 44 24 0c          	mov    %eax,0xc(%esp,1)
80004648:	89 3c 24             	mov    %edi,(%esp,1)
8000464b:	e8 70 3b 00 00       	call   800081c0 <snprintf>
80004650:	89 3c 24             	mov    %edi,(%esp,1)
80004653:	e8 08 16 00 00       	call   80005c60 <ObjectManager_ConstructPathAppend>
80004658:	a1 30 ad 00 80       	mov    0x8000ad30,%eax
8000465d:	c7 44 24 08 16 9c 00 	movl   $0x80009c16,0x8(%esp,1)
80004664:	80 
80004665:	c7 44 24 04 30 00 00 	movl   $0x30,0x4(%esp,1)
8000466c:	00 
8000466d:	89 44 24 0c          	mov    %eax,0xc(%esp,1)
80004671:	89 3c 24             	mov    %edi,(%esp,1)
80004674:	e8 47 3b 00 00       	call   800081c0 <snprintf>
80004679:	89 3c 24             	mov    %edi,(%esp,1)
8000467c:	e8 8f 16 00 00       	call   80005d10 <ObjectManager_ConstructKey>
80004681:	c7 44 24 04 14 00 00 	movl   $0x14,0x4(%esp,1)
80004688:	00 
80004689:	c7 04 24 07 00 00 00 	movl   $0x7,(%esp,1)
80004690:	e8 2b 11 00 00       	call   800057c0 <ObjectManager_CreateObject>
80004695:	8b 0d 30 ad 00 80    	mov    0x8000ad30,%ecx
8000469b:	89 46 10             	mov    %eax,0x10(%esi)
8000469e:	89 48 34             	mov    %ecx,0x34(%eax)
800046a1:	8b 48 4c             	mov    0x4c(%eax),%ecx
800046a4:	8b 45 08             	mov    0x8(%ebp),%eax
800046a7:	c7 41 08 00 00 00 00 	movl   $0x0,0x8(%ecx)
800046ae:	89 01                	mov    %eax,(%ecx)
800046b0:	8b 45 0c             	mov    0xc(%ebp),%eax
800046b3:	c7 41 0c 00 00 00 00 	movl   $0x0,0xc(%ecx)
800046ba:	89 41 04             	mov    %eax,0x4(%ecx)
800046bd:	e8 1e 12 00 00       	call   800058e0 <ObjectManager_Unlock>
800046c2:	31 c0                	xor    %eax,%eax
800046c4:	e9 1f ff ff ff       	jmp    800045e8 <MessageManager_CreateMessage+0x58>
800046c9:	8d b4 26 00 00 00 00 	lea    0x0(%esi,1),%esi
800046d0:	e8 0b 12 00 00       	call   800058e0 <ObjectManager_Unlock>
800046d5:	c7 04 24 01 9c 00 80 	movl   $0x80009c01,(%esp,1)
800046dc:	a1 24 ad 00 80       	mov    0x8000ad24,%eax
800046e1:	c7 44 24 04 60 9d 00 	movl   $0x80009d60,0x4(%esp,1)
800046e8:	80 
800046e9:	89 44 24 08          	mov    %eax,0x8(%esp,1)
800046ed:	e8 0e 2b 00 00       	call   80007200 <KPrint>
800046f2:	b8 fe ff ff ff       	mov    $0xfffffffe,%eax
800046f7:	e9 ec fe ff ff       	jmp    800045e8 <MessageManager_CreateMessage+0x58>
800046fc:	8d 74 26 00          	lea    0x0(%esi,1),%esi

80004700 <MessageManager_SendMessage>:
80004700:	55                   	push   %ebp
80004701:	89 e5                	mov    %esp,%ebp
80004703:	83 ec 28             	sub    $0x28,%esp
80004706:	89 75 f8             	mov    %esi,0xfffffff8(%ebp)
80004709:	8b 75 08             	mov    0x8(%ebp),%esi
8000470c:	89 5d f4             	mov    %ebx,0xfffffff4(%ebp)
8000470f:	89 7d fc             	mov    %edi,0xfffffffc(%ebp)
80004712:	e8 a9 11 00 00       	call   800058c0 <ObjectManager_Lock>
80004717:	89 74 24 08          	mov    %esi,0x8(%esp,1)
8000471b:	c7 44 24 04 06 00 00 	movl   $0x6,0x4(%esp,1)
80004722:	00 
80004723:	c7 04 24 00 00 00 00 	movl   $0x0,(%esp,1)
8000472a:	e8 01 19 00 00       	call   80006030 <ObjectManager_SearchInClassTypeIndex>
8000472f:	85 c0                	test   %eax,%eax
80004731:	89 c3                	mov    %eax,%ebx
80004733:	8b 48 4c             	mov    0x4c(%eax),%ecx
80004736:	0f 84 8d 00 00 00    	je     800047c9 <MessageManager_SendMessage+0xc9>
8000473c:	a1 1c ad 00 80       	mov    0x8000ad1c,%eax
80004741:	8b 40 4c             	mov    0x4c(%eax),%eax
80004744:	8b 40 4c             	mov    0x4c(%eax),%eax
80004747:	8b 70 4c             	mov    0x4c(%eax),%esi
8000474a:	8b 56 10             	mov    0x10(%esi),%edx
8000474d:	85 d2                	test   %edx,%edx
8000474f:	74 4f                	je     800047a0 <MessageManager_SendMessage+0xa0>
80004751:	8b 41 04             	mov    0x4(%ecx),%eax
80004754:	8b 7a 4c             	mov    0x4c(%edx),%edi
80004757:	85 c0                	test   %eax,%eax
80004759:	75 35                	jne    80004790 <MessageManager_SendMessage+0x90>
8000475b:	89 51 04             	mov    %edx,0x4(%ecx)
8000475e:	ff 01                	incl   (%ecx)
80004760:	c7 47 10 00 00 00 00 	movl   $0x0,0x10(%edi)
80004767:	89 51 08             	mov    %edx,0x8(%ecx)
8000476a:	c7 46 10 00 00 00 00 	movl   $0x0,0x10(%esi)
80004771:	e8 6a 11 00 00       	call   800058e0 <ObjectManager_Unlock>
80004776:	8b 43 40             	mov    0x40(%ebx),%eax
80004779:	89 04 24             	mov    %eax,(%esp,1)
8000477c:	e8 df 26 00 00       	call   80006e60 <ProcessManager_Awaken>
80004781:	31 c0                	xor    %eax,%eax
80004783:	8b 5d f4             	mov    0xfffffff4(%ebp),%ebx
80004786:	8b 75 f8             	mov    0xfffffff8(%ebp),%esi
80004789:	8b 7d fc             	mov    0xfffffffc(%ebp),%edi
8000478c:	89 ec                	mov    %ebp,%esp
8000478e:	5d                   	pop    %ebp
8000478f:	c3                   	ret    
80004790:	8b 41 08             	mov    0x8(%ecx),%eax
80004793:	8b 40 4c             	mov    0x4c(%eax),%eax
80004796:	89 50 10             	mov    %edx,0x10(%eax)
80004799:	eb c3                	jmp    8000475e <MessageManager_SendMessage+0x5e>
8000479b:	90                   	nop    
8000479c:	8d 74 26 00          	lea    0x0(%esi,1),%esi
800047a0:	e8 3b 11 00 00       	call   800058e0 <ObjectManager_Unlock>
800047a5:	c7 04 24 01 9c 00 80 	movl   $0x80009c01,(%esp,1)
800047ac:	a1 24 ad 00 80       	mov    0x8000ad24,%eax
800047b1:	c7 44 24 04 a0 9d 00 	movl   $0x80009da0,0x4(%esp,1)
800047b8:	80 
800047b9:	89 44 24 08          	mov    %eax,0x8(%esp,1)
800047bd:	e8 3e 2a 00 00       	call   80007200 <KPrint>
800047c2:	b8 fb ff ff ff       	mov    $0xfffffffb,%eax
800047c7:	eb ba                	jmp    80004783 <MessageManager_SendMessage+0x83>
800047c9:	e8 12 11 00 00       	call   800058e0 <ObjectManager_Unlock>
800047ce:	c7 04 24 01 9c 00 80 	movl   $0x80009c01,(%esp,1)
800047d5:	a1 24 ad 00 80       	mov    0x8000ad24,%eax
800047da:	89 74 24 0c          	mov    %esi,0xc(%esp,1)
800047de:	c7 44 24 04 e0 9d 00 	movl   $0x80009de0,0x4(%esp,1)
800047e5:	80 
800047e6:	89 44 24 08          	mov    %eax,0x8(%esp,1)
800047ea:	e8 11 2a 00 00       	call   80007200 <KPrint>
800047ef:	b8 fd ff ff ff       	mov    $0xfffffffd,%eax
800047f4:	eb 8d                	jmp    80004783 <MessageManager_SendMessage+0x83>
800047f6:	8d 76 00             	lea    0x0(%esi),%esi
800047f9:	8d bc 27 00 00 00 00 	lea    0x0(%edi,1),%edi

80004800 <MessageManager_Init>:
80004800:	55                   	push   %ebp
80004801:	89 e5                	mov    %esp,%ebp
80004803:	31 c0                	xor    %eax,%eax
80004805:	83 ec 18             	sub    $0x18,%esp
80004808:	a3 30 ad 00 80       	mov    %eax,0x8000ad30
8000480d:	c7 04 24 21 9c 00 80 	movl   $0x80009c21,(%esp,1)
80004814:	e8 c7 09 00 00       	call   800051e0 <ModuleManager_CreateModule>
80004819:	c7 44 24 08 40 4c 00 	movl   $0x80004c40,0x8(%esp,1)
80004820:	80 
80004821:	c7 44 24 04 30 9c 00 	movl   $0x80009c30,0x4(%esp,1)
80004828:	80 
80004829:	c7 04 24 21 9c 00 80 	movl   $0x80009c21,(%esp,1)
80004830:	e8 4b 0a 00 00       	call   80005280 <ModuleManager_CreateModuleCall>
80004835:	c7 44 24 08 60 4e 00 	movl   $0x80004e60,0x8(%esp,1)
8000483c:	80 
8000483d:	c7 44 24 04 42 9c 00 	movl   $0x80009c42,0x4(%esp,1)
80004844:	80 
80004845:	c7 04 24 21 9c 00 80 	movl   $0x80009c21,(%esp,1)
8000484c:	e8 2f 0a 00 00       	call   80005280 <ModuleManager_CreateModuleCall>
80004851:	c7 44 24 08 90 4e 00 	movl   $0x80004e90,0x8(%esp,1)
80004858:	80 
80004859:	c7 44 24 04 50 9c 00 	movl   $0x80009c50,0x4(%esp,1)
80004860:	80 
80004861:	c7 04 24 21 9c 00 80 	movl   $0x80009c21,(%esp,1)
80004868:	e8 13 0a 00 00       	call   80005280 <ModuleManager_CreateModuleCall>
8000486d:	c7 44 24 08 30 4f 00 	movl   $0x80004f30,0x8(%esp,1)
80004874:	80 
80004875:	c7 44 24 04 5b 9c 00 	movl   $0x80009c5b,0x4(%esp,1)
8000487c:	80 
8000487d:	c7 04 24 21 9c 00 80 	movl   $0x80009c21,(%esp,1)
80004884:	e8 f7 09 00 00       	call   80005280 <ModuleManager_CreateModuleCall>
80004889:	c7 44 24 08 b0 4f 00 	movl   $0x80004fb0,0x8(%esp,1)
80004890:	80 
80004891:	c7 44 24 04 6c 9c 00 	movl   $0x80009c6c,0x4(%esp,1)
80004898:	80 
80004899:	c7 04 24 21 9c 00 80 	movl   $0x80009c21,(%esp,1)
800048a0:	e8 db 09 00 00       	call   80005280 <ModuleManager_CreateModuleCall>
800048a5:	c7 44 24 08 60 4d 00 	movl   $0x80004d60,0x8(%esp,1)
800048ac:	80 
800048ad:	c7 44 24 04 78 9c 00 	movl   $0x80009c78,0x4(%esp,1)
800048b4:	80 
800048b5:	c7 04 24 21 9c 00 80 	movl   $0x80009c21,(%esp,1)
800048bc:	e8 bf 09 00 00       	call   80005280 <ModuleManager_CreateModuleCall>
800048c1:	c7 44 24 08 d0 4f 00 	movl   $0x80004fd0,0x8(%esp,1)
800048c8:	80 
800048c9:	c7 44 24 04 8f 9c 00 	movl   $0x80009c8f,0x4(%esp,1)
800048d0:	80 
800048d1:	c7 04 24 21 9c 00 80 	movl   $0x80009c21,(%esp,1)
800048d8:	e8 a3 09 00 00       	call   80005280 <ModuleManager_CreateModuleCall>
800048dd:	c7 44 24 04 a5 9c 00 	movl   $0x80009ca5,0x4(%esp,1)
800048e4:	80 
800048e5:	c7 04 24 01 9c 00 80 	movl   $0x80009c01,(%esp,1)
800048ec:	e8 0f 29 00 00       	call   80007200 <KPrint>
800048f1:	c9                   	leave  
800048f2:	c3                   	ret    
800048f3:	8d b6 00 00 00 00    	lea    0x0(%esi),%esi
800048f9:	8d bc 27 00 00 00 00 	lea    0x0(%edi,1),%edi

80004900 <MessageManager_CreateMessagePort>:
80004900:	55                   	push   %ebp
80004901:	89 e5                	mov    %esp,%ebp
80004903:	57                   	push   %edi
80004904:	56                   	push   %esi
80004905:	53                   	push   %ebx
80004906:	83 ec 4c             	sub    $0x4c,%esp
80004909:	e8 b2 0f 00 00       	call   800058c0 <ObjectManager_Lock>
8000490e:	a1 1c ad 00 80       	mov    0x8000ad1c,%eax
80004913:	8b 70 4c             	mov    0x4c(%eax),%esi
80004916:	8b 5e 4c             	mov    0x4c(%esi),%ebx
80004919:	85 db                	test   %ebx,%ebx
8000491b:	74 33                	je     80004950 <MessageManager_CreateMessagePort+0x50>
8000491d:	e8 be 0f 00 00       	call   800058e0 <ObjectManager_Unlock>
80004922:	c7 04 24 01 9c 00 80 	movl   $0x80009c01,(%esp,1)
80004929:	a1 24 ad 00 80       	mov    0x8000ad24,%eax
8000492e:	c7 44 24 04 20 9e 00 	movl   $0x80009e20,0x4(%esp,1)
80004935:	80 
80004936:	89 44 24 08          	mov    %eax,0x8(%esp,1)
8000493a:	e8 c1 28 00 00       	call   80007200 <KPrint>
8000493f:	b8 ff ff ff ff       	mov    $0xffffffff,%eax
80004944:	83 c4 4c             	add    $0x4c,%esp
80004947:	5b                   	pop    %ebx
80004948:	5e                   	pop    %esi
80004949:	5f                   	pop    %edi
8000494a:	5d                   	pop    %ebp
8000494b:	c3                   	ret    
8000494c:	8d 74 26 00          	lea    0x0(%esi,1),%esi
80004950:	c7 04 24 20 9d 00 80 	movl   $0x80009d20,(%esp,1)
80004957:	8d 7d b9             	lea    0xffffffb9(%ebp),%edi
8000495a:	e8 91 12 00 00       	call   80005bf0 <ObjectManager_ConstructPath>
8000495f:	89 d8                	mov    %ebx,%eax
80004961:	b9 0b 00 00 00       	mov    $0xb,%ecx
80004966:	0f b6 15 05 a0 00 80 	movzbl 0x8000a005,%edx
8000496d:	fc                   	cld    
8000496e:	88 55 b8             	mov    %dl,0xffffffb8(%ebp)
80004971:	f3 ab                	repz stos %eax,%es:(%edi)
80004973:	66 c7 07 00 00       	movw   $0x0,(%edi)
80004978:	c6 47 02 00          	movb   $0x0,0x2(%edi)
8000497c:	8d 7d b8             	lea    0xffffffb8(%ebp),%edi
8000497f:	a1 24 ad 00 80       	mov    0x8000ad24,%eax
80004984:	89 3c 24             	mov    %edi,(%esp,1)
80004987:	c7 44 24 08 c2 9c 00 	movl   $0x80009cc2,0x8(%esp,1)
8000498e:	80 
8000498f:	89 44 24 0c          	mov    %eax,0xc(%esp,1)
80004993:	c7 44 24 04 30 00 00 	movl   $0x30,0x4(%esp,1)
8000499a:	00 
8000499b:	e8 20 38 00 00       	call   800081c0 <snprintf>
800049a0:	89 3c 24             	mov    %edi,(%esp,1)
800049a3:	e8 b8 12 00 00       	call   80005c60 <ObjectManager_ConstructPathAppend>
800049a8:	c7 04 24 cd 90 00 80 	movl   $0x800090cd,(%esp,1)
800049af:	e8 5c 13 00 00       	call   80005d10 <ObjectManager_ConstructKey>
800049b4:	c7 44 24 04 14 00 00 	movl   $0x14,0x4(%esp,1)
800049bb:	00 
800049bc:	c7 04 24 06 00 00 00 	movl   $0x6,(%esp,1)
800049c3:	e8 f8 0d 00 00       	call   800057c0 <ObjectManager_CreateObject>
800049c8:	89 c7                	mov    %eax,%edi
800049ca:	8b 40 40             	mov    0x40(%eax),%eax
800049cd:	89 47 34             	mov    %eax,0x34(%edi)
800049d0:	8b 47 4c             	mov    0x4c(%edi),%eax
800049d3:	c7 40 08 00 00 00 00 	movl   $0x0,0x8(%eax)
800049da:	c7 40 04 00 00 00 00 	movl   $0x0,0x4(%eax)
800049e1:	c7 40 10 00 00 00 00 	movl   $0x0,0x10(%eax)
800049e8:	c7 00 00 00 00 00    	movl   $0x0,(%eax)
800049ee:	c7 40 0c 00 00 00 00 	movl   $0x0,0xc(%eax)
800049f5:	89 7e 4c             	mov    %edi,0x4c(%esi)
800049f8:	e8 e3 0e 00 00       	call   800058e0 <ObjectManager_Unlock>
800049fd:	8b 47 40             	mov    0x40(%edi),%eax
80004a00:	c7 04 24 01 9c 00 80 	movl   $0x80009c01,(%esp,1)
80004a07:	c7 44 24 04 60 9e 00 	movl   $0x80009e60,0x4(%esp,1)
80004a0e:	80 
80004a0f:	89 44 24 08          	mov    %eax,0x8(%esp,1)
80004a13:	e8 e8 27 00 00       	call   80007200 <KPrint>
80004a18:	31 c0                	xor    %eax,%eax
80004a1a:	e9 25 ff ff ff       	jmp    80004944 <MessageManager_CreateMessagePort+0x44>
80004a1f:	90                   	nop    

80004a20 <MessageManager_MessageQueueLength>:
80004a20:	55                   	push   %ebp
80004a21:	89 e5                	mov    %esp,%ebp
80004a23:	83 ec 08             	sub    $0x8,%esp
80004a26:	e8 95 0e 00 00       	call   800058c0 <ObjectManager_Lock>
80004a2b:	a1 1c ad 00 80       	mov    0x8000ad1c,%eax
80004a30:	8b 40 4c             	mov    0x4c(%eax),%eax
80004a33:	8b 40 4c             	mov    0x4c(%eax),%eax
80004a36:	8b 40 4c             	mov    0x4c(%eax),%eax
80004a39:	8b 08                	mov    (%eax),%ecx
80004a3b:	8b 45 08             	mov    0x8(%ebp),%eax
80004a3e:	89 08                	mov    %ecx,(%eax)
80004a40:	e8 9b 0e 00 00       	call   800058e0 <ObjectManager_Unlock>
80004a45:	89 ec                	mov    %ebp,%esp
80004a47:	31 c0                	xor    %eax,%eax
80004a49:	5d                   	pop    %ebp
80004a4a:	c3                   	ret    
80004a4b:	90                   	nop    
80004a4c:	8d 74 26 00          	lea    0x0(%esi,1),%esi

80004a50 <MessageManager_GetMessagePortThreadID>:
80004a50:	55                   	push   %ebp
80004a51:	89 e5                	mov    %esp,%ebp
80004a53:	83 ec 18             	sub    $0x18,%esp
80004a56:	89 5d fc             	mov    %ebx,0xfffffffc(%ebp)
80004a59:	8b 5d 08             	mov    0x8(%ebp),%ebx
80004a5c:	e8 5f 0e 00 00       	call   800058c0 <ObjectManager_Lock>
80004a61:	a1 1c ad 00 80       	mov    0x8000ad1c,%eax
80004a66:	8b 40 4c             	mov    0x4c(%eax),%eax
80004a69:	8b 50 4c             	mov    0x4c(%eax),%edx
80004a6c:	85 d2                	test   %edx,%edx
80004a6e:	75 40                	jne    80004ab0 <MessageManager_GetMessagePortThreadID+0x60>
80004a70:	e8 6b 0e 00 00       	call   800058e0 <ObjectManager_Unlock>
80004a75:	c7 04 24 01 9c 00 80 	movl   $0x80009c01,(%esp,1)
80004a7c:	a1 24 ad 00 80       	mov    0x8000ad24,%eax
80004a81:	89 5c 24 0c          	mov    %ebx,0xc(%esp,1)
80004a85:	c7 44 24 04 a0 9e 00 	movl   $0x80009ea0,0x4(%esp,1)
80004a8c:	80 
80004a8d:	89 44 24 08          	mov    %eax,0x8(%esp,1)
80004a91:	e8 6a 27 00 00       	call   80007200 <KPrint>
80004a96:	b8 fe ff ff ff       	mov    $0xfffffffe,%eax
80004a9b:	8b 5d fc             	mov    0xfffffffc(%ebp),%ebx
80004a9e:	89 ec                	mov    %ebp,%esp
80004aa0:	5d                   	pop    %ebp
80004aa1:	c3                   	ret    
80004aa2:	8d b4 26 00 00 00 00 	lea    0x0(%esi,1),%esi
80004aa9:	8d bc 27 00 00 00 00 	lea    0x0(%edi,1),%edi
80004ab0:	c7 04 24 e0 9e 00 80 	movl   $0x80009ee0,(%esp,1)
80004ab7:	e8 34 11 00 00       	call   80005bf0 <ObjectManager_ConstructPath>
80004abc:	89 1c 24             	mov    %ebx,(%esp,1)
80004abf:	e8 4c 12 00 00       	call   80005d10 <ObjectManager_ConstructKey>
80004ac4:	c7 44 24 04 06 00 00 	movl   $0x6,0x4(%esp,1)
80004acb:	00 
80004acc:	c7 04 24 00 00 00 00 	movl   $0x0,(%esp,1)
80004ad3:	e8 18 14 00 00       	call   80005ef0 <ObjectManager_SearchNameInClass>
80004ad8:	85 c0                	test   %eax,%eax
80004ada:	89 c1                	mov    %eax,%ecx
80004adc:	74 30                	je     80004b0e <MessageManager_GetMessagePortThreadID+0xbe>
80004ade:	8b 40 40             	mov    0x40(%eax),%eax
80004ae1:	8b 55 0c             	mov    0xc(%ebp),%edx
80004ae4:	89 02                	mov    %eax,(%edx)
80004ae6:	8b 41 40             	mov    0x40(%ecx),%eax
80004ae9:	c7 04 24 01 9c 00 80 	movl   $0x80009c01,(%esp,1)
80004af0:	89 5c 24 08          	mov    %ebx,0x8(%esp,1)
80004af4:	c7 44 24 04 20 9f 00 	movl   $0x80009f20,0x4(%esp,1)
80004afb:	80 
80004afc:	89 44 24 0c          	mov    %eax,0xc(%esp,1)
80004b00:	e8 fb 26 00 00       	call   80007200 <KPrint>
80004b05:	e8 d6 0d 00 00       	call   800058e0 <ObjectManager_Unlock>
80004b0a:	31 c0                	xor    %eax,%eax
80004b0c:	eb 8d                	jmp    80004a9b <MessageManager_GetMessagePortThreadID+0x4b>
80004b0e:	e8 cd 0d 00 00       	call   800058e0 <ObjectManager_Unlock>
80004b13:	c7 04 24 01 9c 00 80 	movl   $0x80009c01,(%esp,1)
80004b1a:	a1 24 ad 00 80       	mov    0x8000ad24,%eax
80004b1f:	89 5c 24 0c          	mov    %ebx,0xc(%esp,1)
80004b23:	c7 44 24 04 60 9f 00 	movl   $0x80009f60,0x4(%esp,1)
80004b2a:	80 
80004b2b:	89 44 24 08          	mov    %eax,0x8(%esp,1)
80004b2f:	e8 cc 26 00 00       	call   80007200 <KPrint>
80004b34:	b8 fd ff ff ff       	mov    $0xfffffffd,%eax
80004b39:	e9 5d ff ff ff       	jmp    80004a9b <MessageManager_GetMessagePortThreadID+0x4b>
80004b3e:	89 f6                	mov    %esi,%esi

80004b40 <MessageManager_GetMessage>:
80004b40:	55                   	push   %ebp
80004b41:	89 e5                	mov    %esp,%ebp
80004b43:	83 ec 18             	sub    $0x18,%esp
80004b46:	89 5d fc             	mov    %ebx,0xfffffffc(%ebp)
80004b49:	e8 72 0d 00 00       	call   800058c0 <ObjectManager_Lock>
80004b4e:	a1 1c ad 00 80       	mov    0x8000ad1c,%eax
80004b53:	8b 40 4c             	mov    0x4c(%eax),%eax
80004b56:	8b 40 4c             	mov    0x4c(%eax),%eax
80004b59:	8b 58 4c             	mov    0x4c(%eax),%ebx
80004b5c:	8b 03                	mov    (%ebx),%eax
80004b5e:	85 c0                	test   %eax,%eax
80004b60:	75 2e                	jne    80004b90 <MessageManager_GetMessage+0x50>
80004b62:	e8 79 0d 00 00       	call   800058e0 <ObjectManager_Unlock>
80004b67:	c7 04 24 01 9c 00 80 	movl   $0x80009c01,(%esp,1)
80004b6e:	a1 24 ad 00 80       	mov    0x8000ad24,%eax
80004b73:	c7 44 24 04 a0 9f 00 	movl   $0x80009fa0,0x4(%esp,1)
80004b7a:	80 
80004b7b:	89 44 24 08          	mov    %eax,0x8(%esp,1)
80004b7f:	e8 7c 26 00 00       	call   80007200 <KPrint>
80004b84:	b8 fd ff ff ff       	mov    $0xfffffffd,%eax
80004b89:	8b 5d fc             	mov    0xfffffffc(%ebp),%ebx
80004b8c:	89 ec                	mov    %ebp,%esp
80004b8e:	5d                   	pop    %ebp
80004b8f:	c3                   	ret    
80004b90:	8b 43 04             	mov    0x4(%ebx),%eax
80004b93:	8b 48 4c             	mov    0x4c(%eax),%ecx
80004b96:	8b 45 08             	mov    0x8(%ebp),%eax
80004b99:	8b 11                	mov    (%ecx),%edx
80004b9b:	89 10                	mov    %edx,(%eax)
80004b9d:	8b 45 0c             	mov    0xc(%ebp),%eax
80004ba0:	8b 51 04             	mov    0x4(%ecx),%edx
80004ba3:	89 10                	mov    %edx,(%eax)
80004ba5:	ff 0b                	decl   (%ebx)
80004ba7:	c7 43 0c 01 00 00 00 	movl   $0x1,0xc(%ebx)
80004bae:	e8 2d 0d 00 00       	call   800058e0 <ObjectManager_Unlock>
80004bb3:	31 c0                	xor    %eax,%eax
80004bb5:	eb d2                	jmp    80004b89 <MessageManager_GetMessage+0x49>
80004bb7:	89 f6                	mov    %esi,%esi
80004bb9:	8d bc 27 00 00 00 00 	lea    0x0(%edi,1),%edi

80004bc0 <MessageManager_MessageProcessed>:
80004bc0:	55                   	push   %ebp
80004bc1:	89 e5                	mov    %esp,%ebp
80004bc3:	83 ec 18             	sub    $0x18,%esp
80004bc6:	e8 f5 0c 00 00       	call   800058c0 <ObjectManager_Lock>
80004bcb:	a1 1c ad 00 80       	mov    0x8000ad1c,%eax
80004bd0:	8b 40 4c             	mov    0x4c(%eax),%eax
80004bd3:	8b 40 4c             	mov    0x4c(%eax),%eax
80004bd6:	8b 48 4c             	mov    0x4c(%eax),%ecx
80004bd9:	8b 41 0c             	mov    0xc(%ecx),%eax
80004bdc:	85 c0                	test   %eax,%eax
80004bde:	75 30                	jne    80004c10 <MessageManager_MessageProcessed+0x50>
80004be0:	e8 fb 0c 00 00       	call   800058e0 <ObjectManager_Unlock>
80004be5:	c7 04 24 01 9c 00 80 	movl   $0x80009c01,(%esp,1)
80004bec:	a1 24 ad 00 80       	mov    0x8000ad24,%eax
80004bf1:	c7 44 24 04 e0 9f 00 	movl   $0x80009fe0,0x4(%esp,1)
80004bf8:	80 
80004bf9:	89 44 24 08          	mov    %eax,0x8(%esp,1)
80004bfd:	e8 fe 25 00 00       	call   80007200 <KPrint>
80004c02:	b8 fd ff ff ff       	mov    $0xfffffffd,%eax
80004c07:	89 ec                	mov    %ebp,%esp
80004c09:	5d                   	pop    %ebp
80004c0a:	c3                   	ret    
80004c0b:	90                   	nop    
80004c0c:	8d 74 26 00          	lea    0x0(%esi,1),%esi
80004c10:	c7 41 0c 00 00 00 00 	movl   $0x0,0xc(%ecx)
80004c17:	8b 41 04             	mov    0x4(%ecx),%eax
80004c1a:	8b 50 4c             	mov    0x4c(%eax),%edx
80004c1d:	8b 52 10             	mov    0x10(%edx),%edx
80004c20:	89 51 04             	mov    %edx,0x4(%ecx)
80004c23:	89 04 24             	mov    %eax,(%esp,1)
80004c26:	e8 35 12 00 00       	call   80005e60 <ObjectManager_DeleteObject>
80004c2b:	e8 b0 0c 00 00       	call   800058e0 <ObjectManager_Unlock>
80004c30:	31 c0                	xor    %eax,%eax
80004c32:	eb d3                	jmp    80004c07 <MessageManager_MessageProcessed+0x47>
80004c34:	8d b6 00 00 00 00    	lea    0x0(%esi),%esi
80004c3a:	8d bf 00 00 00 00    	lea    0x0(%edi),%edi

80004c40 <MessageManager_Call_CreateMessagePort>:
80004c40:	55                   	push   %ebp
80004c41:	89 e5                	mov    %esp,%ebp
80004c43:	57                   	push   %edi
80004c44:	56                   	push   %esi
80004c45:	53                   	push   %ebx
80004c46:	83 ec 4c             	sub    $0x4c,%esp
80004c49:	e8 72 0c 00 00       	call   800058c0 <ObjectManager_Lock>
80004c4e:	a1 1c ad 00 80       	mov    0x8000ad1c,%eax
80004c53:	8b 70 4c             	mov    0x4c(%eax),%esi
80004c56:	8b 5e 4c             	mov    0x4c(%esi),%ebx
80004c59:	85 db                	test   %ebx,%ebx
80004c5b:	74 33                	je     80004c90 <MessageManager_Call_CreateMessagePort+0x50>
80004c5d:	e8 7e 0c 00 00       	call   800058e0 <ObjectManager_Unlock>
80004c62:	c7 04 24 01 9c 00 80 	movl   $0x80009c01,(%esp,1)
80004c69:	a1 24 ad 00 80       	mov    0x8000ad24,%eax
80004c6e:	c7 44 24 04 20 9e 00 	movl   $0x80009e20,0x4(%esp,1)
80004c75:	80 
80004c76:	89 44 24 08          	mov    %eax,0x8(%esp,1)
80004c7a:	e8 81 25 00 00       	call   80007200 <KPrint>
80004c7f:	b8 ff ff ff ff       	mov    $0xffffffff,%eax
80004c84:	83 c4 4c             	add    $0x4c,%esp
80004c87:	5b                   	pop    %ebx
80004c88:	5e                   	pop    %esi
80004c89:	5f                   	pop    %edi
80004c8a:	5d                   	pop    %ebp
80004c8b:	c3                   	ret    
80004c8c:	8d 74 26 00          	lea    0x0(%esi,1),%esi
80004c90:	c7 04 24 20 9d 00 80 	movl   $0x80009d20,(%esp,1)
80004c97:	8d 7d b9             	lea    0xffffffb9(%ebp),%edi
80004c9a:	e8 51 0f 00 00       	call   80005bf0 <ObjectManager_ConstructPath>
80004c9f:	89 d8                	mov    %ebx,%eax
80004ca1:	b9 0b 00 00 00       	mov    $0xb,%ecx
80004ca6:	0f b6 15 05 a0 00 80 	movzbl 0x8000a005,%edx
80004cad:	fc                   	cld    
80004cae:	88 55 b8             	mov    %dl,0xffffffb8(%ebp)
80004cb1:	f3 ab                	repz stos %eax,%es:(%edi)
80004cb3:	66 c7 07 00 00       	movw   $0x0,(%edi)
80004cb8:	c6 47 02 00          	movb   $0x0,0x2(%edi)
80004cbc:	8d 7d b8             	lea    0xffffffb8(%ebp),%edi
80004cbf:	a1 24 ad 00 80       	mov    0x8000ad24,%eax
80004cc4:	89 3c 24             	mov    %edi,(%esp,1)
80004cc7:	c7 44 24 08 c2 9c 00 	movl   $0x80009cc2,0x8(%esp,1)
80004cce:	80 
80004ccf:	89 44 24 0c          	mov    %eax,0xc(%esp,1)
80004cd3:	c7 44 24 04 30 00 00 	movl   $0x30,0x4(%esp,1)
80004cda:	00 
80004cdb:	e8 e0 34 00 00       	call   800081c0 <snprintf>
80004ce0:	89 3c 24             	mov    %edi,(%esp,1)
80004ce3:	e8 78 0f 00 00       	call   80005c60 <ObjectManager_ConstructPathAppend>
80004ce8:	c7 04 24 cd 90 00 80 	movl   $0x800090cd,(%esp,1)
80004cef:	e8 1c 10 00 00       	call   80005d10 <ObjectManager_ConstructKey>
80004cf4:	c7 44 24 04 14 00 00 	movl   $0x14,0x4(%esp,1)
80004cfb:	00 
80004cfc:	c7 04 24 06 00 00 00 	movl   $0x6,(%esp,1)
80004d03:	e8 b8 0a 00 00       	call   800057c0 <ObjectManager_CreateObject>
80004d08:	89 c7                	mov    %eax,%edi
80004d0a:	8b 40 40             	mov    0x40(%eax),%eax
80004d0d:	89 47 34             	mov    %eax,0x34(%edi)
80004d10:	8b 47 4c             	mov    0x4c(%edi),%eax
80004d13:	c7 40 08 00 00 00 00 	movl   $0x0,0x8(%eax)
80004d1a:	c7 40 04 00 00 00 00 	movl   $0x0,0x4(%eax)
80004d21:	c7 40 10 00 00 00 00 	movl   $0x0,0x10(%eax)
80004d28:	c7 00 00 00 00 00    	movl   $0x0,(%eax)
80004d2e:	c7 40 0c 00 00 00 00 	movl   $0x0,0xc(%eax)
80004d35:	89 7e 4c             	mov    %edi,0x4c(%esi)
80004d38:	e8 a3 0b 00 00       	call   800058e0 <ObjectManager_Unlock>
80004d3d:	8b 47 40             	mov    0x40(%edi),%eax
80004d40:	c7 04 24 01 9c 00 80 	movl   $0x80009c01,(%esp,1)
80004d47:	c7 44 24 04 60 9e 00 	movl   $0x80009e60,0x4(%esp,1)
80004d4e:	80 
80004d4f:	89 44 24 08          	mov    %eax,0x8(%esp,1)
80004d53:	e8 a8 24 00 00       	call   80007200 <KPrint>
80004d58:	31 c0                	xor    %eax,%eax
80004d5a:	e9 25 ff ff ff       	jmp    80004c84 <MessageManager_Call_CreateMessagePort+0x44>
80004d5f:	90                   	nop    

80004d60 <MessageManager_Call_GetMessagePortThreadID>:
80004d60:	55                   	push   %ebp
80004d61:	89 e5                	mov    %esp,%ebp
80004d63:	83 ec 18             	sub    $0x18,%esp
80004d66:	89 5d f8             	mov    %ebx,0xfffffff8(%ebp)
80004d69:	8b 4d 0c             	mov    0xc(%ebp),%ecx
80004d6c:	89 75 fc             	mov    %esi,0xfffffffc(%ebp)
80004d6f:	8b 41 0c             	mov    0xc(%ecx),%eax
80004d72:	8b 5c 81 10          	mov    0x10(%ecx,%eax,4),%ebx
80004d76:	8b 74 81 14          	mov    0x14(%ecx,%eax,4),%esi
80004d7a:	83 c0 02             	add    $0x2,%eax
80004d7d:	89 41 0c             	mov    %eax,0xc(%ecx)
80004d80:	e8 3b 0b 00 00       	call   800058c0 <ObjectManager_Lock>
80004d85:	a1 1c ad 00 80       	mov    0x8000ad1c,%eax
80004d8a:	8b 40 4c             	mov    0x4c(%eax),%eax
80004d8d:	8b 40 4c             	mov    0x4c(%eax),%eax
80004d90:	85 c0                	test   %eax,%eax
80004d92:	75 3c                	jne    80004dd0 <MessageManager_Call_GetMessagePortThreadID+0x70>
80004d94:	e8 47 0b 00 00       	call   800058e0 <ObjectManager_Unlock>
80004d99:	c7 04 24 01 9c 00 80 	movl   $0x80009c01,(%esp,1)
80004da0:	a1 24 ad 00 80       	mov    0x8000ad24,%eax
80004da5:	89 5c 24 0c          	mov    %ebx,0xc(%esp,1)
80004da9:	c7 44 24 04 a0 9e 00 	movl   $0x80009ea0,0x4(%esp,1)
80004db0:	80 
80004db1:	89 44 24 08          	mov    %eax,0x8(%esp,1)
80004db5:	e8 46 24 00 00       	call   80007200 <KPrint>
80004dba:	b8 fe ff ff ff       	mov    $0xfffffffe,%eax
80004dbf:	8b 5d f8             	mov    0xfffffff8(%ebp),%ebx
80004dc2:	8b 75 fc             	mov    0xfffffffc(%ebp),%esi
80004dc5:	89 ec                	mov    %ebp,%esp
80004dc7:	5d                   	pop    %ebp
80004dc8:	c3                   	ret    
80004dc9:	8d b4 26 00 00 00 00 	lea    0x0(%esi,1),%esi
80004dd0:	c7 04 24 e0 9e 00 80 	movl   $0x80009ee0,(%esp,1)
80004dd7:	e8 14 0e 00 00       	call   80005bf0 <ObjectManager_ConstructPath>
80004ddc:	89 1c 24             	mov    %ebx,(%esp,1)
80004ddf:	e8 2c 0f 00 00       	call   80005d10 <ObjectManager_ConstructKey>
80004de4:	c7 44 24 04 06 00 00 	movl   $0x6,0x4(%esp,1)
80004deb:	00 
80004dec:	c7 04 24 00 00 00 00 	movl   $0x0,(%esp,1)
80004df3:	e8 f8 10 00 00       	call   80005ef0 <ObjectManager_SearchNameInClass>
80004df8:	85 c0                	test   %eax,%eax
80004dfa:	89 c2                	mov    %eax,%edx
80004dfc:	74 2d                	je     80004e2b <MessageManager_Call_GetMessagePortThreadID+0xcb>
80004dfe:	8b 40 40             	mov    0x40(%eax),%eax
80004e01:	89 06                	mov    %eax,(%esi)
80004e03:	8b 42 40             	mov    0x40(%edx),%eax
80004e06:	c7 04 24 01 9c 00 80 	movl   $0x80009c01,(%esp,1)
80004e0d:	89 5c 24 08          	mov    %ebx,0x8(%esp,1)
80004e11:	c7 44 24 04 20 9f 00 	movl   $0x80009f20,0x4(%esp,1)
80004e18:	80 
80004e19:	89 44 24 0c          	mov    %eax,0xc(%esp,1)
80004e1d:	e8 de 23 00 00       	call   80007200 <KPrint>
80004e22:	e8 b9 0a 00 00       	call   800058e0 <ObjectManager_Unlock>
80004e27:	31 c0                	xor    %eax,%eax
80004e29:	eb 94                	jmp    80004dbf <MessageManager_Call_GetMessagePortThreadID+0x5f>
80004e2b:	e8 b0 0a 00 00       	call   800058e0 <ObjectManager_Unlock>
80004e30:	c7 04 24 01 9c 00 80 	movl   $0x80009c01,(%esp,1)
80004e37:	a1 24 ad 00 80       	mov    0x8000ad24,%eax
80004e3c:	89 5c 24 0c          	mov    %ebx,0xc(%esp,1)
80004e40:	c7 44 24 04 60 9f 00 	movl   $0x80009f60,0x4(%esp,1)
80004e47:	80 
80004e48:	89 44 24 08          	mov    %eax,0x8(%esp,1)
80004e4c:	e8 af 23 00 00       	call   80007200 <KPrint>
80004e51:	b8 fd ff ff ff       	mov    $0xfffffffd,%eax
80004e56:	e9 64 ff ff ff       	jmp    80004dbf <MessageManager_Call_GetMessagePortThreadID+0x5f>
80004e5b:	90                   	nop    
80004e5c:	8d 74 26 00          	lea    0x0(%esi,1),%esi

80004e60 <MessageManager_Call_CreateMessage>:
80004e60:	55                   	push   %ebp
80004e61:	89 e5                	mov    %esp,%ebp
80004e63:	53                   	push   %ebx
80004e64:	8b 55 0c             	mov    0xc(%ebp),%edx
80004e67:	8b 42 0c             	mov    0xc(%edx),%eax
80004e6a:	8b 5c 82 10          	mov    0x10(%edx,%eax,4),%ebx
80004e6e:	8b 4c 82 14          	mov    0x14(%edx,%eax,4),%ecx
80004e72:	83 c0 02             	add    $0x2,%eax
80004e75:	89 42 0c             	mov    %eax,0xc(%edx)
80004e78:	89 5d 08             	mov    %ebx,0x8(%ebp)
80004e7b:	89 4d 0c             	mov    %ecx,0xc(%ebp)
80004e7e:	5b                   	pop    %ebx
80004e7f:	5d                   	pop    %ebp
80004e80:	e9 0b f7 ff ff       	jmp    80004590 <MessageManager_CreateMessage>
80004e85:	8d 74 26 00          	lea    0x0(%esi,1),%esi
80004e89:	8d bc 27 00 00 00 00 	lea    0x0(%edi,1),%edi

80004e90 <MessageManager_Call_GetMessage>:
80004e90:	55                   	push   %ebp
80004e91:	89 e5                	mov    %esp,%ebp
80004e93:	83 ec 18             	sub    $0x18,%esp
80004e96:	89 5d f8             	mov    %ebx,0xfffffff8(%ebp)
80004e99:	8b 4d 0c             	mov    0xc(%ebp),%ecx
80004e9c:	89 75 fc             	mov    %esi,0xfffffffc(%ebp)
80004e9f:	8b 41 0c             	mov    0xc(%ecx),%eax
80004ea2:	8b 5c 81 10          	mov    0x10(%ecx,%eax,4),%ebx
80004ea6:	8b 74 81 14          	mov    0x14(%ecx,%eax,4),%esi
80004eaa:	83 c0 02             	add    $0x2,%eax
80004ead:	89 41 0c             	mov    %eax,0xc(%ecx)
80004eb0:	e8 0b 0a 00 00       	call   800058c0 <ObjectManager_Lock>
80004eb5:	a1 1c ad 00 80       	mov    0x8000ad1c,%eax
80004eba:	8b 40 4c             	mov    0x4c(%eax),%eax
80004ebd:	8b 40 4c             	mov    0x4c(%eax),%eax
80004ec0:	8b 48 4c             	mov    0x4c(%eax),%ecx
80004ec3:	8b 01                	mov    (%ecx),%eax
80004ec5:	85 c0                	test   %eax,%eax
80004ec7:	75 37                	jne    80004f00 <MessageManager_Call_GetMessage+0x70>
80004ec9:	e8 12 0a 00 00       	call   800058e0 <ObjectManager_Unlock>
80004ece:	c7 04 24 01 9c 00 80 	movl   $0x80009c01,(%esp,1)
80004ed5:	a1 24 ad 00 80       	mov    0x8000ad24,%eax
80004eda:	c7 44 24 04 a0 9f 00 	movl   $0x80009fa0,0x4(%esp,1)
80004ee1:	80 
80004ee2:	89 44 24 08          	mov    %eax,0x8(%esp,1)
80004ee6:	e8 15 23 00 00       	call   80007200 <KPrint>
80004eeb:	b8 fd ff ff ff       	mov    $0xfffffffd,%eax
80004ef0:	8b 5d f8             	mov    0xfffffff8(%ebp),%ebx
80004ef3:	8b 75 fc             	mov    0xfffffffc(%ebp),%esi
80004ef6:	89 ec                	mov    %ebp,%esp
80004ef8:	5d                   	pop    %ebp
80004ef9:	c3                   	ret    
80004efa:	8d b6 00 00 00 00    	lea    0x0(%esi),%esi
80004f00:	8b 41 04             	mov    0x4(%ecx),%eax
80004f03:	8b 50 4c             	mov    0x4c(%eax),%edx
80004f06:	8b 02                	mov    (%edx),%eax
80004f08:	89 03                	mov    %eax,(%ebx)
80004f0a:	8b 42 04             	mov    0x4(%edx),%eax
80004f0d:	89 06                	mov    %eax,(%esi)
80004f0f:	ff 09                	decl   (%ecx)
80004f11:	c7 41 0c 01 00 00 00 	movl   $0x1,0xc(%ecx)
80004f18:	e8 c3 09 00 00       	call   800058e0 <ObjectManager_Unlock>
80004f1d:	31 c0                	xor    %eax,%eax
80004f1f:	eb cf                	jmp    80004ef0 <MessageManager_Call_GetMessage+0x60>
80004f21:	eb 0d                	jmp    80004f30 <MessageManager_Call_MessageProcessed>
80004f23:	90                   	nop    
80004f24:	90                   	nop    
80004f25:	90                   	nop    
80004f26:	90                   	nop    
80004f27:	90                   	nop    
80004f28:	90                   	nop    
80004f29:	90                   	nop    
80004f2a:	90                   	nop    
80004f2b:	90                   	nop    
80004f2c:	90                   	nop    
80004f2d:	90                   	nop    
80004f2e:	90                   	nop    
80004f2f:	90                   	nop    

80004f30 <MessageManager_Call_MessageProcessed>:
80004f30:	55                   	push   %ebp
80004f31:	89 e5                	mov    %esp,%ebp
80004f33:	83 ec 18             	sub    $0x18,%esp
80004f36:	e8 85 09 00 00       	call   800058c0 <ObjectManager_Lock>
80004f3b:	a1 1c ad 00 80       	mov    0x8000ad1c,%eax
80004f40:	8b 40 4c             	mov    0x4c(%eax),%eax
80004f43:	8b 40 4c             	mov    0x4c(%eax),%eax
80004f46:	8b 48 4c             	mov    0x4c(%eax),%ecx
80004f49:	8b 41 0c             	mov    0xc(%ecx),%eax
80004f4c:	85 c0                	test   %eax,%eax
80004f4e:	75 30                	jne    80004f80 <MessageManager_Call_MessageProcessed+0x50>
80004f50:	e8 8b 09 00 00       	call   800058e0 <ObjectManager_Unlock>
80004f55:	c7 04 24 01 9c 00 80 	movl   $0x80009c01,(%esp,1)
80004f5c:	a1 24 ad 00 80       	mov    0x8000ad24,%eax
80004f61:	c7 44 24 04 e0 9f 00 	movl   $0x80009fe0,0x4(%esp,1)
80004f68:	80 
80004f69:	89 44 24 08          	mov    %eax,0x8(%esp,1)
80004f6d:	e8 8e 22 00 00       	call   80007200 <KPrint>
80004f72:	b8 fd ff ff ff       	mov    $0xfffffffd,%eax
80004f77:	89 ec                	mov    %ebp,%esp
80004f79:	5d                   	pop    %ebp
80004f7a:	c3                   	ret    
80004f7b:	90                   	nop    
80004f7c:	8d 74 26 00          	lea    0x0(%esi,1),%esi
80004f80:	c7 41 0c 00 00 00 00 	movl   $0x0,0xc(%ecx)
80004f87:	8b 41 04             	mov    0x4(%ecx),%eax
80004f8a:	8b 50 4c             	mov    0x4c(%eax),%edx
80004f8d:	8b 52 10             	mov    0x10(%edx),%edx
80004f90:	89 51 04             	mov    %edx,0x4(%ecx)
80004f93:	89 04 24             	mov    %eax,(%esp,1)
80004f96:	e8 c5 0e 00 00       	call   80005e60 <ObjectManager_DeleteObject>
80004f9b:	e8 40 09 00 00       	call   800058e0 <ObjectManager_Unlock>
80004fa0:	31 c0                	xor    %eax,%eax
80004fa2:	eb d3                	jmp    80004f77 <MessageManager_Call_MessageProcessed+0x47>
80004fa4:	8d b6 00 00 00 00    	lea    0x0(%esi),%esi
80004faa:	8d bf 00 00 00 00    	lea    0x0(%edi),%edi

80004fb0 <MessageManager_Call_SendMessage>:
80004fb0:	55                   	push   %ebp
80004fb1:	89 e5                	mov    %esp,%ebp
80004fb3:	8b 45 0c             	mov    0xc(%ebp),%eax
80004fb6:	8b 50 0c             	mov    0xc(%eax),%edx
80004fb9:	8b 4c 90 10          	mov    0x10(%eax,%edx,4),%ecx
80004fbd:	42                   	inc    %edx
80004fbe:	89 50 0c             	mov    %edx,0xc(%eax)
80004fc1:	89 4d 08             	mov    %ecx,0x8(%ebp)
80004fc4:	5d                   	pop    %ebp
80004fc5:	e9 36 f7 ff ff       	jmp    80004700 <MessageManager_SendMessage>
80004fca:	8d b6 00 00 00 00    	lea    0x0(%esi),%esi

80004fd0 <MessageManager_Call_GetMessageQueueLength>:
80004fd0:	55                   	push   %ebp
80004fd1:	89 e5                	mov    %esp,%ebp
80004fd3:	83 ec 08             	sub    $0x8,%esp
80004fd6:	89 5d fc             	mov    %ebx,0xfffffffc(%ebp)
80004fd9:	8b 4d 0c             	mov    0xc(%ebp),%ecx
80004fdc:	8b 41 0c             	mov    0xc(%ecx),%eax
80004fdf:	8b 5c 81 10          	mov    0x10(%ecx,%eax,4),%ebx
80004fe3:	40                   	inc    %eax
80004fe4:	89 41 0c             	mov    %eax,0xc(%ecx)
80004fe7:	e8 d4 08 00 00       	call   800058c0 <ObjectManager_Lock>
80004fec:	a1 1c ad 00 80       	mov    0x8000ad1c,%eax
80004ff1:	8b 40 4c             	mov    0x4c(%eax),%eax
80004ff4:	8b 40 4c             	mov    0x4c(%eax),%eax
80004ff7:	8b 40 4c             	mov    0x4c(%eax),%eax
80004ffa:	8b 00                	mov    (%eax),%eax
80004ffc:	89 03                	mov    %eax,(%ebx)
80004ffe:	e8 dd 08 00 00       	call   800058e0 <ObjectManager_Unlock>
80005003:	8b 5d fc             	mov    0xfffffffc(%ebp),%ebx
80005006:	31 c0                	xor    %eax,%eax
80005008:	89 ec                	mov    %ebp,%esp
8000500a:	5d                   	pop    %ebp
8000500b:	c3                   	ret    
8000500c:	8d 74 26 00          	lea    0x0(%esi,1),%esi

80005010 <MessageManager_CreateModuleInterface>:
80005010:	55                   	push   %ebp
80005011:	89 e5                	mov    %esp,%ebp
80005013:	83 ec 18             	sub    $0x18,%esp
80005016:	c7 04 24 21 9c 00 80 	movl   $0x80009c21,(%esp,1)
8000501d:	e8 be 01 00 00       	call   800051e0 <ModuleManager_CreateModule>
80005022:	c7 44 24 08 40 4c 00 	movl   $0x80004c40,0x8(%esp,1)
80005029:	80 
8000502a:	c7 44 24 04 30 9c 00 	movl   $0x80009c30,0x4(%esp,1)
80005031:	80 
80005032:	c7 04 24 21 9c 00 80 	movl   $0x80009c21,(%esp,1)
80005039:	e8 42 02 00 00       	call   80005280 <ModuleManager_CreateModuleCall>
8000503e:	c7 44 24 08 60 4e 00 	movl   $0x80004e60,0x8(%esp,1)
80005045:	80 
80005046:	c7 44 24 04 42 9c 00 	movl   $0x80009c42,0x4(%esp,1)
8000504d:	80 
8000504e:	c7 04 24 21 9c 00 80 	movl   $0x80009c21,(%esp,1)
80005055:	e8 26 02 00 00       	call   80005280 <ModuleManager_CreateModuleCall>
8000505a:	c7 44 24 08 90 4e 00 	movl   $0x80004e90,0x8(%esp,1)
80005061:	80 
80005062:	c7 44 24 04 50 9c 00 	movl   $0x80009c50,0x4(%esp,1)
80005069:	80 
8000506a:	c7 04 24 21 9c 00 80 	movl   $0x80009c21,(%esp,1)
80005071:	e8 0a 02 00 00       	call   80005280 <ModuleManager_CreateModuleCall>
80005076:	c7 44 24 08 30 4f 00 	movl   $0x80004f30,0x8(%esp,1)
8000507d:	80 
8000507e:	c7 44 24 04 5b 9c 00 	movl   $0x80009c5b,0x4(%esp,1)
80005085:	80 
80005086:	c7 04 24 21 9c 00 80 	movl   $0x80009c21,(%esp,1)
8000508d:	e8 ee 01 00 00       	call   80005280 <ModuleManager_CreateModuleCall>
80005092:	c7 44 24 08 b0 4f 00 	movl   $0x80004fb0,0x8(%esp,1)
80005099:	80 
8000509a:	c7 44 24 04 6c 9c 00 	movl   $0x80009c6c,0x4(%esp,1)
800050a1:	80 
800050a2:	c7 04 24 21 9c 00 80 	movl   $0x80009c21,(%esp,1)
800050a9:	e8 d2 01 00 00       	call   80005280 <ModuleManager_CreateModuleCall>
800050ae:	c7 44 24 08 60 4d 00 	movl   $0x80004d60,0x8(%esp,1)
800050b5:	80 
800050b6:	c7 44 24 04 78 9c 00 	movl   $0x80009c78,0x4(%esp,1)
800050bd:	80 
800050be:	c7 04 24 21 9c 00 80 	movl   $0x80009c21,(%esp,1)
800050c5:	e8 b6 01 00 00       	call   80005280 <ModuleManager_CreateModuleCall>
800050ca:	c7 44 24 08 d0 4f 00 	movl   $0x80004fd0,0x8(%esp,1)
800050d1:	80 
800050d2:	c7 44 24 04 8f 9c 00 	movl   $0x80009c8f,0x4(%esp,1)
800050d9:	80 
800050da:	c7 04 24 21 9c 00 80 	movl   $0x80009c21,(%esp,1)
800050e1:	e8 9a 01 00 00       	call   80005280 <ModuleManager_CreateModuleCall>
800050e6:	89 ec                	mov    %ebp,%esp
800050e8:	5d                   	pop    %ebp
800050e9:	c3                   	ret    
800050ea:	00 00                	add    %al,(%eax)
800050ec:	00 00                	add    %al,(%eax)
	...

800050f0 <ModuleManager_LockInit>:
800050f0:	55                   	push   %ebp
800050f1:	89 e5                	mov    %esp,%ebp
800050f3:	83 ec 08             	sub    $0x8,%esp
800050f6:	c7 44 24 04 a0 ae 00 	movl   $0x8000aea0,0x4(%esp,1)
800050fd:	80 
800050fe:	c7 04 24 35 a0 00 80 	movl   $0x8000a035,(%esp,1)
80005105:	e8 b6 e4 ff ff       	call   800035c0 <Lock_Init>
8000510a:	89 ec                	mov    %ebp,%esp
8000510c:	5d                   	pop    %ebp
8000510d:	c3                   	ret    
8000510e:	89 f6                	mov    %esi,%esi

80005110 <ModuleManager_Lock>:
80005110:	55                   	push   %ebp
80005111:	89 e5                	mov    %esp,%ebp
80005113:	83 ec 08             	sub    $0x8,%esp
80005116:	c7 04 24 a0 ae 00 80 	movl   $0x8000aea0,(%esp,1)
8000511d:	e8 ce e4 ff ff       	call   800035f0 <Lock_Lock>
80005122:	89 ec                	mov    %ebp,%esp
80005124:	5d                   	pop    %ebp
80005125:	c3                   	ret    
80005126:	8d 76 00             	lea    0x0(%esi),%esi
80005129:	8d bc 27 00 00 00 00 	lea    0x0(%edi,1),%edi

80005130 <ModuleManager_Unlock>:
80005130:	55                   	push   %ebp
80005131:	89 e5                	mov    %esp,%ebp
80005133:	83 ec 08             	sub    $0x8,%esp
80005136:	c7 04 24 a0 ae 00 80 	movl   $0x8000aea0,(%esp,1)
8000513d:	e8 ee e4 ff ff       	call   80003630 <Lock_Unlock>
80005142:	89 ec                	mov    %ebp,%esp
80005144:	5d                   	pop    %ebp
80005145:	c3                   	ret    
80005146:	8d 76 00             	lea    0x0(%esi),%esi
80005149:	8d bc 27 00 00 00 00 	lea    0x0(%edi,1),%edi

80005150 <ModuleManager_Init>:
80005150:	55                   	push   %ebp
80005151:	89 e5                	mov    %esp,%ebp
80005153:	83 ec 18             	sub    $0x18,%esp
80005156:	c7 44 24 04 a0 ae 00 	movl   $0x8000aea0,0x4(%esp,1)
8000515d:	80 
8000515e:	c7 04 24 35 a0 00 80 	movl   $0x8000a035,(%esp,1)
80005165:	e8 56 e4 ff ff       	call   800035c0 <Lock_Init>
8000516a:	31 d2                	xor    %edx,%edx
8000516c:	31 c0                	xor    %eax,%eax
8000516e:	89 15 48 ad 00 80    	mov    %edx,0x8000ad48
80005174:	a3 44 ad 00 80       	mov    %eax,0x8000ad44
80005179:	c7 44 24 04 e1 0f 00 	movl   $0x80000fe1,0x4(%esp,1)
80005180:	80 
80005181:	c7 04 24 80 00 00 00 	movl   $0x80,(%esp,1)
80005188:	e8 93 28 00 00       	call   80007a20 <Descriptor_SetInterruptGate>
8000518d:	c7 44 24 04 0f 10 00 	movl   $0x8000100f,0x4(%esp,1)
80005194:	80 
80005195:	c7 04 24 81 00 00 00 	movl   $0x81,(%esp,1)
8000519c:	e8 7f 28 00 00       	call   80007a20 <Descriptor_SetInterruptGate>
800051a1:	a1 8c ac 00 80       	mov    0x8000ac8c,%eax
800051a6:	c7 44 24 08 0a 00 00 	movl   $0xa,0x8(%esp,1)
800051ad:	00 
800051ae:	c7 44 24 04 00 00 01 	movl   $0x10000,0x4(%esp,1)
800051b5:	00 
800051b6:	89 04 24             	mov    %eax,(%esp,1)
800051b9:	e8 62 f0 ff ff       	call   80004220 <MemoryManager_Page_MapZeroFill>
800051be:	c7 44 24 04 3d a0 00 	movl   $0x8000a03d,0x4(%esp,1)
800051c5:	80 
800051c6:	c7 04 24 35 a0 00 80 	movl   $0x8000a035,(%esp,1)
800051cd:	e8 2e 20 00 00       	call   80007200 <KPrint>
800051d2:	89 ec                	mov    %ebp,%esp
800051d4:	5d                   	pop    %ebp
800051d5:	c3                   	ret    
800051d6:	8d 76 00             	lea    0x0(%esi),%esi
800051d9:	8d bc 27 00 00 00 00 	lea    0x0(%edi,1),%edi

800051e0 <ModuleManager_CreateModule>:
800051e0:	55                   	push   %ebp
800051e1:	89 e5                	mov    %esp,%ebp
800051e3:	83 ec 18             	sub    $0x18,%esp
800051e6:	89 75 fc             	mov    %esi,0xfffffffc(%ebp)
800051e9:	8b 75 08             	mov    0x8(%ebp),%esi
800051ec:	89 5d f8             	mov    %ebx,0xfffffff8(%ebp)
800051ef:	e8 cc 06 00 00       	call   800058c0 <ObjectManager_Lock>
800051f4:	c7 04 24 a0 ae 00 80 	movl   $0x8000aea0,(%esp,1)
800051fb:	e8 f0 e3 ff ff       	call   800035f0 <Lock_Lock>
80005200:	c7 04 24 59 a0 00 80 	movl   $0x8000a059,(%esp,1)
80005207:	e8 e4 09 00 00       	call   80005bf0 <ObjectManager_ConstructPath>
8000520c:	89 34 24             	mov    %esi,(%esp,1)
8000520f:	e8 fc 0a 00 00       	call   80005d10 <ObjectManager_ConstructKey>
80005214:	c7 44 24 04 00 00 00 	movl   $0x0,0x4(%esp,1)
8000521b:	00 
8000521c:	c7 04 24 04 00 00 00 	movl   $0x4,(%esp,1)
80005223:	e8 98 05 00 00       	call   800057c0 <ObjectManager_CreateObject>
80005228:	89 c3                	mov    %eax,%ebx
8000522a:	a1 44 ad 00 80       	mov    0x8000ad44,%eax
8000522f:	89 43 34             	mov    %eax,0x34(%ebx)
80005232:	ff 05 44 ad 00 80    	incl   0x8000ad44
80005238:	e8 a3 06 00 00       	call   800058e0 <ObjectManager_Unlock>
8000523d:	c7 04 24 a0 ae 00 80 	movl   $0x8000aea0,(%esp,1)
80005244:	e8 e7 e3 ff ff       	call   80003630 <Lock_Unlock>
80005249:	8b 43 34             	mov    0x34(%ebx),%eax
8000524c:	89 74 24 08          	mov    %esi,0x8(%esp,1)
80005250:	c7 44 24 04 70 a0 00 	movl   $0x8000a070,0x4(%esp,1)
80005257:	80 
80005258:	89 44 24 0c          	mov    %eax,0xc(%esp,1)
8000525c:	c7 04 24 35 a0 00 80 	movl   $0x8000a035,(%esp,1)
80005263:	e8 98 1f 00 00       	call   80007200 <KPrint>
80005268:	8b 75 fc             	mov    0xfffffffc(%ebp),%esi
8000526b:	31 c0                	xor    %eax,%eax
8000526d:	8b 5d f8             	mov    0xfffffff8(%ebp),%ebx
80005270:	89 ec                	mov    %ebp,%esp
80005272:	5d                   	pop    %ebp
80005273:	c3                   	ret    
80005274:	8d b6 00 00 00 00    	lea    0x0(%esi),%esi
8000527a:	8d bf 00 00 00 00    	lea    0x0(%edi),%edi

80005280 <ModuleManager_CreateModuleCall>:
80005280:	55                   	push   %ebp
80005281:	89 e5                	mov    %esp,%ebp
80005283:	57                   	push   %edi
80005284:	56                   	push   %esi
80005285:	53                   	push   %ebx
80005286:	83 ec 1c             	sub    $0x1c,%esp
80005289:	8b 5d 08             	mov    0x8(%ebp),%ebx
8000528c:	8b 7d 0c             	mov    0xc(%ebp),%edi
8000528f:	e8 2c 06 00 00       	call   800058c0 <ObjectManager_Lock>
80005294:	c7 04 24 a0 ae 00 80 	movl   $0x8000aea0,(%esp,1)
8000529b:	e8 50 e3 ff ff       	call   800035f0 <Lock_Lock>
800052a0:	c7 04 24 59 a0 00 80 	movl   $0x8000a059,(%esp,1)
800052a7:	e8 44 09 00 00       	call   80005bf0 <ObjectManager_ConstructPath>
800052ac:	89 1c 24             	mov    %ebx,(%esp,1)
800052af:	e8 5c 0a 00 00       	call   80005d10 <ObjectManager_ConstructKey>
800052b4:	c7 44 24 04 04 00 00 	movl   $0x4,0x4(%esp,1)
800052bb:	00 
800052bc:	c7 04 24 00 00 00 00 	movl   $0x0,(%esp,1)
800052c3:	e8 28 0c 00 00       	call   80005ef0 <ObjectManager_SearchNameInClass>
800052c8:	85 c0                	test   %eax,%eax
800052ca:	89 c6                	mov    %eax,%esi
800052cc:	0f 84 9e 00 00 00    	je     80005370 <ModuleManager_CreateModuleCall+0xf0>
800052d2:	c7 04 24 59 a0 00 80 	movl   $0x8000a059,(%esp,1)
800052d9:	e8 12 09 00 00       	call   80005bf0 <ObjectManager_ConstructPath>
800052de:	89 1c 24             	mov    %ebx,(%esp,1)
800052e1:	e8 7a 09 00 00       	call   80005c60 <ObjectManager_ConstructPathAppend>
800052e6:	c7 04 24 79 92 00 80 	movl   $0x80009279,(%esp,1)
800052ed:	e8 6e 09 00 00       	call   80005c60 <ObjectManager_ConstructPathAppend>
800052f2:	89 3c 24             	mov    %edi,(%esp,1)
800052f5:	e8 16 0a 00 00       	call   80005d10 <ObjectManager_ConstructKey>
800052fa:	c7 44 24 04 04 00 00 	movl   $0x4,0x4(%esp,1)
80005301:	00 
80005302:	c7 04 24 05 00 00 00 	movl   $0x5,(%esp,1)
80005309:	e8 b2 04 00 00       	call   800057c0 <ObjectManager_CreateObject>
8000530e:	89 c3                	mov    %eax,%ebx
80005310:	8b 46 34             	mov    0x34(%esi),%eax
80005313:	8b 4b 4c             	mov    0x4c(%ebx),%ecx
80005316:	89 43 34             	mov    %eax,0x34(%ebx)
80005319:	a1 48 ad 00 80       	mov    0x8000ad48,%eax
8000531e:	89 43 38             	mov    %eax,0x38(%ebx)
80005321:	8b 45 10             	mov    0x10(%ebp),%eax
80005324:	ff 05 48 ad 00 80    	incl   0x8000ad48
8000532a:	89 01                	mov    %eax,(%ecx)
8000532c:	e8 af 05 00 00       	call   800058e0 <ObjectManager_Unlock>
80005331:	c7 04 24 a0 ae 00 80 	movl   $0x8000aea0,(%esp,1)
80005338:	e8 f3 e2 ff ff       	call   80003630 <Lock_Unlock>
8000533d:	8b 43 38             	mov    0x38(%ebx),%eax
80005340:	89 44 24 10          	mov    %eax,0x10(%esp,1)
80005344:	8b 43 34             	mov    0x34(%ebx),%eax
80005347:	c7 04 24 35 a0 00 80 	movl   $0x8000a035,(%esp,1)
8000534e:	89 7c 24 08          	mov    %edi,0x8(%esp,1)
80005352:	c7 44 24 04 40 a1 00 	movl   $0x8000a140,0x4(%esp,1)
80005359:	80 
8000535a:	89 44 24 0c          	mov    %eax,0xc(%esp,1)
8000535e:	e8 9d 1e 00 00       	call   80007200 <KPrint>
80005363:	31 c0                	xor    %eax,%eax
80005365:	83 c4 1c             	add    $0x1c,%esp
80005368:	5b                   	pop    %ebx
80005369:	5e                   	pop    %esi
8000536a:	5f                   	pop    %edi
8000536b:	5d                   	pop    %ebp
8000536c:	c3                   	ret    
8000536d:	8d 76 00             	lea    0x0(%esi),%esi
80005370:	e8 6b 05 00 00       	call   800058e0 <ObjectManager_Unlock>
80005375:	c7 04 24 a0 ae 00 80 	movl   $0x8000aea0,(%esp,1)
8000537c:	e8 af e2 ff ff       	call   80003630 <Lock_Unlock>
80005381:	89 5c 24 08          	mov    %ebx,0x8(%esp,1)
80005385:	c7 44 24 04 8a a0 00 	movl   $0x8000a08a,0x4(%esp,1)
8000538c:	80 
8000538d:	c7 04 24 35 a0 00 80 	movl   $0x8000a035,(%esp,1)
80005394:	e8 67 1e 00 00       	call   80007200 <KPrint>
80005399:	b8 fd ff ff ff       	mov    $0xfffffffd,%eax
8000539e:	eb c5                	jmp    80005365 <ModuleManager_CreateModuleCall+0xe5>

800053a0 <ModuleManager_GetCallID>:
800053a0:	55                   	push   %ebp
800053a1:	89 e5                	mov    %esp,%ebp
800053a3:	57                   	push   %edi
800053a4:	56                   	push   %esi
800053a5:	53                   	push   %ebx
800053a6:	83 ec 1c             	sub    $0x1c,%esp
800053a9:	8b 7d 08             	mov    0x8(%ebp),%edi
800053ac:	e8 0f 05 00 00       	call   800058c0 <ObjectManager_Lock>
800053b1:	c7 04 24 a0 ae 00 80 	movl   $0x8000aea0,(%esp,1)
800053b8:	e8 33 e2 ff ff       	call   800035f0 <Lock_Lock>
800053bd:	8b 77 20             	mov    0x20(%edi),%esi
800053c0:	8b 5f 1c             	mov    0x1c(%edi),%ebx
800053c3:	c7 04 24 59 a0 00 80 	movl   $0x8000a059,(%esp,1)
800053ca:	e8 21 08 00 00       	call   80005bf0 <ObjectManager_ConstructPath>
800053cf:	89 34 24             	mov    %esi,(%esp,1)
800053d2:	e8 89 08 00 00       	call   80005c60 <ObjectManager_ConstructPathAppend>
800053d7:	c7 04 24 79 92 00 80 	movl   $0x80009279,(%esp,1)
800053de:	e8 7d 08 00 00       	call   80005c60 <ObjectManager_ConstructPathAppend>
800053e3:	89 1c 24             	mov    %ebx,(%esp,1)
800053e6:	e8 25 09 00 00       	call   80005d10 <ObjectManager_ConstructKey>
800053eb:	c7 44 24 04 05 00 00 	movl   $0x5,0x4(%esp,1)
800053f2:	00 
800053f3:	c7 04 24 00 00 00 00 	movl   $0x0,(%esp,1)
800053fa:	e8 f1 0a 00 00       	call   80005ef0 <ObjectManager_SearchNameInClass>
800053ff:	85 c0                	test   %eax,%eax
80005401:	74 4d                	je     80005450 <ModuleManager_GetCallID+0xb0>
80005403:	8b 40 38             	mov    0x38(%eax),%eax
80005406:	89 47 20             	mov    %eax,0x20(%edi)
80005409:	c7 04 24 a0 ae 00 80 	movl   $0x8000aea0,(%esp,1)
80005410:	e8 1b e2 ff ff       	call   80003630 <Lock_Unlock>
80005415:	e8 c6 04 00 00       	call   800058e0 <ObjectManager_Unlock>
8000541a:	8b 47 20             	mov    0x20(%edi),%eax
8000541d:	89 5c 24 0c          	mov    %ebx,0xc(%esp,1)
80005421:	89 74 24 08          	mov    %esi,0x8(%esp,1)
80005425:	89 44 24 10          	mov    %eax,0x10(%esp,1)
80005429:	c7 44 24 04 a1 a0 00 	movl   $0x8000a0a1,0x4(%esp,1)
80005430:	80 
80005431:	c7 04 24 35 a0 00 80 	movl   $0x8000a035,(%esp,1)
80005438:	e8 c3 1d 00 00       	call   80007200 <KPrint>
8000543d:	83 c4 1c             	add    $0x1c,%esp
80005440:	5b                   	pop    %ebx
80005441:	5e                   	pop    %esi
80005442:	5f                   	pop    %edi
80005443:	5d                   	pop    %ebp
80005444:	c3                   	ret    
80005445:	8d 74 26 00          	lea    0x0(%esi,1),%esi
80005449:	8d bc 27 00 00 00 00 	lea    0x0(%edi,1),%edi
80005450:	c7 04 24 a0 ae 00 80 	movl   $0x8000aea0,(%esp,1)
80005457:	e8 d4 e1 ff ff       	call   80003630 <Lock_Unlock>
8000545c:	e8 7f 04 00 00       	call   800058e0 <ObjectManager_Unlock>
80005461:	89 5c 24 0c          	mov    %ebx,0xc(%esp,1)
80005465:	89 74 24 08          	mov    %esi,0x8(%esp,1)
80005469:	c7 44 24 04 be a0 00 	movl   $0x8000a0be,0x4(%esp,1)
80005470:	80 
80005471:	c7 04 24 35 a0 00 80 	movl   $0x8000a035,(%esp,1)
80005478:	e8 83 1d 00 00       	call   80007200 <KPrint>
8000547d:	c7 47 20 fe ff ff ff 	movl   $0xfffffffe,0x20(%edi)
80005484:	eb b7                	jmp    8000543d <ModuleManager_GetCallID+0x9d>
80005486:	8d 76 00             	lea    0x0(%esi),%esi
80005489:	8d bc 27 00 00 00 00 	lea    0x0(%edi,1),%edi

80005490 <ModuleManager_Call>:
80005490:	55                   	push   %ebp
80005491:	89 e5                	mov    %esp,%ebp
80005493:	83 ec 18             	sub    $0x18,%esp
80005496:	89 7d fc             	mov    %edi,0xfffffffc(%ebp)
80005499:	8b 7d 08             	mov    0x8(%ebp),%edi
8000549c:	89 5d f4             	mov    %ebx,0xfffffff4(%ebp)
8000549f:	89 75 f8             	mov    %esi,0xfffffff8(%ebp)
800054a2:	e8 19 04 00 00       	call   800058c0 <ObjectManager_Lock>
800054a7:	c7 04 24 a0 ae 00 80 	movl   $0x8000aea0,(%esp,1)
800054ae:	e8 3d e1 ff ff       	call   800035f0 <Lock_Lock>
800054b3:	a1 20 ad 00 80       	mov    0x8000ad20,%eax
800054b8:	8b 77 1c             	mov    0x1c(%edi),%esi
800054bb:	8b 5f 20             	mov    0x20(%edi),%ebx
800054be:	89 06                	mov    %eax,(%esi)
800054c0:	a1 24 ad 00 80       	mov    0x8000ad24,%eax
800054c5:	c7 46 0c 00 00 00 00 	movl   $0x0,0xc(%esi)
800054cc:	89 46 04             	mov    %eax,0x4(%esi)
800054cf:	89 5c 24 08          	mov    %ebx,0x8(%esp,1)
800054d3:	c7 44 24 04 05 00 00 	movl   $0x5,0x4(%esp,1)
800054da:	00 
800054db:	c7 04 24 00 00 00 00 	movl   $0x0,(%esp,1)
800054e2:	e8 89 0b 00 00       	call   80006070 <ObjectManager_SearchInClassTypeSubIndex>
800054e7:	85 c0                	test   %eax,%eax
800054e9:	74 35                	je     80005520 <ModuleManager_Call+0x90>
800054eb:	8b 40 4c             	mov    0x4c(%eax),%eax
800054ee:	8b 18                	mov    (%eax),%ebx
800054f0:	c7 04 24 a0 ae 00 80 	movl   $0x8000aea0,(%esp,1)
800054f7:	e8 34 e1 ff ff       	call   80003630 <Lock_Unlock>
800054fc:	e8 df 03 00 00       	call   800058e0 <ObjectManager_Unlock>
80005501:	89 74 24 04          	mov    %esi,0x4(%esp,1)
80005505:	89 3c 24             	mov    %edi,(%esp,1)
80005508:	ff d3                	call   *%ebx
8000550a:	89 47 20             	mov    %eax,0x20(%edi)
8000550d:	8b 5d f4             	mov    0xfffffff4(%ebp),%ebx
80005510:	8b 75 f8             	mov    0xfffffff8(%ebp),%esi
80005513:	8b 7d fc             	mov    0xfffffffc(%ebp),%edi
80005516:	89 ec                	mov    %ebp,%esp
80005518:	5d                   	pop    %ebp
80005519:	c3                   	ret    
8000551a:	8d b6 00 00 00 00    	lea    0x0(%esi),%esi
80005520:	c7 04 24 a0 ae 00 80 	movl   $0x8000aea0,(%esp,1)
80005527:	e8 04 e1 ff ff       	call   80003630 <Lock_Unlock>
8000552c:	e8 af 03 00 00       	call   800058e0 <ObjectManager_Unlock>
80005531:	89 5c 24 08          	mov    %ebx,0x8(%esp,1)
80005535:	c7 44 24 04 d8 a0 00 	movl   $0x8000a0d8,0x4(%esp,1)
8000553c:	80 
8000553d:	c7 04 24 35 a0 00 80 	movl   $0x8000a035,(%esp,1)
80005544:	e8 b7 1c 00 00       	call   80007200 <KPrint>
80005549:	c7 47 20 fe ff ff ff 	movl   $0xfffffffe,0x20(%edi)
80005550:	eb bb                	jmp    8000550d <ModuleManager_Call+0x7d>
80005552:	8d b4 26 00 00 00 00 	lea    0x0(%esi,1),%esi
80005559:	8d bc 27 00 00 00 00 	lea    0x0(%edi,1),%edi

80005560 <ModuleManager_Load>:
80005560:	55                   	push   %ebp
80005561:	89 e5                	mov    %esp,%ebp
80005563:	83 ec 28             	sub    $0x28,%esp
80005566:	89 75 f8             	mov    %esi,0xfffffff8(%ebp)
80005569:	8d 55 f0             	lea    0xfffffff0(%ebp),%edx
8000556c:	8b 75 08             	mov    0x8(%ebp),%esi
8000556f:	89 5d f4             	mov    %ebx,0xfffffff4(%ebp)
80005572:	89 7d fc             	mov    %edi,0xfffffffc(%ebp)
80005575:	8b 3d 8c ac 00 80    	mov    0x8000ac8c,%edi
8000557b:	89 54 24 08          	mov    %edx,0x8(%esp,1)
8000557f:	c7 44 24 04 8c ac 00 	movl   $0x8000ac8c,0x4(%esp,1)
80005586:	80 
80005587:	89 34 24             	mov    %esi,(%esp,1)
8000558a:	e8 51 c4 ff ff       	call   800019e0 <FS_LoadElf>
8000558f:	85 c0                	test   %eax,%eax
80005591:	89 c3                	mov    %eax,%ebx
80005593:	74 2b                	je     800055c0 <ModuleManager_Load+0x60>
80005595:	89 74 24 08          	mov    %esi,0x8(%esp,1)
80005599:	c7 44 24 04 f0 a0 00 	movl   $0x8000a0f0,0x4(%esp,1)
800055a0:	80 
800055a1:	c7 04 24 50 8f 00 80 	movl   $0x80008f50,(%esp,1)
800055a8:	e8 53 1c 00 00       	call   80007200 <KPrint>
800055ad:	89 d8                	mov    %ebx,%eax
800055af:	8b 5d f4             	mov    0xfffffff4(%ebp),%ebx
800055b2:	8b 75 f8             	mov    0xfffffff8(%ebp),%esi
800055b5:	8b 7d fc             	mov    0xfffffffc(%ebp),%edi
800055b8:	89 ec                	mov    %ebp,%esp
800055ba:	5d                   	pop    %ebp
800055bb:	c3                   	ret    
800055bc:	8d 74 26 00          	lea    0x0(%esi,1),%esi
800055c0:	89 7c 24 0c          	mov    %edi,0xc(%esp,1)
800055c4:	8b 45 f0             	mov    0xfffffff0(%ebp),%eax
800055c7:	89 74 24 08          	mov    %esi,0x8(%esp,1)
800055cb:	c7 44 24 04 80 a1 00 	movl   $0x8000a180,0x4(%esp,1)
800055d2:	80 
800055d3:	89 44 24 14          	mov    %eax,0x14(%esp,1)
800055d7:	a1 8c ac 00 80       	mov    0x8000ac8c,%eax
800055dc:	c7 04 24 50 8f 00 80 	movl   $0x80008f50,(%esp,1)
800055e3:	89 44 24 10          	mov    %eax,0x10(%esp,1)
800055e7:	e8 14 1c 00 00       	call   80007200 <KPrint>
800055ec:	ff 55 f0             	call   *0xfffffff0(%ebp)
800055ef:	89 74 24 08          	mov    %esi,0x8(%esp,1)
800055f3:	c7 44 24 04 c0 a1 00 	movl   $0x8000a1c0,0x4(%esp,1)
800055fa:	80 
800055fb:	c7 04 24 50 8f 00 80 	movl   $0x80008f50,(%esp,1)
80005602:	89 44 24 0c          	mov    %eax,0xc(%esp,1)
80005606:	e8 f5 1b 00 00       	call   80007200 <KPrint>
8000560b:	31 c0                	xor    %eax,%eax
8000560d:	eb a0                	jmp    800055af <ModuleManager_Load+0x4f>
8000560f:	90                   	nop    

80005610 <ModuleManager_Call_CreateModule>:
80005610:	55                   	push   %ebp
80005611:	89 e5                	mov    %esp,%ebp
80005613:	83 ec 18             	sub    $0x18,%esp
80005616:	89 5d f8             	mov    %ebx,0xfffffff8(%ebp)
80005619:	8b 4d 0c             	mov    0xc(%ebp),%ecx
8000561c:	89 75 fc             	mov    %esi,0xfffffffc(%ebp)
8000561f:	8b 41 0c             	mov    0xc(%ecx),%eax
80005622:	8b 74 81 10          	mov    0x10(%ecx,%eax,4),%esi
80005626:	40                   	inc    %eax
80005627:	89 41 0c             	mov    %eax,0xc(%ecx)
8000562a:	e8 91 02 00 00       	call   800058c0 <ObjectManager_Lock>
8000562f:	c7 04 24 a0 ae 00 80 	movl   $0x8000aea0,(%esp,1)
80005636:	e8 b5 df ff ff       	call   800035f0 <Lock_Lock>
8000563b:	c7 04 24 59 a0 00 80 	movl   $0x8000a059,(%esp,1)
80005642:	e8 a9 05 00 00       	call   80005bf0 <ObjectManager_ConstructPath>
80005647:	89 34 24             	mov    %esi,(%esp,1)
8000564a:	e8 c1 06 00 00       	call   80005d10 <ObjectManager_ConstructKey>
8000564f:	c7 44 24 04 00 00 00 	movl   $0x0,0x4(%esp,1)
80005656:	00 
80005657:	c7 04 24 04 00 00 00 	movl   $0x4,(%esp,1)
8000565e:	e8 5d 01 00 00       	call   800057c0 <ObjectManager_CreateObject>
80005663:	89 c3                	mov    %eax,%ebx
80005665:	a1 44 ad 00 80       	mov    0x8000ad44,%eax
8000566a:	89 43 34             	mov    %eax,0x34(%ebx)
8000566d:	ff 05 44 ad 00 80    	incl   0x8000ad44
80005673:	e8 68 02 00 00       	call   800058e0 <ObjectManager_Unlock>
80005678:	c7 04 24 a0 ae 00 80 	movl   $0x8000aea0,(%esp,1)
8000567f:	e8 ac df ff ff       	call   80003630 <Lock_Unlock>
80005684:	8b 43 34             	mov    0x34(%ebx),%eax
80005687:	89 74 24 08          	mov    %esi,0x8(%esp,1)
8000568b:	c7 44 24 04 70 a0 00 	movl   $0x8000a070,0x4(%esp,1)
80005692:	80 
80005693:	89 44 24 0c          	mov    %eax,0xc(%esp,1)
80005697:	c7 04 24 35 a0 00 80 	movl   $0x8000a035,(%esp,1)
8000569e:	e8 5d 1b 00 00       	call   80007200 <KPrint>
800056a3:	8b 75 fc             	mov    0xfffffffc(%ebp),%esi
800056a6:	31 c0                	xor    %eax,%eax
800056a8:	8b 5d f8             	mov    0xfffffff8(%ebp),%ebx
800056ab:	89 ec                	mov    %ebp,%esp
800056ad:	5d                   	pop    %ebp
800056ae:	c3                   	ret    
800056af:	90                   	nop    

800056b0 <ModuleManager_Call_CreateModuleCall>:
800056b0:	55                   	push   %ebp
800056b1:	89 e5                	mov    %esp,%ebp
800056b3:	83 ec 18             	sub    $0x18,%esp
800056b6:	89 5d f8             	mov    %ebx,0xfffffff8(%ebp)
800056b9:	8b 55 0c             	mov    0xc(%ebp),%edx
800056bc:	89 75 fc             	mov    %esi,0xfffffffc(%ebp)
800056bf:	8b 42 0c             	mov    0xc(%edx),%eax
800056c2:	8b 74 82 10          	mov    0x10(%edx,%eax,4),%esi
800056c6:	8b 5c 82 14          	mov    0x14(%edx,%eax,4),%ebx
800056ca:	8b 4c 82 18          	mov    0x18(%edx,%eax,4),%ecx
800056ce:	83 c0 03             	add    $0x3,%eax
800056d1:	89 42 0c             	mov    %eax,0xc(%edx)
800056d4:	89 5c 24 04          	mov    %ebx,0x4(%esp,1)
800056d8:	89 34 24             	mov    %esi,(%esp,1)
800056db:	89 4c 24 08          	mov    %ecx,0x8(%esp,1)
800056df:	e8 9c fb ff ff       	call   80005280 <ModuleManager_CreateModuleCall>
800056e4:	8b 75 fc             	mov    0xfffffffc(%ebp),%esi
800056e7:	8b 5d f8             	mov    0xfffffff8(%ebp),%ebx
800056ea:	89 ec                	mov    %ebp,%esp
800056ec:	5d                   	pop    %ebp
800056ed:	c3                   	ret    
800056ee:	89 f6                	mov    %esi,%esi

800056f0 <ModuleManager_CreateModuleInterface>:
800056f0:	55                   	push   %ebp
800056f1:	89 e5                	mov    %esp,%ebp
800056f3:	53                   	push   %ebx
800056f4:	83 ec 14             	sub    $0x14,%esp
800056f7:	e8 c4 01 00 00       	call   800058c0 <ObjectManager_Lock>
800056fc:	c7 04 24 a0 ae 00 80 	movl   $0x8000aea0,(%esp,1)
80005703:	e8 e8 de ff ff       	call   800035f0 <Lock_Lock>
80005708:	c7 04 24 59 a0 00 80 	movl   $0x8000a059,(%esp,1)
8000570f:	e8 dc 04 00 00       	call   80005bf0 <ObjectManager_ConstructPath>
80005714:	c7 04 24 0b a1 00 80 	movl   $0x8000a10b,(%esp,1)
8000571b:	e8 f0 05 00 00       	call   80005d10 <ObjectManager_ConstructKey>
80005720:	c7 44 24 04 00 00 00 	movl   $0x0,0x4(%esp,1)
80005727:	00 
80005728:	c7 04 24 04 00 00 00 	movl   $0x4,(%esp,1)
8000572f:	e8 8c 00 00 00       	call   800057c0 <ObjectManager_CreateObject>
80005734:	89 c3                	mov    %eax,%ebx
80005736:	a1 44 ad 00 80       	mov    0x8000ad44,%eax
8000573b:	89 43 34             	mov    %eax,0x34(%ebx)
8000573e:	ff 05 44 ad 00 80    	incl   0x8000ad44
80005744:	e8 97 01 00 00       	call   800058e0 <ObjectManager_Unlock>
80005749:	c7 04 24 a0 ae 00 80 	movl   $0x8000aea0,(%esp,1)
80005750:	e8 db de ff ff       	call   80003630 <Lock_Unlock>
80005755:	8b 43 34             	mov    0x34(%ebx),%eax
80005758:	c7 44 24 08 0b a1 00 	movl   $0x8000a10b,0x8(%esp,1)
8000575f:	80 
80005760:	c7 44 24 04 70 a0 00 	movl   $0x8000a070,0x4(%esp,1)
80005767:	80 
80005768:	89 44 24 0c          	mov    %eax,0xc(%esp,1)
8000576c:	c7 04 24 35 a0 00 80 	movl   $0x8000a035,(%esp,1)
80005773:	e8 88 1a 00 00       	call   80007200 <KPrint>
80005778:	c7 44 24 08 10 56 00 	movl   $0x80005610,0x8(%esp,1)
8000577f:	80 
80005780:	c7 44 24 04 19 a1 00 	movl   $0x8000a119,0x4(%esp,1)
80005787:	80 
80005788:	c7 04 24 0b a1 00 80 	movl   $0x8000a10b,(%esp,1)
8000578f:	e8 ec fa ff ff       	call   80005280 <ModuleManager_CreateModuleCall>
80005794:	c7 44 24 08 b0 56 00 	movl   $0x800056b0,0x8(%esp,1)
8000579b:	80 
8000579c:	c7 44 24 04 26 a1 00 	movl   $0x8000a126,0x4(%esp,1)
800057a3:	80 
800057a4:	c7 04 24 0b a1 00 80 	movl   $0x8000a10b,(%esp,1)
800057ab:	e8 d0 fa ff ff       	call   80005280 <ModuleManager_CreateModuleCall>
800057b0:	83 c4 14             	add    $0x14,%esp
800057b3:	5b                   	pop    %ebx
800057b4:	5d                   	pop    %ebp
800057b5:	c3                   	ret    
	...

800057c0 <ObjectManager_CreateObject>:
800057c0:	55                   	push   %ebp
800057c1:	89 e5                	mov    %esp,%ebp
800057c3:	56                   	push   %esi
800057c4:	53                   	push   %ebx
800057c5:	83 ec 10             	sub    $0x10,%esp
800057c8:	8b 5d 0c             	mov    0xc(%ebp),%ebx
800057cb:	e8 d0 e7 ff ff       	call   80003fa0 <MemoryManager_Lock>
800057d0:	c7 04 24 58 00 00 00 	movl   $0x58,(%esp,1)
800057d7:	e8 84 ec ff ff       	call   80004460 <MemoryManager_KAlloc>
800057dc:	89 c6                	mov    %eax,%esi
800057de:	85 db                	test   %ebx,%ebx
800057e0:	0f 85 aa 00 00 00    	jne    80005890 <ObjectManager_CreateObject+0xd0>
800057e6:	c7 40 4c 00 00 00 00 	movl   $0x0,0x4c(%eax)
800057ed:	e8 ce e7 ff ff       	call   80003fc0 <MemoryManager_Unlock>
800057f2:	a1 a4 ac 00 80       	mov    0x8000aca4,%eax
800057f7:	85 c0                	test   %eax,%eax
800057f9:	0f 85 81 00 00 00    	jne    80005880 <ObjectManager_CreateObject+0xc0>
800057ff:	c7 46 50 00 00 00 00 	movl   $0x0,0x50(%esi)
80005806:	89 35 a4 ac 00 80    	mov    %esi,0x8000aca4
8000580c:	c7 46 54 00 00 00 00 	movl   $0x0,0x54(%esi)
80005813:	8b 15 f0 aa 00 80    	mov    0x8000aaf0,%edx
80005819:	b8 30 00 00 00       	mov    $0x30,%eax
8000581e:	89 35 a8 ac 00 80    	mov    %esi,0x8000aca8
80005824:	89 f3                	mov    %esi,%ebx
80005826:	8a 0a                	mov    (%edx),%cl
80005828:	42                   	inc    %edx
80005829:	88 0b                	mov    %cl,(%ebx)
8000582b:	43                   	inc    %ebx
8000582c:	48                   	dec    %eax
8000582d:	74 0a                	je     80005839 <ObjectManager_CreateObject+0x79>
8000582f:	84 c9                	test   %cl,%cl
80005831:	75 f3                	jne    80005826 <ObjectManager_CreateObject+0x66>
80005833:	88 0b                	mov    %cl,(%ebx)
80005835:	43                   	inc    %ebx
80005836:	48                   	dec    %eax
80005837:	75 fa                	jne    80005833 <ObjectManager_CreateObject+0x73>
80005839:	a1 ac ac 00 80       	mov    0x8000acac,%eax
8000583e:	89 46 30             	mov    %eax,0x30(%esi)
80005841:	a1 20 ad 00 80       	mov    0x8000ad20,%eax
80005846:	ff 05 ac ac 00 80    	incl   0x8000acac
8000584c:	89 46 3c             	mov    %eax,0x3c(%esi)
8000584f:	a1 24 ad 00 80       	mov    0x8000ad24,%eax
80005854:	c7 46 48 00 00 00 00 	movl   $0x0,0x48(%esi)
8000585b:	89 46 40             	mov    %eax,0x40(%esi)
8000585e:	8b 45 08             	mov    0x8(%ebp),%eax
80005861:	c7 46 34 00 00 00 00 	movl   $0x0,0x34(%esi)
80005868:	c7 46 38 00 00 00 00 	movl   $0x0,0x38(%esi)
8000586f:	89 46 44             	mov    %eax,0x44(%esi)
80005872:	83 c4 10             	add    $0x10,%esp
80005875:	89 f0                	mov    %esi,%eax
80005877:	5b                   	pop    %ebx
80005878:	5e                   	pop    %esi
80005879:	5d                   	pop    %ebp
8000587a:	c3                   	ret    
8000587b:	90                   	nop    
8000587c:	8d 74 26 00          	lea    0x0(%esi,1),%esi
80005880:	a1 a8 ac 00 80       	mov    0x8000aca8,%eax
80005885:	89 70 54             	mov    %esi,0x54(%eax)
80005888:	89 46 50             	mov    %eax,0x50(%esi)
8000588b:	e9 7c ff ff ff       	jmp    8000580c <ObjectManager_CreateObject+0x4c>
80005890:	89 1c 24             	mov    %ebx,(%esp,1)
80005893:	e8 c8 eb ff ff       	call   80004460 <MemoryManager_KAlloc>
80005898:	89 46 4c             	mov    %eax,0x4c(%esi)
8000589b:	e9 4d ff ff ff       	jmp    800057ed <ObjectManager_CreateObject+0x2d>

800058a0 <ObjectManager_LockInit>:
800058a0:	55                   	push   %ebp
800058a1:	89 e5                	mov    %esp,%ebp
800058a3:	83 ec 08             	sub    $0x8,%esp
800058a6:	c7 44 24 04 e0 ae 00 	movl   $0x8000aee0,0x4(%esp,1)
800058ad:	80 
800058ae:	c7 04 24 e0 a1 00 80 	movl   $0x8000a1e0,(%esp,1)
800058b5:	e8 06 dd ff ff       	call   800035c0 <Lock_Init>
800058ba:	89 ec                	mov    %ebp,%esp
800058bc:	5d                   	pop    %ebp
800058bd:	c3                   	ret    
800058be:	89 f6                	mov    %esi,%esi

800058c0 <ObjectManager_Lock>:
800058c0:	55                   	push   %ebp
800058c1:	89 e5                	mov    %esp,%ebp
800058c3:	83 ec 08             	sub    $0x8,%esp
800058c6:	c7 04 24 e0 ae 00 80 	movl   $0x8000aee0,(%esp,1)
800058cd:	e8 1e dd ff ff       	call   800035f0 <Lock_Lock>
800058d2:	89 ec                	mov    %ebp,%esp
800058d4:	5d                   	pop    %ebp
800058d5:	c3                   	ret    
800058d6:	8d 76 00             	lea    0x0(%esi),%esi
800058d9:	8d bc 27 00 00 00 00 	lea    0x0(%edi,1),%edi

800058e0 <ObjectManager_Unlock>:
800058e0:	55                   	push   %ebp
800058e1:	89 e5                	mov    %esp,%ebp
800058e3:	83 ec 08             	sub    $0x8,%esp
800058e6:	c7 04 24 e0 ae 00 80 	movl   $0x8000aee0,(%esp,1)
800058ed:	e8 3e dd ff ff       	call   80003630 <Lock_Unlock>
800058f2:	89 ec                	mov    %ebp,%esp
800058f4:	5d                   	pop    %ebp
800058f5:	c3                   	ret    
800058f6:	8d 76 00             	lea    0x0(%esi),%esi
800058f9:	8d bc 27 00 00 00 00 	lea    0x0(%edi,1),%edi

80005900 <ObjectManager_Init>:
80005900:	55                   	push   %ebp
80005901:	31 c0                	xor    %eax,%eax
80005903:	89 e5                	mov    %esp,%ebp
80005905:	56                   	push   %esi
80005906:	31 d2                	xor    %edx,%edx
80005908:	53                   	push   %ebx
80005909:	bb e8 a1 00 80       	mov    $0x8000a1e8,%ebx
8000590e:	83 ec 10             	sub    $0x10,%esp
80005911:	a3 a8 ac 00 80       	mov    %eax,0x8000aca8
80005916:	31 c0                	xor    %eax,%eax
80005918:	89 15 a4 ac 00 80    	mov    %edx,0x8000aca4
8000591e:	a3 ac ac 00 80       	mov    %eax,0x8000acac
80005923:	c7 44 24 04 e0 ae 00 	movl   $0x8000aee0,0x4(%esp,1)
8000592a:	80 
8000592b:	c7 04 24 e0 a1 00 80 	movl   $0x8000a1e0,(%esp,1)
80005932:	e8 89 dc ff ff       	call   800035c0 <Lock_Init>
80005937:	c7 04 24 00 20 00 00 	movl   $0x2000,(%esp,1)
8000593e:	e8 1d eb ff ff       	call   80004460 <MemoryManager_KAlloc>
80005943:	a3 ec aa 00 80       	mov    %eax,0x8000aaec
80005948:	c7 04 24 30 00 00 00 	movl   $0x30,(%esp,1)
8000594f:	e8 0c eb ff ff       	call   80004460 <MemoryManager_KAlloc>
80005954:	89 d9                	mov    %ebx,%ecx
80005956:	ba 00 20 00 00       	mov    $0x2000,%edx
8000595b:	a3 f0 aa 00 80       	mov    %eax,0x8000aaf0
80005960:	89 c8                	mov    %ecx,%eax
80005962:	eb 06                	jmp    8000596a <ObjectManager_Init+0x6a>
80005964:	80 38 00             	cmpb   $0x0,(%eax)
80005967:	74 07                	je     80005970 <ObjectManager_Init+0x70>
80005969:	40                   	inc    %eax
8000596a:	4a                   	dec    %edx
8000596b:	83 fa ff             	cmp    $0xffffffff,%edx
8000596e:	75 f4                	jne    80005964 <ObjectManager_Init+0x64>
80005970:	29 c8                	sub    %ecx,%eax
80005972:	3d ff 1f 00 00       	cmp    $0x1fff,%eax
80005977:	0f 87 43 02 00 00    	ja     80005bc0 <ObjectManager_Init+0x2c0>
8000597d:	a1 ec aa 00 80       	mov    0x8000aaec,%eax
80005982:	89 c1                	mov    %eax,%ecx
80005984:	8a 03                	mov    (%ebx),%al
80005986:	43                   	inc    %ebx
80005987:	88 01                	mov    %al,(%ecx)
80005989:	41                   	inc    %ecx
8000598a:	84 c0                	test   %al,%al
8000598c:	75 f6                	jne    80005984 <ObjectManager_Init+0x84>
8000598e:	be 30 00 00 00       	mov    $0x30,%esi
80005993:	bb f1 a1 00 80       	mov    $0x8000a1f1,%ebx
80005998:	89 f2                	mov    %esi,%edx
8000599a:	89 d9                	mov    %ebx,%ecx
8000599c:	89 c8                	mov    %ecx,%eax
8000599e:	eb 06                	jmp    800059a6 <ObjectManager_Init+0xa6>
800059a0:	80 38 00             	cmpb   $0x0,(%eax)
800059a3:	74 07                	je     800059ac <ObjectManager_Init+0xac>
800059a5:	40                   	inc    %eax
800059a6:	4a                   	dec    %edx
800059a7:	83 fa ff             	cmp    $0xffffffff,%edx
800059aa:	75 f4                	jne    800059a0 <ObjectManager_Init+0xa0>
800059ac:	29 c8                	sub    %ecx,%eax
800059ae:	83 f8 2f             	cmp    $0x2f,%eax
800059b1:	0f 87 d9 01 00 00    	ja     80005b90 <ObjectManager_Init+0x290>
800059b7:	a1 f0 aa 00 80       	mov    0x8000aaf0,%eax
800059bc:	89 c1                	mov    %eax,%ecx
800059be:	8a 03                	mov    (%ebx),%al
800059c0:	43                   	inc    %ebx
800059c1:	88 01                	mov    %al,(%ecx)
800059c3:	41                   	inc    %ecx
800059c4:	84 c0                	test   %al,%al
800059c6:	75 f6                	jne    800059be <ObjectManager_Init+0xbe>
800059c8:	bb 00 a2 00 80       	mov    $0x8000a200,%ebx
800059cd:	c7 04 24 e0 ae 00 80 	movl   $0x8000aee0,(%esp,1)
800059d4:	e8 17 dc ff ff       	call   800035f0 <Lock_Lock>
800059d9:	c7 44 24 04 00 00 00 	movl   $0x0,0x4(%esp,1)
800059e0:	00 
800059e1:	c7 04 24 00 00 00 00 	movl   $0x0,(%esp,1)
800059e8:	e8 d3 fd ff ff       	call   800057c0 <ObjectManager_CreateObject>
800059ed:	c7 40 44 00 00 00 00 	movl   $0x0,0x44(%eax)
800059f4:	c7 40 4c 00 00 00 00 	movl   $0x0,0x4c(%eax)
800059fb:	c7 04 24 e0 ae 00 80 	movl   $0x8000aee0,(%esp,1)
80005a02:	e8 29 dc ff ff       	call   80003630 <Lock_Unlock>
80005a07:	89 d9                	mov    %ebx,%ecx
80005a09:	89 f2                	mov    %esi,%edx
80005a0b:	89 c8                	mov    %ecx,%eax
80005a0d:	eb 06                	jmp    80005a15 <ObjectManager_Init+0x115>
80005a0f:	80 38 00             	cmpb   $0x0,(%eax)
80005a12:	74 07                	je     80005a1b <ObjectManager_Init+0x11b>
80005a14:	40                   	inc    %eax
80005a15:	4a                   	dec    %edx
80005a16:	83 fa ff             	cmp    $0xffffffff,%edx
80005a19:	75 f4                	jne    80005a0f <ObjectManager_Init+0x10f>
80005a1b:	29 c8                	sub    %ecx,%eax
80005a1d:	83 f8 2f             	cmp    $0x2f,%eax
80005a20:	0f 87 3a 01 00 00    	ja     80005b60 <ObjectManager_Init+0x260>
80005a26:	a1 f0 aa 00 80       	mov    0x8000aaf0,%eax
80005a2b:	89 c1                	mov    %eax,%ecx
80005a2d:	8a 03                	mov    (%ebx),%al
80005a2f:	43                   	inc    %ebx
80005a30:	88 01                	mov    %al,(%ecx)
80005a32:	41                   	inc    %ecx
80005a33:	84 c0                	test   %al,%al
80005a35:	75 f6                	jne    80005a2d <ObjectManager_Init+0x12d>
80005a37:	bb 0f a2 00 80       	mov    $0x8000a20f,%ebx
80005a3c:	c7 04 24 e0 ae 00 80 	movl   $0x8000aee0,(%esp,1)
80005a43:	e8 a8 db ff ff       	call   800035f0 <Lock_Lock>
80005a48:	c7 44 24 04 00 00 00 	movl   $0x0,0x4(%esp,1)
80005a4f:	00 
80005a50:	c7 04 24 00 00 00 00 	movl   $0x0,(%esp,1)
80005a57:	e8 64 fd ff ff       	call   800057c0 <ObjectManager_CreateObject>
80005a5c:	c7 40 44 00 00 00 00 	movl   $0x0,0x44(%eax)
80005a63:	c7 40 4c 00 00 00 00 	movl   $0x0,0x4c(%eax)
80005a6a:	c7 04 24 e0 ae 00 80 	movl   $0x8000aee0,(%esp,1)
80005a71:	e8 ba db ff ff       	call   80003630 <Lock_Unlock>
80005a76:	89 d9                	mov    %ebx,%ecx
80005a78:	89 f2                	mov    %esi,%edx
80005a7a:	89 c8                	mov    %ecx,%eax
80005a7c:	eb 06                	jmp    80005a84 <ObjectManager_Init+0x184>
80005a7e:	80 38 00             	cmpb   $0x0,(%eax)
80005a81:	74 07                	je     80005a8a <ObjectManager_Init+0x18a>
80005a83:	40                   	inc    %eax
80005a84:	4a                   	dec    %edx
80005a85:	83 fa ff             	cmp    $0xffffffff,%edx
80005a88:	75 f4                	jne    80005a7e <ObjectManager_Init+0x17e>
80005a8a:	29 c8                	sub    %ecx,%eax
80005a8c:	83 f8 2f             	cmp    $0x2f,%eax
80005a8f:	0f 87 9b 00 00 00    	ja     80005b30 <ObjectManager_Init+0x230>
80005a95:	a1 f0 aa 00 80       	mov    0x8000aaf0,%eax
80005a9a:	89 c6                	mov    %eax,%esi
80005a9c:	8a 03                	mov    (%ebx),%al
80005a9e:	43                   	inc    %ebx
80005a9f:	88 06                	mov    %al,(%esi)
80005aa1:	46                   	inc    %esi
80005aa2:	84 c0                	test   %al,%al
80005aa4:	75 f6                	jne    80005a9c <ObjectManager_Init+0x19c>
80005aa6:	bb 21 a2 00 80       	mov    $0x8000a221,%ebx
80005aab:	c7 04 24 e0 ae 00 80 	movl   $0x8000aee0,(%esp,1)
80005ab2:	e8 39 db ff ff       	call   800035f0 <Lock_Lock>
80005ab7:	c7 44 24 04 00 00 00 	movl   $0x0,0x4(%esp,1)
80005abe:	00 
80005abf:	c7 04 24 00 00 00 00 	movl   $0x0,(%esp,1)
80005ac6:	e8 f5 fc ff ff       	call   800057c0 <ObjectManager_CreateObject>
80005acb:	c7 40 44 00 00 00 00 	movl   $0x0,0x44(%eax)
80005ad2:	89 c6                	mov    %eax,%esi
80005ad4:	e8 c7 e4 ff ff       	call   80003fa0 <MemoryManager_Lock>
80005ad9:	89 d9                	mov    %ebx,%ecx
80005adb:	8a 11                	mov    (%ecx),%dl
80005add:	41                   	inc    %ecx
80005ade:	84 d2                	test   %dl,%dl
80005ae0:	75 f9                	jne    80005adb <ObjectManager_Init+0x1db>
80005ae2:	29 d9                	sub    %ebx,%ecx
80005ae4:	49                   	dec    %ecx
80005ae5:	89 0c 24             	mov    %ecx,(%esp,1)
80005ae8:	e8 73 e9 ff ff       	call   80004460 <MemoryManager_KAlloc>
80005aed:	89 46 4c             	mov    %eax,0x4c(%esi)
80005af0:	e8 cb e4 ff ff       	call   80003fc0 <MemoryManager_Unlock>
80005af5:	8b 46 4c             	mov    0x4c(%esi),%eax
80005af8:	89 c6                	mov    %eax,%esi
80005afa:	8a 03                	mov    (%ebx),%al
80005afc:	43                   	inc    %ebx
80005afd:	88 06                	mov    %al,(%esi)
80005aff:	46                   	inc    %esi
80005b00:	84 c0                	test   %al,%al
80005b02:	75 f6                	jne    80005afa <ObjectManager_Init+0x1fa>
80005b04:	c7 04 24 e0 ae 00 80 	movl   $0x8000aee0,(%esp,1)
80005b0b:	e8 20 db ff ff       	call   80003630 <Lock_Unlock>
80005b10:	c7 44 24 04 27 a2 00 	movl   $0x8000a227,0x4(%esp,1)
80005b17:	80 
80005b18:	c7 04 24 e0 a1 00 80 	movl   $0x8000a1e0,(%esp,1)
80005b1f:	e8 dc 16 00 00       	call   80007200 <KPrint>
80005b24:	83 c4 10             	add    $0x10,%esp
80005b27:	5b                   	pop    %ebx
80005b28:	5e                   	pop    %esi
80005b29:	5d                   	pop    %ebp
80005b2a:	c3                   	ret    
80005b2b:	90                   	nop    
80005b2c:	8d 74 26 00          	lea    0x0(%esi,1),%esi
80005b30:	89 5c 24 08          	mov    %ebx,0x8(%esp,1)
80005b34:	c7 44 24 04 43 a2 00 	movl   $0x8000a243,0x4(%esp,1)
80005b3b:	80 
80005b3c:	c7 04 24 e0 a1 00 80 	movl   $0x8000a1e0,(%esp,1)
80005b43:	e8 b8 16 00 00       	call   80007200 <KPrint>
80005b48:	e8 9c ae ff ff       	call   800009e9 <halt>
80005b4d:	e9 43 ff ff ff       	jmp    80005a95 <ObjectManager_Init+0x195>
80005b52:	8d b4 26 00 00 00 00 	lea    0x0(%esi,1),%esi
80005b59:	8d bc 27 00 00 00 00 	lea    0x0(%edi,1),%edi
80005b60:	89 5c 24 08          	mov    %ebx,0x8(%esp,1)
80005b64:	c7 44 24 04 43 a2 00 	movl   $0x8000a243,0x4(%esp,1)
80005b6b:	80 
80005b6c:	c7 04 24 e0 a1 00 80 	movl   $0x8000a1e0,(%esp,1)
80005b73:	e8 88 16 00 00       	call   80007200 <KPrint>
80005b78:	e8 6c ae ff ff       	call   800009e9 <halt>
80005b7d:	e9 a4 fe ff ff       	jmp    80005a26 <ObjectManager_Init+0x126>
80005b82:	8d b4 26 00 00 00 00 	lea    0x0(%esi,1),%esi
80005b89:	8d bc 27 00 00 00 00 	lea    0x0(%edi,1),%edi
80005b90:	89 5c 24 08          	mov    %ebx,0x8(%esp,1)
80005b94:	c7 44 24 04 43 a2 00 	movl   $0x8000a243,0x4(%esp,1)
80005b9b:	80 
80005b9c:	c7 04 24 e0 a1 00 80 	movl   $0x8000a1e0,(%esp,1)
80005ba3:	e8 58 16 00 00       	call   80007200 <KPrint>
80005ba8:	e8 3c ae ff ff       	call   800009e9 <halt>
80005bad:	e9 05 fe ff ff       	jmp    800059b7 <ObjectManager_Init+0xb7>
80005bb2:	8d b4 26 00 00 00 00 	lea    0x0(%esi,1),%esi
80005bb9:	8d bc 27 00 00 00 00 	lea    0x0(%edi,1),%edi
80005bc0:	89 5c 24 08          	mov    %ebx,0x8(%esp,1)
80005bc4:	c7 44 24 04 56 a2 00 	movl   $0x8000a256,0x4(%esp,1)
80005bcb:	80 
80005bcc:	c7 04 24 e0 a1 00 80 	movl   $0x8000a1e0,(%esp,1)
80005bd3:	e8 28 16 00 00       	call   80007200 <KPrint>
80005bd8:	e8 0c ae ff ff       	call   800009e9 <halt>
80005bdd:	e9 9b fd ff ff       	jmp    8000597d <ObjectManager_Init+0x7d>
80005be2:	8d b4 26 00 00 00 00 	lea    0x0(%esi,1),%esi
80005be9:	8d bc 27 00 00 00 00 	lea    0x0(%edi,1),%edi

80005bf0 <ObjectManager_ConstructPath>:
80005bf0:	55                   	push   %ebp
80005bf1:	89 e5                	mov    %esp,%ebp
80005bf3:	83 ec 18             	sub    $0x18,%esp
80005bf6:	89 5d fc             	mov    %ebx,0xfffffffc(%ebp)
80005bf9:	8b 5d 08             	mov    0x8(%ebp),%ebx
80005bfc:	ba 00 20 00 00       	mov    $0x2000,%edx
80005c01:	89 d9                	mov    %ebx,%ecx
80005c03:	89 c8                	mov    %ecx,%eax
80005c05:	eb 06                	jmp    80005c0d <ObjectManager_ConstructPath+0x1d>
80005c07:	80 38 00             	cmpb   $0x0,(%eax)
80005c0a:	74 07                	je     80005c13 <ObjectManager_ConstructPath+0x23>
80005c0c:	40                   	inc    %eax
80005c0d:	4a                   	dec    %edx
80005c0e:	83 fa ff             	cmp    $0xffffffff,%edx
80005c11:	75 f4                	jne    80005c07 <ObjectManager_ConstructPath+0x17>
80005c13:	29 c8                	sub    %ecx,%eax
80005c15:	3d ff 1f 00 00       	cmp    $0x1fff,%eax
80005c1a:	77 24                	ja     80005c40 <ObjectManager_ConstructPath+0x50>
80005c1c:	a1 ec aa 00 80       	mov    0x8000aaec,%eax
80005c21:	89 c1                	mov    %eax,%ecx
80005c23:	8a 03                	mov    (%ebx),%al
80005c25:	43                   	inc    %ebx
80005c26:	88 01                	mov    %al,(%ecx)
80005c28:	41                   	inc    %ecx
80005c29:	84 c0                	test   %al,%al
80005c2b:	75 f6                	jne    80005c23 <ObjectManager_ConstructPath+0x33>
80005c2d:	8b 5d fc             	mov    0xfffffffc(%ebp),%ebx
80005c30:	89 ec                	mov    %ebp,%esp
80005c32:	5d                   	pop    %ebp
80005c33:	c3                   	ret    
80005c34:	8d b6 00 00 00 00    	lea    0x0(%esi),%esi
80005c3a:	8d bf 00 00 00 00    	lea    0x0(%edi),%edi
80005c40:	89 5c 24 08          	mov    %ebx,0x8(%esp,1)
80005c44:	c7 44 24 04 56 a2 00 	movl   $0x8000a256,0x4(%esp,1)
80005c4b:	80 
80005c4c:	c7 04 24 e0 a1 00 80 	movl   $0x8000a1e0,(%esp,1)
80005c53:	e8 a8 15 00 00       	call   80007200 <KPrint>
80005c58:	e8 8c ad ff ff       	call   800009e9 <halt>
80005c5d:	eb bd                	jmp    80005c1c <ObjectManager_ConstructPath+0x2c>
80005c5f:	90                   	nop    

80005c60 <ObjectManager_ConstructPathAppend>:
80005c60:	55                   	push   %ebp
80005c61:	89 e5                	mov    %esp,%ebp
80005c63:	83 ec 28             	sub    $0x28,%esp
80005c66:	89 75 f8             	mov    %esi,0xfffffff8(%ebp)
80005c69:	a1 ec aa 00 80       	mov    0x8000aaec,%eax
80005c6e:	be 00 20 00 00       	mov    $0x2000,%esi
80005c73:	89 5d f4             	mov    %ebx,0xfffffff4(%ebp)
80005c76:	89 f2                	mov    %esi,%edx
80005c78:	8b 5d 08             	mov    0x8(%ebp),%ebx
80005c7b:	89 7d fc             	mov    %edi,0xfffffffc(%ebp)
80005c7e:	89 c1                	mov    %eax,%ecx
80005c80:	89 45 e8             	mov    %eax,0xffffffe8(%ebp)
80005c83:	89 c8                	mov    %ecx,%eax
80005c85:	eb 06                	jmp    80005c8d <ObjectManager_ConstructPathAppend+0x2d>
80005c87:	80 38 00             	cmpb   $0x0,(%eax)
80005c8a:	74 07                	je     80005c93 <ObjectManager_ConstructPathAppend+0x33>
80005c8c:	40                   	inc    %eax
80005c8d:	4a                   	dec    %edx
80005c8e:	83 fa ff             	cmp    $0xffffffff,%edx
80005c91:	75 f4                	jne    80005c87 <ObjectManager_ConstructPathAppend+0x27>
80005c93:	29 c8                	sub    %ecx,%eax
80005c95:	89 c7                	mov    %eax,%edi
80005c97:	89 f2                	mov    %esi,%edx
80005c99:	89 d9                	mov    %ebx,%ecx
80005c9b:	89 c8                	mov    %ecx,%eax
80005c9d:	eb 06                	jmp    80005ca5 <ObjectManager_ConstructPathAppend+0x45>
80005c9f:	80 38 00             	cmpb   $0x0,(%eax)
80005ca2:	74 07                	je     80005cab <ObjectManager_ConstructPathAppend+0x4b>
80005ca4:	40                   	inc    %eax
80005ca5:	4a                   	dec    %edx
80005ca6:	83 fa ff             	cmp    $0xffffffff,%edx
80005ca9:	75 f4                	jne    80005c9f <ObjectManager_ConstructPathAppend+0x3f>
80005cab:	29 c8                	sub    %ecx,%eax
80005cad:	8d 14 38             	lea    (%eax,%edi,1),%edx
80005cb0:	81 fa ff 1f 00 00    	cmp    $0x1fff,%edx
80005cb6:	77 28                	ja     80005ce0 <ObjectManager_ConstructPathAppend+0x80>
80005cb8:	8b 45 e8             	mov    0xffffffe8(%ebp),%eax
80005cbb:	48                   	dec    %eax
80005cbc:	40                   	inc    %eax
80005cbd:	80 38 00             	cmpb   $0x0,(%eax)
80005cc0:	75 fa                	jne    80005cbc <ObjectManager_ConstructPathAppend+0x5c>
80005cc2:	8a 0b                	mov    (%ebx),%cl
80005cc4:	43                   	inc    %ebx
80005cc5:	88 08                	mov    %cl,(%eax)
80005cc7:	40                   	inc    %eax
80005cc8:	84 c9                	test   %cl,%cl
80005cca:	75 f6                	jne    80005cc2 <ObjectManager_ConstructPathAppend+0x62>
80005ccc:	8b 5d f4             	mov    0xfffffff4(%ebp),%ebx
80005ccf:	8b 75 f8             	mov    0xfffffff8(%ebp),%esi
80005cd2:	8b 7d fc             	mov    0xfffffffc(%ebp),%edi
80005cd5:	89 ec                	mov    %ebp,%esp
80005cd7:	5d                   	pop    %ebp
80005cd8:	c3                   	ret    
80005cd9:	8d b4 26 00 00 00 00 	lea    0x0(%esi,1),%esi
80005ce0:	89 5c 24 08          	mov    %ebx,0x8(%esp,1)
80005ce4:	c7 44 24 04 6a a2 00 	movl   $0x8000a26a,0x4(%esp,1)
80005ceb:	80 
80005cec:	c7 04 24 e0 a1 00 80 	movl   $0x8000a1e0,(%esp,1)
80005cf3:	e8 08 15 00 00       	call   80007200 <KPrint>
80005cf8:	e8 ec ac ff ff       	call   800009e9 <halt>
80005cfd:	a1 ec aa 00 80       	mov    0x8000aaec,%eax
80005d02:	89 45 e8             	mov    %eax,0xffffffe8(%ebp)
80005d05:	eb b1                	jmp    80005cb8 <ObjectManager_ConstructPathAppend+0x58>
80005d07:	89 f6                	mov    %esi,%esi
80005d09:	8d bc 27 00 00 00 00 	lea    0x0(%edi,1),%edi

80005d10 <ObjectManager_ConstructKey>:
80005d10:	55                   	push   %ebp
80005d11:	89 e5                	mov    %esp,%ebp
80005d13:	83 ec 18             	sub    $0x18,%esp
80005d16:	89 5d fc             	mov    %ebx,0xfffffffc(%ebp)
80005d19:	8b 5d 08             	mov    0x8(%ebp),%ebx
80005d1c:	ba 30 00 00 00       	mov    $0x30,%edx
80005d21:	89 d9                	mov    %ebx,%ecx
80005d23:	89 c8                	mov    %ecx,%eax
80005d25:	eb 06                	jmp    80005d2d <ObjectManager_ConstructKey+0x1d>
80005d27:	80 38 00             	cmpb   $0x0,(%eax)
80005d2a:	74 07                	je     80005d33 <ObjectManager_ConstructKey+0x23>
80005d2c:	40                   	inc    %eax
80005d2d:	4a                   	dec    %edx
80005d2e:	83 fa ff             	cmp    $0xffffffff,%edx
80005d31:	75 f4                	jne    80005d27 <ObjectManager_ConstructKey+0x17>
80005d33:	29 c8                	sub    %ecx,%eax
80005d35:	83 f8 2f             	cmp    $0x2f,%eax
80005d38:	77 26                	ja     80005d60 <ObjectManager_ConstructKey+0x50>
80005d3a:	a1 f0 aa 00 80       	mov    0x8000aaf0,%eax
80005d3f:	89 c1                	mov    %eax,%ecx
80005d41:	8a 03                	mov    (%ebx),%al
80005d43:	43                   	inc    %ebx
80005d44:	88 01                	mov    %al,(%ecx)
80005d46:	41                   	inc    %ecx
80005d47:	84 c0                	test   %al,%al
80005d49:	75 f6                	jne    80005d41 <ObjectManager_ConstructKey+0x31>
80005d4b:	8b 5d fc             	mov    0xfffffffc(%ebp),%ebx
80005d4e:	89 ec                	mov    %ebp,%esp
80005d50:	5d                   	pop    %ebp
80005d51:	c3                   	ret    
80005d52:	8d b4 26 00 00 00 00 	lea    0x0(%esi,1),%esi
80005d59:	8d bc 27 00 00 00 00 	lea    0x0(%edi,1),%edi
80005d60:	89 5c 24 08          	mov    %ebx,0x8(%esp,1)
80005d64:	c7 44 24 04 43 a2 00 	movl   $0x8000a243,0x4(%esp,1)
80005d6b:	80 
80005d6c:	c7 04 24 e0 a1 00 80 	movl   $0x8000a1e0,(%esp,1)
80005d73:	e8 88 14 00 00       	call   80007200 <KPrint>
80005d78:	e8 6c ac ff ff       	call   800009e9 <halt>
80005d7d:	eb bb                	jmp    80005d3a <ObjectManager_ConstructKey+0x2a>
80005d7f:	90                   	nop    

80005d80 <ObjectManager_ConstructKeyAppend>:
80005d80:	55                   	push   %ebp
80005d81:	89 e5                	mov    %esp,%ebp
80005d83:	83 ec 28             	sub    $0x28,%esp
80005d86:	89 75 f8             	mov    %esi,0xfffffff8(%ebp)
80005d89:	a1 f0 aa 00 80       	mov    0x8000aaf0,%eax
80005d8e:	be 30 00 00 00       	mov    $0x30,%esi
80005d93:	89 5d f4             	mov    %ebx,0xfffffff4(%ebp)
80005d96:	89 f2                	mov    %esi,%edx
80005d98:	8b 5d 08             	mov    0x8(%ebp),%ebx
80005d9b:	89 7d fc             	mov    %edi,0xfffffffc(%ebp)
80005d9e:	89 c1                	mov    %eax,%ecx
80005da0:	89 45 e8             	mov    %eax,0xffffffe8(%ebp)
80005da3:	89 c8                	mov    %ecx,%eax
80005da5:	eb 06                	jmp    80005dad <ObjectManager_ConstructKeyAppend+0x2d>
80005da7:	80 38 00             	cmpb   $0x0,(%eax)
80005daa:	74 07                	je     80005db3 <ObjectManager_ConstructKeyAppend+0x33>
80005dac:	40                   	inc    %eax
80005dad:	4a                   	dec    %edx
80005dae:	83 fa ff             	cmp    $0xffffffff,%edx
80005db1:	75 f4                	jne    80005da7 <ObjectManager_ConstructKeyAppend+0x27>
80005db3:	29 c8                	sub    %ecx,%eax
80005db5:	89 c7                	mov    %eax,%edi
80005db7:	89 f2                	mov    %esi,%edx
80005db9:	89 d9                	mov    %ebx,%ecx
80005dbb:	89 c8                	mov    %ecx,%eax
80005dbd:	eb 06                	jmp    80005dc5 <ObjectManager_ConstructKeyAppend+0x45>
80005dbf:	80 38 00             	cmpb   $0x0,(%eax)
80005dc2:	74 07                	je     80005dcb <ObjectManager_ConstructKeyAppend+0x4b>
80005dc4:	40                   	inc    %eax
80005dc5:	4a                   	dec    %edx
80005dc6:	83 fa ff             	cmp    $0xffffffff,%edx
80005dc9:	75 f4                	jne    80005dbf <ObjectManager_ConstructKeyAppend+0x3f>
80005dcb:	29 c8                	sub    %ecx,%eax
80005dcd:	8d 14 38             	lea    (%eax,%edi,1),%edx
80005dd0:	83 fa 2f             	cmp    $0x2f,%edx
80005dd3:	77 2b                	ja     80005e00 <ObjectManager_ConstructKeyAppend+0x80>
80005dd5:	8b 45 e8             	mov    0xffffffe8(%ebp),%eax
80005dd8:	48                   	dec    %eax
80005dd9:	40                   	inc    %eax
80005dda:	80 38 00             	cmpb   $0x0,(%eax)
80005ddd:	75 fa                	jne    80005dd9 <ObjectManager_ConstructKeyAppend+0x59>
80005ddf:	8a 0b                	mov    (%ebx),%cl
80005de1:	43                   	inc    %ebx
80005de2:	88 08                	mov    %cl,(%eax)
80005de4:	40                   	inc    %eax
80005de5:	84 c9                	test   %cl,%cl
80005de7:	75 f6                	jne    80005ddf <ObjectManager_ConstructKeyAppend+0x5f>
80005de9:	8b 5d f4             	mov    0xfffffff4(%ebp),%ebx
80005dec:	8b 75 f8             	mov    0xfffffff8(%ebp),%esi
80005def:	8b 7d fc             	mov    0xfffffffc(%ebp),%edi
80005df2:	89 ec                	mov    %ebp,%esp
80005df4:	5d                   	pop    %ebp
80005df5:	c3                   	ret    
80005df6:	8d 76 00             	lea    0x0(%esi),%esi
80005df9:	8d bc 27 00 00 00 00 	lea    0x0(%edi,1),%edi
80005e00:	89 5c 24 08          	mov    %ebx,0x8(%esp,1)
80005e04:	c7 44 24 04 88 a2 00 	movl   $0x8000a288,0x4(%esp,1)
80005e0b:	80 
80005e0c:	c7 04 24 e0 a1 00 80 	movl   $0x8000a1e0,(%esp,1)
80005e13:	e8 e8 13 00 00       	call   80007200 <KPrint>
80005e18:	e8 cc ab ff ff       	call   800009e9 <halt>
80005e1d:	a1 f0 aa 00 80       	mov    0x8000aaf0,%eax
80005e22:	89 45 e8             	mov    %eax,0xffffffe8(%ebp)
80005e25:	eb ae                	jmp    80005dd5 <ObjectManager_ConstructKeyAppend+0x55>
80005e27:	89 f6                	mov    %esi,%esi
80005e29:	8d bc 27 00 00 00 00 	lea    0x0(%edi,1),%edi

80005e30 <ObjectManager_Parse>:
80005e30:	55                   	push   %ebp
80005e31:	89 e5                	mov    %esp,%ebp
80005e33:	31 c0                	xor    %eax,%eax
80005e35:	5d                   	pop    %ebp
80005e36:	c3                   	ret    
80005e37:	89 f6                	mov    %esi,%esi
80005e39:	8d bc 27 00 00 00 00 	lea    0x0(%edi,1),%edi

80005e40 <ObjectManager_GetStart>:
80005e40:	55                   	push   %ebp
80005e41:	89 e5                	mov    %esp,%ebp
80005e43:	8b 45 08             	mov    0x8(%ebp),%eax
80005e46:	85 c0                	test   %eax,%eax
80005e48:	74 06                	je     80005e50 <ObjectManager_GetStart+0x10>
80005e4a:	8b 40 54             	mov    0x54(%eax),%eax
80005e4d:	5d                   	pop    %ebp
80005e4e:	c3                   	ret    
80005e4f:	90                   	nop    
80005e50:	a1 a4 ac 00 80       	mov    0x8000aca4,%eax
80005e55:	eb f6                	jmp    80005e4d <ObjectManager_GetStart+0xd>
80005e57:	89 f6                	mov    %esi,%esi
80005e59:	8d bc 27 00 00 00 00 	lea    0x0(%edi,1),%edi

80005e60 <ObjectManager_DeleteObject>:
80005e60:	55                   	push   %ebp
80005e61:	89 e5                	mov    %esp,%ebp
80005e63:	83 ec 18             	sub    $0x18,%esp
80005e66:	89 5d fc             	mov    %ebx,0xfffffffc(%ebp)
80005e69:	8b 5d 08             	mov    0x8(%ebp),%ebx
80005e6c:	8b 43 48             	mov    0x48(%ebx),%eax
80005e6f:	85 c0                	test   %eax,%eax
80005e71:	75 5d                	jne    80005ed0 <ObjectManager_DeleteObject+0x70>
80005e73:	8b 43 4c             	mov    0x4c(%ebx),%eax
80005e76:	85 c0                	test   %eax,%eax
80005e78:	75 46                	jne    80005ec0 <ObjectManager_DeleteObject+0x60>
80005e7a:	8b 53 54             	mov    0x54(%ebx),%edx
80005e7d:	85 d2                	test   %edx,%edx
80005e7f:	75 2f                	jne    80005eb0 <ObjectManager_DeleteObject+0x50>
80005e81:	8b 43 50             	mov    0x50(%ebx),%eax
80005e84:	a3 a8 ac 00 80       	mov    %eax,0x8000aca8
80005e89:	8b 43 50             	mov    0x50(%ebx),%eax
80005e8c:	c7 40 54 00 00 00 00 	movl   $0x0,0x54(%eax)
80005e93:	89 5d 08             	mov    %ebx,0x8(%ebp)
80005e96:	8b 5d fc             	mov    0xfffffffc(%ebp),%ebx
80005e99:	89 ec                	mov    %ebp,%esp
80005e9b:	5d                   	pop    %ebp
80005e9c:	e9 df e5 ff ff       	jmp    80004480 <MemoryManager_KFree>
80005ea1:	eb 0d                	jmp    80005eb0 <ObjectManager_DeleteObject+0x50>
80005ea3:	90                   	nop    
80005ea4:	90                   	nop    
80005ea5:	90                   	nop    
80005ea6:	90                   	nop    
80005ea7:	90                   	nop    
80005ea8:	90                   	nop    
80005ea9:	90                   	nop    
80005eaa:	90                   	nop    
80005eab:	90                   	nop    
80005eac:	90                   	nop    
80005ead:	90                   	nop    
80005eae:	90                   	nop    
80005eaf:	90                   	nop    
80005eb0:	8b 43 50             	mov    0x50(%ebx),%eax
80005eb3:	89 42 50             	mov    %eax,0x50(%edx)
80005eb6:	8b 43 50             	mov    0x50(%ebx),%eax
80005eb9:	89 50 54             	mov    %edx,0x54(%eax)
80005ebc:	eb d5                	jmp    80005e93 <ObjectManager_DeleteObject+0x33>
80005ebe:	89 f6                	mov    %esi,%esi
80005ec0:	89 04 24             	mov    %eax,(%esp,1)
80005ec3:	e8 b8 e5 ff ff       	call   80004480 <MemoryManager_KFree>
80005ec8:	eb b0                	jmp    80005e7a <ObjectManager_DeleteObject+0x1a>
80005eca:	8d b6 00 00 00 00    	lea    0x0(%esi),%esi
80005ed0:	89 5c 24 08          	mov    %ebx,0x8(%esp,1)
80005ed4:	c7 44 24 04 e0 a2 00 	movl   $0x8000a2e0,0x4(%esp,1)
80005edb:	80 
80005edc:	c7 04 24 e0 a1 00 80 	movl   $0x8000a1e0,(%esp,1)
80005ee3:	e8 18 13 00 00       	call   80007200 <KPrint>
80005ee8:	8b 5d fc             	mov    0xfffffffc(%ebp),%ebx
80005eeb:	89 ec                	mov    %ebp,%esp
80005eed:	5d                   	pop    %ebp
80005eee:	c3                   	ret    
80005eef:	90                   	nop    

80005ef0 <ObjectManager_SearchNameInClass>:
80005ef0:	55                   	push   %ebp
80005ef1:	89 e5                	mov    %esp,%ebp
80005ef3:	57                   	push   %edi
80005ef4:	8b 45 08             	mov    0x8(%ebp),%eax
80005ef7:	56                   	push   %esi
80005ef8:	53                   	push   %ebx
80005ef9:	85 c0                	test   %eax,%eax
80005efb:	74 5e                	je     80005f5b <ObjectManager_SearchNameInClass+0x6b>
80005efd:	8b 40 54             	mov    0x54(%eax),%eax
80005f00:	85 c0                	test   %eax,%eax
80005f02:	89 c6                	mov    %eax,%esi
80005f04:	74 19                	je     80005f1f <ObjectManager_SearchNameInClass+0x2f>
80005f06:	8b 3d f0 aa 00 80    	mov    0x8000aaf0,%edi
80005f0c:	8d 74 26 00          	lea    0x0(%esi,1),%esi
80005f10:	8b 45 0c             	mov    0xc(%ebp),%eax
80005f13:	39 46 44             	cmp    %eax,0x44(%esi)
80005f16:	74 18                	je     80005f30 <ObjectManager_SearchNameInClass+0x40>
80005f18:	8b 76 54             	mov    0x54(%esi),%esi
80005f1b:	85 f6                	test   %esi,%esi
80005f1d:	75 f1                	jne    80005f10 <ObjectManager_SearchNameInClass+0x20>
80005f1f:	5b                   	pop    %ebx
80005f20:	89 f0                	mov    %esi,%eax
80005f22:	5e                   	pop    %esi
80005f23:	5f                   	pop    %edi
80005f24:	5d                   	pop    %ebp
80005f25:	c3                   	ret    
80005f26:	8d 76 00             	lea    0x0(%esi),%esi
80005f29:	8d bc 27 00 00 00 00 	lea    0x0(%edi,1),%edi
80005f30:	b8 30 00 00 00       	mov    $0x30,%eax
80005f35:	89 fb                	mov    %edi,%ebx
80005f37:	89 f1                	mov    %esi,%ecx
80005f39:	48                   	dec    %eax
80005f3a:	78 0c                	js     80005f48 <ObjectManager_SearchNameInClass+0x58>
80005f3c:	8a 13                	mov    (%ebx),%dl
80005f3e:	43                   	inc    %ebx
80005f3f:	38 11                	cmp    %dl,(%ecx)
80005f41:	75 09                	jne    80005f4c <ObjectManager_SearchNameInClass+0x5c>
80005f43:	41                   	inc    %ecx
80005f44:	84 d2                	test   %dl,%dl
80005f46:	75 f1                	jne    80005f39 <ObjectManager_SearchNameInClass+0x49>
80005f48:	31 d2                	xor    %edx,%edx
80005f4a:	eb 09                	jmp    80005f55 <ObjectManager_SearchNameInClass+0x65>
80005f4c:	ba 01 00 00 00       	mov    $0x1,%edx
80005f51:	72 02                	jb     80005f55 <ObjectManager_SearchNameInClass+0x65>
80005f53:	f7 da                	neg    %edx
80005f55:	85 d2                	test   %edx,%edx
80005f57:	75 bf                	jne    80005f18 <ObjectManager_SearchNameInClass+0x28>
80005f59:	eb c4                	jmp    80005f1f <ObjectManager_SearchNameInClass+0x2f>
80005f5b:	a1 a4 ac 00 80       	mov    0x8000aca4,%eax
80005f60:	eb 9e                	jmp    80005f00 <ObjectManager_SearchNameInClass+0x10>
80005f62:	8d b4 26 00 00 00 00 	lea    0x0(%esi,1),%esi
80005f69:	8d bc 27 00 00 00 00 	lea    0x0(%edi,1),%edi

80005f70 <ObjectManager_SearchNameInClassTypeIndex>:
80005f70:	55                   	push   %ebp
80005f71:	89 e5                	mov    %esp,%ebp
80005f73:	57                   	push   %edi
80005f74:	8b 45 08             	mov    0x8(%ebp),%eax
80005f77:	56                   	push   %esi
80005f78:	53                   	push   %ebx
80005f79:	85 c0                	test   %eax,%eax
80005f7b:	74 66                	je     80005fe3 <ObjectManager_SearchNameInClassTypeIndex+0x73>
80005f7d:	8b 40 54             	mov    0x54(%eax),%eax
80005f80:	85 c0                	test   %eax,%eax
80005f82:	89 c6                	mov    %eax,%esi
80005f84:	74 19                	je     80005f9f <ObjectManager_SearchNameInClassTypeIndex+0x2f>
80005f86:	8b 3d f0 aa 00 80    	mov    0x8000aaf0,%edi
80005f8c:	8d 74 26 00          	lea    0x0(%esi,1),%esi
80005f90:	8b 45 0c             	mov    0xc(%ebp),%eax
80005f93:	39 46 44             	cmp    %eax,0x44(%esi)
80005f96:	74 18                	je     80005fb0 <ObjectManager_SearchNameInClassTypeIndex+0x40>
80005f98:	8b 76 54             	mov    0x54(%esi),%esi
80005f9b:	85 f6                	test   %esi,%esi
80005f9d:	75 f1                	jne    80005f90 <ObjectManager_SearchNameInClassTypeIndex+0x20>
80005f9f:	5b                   	pop    %ebx
80005fa0:	89 f0                	mov    %esi,%eax
80005fa2:	5e                   	pop    %esi
80005fa3:	5f                   	pop    %edi
80005fa4:	5d                   	pop    %ebp
80005fa5:	c3                   	ret    
80005fa6:	8d 76 00             	lea    0x0(%esi),%esi
80005fa9:	8d bc 27 00 00 00 00 	lea    0x0(%edi,1),%edi
80005fb0:	8b 45 10             	mov    0x10(%ebp),%eax
80005fb3:	39 46 34             	cmp    %eax,0x34(%esi)
80005fb6:	75 e0                	jne    80005f98 <ObjectManager_SearchNameInClassTypeIndex+0x28>
80005fb8:	b8 30 00 00 00       	mov    $0x30,%eax
80005fbd:	89 fb                	mov    %edi,%ebx
80005fbf:	89 f1                	mov    %esi,%ecx
80005fc1:	48                   	dec    %eax
80005fc2:	78 0c                	js     80005fd0 <ObjectManager_SearchNameInClassTypeIndex+0x60>
80005fc4:	8a 13                	mov    (%ebx),%dl
80005fc6:	43                   	inc    %ebx
80005fc7:	38 11                	cmp    %dl,(%ecx)
80005fc9:	75 09                	jne    80005fd4 <ObjectManager_SearchNameInClassTypeIndex+0x64>
80005fcb:	41                   	inc    %ecx
80005fcc:	84 d2                	test   %dl,%dl
80005fce:	75 f1                	jne    80005fc1 <ObjectManager_SearchNameInClassTypeIndex+0x51>
80005fd0:	31 d2                	xor    %edx,%edx
80005fd2:	eb 09                	jmp    80005fdd <ObjectManager_SearchNameInClassTypeIndex+0x6d>
80005fd4:	ba 01 00 00 00       	mov    $0x1,%edx
80005fd9:	72 02                	jb     80005fdd <ObjectManager_SearchNameInClassTypeIndex+0x6d>
80005fdb:	f7 da                	neg    %edx
80005fdd:	85 d2                	test   %edx,%edx
80005fdf:	75 b7                	jne    80005f98 <ObjectManager_SearchNameInClassTypeIndex+0x28>
80005fe1:	eb bc                	jmp    80005f9f <ObjectManager_SearchNameInClassTypeIndex+0x2f>
80005fe3:	a1 a4 ac 00 80       	mov    0x8000aca4,%eax
80005fe8:	eb 96                	jmp    80005f80 <ObjectManager_SearchNameInClassTypeIndex+0x10>
80005fea:	8d b6 00 00 00 00    	lea    0x0(%esi),%esi

80005ff0 <ObjectManager_SearchInClass>:
80005ff0:	55                   	push   %ebp
80005ff1:	89 e5                	mov    %esp,%ebp
80005ff3:	8b 45 08             	mov    0x8(%ebp),%eax
80005ff6:	8b 55 0c             	mov    0xc(%ebp),%edx
80005ff9:	85 c0                	test   %eax,%eax
80005ffb:	74 21                	je     8000601e <ObjectManager_SearchInClass+0x2e>
80005ffd:	8b 40 54             	mov    0x54(%eax),%eax
80006000:	85 c0                	test   %eax,%eax
80006002:	74 18                	je     8000601c <ObjectManager_SearchInClass+0x2c>
80006004:	8d b6 00 00 00 00    	lea    0x0(%esi),%esi
8000600a:	8d bf 00 00 00 00    	lea    0x0(%edi),%edi
80006010:	39 50 44             	cmp    %edx,0x44(%eax)
80006013:	74 07                	je     8000601c <ObjectManager_SearchInClass+0x2c>
80006015:	8b 40 54             	mov    0x54(%eax),%eax
80006018:	85 c0                	test   %eax,%eax
8000601a:	75 f4                	jne    80006010 <ObjectManager_SearchInClass+0x20>
8000601c:	5d                   	pop    %ebp
8000601d:	c3                   	ret    
8000601e:	a1 a4 ac 00 80       	mov    0x8000aca4,%eax
80006023:	eb db                	jmp    80006000 <ObjectManager_SearchInClass+0x10>
80006025:	8d 74 26 00          	lea    0x0(%esi,1),%esi
80006029:	8d bc 27 00 00 00 00 	lea    0x0(%edi,1),%edi

80006030 <ObjectManager_SearchInClassTypeIndex>:
80006030:	55                   	push   %ebp
80006031:	89 e5                	mov    %esp,%ebp
80006033:	8b 45 08             	mov    0x8(%ebp),%eax
80006036:	8b 55 0c             	mov    0xc(%ebp),%edx
80006039:	8b 4d 10             	mov    0x10(%ebp),%ecx
8000603c:	85 c0                	test   %eax,%eax
8000603e:	74 27                	je     80006067 <ObjectManager_SearchInClassTypeIndex+0x37>
80006040:	8b 40 54             	mov    0x54(%eax),%eax
80006043:	85 c0                	test   %eax,%eax
80006045:	74 15                	je     8000605c <ObjectManager_SearchInClassTypeIndex+0x2c>
80006047:	89 f6                	mov    %esi,%esi
80006049:	8d bc 27 00 00 00 00 	lea    0x0(%edi,1),%edi
80006050:	39 50 44             	cmp    %edx,0x44(%eax)
80006053:	74 0b                	je     80006060 <ObjectManager_SearchInClassTypeIndex+0x30>
80006055:	8b 40 54             	mov    0x54(%eax),%eax
80006058:	85 c0                	test   %eax,%eax
8000605a:	75 f4                	jne    80006050 <ObjectManager_SearchInClassTypeIndex+0x20>
8000605c:	5d                   	pop    %ebp
8000605d:	c3                   	ret    
8000605e:	89 f6                	mov    %esi,%esi
80006060:	39 48 34             	cmp    %ecx,0x34(%eax)
80006063:	75 f0                	jne    80006055 <ObjectManager_SearchInClassTypeIndex+0x25>
80006065:	eb f5                	jmp    8000605c <ObjectManager_SearchInClassTypeIndex+0x2c>
80006067:	a1 a4 ac 00 80       	mov    0x8000aca4,%eax
8000606c:	eb d5                	jmp    80006043 <ObjectManager_SearchInClassTypeIndex+0x13>
8000606e:	89 f6                	mov    %esi,%esi

80006070 <ObjectManager_SearchInClassTypeSubIndex>:
80006070:	55                   	push   %ebp
80006071:	89 e5                	mov    %esp,%ebp
80006073:	8b 45 08             	mov    0x8(%ebp),%eax
80006076:	8b 55 0c             	mov    0xc(%ebp),%edx
80006079:	8b 4d 10             	mov    0x10(%ebp),%ecx
8000607c:	85 c0                	test   %eax,%eax
8000607e:	74 27                	je     800060a7 <ObjectManager_SearchInClassTypeSubIndex+0x37>
80006080:	8b 40 54             	mov    0x54(%eax),%eax
80006083:	85 c0                	test   %eax,%eax
80006085:	74 15                	je     8000609c <ObjectManager_SearchInClassTypeSubIndex+0x2c>
80006087:	89 f6                	mov    %esi,%esi
80006089:	8d bc 27 00 00 00 00 	lea    0x0(%edi,1),%edi
80006090:	39 50 44             	cmp    %edx,0x44(%eax)
80006093:	74 0b                	je     800060a0 <ObjectManager_SearchInClassTypeSubIndex+0x30>
80006095:	8b 40 54             	mov    0x54(%eax),%eax
80006098:	85 c0                	test   %eax,%eax
8000609a:	75 f4                	jne    80006090 <ObjectManager_SearchInClassTypeSubIndex+0x20>
8000609c:	5d                   	pop    %ebp
8000609d:	c3                   	ret    
8000609e:	89 f6                	mov    %esi,%esi
800060a0:	39 48 38             	cmp    %ecx,0x38(%eax)
800060a3:	75 f0                	jne    80006095 <ObjectManager_SearchInClassTypeSubIndex+0x25>
800060a5:	eb f5                	jmp    8000609c <ObjectManager_SearchInClassTypeSubIndex+0x2c>
800060a7:	a1 a4 ac 00 80       	mov    0x8000aca4,%eax
800060ac:	eb d5                	jmp    80006083 <ObjectManager_SearchInClassTypeSubIndex+0x13>
800060ae:	89 f6                	mov    %esi,%esi

800060b0 <ObjectManager_GetObjectContainingData>:
800060b0:	55                   	push   %ebp
800060b1:	a1 a4 ac 00 80       	mov    0x8000aca4,%eax
800060b6:	89 e5                	mov    %esp,%ebp
800060b8:	8b 55 08             	mov    0x8(%ebp),%edx
800060bb:	85 c0                	test   %eax,%eax
800060bd:	74 0d                	je     800060cc <ObjectManager_GetObjectContainingData+0x1c>
800060bf:	90                   	nop    
800060c0:	39 50 4c             	cmp    %edx,0x4c(%eax)
800060c3:	74 07                	je     800060cc <ObjectManager_GetObjectContainingData+0x1c>
800060c5:	8b 40 54             	mov    0x54(%eax),%eax
800060c8:	85 c0                	test   %eax,%eax
800060ca:	75 f4                	jne    800060c0 <ObjectManager_GetObjectContainingData+0x10>
800060cc:	5d                   	pop    %ebp
800060cd:	c3                   	ret    
800060ce:	89 f6                	mov    %esi,%esi

800060d0 <ObjectManager_CreateEntityWord>:
800060d0:	55                   	push   %ebp
800060d1:	89 e5                	mov    %esp,%ebp
800060d3:	83 ec 08             	sub    $0x8,%esp
800060d6:	c7 04 24 e0 ae 00 80 	movl   $0x8000aee0,(%esp,1)
800060dd:	e8 0e d5 ff ff       	call   800035f0 <Lock_Lock>
800060e2:	c7 44 24 04 00 00 00 	movl   $0x0,0x4(%esp,1)
800060e9:	00 
800060ea:	c7 04 24 00 00 00 00 	movl   $0x0,(%esp,1)
800060f1:	e8 ca f6 ff ff       	call   800057c0 <ObjectManager_CreateObject>
800060f6:	8b 4d 08             	mov    0x8(%ebp),%ecx
800060f9:	c7 40 44 00 00 00 00 	movl   $0x0,0x44(%eax)
80006100:	89 48 4c             	mov    %ecx,0x4c(%eax)
80006103:	c7 04 24 e0 ae 00 80 	movl   $0x8000aee0,(%esp,1)
8000610a:	e8 21 d5 ff ff       	call   80003630 <Lock_Unlock>
8000610f:	89 ec                	mov    %ebp,%esp
80006111:	31 c0                	xor    %eax,%eax
80006113:	5d                   	pop    %ebp
80006114:	c3                   	ret    
80006115:	8d 74 26 00          	lea    0x0(%esi,1),%esi
80006119:	8d bc 27 00 00 00 00 	lea    0x0(%edi,1),%edi

80006120 <ObjectManager_CreateEntityString>:
80006120:	55                   	push   %ebp
80006121:	89 e5                	mov    %esp,%ebp
80006123:	83 ec 18             	sub    $0x18,%esp
80006126:	89 5d f8             	mov    %ebx,0xfffffff8(%ebp)
80006129:	8b 5d 08             	mov    0x8(%ebp),%ebx
8000612c:	89 75 fc             	mov    %esi,0xfffffffc(%ebp)
8000612f:	c7 04 24 e0 ae 00 80 	movl   $0x8000aee0,(%esp,1)
80006136:	e8 b5 d4 ff ff       	call   800035f0 <Lock_Lock>
8000613b:	c7 44 24 04 00 00 00 	movl   $0x0,0x4(%esp,1)
80006142:	00 
80006143:	c7 04 24 00 00 00 00 	movl   $0x0,(%esp,1)
8000614a:	e8 71 f6 ff ff       	call   800057c0 <ObjectManager_CreateObject>
8000614f:	c7 40 44 00 00 00 00 	movl   $0x0,0x44(%eax)
80006156:	89 c6                	mov    %eax,%esi
80006158:	e8 43 de ff ff       	call   80003fa0 <MemoryManager_Lock>
8000615d:	89 d9                	mov    %ebx,%ecx
8000615f:	8a 11                	mov    (%ecx),%dl
80006161:	41                   	inc    %ecx
80006162:	84 d2                	test   %dl,%dl
80006164:	75 f9                	jne    8000615f <ObjectManager_CreateEntityString+0x3f>
80006166:	29 d9                	sub    %ebx,%ecx
80006168:	49                   	dec    %ecx
80006169:	89 0c 24             	mov    %ecx,(%esp,1)
8000616c:	e8 ef e2 ff ff       	call   80004460 <MemoryManager_KAlloc>
80006171:	89 46 4c             	mov    %eax,0x4c(%esi)
80006174:	e8 47 de ff ff       	call   80003fc0 <MemoryManager_Unlock>
80006179:	8b 46 4c             	mov    0x4c(%esi),%eax
8000617c:	89 c1                	mov    %eax,%ecx
8000617e:	8a 03                	mov    (%ebx),%al
80006180:	43                   	inc    %ebx
80006181:	88 01                	mov    %al,(%ecx)
80006183:	41                   	inc    %ecx
80006184:	84 c0                	test   %al,%al
80006186:	75 f6                	jne    8000617e <ObjectManager_CreateEntityString+0x5e>
80006188:	c7 04 24 e0 ae 00 80 	movl   $0x8000aee0,(%esp,1)
8000618f:	e8 9c d4 ff ff       	call   80003630 <Lock_Unlock>
80006194:	8b 75 fc             	mov    0xfffffffc(%ebp),%esi
80006197:	31 c0                	xor    %eax,%eax
80006199:	8b 5d f8             	mov    0xfffffff8(%ebp),%ebx
8000619c:	89 ec                	mov    %ebp,%esp
8000619e:	5d                   	pop    %ebp
8000619f:	c3                   	ret    

800061a0 <ObjectManager_GetEntityWord>:
800061a0:	55                   	push   %ebp
800061a1:	89 e5                	mov    %esp,%ebp
800061a3:	57                   	push   %edi
800061a4:	56                   	push   %esi
800061a5:	53                   	push   %ebx
800061a6:	83 ec 1c             	sub    $0x1c,%esp
800061a9:	c7 04 24 e0 ae 00 80 	movl   $0x8000aee0,(%esp,1)
800061b0:	e8 3b d4 ff ff       	call   800035f0 <Lock_Lock>
800061b5:	8b 35 a4 ac 00 80    	mov    0x8000aca4,%esi
800061bb:	85 f6                	test   %esi,%esi
800061bd:	0f 84 9a 00 00 00    	je     8000625d <ObjectManager_GetEntityWord+0xbd>
800061c3:	8b 3d f0 aa 00 80    	mov    0x8000aaf0,%edi
800061c9:	8d b4 26 00 00 00 00 	lea    0x0(%esi,1),%esi
800061d0:	8b 46 44             	mov    0x44(%esi),%eax
800061d3:	85 c0                	test   %eax,%eax
800061d5:	75 29                	jne    80006200 <ObjectManager_GetEntityWord+0x60>
800061d7:	b8 30 00 00 00       	mov    $0x30,%eax
800061dc:	89 f3                	mov    %esi,%ebx
800061de:	89 f9                	mov    %edi,%ecx
800061e0:	48                   	dec    %eax
800061e1:	78 0c                	js     800061ef <ObjectManager_GetEntityWord+0x4f>
800061e3:	8a 13                	mov    (%ebx),%dl
800061e5:	43                   	inc    %ebx
800061e6:	38 11                	cmp    %dl,(%ecx)
800061e8:	75 09                	jne    800061f3 <ObjectManager_GetEntityWord+0x53>
800061ea:	41                   	inc    %ecx
800061eb:	84 d2                	test   %dl,%dl
800061ed:	75 f1                	jne    800061e0 <ObjectManager_GetEntityWord+0x40>
800061ef:	31 d2                	xor    %edx,%edx
800061f1:	eb 09                	jmp    800061fc <ObjectManager_GetEntityWord+0x5c>
800061f3:	ba 01 00 00 00       	mov    $0x1,%edx
800061f8:	72 02                	jb     800061fc <ObjectManager_GetEntityWord+0x5c>
800061fa:	f7 da                	neg    %edx
800061fc:	85 d2                	test   %edx,%edx
800061fe:	74 41                	je     80006241 <ObjectManager_GetEntityWord+0xa1>
80006200:	8b 76 54             	mov    0x54(%esi),%esi
80006203:	85 f6                	test   %esi,%esi
80006205:	75 c9                	jne    800061d0 <ObjectManager_GetEntityWord+0x30>
80006207:	89 7c 24 0c          	mov    %edi,0xc(%esp,1)
8000620b:	a1 ec aa 00 80       	mov    0x8000aaec,%eax
80006210:	c7 44 24 04 a5 a2 00 	movl   $0x8000a2a5,0x4(%esp,1)
80006217:	80 
80006218:	c7 04 24 e0 a1 00 80 	movl   $0x8000a1e0,(%esp,1)
8000621f:	89 44 24 08          	mov    %eax,0x8(%esp,1)
80006223:	e8 d8 0f 00 00       	call   80007200 <KPrint>
80006228:	c7 04 24 e0 ae 00 80 	movl   $0x8000aee0,(%esp,1)
8000622f:	e8 fc d3 ff ff       	call   80003630 <Lock_Unlock>
80006234:	b8 ff ff ff ff       	mov    $0xffffffff,%eax
80006239:	83 c4 1c             	add    $0x1c,%esp
8000623c:	5b                   	pop    %ebx
8000623d:	5e                   	pop    %esi
8000623e:	5f                   	pop    %edi
8000623f:	5d                   	pop    %ebp
80006240:	c3                   	ret    
80006241:	85 f6                	test   %esi,%esi
80006243:	74 c2                	je     80006207 <ObjectManager_GetEntityWord+0x67>
80006245:	8b 4e 4c             	mov    0x4c(%esi),%ecx
80006248:	8b 45 08             	mov    0x8(%ebp),%eax
8000624b:	89 08                	mov    %ecx,(%eax)
8000624d:	c7 04 24 e0 ae 00 80 	movl   $0x8000aee0,(%esp,1)
80006254:	e8 d7 d3 ff ff       	call   80003630 <Lock_Unlock>
80006259:	31 c0                	xor    %eax,%eax
8000625b:	eb dc                	jmp    80006239 <ObjectManager_GetEntityWord+0x99>
8000625d:	8b 3d f0 aa 00 80    	mov    0x8000aaf0,%edi
80006263:	eb a2                	jmp    80006207 <ObjectManager_GetEntityWord+0x67>
80006265:	8d 74 26 00          	lea    0x0(%esi,1),%esi
80006269:	8d bc 27 00 00 00 00 	lea    0x0(%edi,1),%edi

80006270 <ObjectManager_GetEntityStringLength>:
80006270:	55                   	push   %ebp
80006271:	89 e5                	mov    %esp,%ebp
80006273:	57                   	push   %edi
80006274:	56                   	push   %esi
80006275:	53                   	push   %ebx
80006276:	83 ec 1c             	sub    $0x1c,%esp
80006279:	c7 04 24 e0 ae 00 80 	movl   $0x8000aee0,(%esp,1)
80006280:	e8 6b d3 ff ff       	call   800035f0 <Lock_Lock>
80006285:	8b 35 a4 ac 00 80    	mov    0x8000aca4,%esi
8000628b:	85 f6                	test   %esi,%esi
8000628d:	0f 84 a6 00 00 00    	je     80006339 <ObjectManager_GetEntityStringLength+0xc9>
80006293:	8b 3d f0 aa 00 80    	mov    0x8000aaf0,%edi
80006299:	8d b4 26 00 00 00 00 	lea    0x0(%esi,1),%esi
800062a0:	8b 46 44             	mov    0x44(%esi),%eax
800062a3:	85 c0                	test   %eax,%eax
800062a5:	75 29                	jne    800062d0 <ObjectManager_GetEntityStringLength+0x60>
800062a7:	b8 30 00 00 00       	mov    $0x30,%eax
800062ac:	89 f3                	mov    %esi,%ebx
800062ae:	89 f9                	mov    %edi,%ecx
800062b0:	48                   	dec    %eax
800062b1:	78 0c                	js     800062bf <ObjectManager_GetEntityStringLength+0x4f>
800062b3:	8a 13                	mov    (%ebx),%dl
800062b5:	43                   	inc    %ebx
800062b6:	38 11                	cmp    %dl,(%ecx)
800062b8:	75 09                	jne    800062c3 <ObjectManager_GetEntityStringLength+0x53>
800062ba:	41                   	inc    %ecx
800062bb:	84 d2                	test   %dl,%dl
800062bd:	75 f1                	jne    800062b0 <ObjectManager_GetEntityStringLength+0x40>
800062bf:	31 d2                	xor    %edx,%edx
800062c1:	eb 09                	jmp    800062cc <ObjectManager_GetEntityStringLength+0x5c>
800062c3:	ba 01 00 00 00       	mov    $0x1,%edx
800062c8:	72 02                	jb     800062cc <ObjectManager_GetEntityStringLength+0x5c>
800062ca:	f7 da                	neg    %edx
800062cc:	85 d2                	test   %edx,%edx
800062ce:	74 41                	je     80006311 <ObjectManager_GetEntityStringLength+0xa1>
800062d0:	8b 76 54             	mov    0x54(%esi),%esi
800062d3:	85 f6                	test   %esi,%esi
800062d5:	75 c9                	jne    800062a0 <ObjectManager_GetEntityStringLength+0x30>
800062d7:	89 7c 24 0c          	mov    %edi,0xc(%esp,1)
800062db:	a1 ec aa 00 80       	mov    0x8000aaec,%eax
800062e0:	c7 44 24 04 a5 a2 00 	movl   $0x8000a2a5,0x4(%esp,1)
800062e7:	80 
800062e8:	c7 04 24 e0 a1 00 80 	movl   $0x8000a1e0,(%esp,1)
800062ef:	89 44 24 08          	mov    %eax,0x8(%esp,1)
800062f3:	e8 08 0f 00 00       	call   80007200 <KPrint>
800062f8:	c7 04 24 e0 ae 00 80 	movl   $0x8000aee0,(%esp,1)
800062ff:	e8 2c d3 ff ff       	call   80003630 <Lock_Unlock>
80006304:	b8 ff ff ff ff       	mov    $0xffffffff,%eax
80006309:	83 c4 1c             	add    $0x1c,%esp
8000630c:	5b                   	pop    %ebx
8000630d:	5e                   	pop    %esi
8000630e:	5f                   	pop    %edi
8000630f:	5d                   	pop    %ebp
80006310:	c3                   	ret    
80006311:	85 f6                	test   %esi,%esi
80006313:	74 c2                	je     800062d7 <ObjectManager_GetEntityStringLength+0x67>
80006315:	8b 46 4c             	mov    0x4c(%esi),%eax
80006318:	89 c3                	mov    %eax,%ebx
8000631a:	8a 0b                	mov    (%ebx),%cl
8000631c:	43                   	inc    %ebx
8000631d:	84 c9                	test   %cl,%cl
8000631f:	75 f9                	jne    8000631a <ObjectManager_GetEntityStringLength+0xaa>
80006321:	29 c3                	sub    %eax,%ebx
80006323:	8b 45 08             	mov    0x8(%ebp),%eax
80006326:	4b                   	dec    %ebx
80006327:	89 18                	mov    %ebx,(%eax)
80006329:	c7 04 24 e0 ae 00 80 	movl   $0x8000aee0,(%esp,1)
80006330:	e8 fb d2 ff ff       	call   80003630 <Lock_Unlock>
80006335:	31 c0                	xor    %eax,%eax
80006337:	eb d0                	jmp    80006309 <ObjectManager_GetEntityStringLength+0x99>
80006339:	8b 3d f0 aa 00 80    	mov    0x8000aaf0,%edi
8000633f:	eb 96                	jmp    800062d7 <ObjectManager_GetEntityStringLength+0x67>
80006341:	eb 0d                	jmp    80006350 <ObjectManager_GetEntityString>
80006343:	90                   	nop    
80006344:	90                   	nop    
80006345:	90                   	nop    
80006346:	90                   	nop    
80006347:	90                   	nop    
80006348:	90                   	nop    
80006349:	90                   	nop    
8000634a:	90                   	nop    
8000634b:	90                   	nop    
8000634c:	90                   	nop    
8000634d:	90                   	nop    
8000634e:	90                   	nop    
8000634f:	90                   	nop    

80006350 <ObjectManager_GetEntityString>:
80006350:	55                   	push   %ebp
80006351:	89 e5                	mov    %esp,%ebp
80006353:	57                   	push   %edi
80006354:	56                   	push   %esi
80006355:	53                   	push   %ebx
80006356:	83 ec 1c             	sub    $0x1c,%esp
80006359:	c7 04 24 e0 ae 00 80 	movl   $0x8000aee0,(%esp,1)
80006360:	e8 8b d2 ff ff       	call   800035f0 <Lock_Lock>
80006365:	8b 35 a4 ac 00 80    	mov    0x8000aca4,%esi
8000636b:	85 f6                	test   %esi,%esi
8000636d:	0f 84 a2 00 00 00    	je     80006415 <ObjectManager_GetEntityString+0xc5>
80006373:	8b 3d f0 aa 00 80    	mov    0x8000aaf0,%edi
80006379:	8d b4 26 00 00 00 00 	lea    0x0(%esi,1),%esi
80006380:	8b 46 44             	mov    0x44(%esi),%eax
80006383:	85 c0                	test   %eax,%eax
80006385:	75 29                	jne    800063b0 <ObjectManager_GetEntityString+0x60>
80006387:	b8 30 00 00 00       	mov    $0x30,%eax
8000638c:	89 f3                	mov    %esi,%ebx
8000638e:	89 f9                	mov    %edi,%ecx
80006390:	48                   	dec    %eax
80006391:	78 0c                	js     8000639f <ObjectManager_GetEntityString+0x4f>
80006393:	8a 13                	mov    (%ebx),%dl
80006395:	43                   	inc    %ebx
80006396:	38 11                	cmp    %dl,(%ecx)
80006398:	75 09                	jne    800063a3 <ObjectManager_GetEntityString+0x53>
8000639a:	41                   	inc    %ecx
8000639b:	84 d2                	test   %dl,%dl
8000639d:	75 f1                	jne    80006390 <ObjectManager_GetEntityString+0x40>
8000639f:	31 d2                	xor    %edx,%edx
800063a1:	eb 09                	jmp    800063ac <ObjectManager_GetEntityString+0x5c>
800063a3:	ba 01 00 00 00       	mov    $0x1,%edx
800063a8:	72 02                	jb     800063ac <ObjectManager_GetEntityString+0x5c>
800063aa:	f7 da                	neg    %edx
800063ac:	85 d2                	test   %edx,%edx
800063ae:	74 41                	je     800063f1 <ObjectManager_GetEntityString+0xa1>
800063b0:	8b 76 54             	mov    0x54(%esi),%esi
800063b3:	85 f6                	test   %esi,%esi
800063b5:	75 c9                	jne    80006380 <ObjectManager_GetEntityString+0x30>
800063b7:	89 7c 24 0c          	mov    %edi,0xc(%esp,1)
800063bb:	a1 ec aa 00 80       	mov    0x8000aaec,%eax
800063c0:	c7 44 24 04 a5 a2 00 	movl   $0x8000a2a5,0x4(%esp,1)
800063c7:	80 
800063c8:	c7 04 24 e0 a1 00 80 	movl   $0x8000a1e0,(%esp,1)
800063cf:	89 44 24 08          	mov    %eax,0x8(%esp,1)
800063d3:	e8 28 0e 00 00       	call   80007200 <KPrint>
800063d8:	c7 04 24 e0 ae 00 80 	movl   $0x8000aee0,(%esp,1)
800063df:	e8 4c d2 ff ff       	call   80003630 <Lock_Unlock>
800063e4:	b8 ff ff ff ff       	mov    $0xffffffff,%eax
800063e9:	83 c4 1c             	add    $0x1c,%esp
800063ec:	5b                   	pop    %ebx
800063ed:	5e                   	pop    %esi
800063ee:	5f                   	pop    %edi
800063ef:	5d                   	pop    %ebp
800063f0:	c3                   	ret    
800063f1:	85 f6                	test   %esi,%esi
800063f3:	74 c2                	je     800063b7 <ObjectManager_GetEntityString+0x67>
800063f5:	8b 46 4c             	mov    0x4c(%esi),%eax
800063f8:	8b 5d 08             	mov    0x8(%ebp),%ebx
800063fb:	8a 10                	mov    (%eax),%dl
800063fd:	40                   	inc    %eax
800063fe:	88 13                	mov    %dl,(%ebx)
80006400:	43                   	inc    %ebx
80006401:	84 d2                	test   %dl,%dl
80006403:	75 f6                	jne    800063fb <ObjectManager_GetEntityString+0xab>
80006405:	c7 04 24 e0 ae 00 80 	movl   $0x8000aee0,(%esp,1)
8000640c:	e8 1f d2 ff ff       	call   80003630 <Lock_Unlock>
80006411:	31 c0                	xor    %eax,%eax
80006413:	eb d4                	jmp    800063e9 <ObjectManager_GetEntityString+0x99>
80006415:	8b 3d f0 aa 00 80    	mov    0x8000aaf0,%edi
8000641b:	eb 9a                	jmp    800063b7 <ObjectManager_GetEntityString+0x67>
8000641d:	00 00                	add    %al,(%eax)
	...

80006420 <TimerManager_Init>:
80006420:	55                   	push   %ebp
80006421:	31 d2                	xor    %edx,%edx
80006423:	89 e5                	mov    %esp,%ebp
80006425:	31 c9                	xor    %ecx,%ecx
80006427:	31 c0                	xor    %eax,%eax
80006429:	83 ec 18             	sub    $0x18,%esp
8000642c:	a3 3c ad 00 80       	mov    %eax,0x8000ad3c
80006431:	89 15 34 ad 00 80    	mov    %edx,0x8000ad34
80006437:	31 d2                	xor    %edx,%edx
80006439:	89 0d 38 ad 00 80    	mov    %ecx,0x8000ad38
8000643f:	89 15 40 ad 00 80    	mov    %edx,0x8000ad40
80006445:	c7 44 24 08 50 65 00 	movl   $0x80006550,0x8(%esp,1)
8000644c:	80 
8000644d:	c7 44 24 04 00 00 00 	movl   $0x0,0x4(%esp,1)
80006454:	00 
80006455:	c7 04 24 1d a3 00 80 	movl   $0x8000a31d,(%esp,1)
8000645c:	e8 6f c9 ff ff       	call   80002dd0 <InterruptManager_AttachHandler>
80006461:	c7 04 24 00 00 00 00 	movl   $0x0,(%esp,1)
80006468:	e8 23 ca ff ff       	call   80002e90 <InterruptManager_EnableIRQ>
8000646d:	c7 44 24 04 23 a3 00 	movl   $0x8000a323,0x4(%esp,1)
80006474:	80 
80006475:	c7 04 24 36 a3 00 80 	movl   $0x8000a336,(%esp,1)
8000647c:	e8 7f 0d 00 00       	call   80007200 <KPrint>
80006481:	89 ec                	mov    %ebp,%esp
80006483:	5d                   	pop    %ebp
80006484:	c3                   	ret    
80006485:	8d 74 26 00          	lea    0x0(%esi,1),%esi
80006489:	8d bc 27 00 00 00 00 	lea    0x0(%edi,1),%edi

80006490 <TimerManager_AttachTimerHandler>:
80006490:	55                   	push   %ebp
80006491:	89 e5                	mov    %esp,%ebp
80006493:	83 ec 18             	sub    $0x18,%esp
80006496:	83 3d e4 aa 00 80 01 	cmpl   $0x1,0x8000aae4
8000649d:	89 5d f4             	mov    %ebx,0xfffffff4(%ebp)
800064a0:	8b 5d 08             	mov    0x8(%ebp),%ebx
800064a3:	89 75 f8             	mov    %esi,0xfffffff8(%ebp)
800064a6:	89 7d fc             	mov    %edi,0xfffffffc(%ebp)
800064a9:	0f 84 91 00 00 00    	je     80006540 <TimerManager_AttachTimerHandler+0xb0>
800064af:	c7 04 24 44 00 00 00 	movl   $0x44,(%esp,1)
800064b6:	89 de                	mov    %ebx,%esi
800064b8:	e8 a3 df ff ff       	call   80004460 <MemoryManager_KAlloc>
800064bd:	ba 30 00 00 00       	mov    $0x30,%edx
800064c2:	89 c7                	mov    %eax,%edi
800064c4:	8a 0e                	mov    (%esi),%cl
800064c6:	46                   	inc    %esi
800064c7:	88 0f                	mov    %cl,(%edi)
800064c9:	47                   	inc    %edi
800064ca:	4a                   	dec    %edx
800064cb:	74 0a                	je     800064d7 <TimerManager_AttachTimerHandler+0x47>
800064cd:	84 c9                	test   %cl,%cl
800064cf:	75 f3                	jne    800064c4 <TimerManager_AttachTimerHandler+0x34>
800064d1:	88 0f                	mov    %cl,(%edi)
800064d3:	47                   	inc    %edi
800064d4:	4a                   	dec    %edx
800064d5:	75 fa                	jne    800064d1 <TimerManager_AttachTimerHandler+0x41>
800064d7:	31 c9                	xor    %ecx,%ecx
800064d9:	8b 3d 38 ad 00 80    	mov    0x8000ad38,%edi
800064df:	8b 5d 10             	mov    0x10(%ebp),%ebx
800064e2:	8b 75 0c             	mov    0xc(%ebp),%esi
800064e5:	89 78 30             	mov    %edi,0x30(%eax)
800064e8:	89 58 3c             	mov    %ebx,0x3c(%eax)
800064eb:	8b 1d 34 ad 00 80    	mov    0x8000ad34,%ebx
800064f1:	ff 05 38 ad 00 80    	incl   0x8000ad38
800064f7:	89 70 34             	mov    %esi,0x34(%eax)
800064fa:	85 db                	test   %ebx,%ebx
800064fc:	0f 94 c1             	sete   %cl
800064ff:	89 70 38             	mov    %esi,0x38(%eax)
80006502:	49                   	dec    %ecx
80006503:	21 cb                	and    %ecx,%ebx
80006505:	83 3d e4 aa 00 80 01 	cmpl   $0x1,0x8000aae4
8000650c:	89 58 40             	mov    %ebx,0x40(%eax)
8000650f:	a3 34 ad 00 80       	mov    %eax,0x8000ad34
80006514:	74 1a                	je     80006530 <TimerManager_AttachTimerHandler+0xa0>
80006516:	8b 5d f4             	mov    0xfffffff4(%ebp),%ebx
80006519:	8b 75 f8             	mov    0xfffffff8(%ebp),%esi
8000651c:	8b 7d fc             	mov    0xfffffffc(%ebp),%edi
8000651f:	89 ec                	mov    %ebp,%esp
80006521:	5d                   	pop    %ebp
80006522:	c3                   	ret    
80006523:	8d b6 00 00 00 00    	lea    0x0(%esi),%esi
80006529:	8d bc 27 00 00 00 00 	lea    0x0(%edi,1),%edi
80006530:	fb                   	sti    
80006531:	eb e3                	jmp    80006516 <TimerManager_AttachTimerHandler+0x86>
80006533:	8d b6 00 00 00 00    	lea    0x0(%esi),%esi
80006539:	8d bc 27 00 00 00 00 	lea    0x0(%edi,1),%edi
80006540:	fa                   	cli    
80006541:	e9 69 ff ff ff       	jmp    800064af <TimerManager_AttachTimerHandler+0x1f>
80006546:	8d 76 00             	lea    0x0(%esi),%esi
80006549:	8d bc 27 00 00 00 00 	lea    0x0(%edi,1),%edi

80006550 <TimerManager_Handler>:
80006550:	55                   	push   %ebp
80006551:	89 e5                	mov    %esp,%ebp
80006553:	56                   	push   %esi
80006554:	53                   	push   %ebx
80006555:	83 ec 10             	sub    $0x10,%esp
80006558:	8b 1d 34 ad 00 80    	mov    0x8000ad34,%ebx
8000655e:	8b 75 08             	mov    0x8(%ebp),%esi
80006561:	85 db                	test   %ebx,%ebx
80006563:	74 27                	je     8000658c <TimerManager_Handler+0x3c>
80006565:	8d 74 26 00          	lea    0x0(%esi,1),%esi
80006569:	8d bc 27 00 00 00 00 	lea    0x0(%edi,1),%edi
80006570:	8b 53 34             	mov    0x34(%ebx),%edx
80006573:	8b 4b 3c             	mov    0x3c(%ebx),%ecx
80006576:	85 d2                	test   %edx,%edx
80006578:	74 29                	je     800065a3 <TimerManager_Handler+0x53>
8000657a:	8b 43 38             	mov    0x38(%ebx),%eax
8000657d:	48                   	dec    %eax
8000657e:	85 c0                	test   %eax,%eax
80006580:	89 43 38             	mov    %eax,0x38(%ebx)
80006583:	74 1b                	je     800065a0 <TimerManager_Handler+0x50>
80006585:	8b 5b 40             	mov    0x40(%ebx),%ebx
80006588:	85 db                	test   %ebx,%ebx
8000658a:	75 e4                	jne    80006570 <TimerManager_Handler+0x20>
8000658c:	83 c4 10             	add    $0x10,%esp
8000658f:	31 c0                	xor    %eax,%eax
80006591:	5b                   	pop    %ebx
80006592:	5e                   	pop    %esi
80006593:	5d                   	pop    %ebp
80006594:	c3                   	ret    
80006595:	8d 74 26 00          	lea    0x0(%esi,1),%esi
80006599:	8d bc 27 00 00 00 00 	lea    0x0(%edi,1),%edi
800065a0:	89 53 38             	mov    %edx,0x38(%ebx)
800065a3:	89 34 24             	mov    %esi,(%esp,1)
800065a6:	ff d1                	call   *%ecx
800065a8:	eb db                	jmp    80006585 <TimerManager_Handler+0x35>
800065aa:	00 00                	add    %al,(%eax)
800065ac:	00 00                	add    %al,(%eax)
	...

800065b0 <ProcessManager_Init>:
800065b0:	55                   	push   %ebp
800065b1:	b8 01 00 00 00       	mov    $0x1,%eax
800065b6:	89 e5                	mov    %esp,%ebp
800065b8:	83 ec 18             	sub    $0x18,%esp
800065bb:	a3 28 ad 00 80       	mov    %eax,0x8000ad28
800065c0:	b8 01 00 00 00       	mov    $0x1,%eax
800065c5:	c7 44 24 08 18 ad 00 	movl   $0x8000ad18,0x8(%esp,1)
800065cc:	80 
800065cd:	c7 44 24 04 20 ad 00 	movl   $0x8000ad20,0x4(%esp,1)
800065d4:	80 
800065d5:	c7 04 24 3c a3 00 80 	movl   $0x8000a33c,(%esp,1)
800065dc:	a3 2c ad 00 80       	mov    %eax,0x8000ad2c
800065e1:	e8 7a 01 00 00       	call   80006760 <ProcessManager_CreateProcess>
800065e6:	b9 08 00 00 00       	mov    $0x8,%ecx
800065eb:	a1 18 ad 00 80       	mov    0x8000ad18,%eax
800065f0:	ba 90 ac 00 80       	mov    $0x8000ac90,%edx
800065f5:	8b 40 4c             	mov    0x4c(%eax),%eax
800065f8:	89 90 84 00 00 00    	mov    %edx,0x84(%eax)
800065fe:	ba 10 00 00 00       	mov    $0x10,%edx
80006603:	66 89 88 88 00 00 00 	mov    %cx,0x88(%eax)
8000660a:	b9 10 00 00 00       	mov    $0x10,%ecx
8000660f:	66 89 90 8a 00 00 00 	mov    %dx,0x8a(%eax)
80006616:	ba 10 00 00 00       	mov    $0x10,%edx
8000661b:	66 89 88 8c 00 00 00 	mov    %cx,0x8c(%eax)
80006622:	b9 10 00 00 00       	mov    $0x10,%ecx
80006627:	66 89 90 8e 00 00 00 	mov    %dx,0x8e(%eax)
8000662e:	ba 10 00 00 00       	mov    $0x10,%edx
80006633:	66 89 88 90 00 00 00 	mov    %cx,0x90(%eax)
8000663a:	89 90 94 00 00 00    	mov    %edx,0x94(%eax)
80006640:	c7 44 24 0c 1c ad 00 	movl   $0x8000ad1c,0xc(%esp,1)
80006647:	80 
80006648:	c7 44 24 08 24 ad 00 	movl   $0x8000ad24,0x8(%esp,1)
8000664f:	80 
80006650:	c7 44 24 04 00 00 00 	movl   $0x0,0x4(%esp,1)
80006657:	00 
80006658:	89 04 24             	mov    %eax,(%esp,1)
8000665b:	e8 f0 01 00 00       	call   80006850 <ProcessManager_CreateThread>
80006660:	ba 10 00 00 00       	mov    $0x10,%edx
80006665:	a1 1c ad 00 80       	mov    0x8000ad1c,%eax
8000666a:	b9 01 00 00 00       	mov    $0x1,%ecx
8000666f:	66 89 15 b8 ac 00 80 	mov    %dx,0x8000acb8
80006676:	31 d2                	xor    %edx,%edx
80006678:	8b 40 4c             	mov    0x4c(%eax),%eax
8000667b:	66 89 15 c8 ac 00 80 	mov    %dx,0x8000acc8
80006682:	c7 40 30 01 00 00 00 	movl   $0x1,0x30(%eax)
80006689:	b8 08 00 00 00       	mov    $0x8,%eax
8000668e:	66 a3 fc ac 00 80    	mov    %ax,0x8000acfc
80006694:	b8 10 00 00 00       	mov    $0x10,%eax
80006699:	66 a3 04 ad 00 80    	mov    %ax,0x8000ad04
8000669f:	b8 10 00 00 00       	mov    $0x10,%eax
800066a4:	66 a3 f8 ac 00 80    	mov    %ax,0x8000acf8
800066aa:	b8 10 00 00 00       	mov    $0x10,%eax
800066af:	66 a3 08 ad 00 80    	mov    %ax,0x8000ad08
800066b5:	b8 10 00 00 00       	mov    $0x10,%eax
800066ba:	66 a3 0c ad 00 80    	mov    %ax,0x8000ad0c
800066c0:	b8 10 00 00 00       	mov    $0x10,%eax
800066c5:	66 a3 00 ad 00 80    	mov    %ax,0x8000ad00
800066cb:	31 c0                	xor    %eax,%eax
800066cd:	66 a3 c0 ac 00 80    	mov    %ax,0x8000acc0
800066d3:	a1 74 ac 00 80       	mov    0x8000ac74,%eax
800066d8:	89 0d f4 aa 00 80    	mov    %ecx,0x8000aaf4
800066de:	c7 44 24 04 b0 ac 00 	movl   $0x8000acb0,0x4(%esp,1)
800066e5:	80 
800066e6:	a3 cc ac 00 80       	mov    %eax,0x8000accc
800066eb:	c7 04 24 28 00 00 00 	movl   $0x28,(%esp,1)
800066f2:	e8 b9 13 00 00       	call   80007ab0 <Descriptor_SetBase>
800066f7:	c7 44 24 04 68 00 00 	movl   $0x68,0x4(%esp,1)
800066fe:	00 
800066ff:	c7 04 24 28 00 00 00 	movl   $0x28,(%esp,1)
80006706:	e8 d5 13 00 00       	call   80007ae0 <Descriptor_SetLimit>
8000670b:	c7 44 24 04 89 00 00 	movl   $0x89,0x4(%esp,1)
80006712:	00 
80006713:	c7 04 24 28 00 00 00 	movl   $0x28,(%esp,1)
8000671a:	e8 11 14 00 00       	call   80007b30 <Descriptor_SetAccess>
8000671f:	b8 28 00 00 00       	mov    $0x28,%eax
80006724:	0f 00 d8             	ltr    %ax
80006727:	c7 44 24 08 b0 6d 00 	movl   $0x80006db0,0x8(%esp,1)
8000672e:	80 
8000672f:	c7 44 24 04 00 00 00 	movl   $0x0,0x4(%esp,1)
80006736:	00 
80006737:	c7 04 24 43 a3 00 80 	movl   $0x8000a343,(%esp,1)
8000673e:	e8 4d fd ff ff       	call   80006490 <TimerManager_AttachTimerHandler>
80006743:	e8 38 03 00 00       	call   80006a80 <ProcessManager_CreateModuleInterface>
80006748:	c7 44 24 04 4d a3 00 	movl   $0x8000a34d,0x4(%esp,1)
8000674f:	80 
80006750:	c7 04 24 64 a3 00 80 	movl   $0x8000a364,(%esp,1)
80006757:	e8 a4 0a 00 00       	call   80007200 <KPrint>
8000675c:	c9                   	leave  
8000675d:	c3                   	ret    
8000675e:	89 f6                	mov    %esi,%esi

80006760 <ProcessManager_CreateProcess>:
80006760:	55                   	push   %ebp
80006761:	89 e5                	mov    %esp,%ebp
80006763:	57                   	push   %edi
80006764:	8d 7d b9             	lea    0xffffffb9(%ebp),%edi
80006767:	56                   	push   %esi
80006768:	53                   	push   %ebx
80006769:	83 ec 4c             	sub    $0x4c,%esp
8000676c:	8b 75 08             	mov    0x8(%ebp),%esi
8000676f:	e8 4c f1 ff ff       	call   800058c0 <ObjectManager_Lock>
80006774:	c7 04 24 6e a3 00 80 	movl   $0x8000a36e,(%esp,1)
8000677b:	e8 70 f4 ff ff       	call   80005bf0 <ObjectManager_ConstructPath>
80006780:	0f b6 0d eb a3 00 80 	movzbl 0x8000a3eb,%ecx
80006787:	31 c0                	xor    %eax,%eax
80006789:	fc                   	cld    
8000678a:	88 4d b8             	mov    %cl,0xffffffb8(%ebp)
8000678d:	b9 0b 00 00 00       	mov    $0xb,%ecx
80006792:	f3 ab                	repz stos %eax,%es:(%edi)
80006794:	66 c7 07 00 00       	movw   $0x0,(%edi)
80006799:	c6 47 02 00          	movb   $0x0,0x2(%edi)
8000679d:	8d 7d b8             	lea    0xffffffb8(%ebp),%edi
800067a0:	a1 28 ad 00 80       	mov    0x8000ad28,%eax
800067a5:	89 3c 24             	mov    %edi,(%esp,1)
800067a8:	c7 44 24 08 81 a3 00 	movl   $0x8000a381,0x8(%esp,1)
800067af:	80 
800067b0:	89 44 24 0c          	mov    %eax,0xc(%esp,1)
800067b4:	c7 44 24 04 30 00 00 	movl   $0x30,0x4(%esp,1)
800067bb:	00 
800067bc:	e8 ff 19 00 00       	call   800081c0 <snprintf>
800067c1:	89 3c 24             	mov    %edi,(%esp,1)
800067c4:	e8 47 f5 ff ff       	call   80005d10 <ObjectManager_ConstructKey>
800067c9:	c7 44 24 04 a0 00 00 	movl   $0xa0,0x4(%esp,1)
800067d0:	00 
800067d1:	c7 04 24 01 00 00 00 	movl   $0x1,(%esp,1)
800067d8:	e8 e3 ef ff ff       	call   800057c0 <ObjectManager_CreateObject>
800067dd:	8b 1d 28 ad 00 80    	mov    0x8000ad28,%ebx
800067e3:	8b 7d 10             	mov    0x10(%ebp),%edi
800067e6:	89 58 34             	mov    %ebx,0x34(%eax)
800067e9:	89 07                	mov    %eax,(%edi)
800067eb:	8b 78 4c             	mov    0x4c(%eax),%edi
800067ee:	8d 57 ff             	lea    0xffffffff(%edi),%edx
800067f1:	c6 07 00             	movb   $0x0,(%edi)
800067f4:	42                   	inc    %edx
800067f5:	80 3a 00             	cmpb   $0x0,(%edx)
800067f8:	75 fa                	jne    800067f4 <ProcessManager_CreateProcess+0x94>
800067fa:	8a 1e                	mov    (%esi),%bl
800067fc:	46                   	inc    %esi
800067fd:	88 1a                	mov    %bl,(%edx)
800067ff:	42                   	inc    %edx
80006800:	84 db                	test   %bl,%bl
80006802:	75 f6                	jne    800067fa <ProcessManager_CreateProcess+0x9a>
80006804:	31 d2                	xor    %edx,%edx
80006806:	31 c9                	xor    %ecx,%ecx
80006808:	b8 10 00 00 00       	mov    $0x10,%eax
8000680d:	89 87 9c 00 00 00    	mov    %eax,0x9c(%edi)
80006813:	a1 28 ad 00 80       	mov    0x8000ad28,%eax
80006818:	89 97 84 00 00 00    	mov    %edx,0x84(%edi)
8000681e:	89 87 80 00 00 00    	mov    %eax,0x80(%edi)
80006824:	8b 45 0c             	mov    0xc(%ebp),%eax
80006827:	ff 05 28 ad 00 80    	incl   0x8000ad28
8000682d:	89 8f 98 00 00 00    	mov    %ecx,0x98(%edi)
80006833:	8b 8f 80 00 00 00    	mov    0x80(%edi),%ecx
80006839:	89 08                	mov    %ecx,(%eax)
8000683b:	e8 a0 f0 ff ff       	call   800058e0 <ObjectManager_Unlock>
80006840:	83 c4 4c             	add    $0x4c,%esp
80006843:	31 c0                	xor    %eax,%eax
80006845:	5b                   	pop    %ebx
80006846:	5e                   	pop    %esi
80006847:	5f                   	pop    %edi
80006848:	5d                   	pop    %ebp
80006849:	c3                   	ret    
8000684a:	8d b6 00 00 00 00    	lea    0x0(%esi),%esi

80006850 <ProcessManager_CreateThread>:
80006850:	55                   	push   %ebp
80006851:	89 e5                	mov    %esp,%ebp
80006853:	57                   	push   %edi
80006854:	8d 7d b9             	lea    0xffffffb9(%ebp),%edi
80006857:	56                   	push   %esi
80006858:	53                   	push   %ebx
80006859:	83 ec 4c             	sub    $0x4c,%esp
8000685c:	8b 75 08             	mov    0x8(%ebp),%esi
8000685f:	e8 5c f0 ff ff       	call   800058c0 <ObjectManager_Lock>
80006864:	c7 04 24 8c a3 00 80 	movl   $0x8000a38c,(%esp,1)
8000686b:	e8 80 f3 ff ff       	call   80005bf0 <ObjectManager_ConstructPath>
80006870:	0f b6 15 eb a3 00 80 	movzbl 0x8000a3eb,%edx
80006877:	31 c0                	xor    %eax,%eax
80006879:	b9 0b 00 00 00       	mov    $0xb,%ecx
8000687e:	fc                   	cld    
8000687f:	88 55 b8             	mov    %dl,0xffffffb8(%ebp)
80006882:	f3 ab                	repz stos %eax,%es:(%edi)
80006884:	66 c7 07 00 00       	movw   $0x0,(%edi)
80006889:	c6 47 02 00          	movb   $0x0,0x2(%edi)
8000688d:	8d 7d b8             	lea    0xffffffb8(%ebp),%edi
80006890:	a1 2c ad 00 80       	mov    0x8000ad2c,%eax
80006895:	c7 44 24 08 9d a3 00 	movl   $0x8000a39d,0x8(%esp,1)
8000689c:	80 
8000689d:	c7 44 24 04 30 00 00 	movl   $0x30,0x4(%esp,1)
800068a4:	00 
800068a5:	89 44 24 0c          	mov    %eax,0xc(%esp,1)
800068a9:	89 3c 24             	mov    %edi,(%esp,1)
800068ac:	e8 0f 19 00 00       	call   800081c0 <snprintf>
800068b1:	89 3c 24             	mov    %edi,(%esp,1)
800068b4:	e8 57 f4 ff ff       	call   80005d10 <ObjectManager_ConstructKey>
800068b9:	c7 44 24 04 50 00 00 	movl   $0x50,0x4(%esp,1)
800068c0:	00 
800068c1:	c7 04 24 02 00 00 00 	movl   $0x2,(%esp,1)
800068c8:	e8 f3 ee ff ff       	call   800057c0 <ObjectManager_CreateObject>
800068cd:	8b 4d 14             	mov    0x14(%ebp),%ecx
800068d0:	8b 58 4c             	mov    0x4c(%eax),%ebx
800068d3:	89 01                	mov    %eax,(%ecx)
800068d5:	8b 0d 2c ad 00 80    	mov    0x8000ad2c,%ecx
800068db:	89 33                	mov    %esi,(%ebx)
800068dd:	c7 43 44 00 00 00 00 	movl   $0x0,0x44(%ebx)
800068e4:	89 48 34             	mov    %ecx,0x34(%eax)
800068e7:	8b 86 9c 00 00 00    	mov    0x9c(%esi),%eax
800068ed:	c7 43 48 00 00 00 00 	movl   $0x0,0x48(%ebx)
800068f4:	c7 43 4c 00 00 00 00 	movl   $0x0,0x4c(%ebx)
800068fb:	89 43 34             	mov    %eax,0x34(%ebx)
800068fe:	8b 86 9c 00 00 00    	mov    0x9c(%esi),%eax
80006904:	c7 43 30 00 00 00 00 	movl   $0x0,0x30(%ebx)
8000690b:	89 43 38             	mov    %eax,0x38(%ebx)
8000690e:	a1 2c ad 00 80       	mov    0x8000ad2c,%eax
80006913:	89 43 28             	mov    %eax,0x28(%ebx)
80006916:	8b 45 10             	mov    0x10(%ebp),%eax
80006919:	ff 05 2c ad 00 80    	incl   0x8000ad2c
8000691f:	c7 43 2c 01 00 00 00 	movl   $0x1,0x2c(%ebx)
80006926:	85 c0                	test   %eax,%eax
80006928:	74 08                	je     80006932 <ProcessManager_CreateThread+0xe2>
8000692a:	8b 43 28             	mov    0x28(%ebx),%eax
8000692d:	8b 4d 10             	mov    0x10(%ebp),%ecx
80006930:	89 01                	mov    %eax,(%ecx)
80006932:	83 3d f4 aa 00 80 01 	cmpl   $0x1,0x8000aaf4
80006939:	74 15                	je     80006950 <ProcessManager_CreateThread+0x100>
8000693b:	ff 86 98 00 00 00    	incl   0x98(%esi)
80006941:	e8 9a ef ff ff       	call   800058e0 <ObjectManager_Unlock>
80006946:	83 c4 4c             	add    $0x4c,%esp
80006949:	31 c0                	xor    %eax,%eax
8000694b:	5b                   	pop    %ebx
8000694c:	5e                   	pop    %esi
8000694d:	5f                   	pop    %edi
8000694e:	5d                   	pop    %ebp
8000694f:	c3                   	ret    
80006950:	c7 04 24 00 00 01 00 	movl   $0x10000,(%esp,1)
80006957:	e8 04 db ff ff       	call   80004460 <MemoryManager_KAlloc>
8000695c:	31 c9                	xor    %ecx,%ecx
8000695e:	ba 00 40 00 00       	mov    $0x4000,%edx
80006963:	89 c7                	mov    %eax,%edi
80006965:	89 0f                	mov    %ecx,(%edi)
80006967:	83 c7 04             	add    $0x4,%edi
8000696a:	4a                   	dec    %edx
8000696b:	75 f8                	jne    80006965 <ProcessManager_CreateThread+0x115>
8000696d:	05 00 00 01 00       	add    $0x10000,%eax
80006972:	8d 78 b8             	lea    0xffffffb8(%eax),%edi
80006975:	83 e8 44             	sub    $0x44,%eax
80006978:	89 43 08             	mov    %eax,0x8(%ebx)
8000697b:	8b 86 94 00 00 00    	mov    0x94(%esi),%eax
80006981:	89 43 04             	mov    %eax,0x4(%ebx)
80006984:	8b 45 0c             	mov    0xc(%ebp),%eax
80006987:	c7 47 3c 46 32 20 00 	movl   $0x203246,0x3c(%edi)
8000698e:	89 47 34             	mov    %eax,0x34(%edi)
80006991:	0f b7 86 88 00 00 00 	movzwl 0x88(%esi),%eax
80006998:	66 89 47 38          	mov    %ax,0x38(%edi)
8000699c:	0f b7 86 8a 00 00 00 	movzwl 0x8a(%esi),%eax
800069a3:	66 89 47 24          	mov    %ax,0x24(%edi)
800069a7:	0f b7 86 8a 00 00 00 	movzwl 0x8a(%esi),%eax
800069ae:	66 89 47 28          	mov    %ax,0x28(%edi)
800069b2:	0f b7 86 8a 00 00 00 	movzwl 0x8a(%esi),%eax
800069b9:	66 89 47 2c          	mov    %ax,0x2c(%edi)
800069bd:	0f b7 86 8a 00 00 00 	movzwl 0x8a(%esi),%eax
800069c4:	66 89 47 30          	mov    %ax,0x30(%edi)
800069c8:	0f b7 86 94 00 00 00 	movzwl 0x94(%esi),%eax
800069cf:	c7 47 20 00 00 00 00 	movl   $0x0,0x20(%edi)
800069d6:	c7 47 1c 00 00 00 00 	movl   $0x0,0x1c(%edi)
800069dd:	c7 47 18 00 00 00 00 	movl   $0x0,0x18(%edi)
800069e4:	66 89 47 44          	mov    %ax,0x44(%edi)
800069e8:	c7 47 14 00 00 00 00 	movl   $0x0,0x14(%edi)
800069ef:	c7 47 10 00 00 00 00 	movl   $0x0,0x10(%edi)
800069f6:	c7 47 0c 00 00 00 00 	movl   $0x0,0xc(%edi)
800069fd:	c7 47 08 00 00 00 00 	movl   $0x0,0x8(%edi)
80006a04:	e9 32 ff ff ff       	jmp    8000693b <ProcessManager_CreateThread+0xeb>
80006a09:	8d b4 26 00 00 00 00 	lea    0x0(%esi,1),%esi

80006a10 <ProcessManager_UpdateThreads>:
80006a10:	55                   	push   %ebp
80006a11:	89 e5                	mov    %esp,%ebp
80006a13:	31 c9                	xor    %ecx,%ecx
80006a15:	83 ec 08             	sub    $0x8,%esp
80006a18:	90                   	nop    
80006a19:	8d b4 26 00 00 00 00 	lea    0x0(%esi,1),%esi
80006a20:	89 0c 24             	mov    %ecx,(%esp,1)
80006a23:	c7 44 24 04 02 00 00 	movl   $0x2,0x4(%esp,1)
80006a2a:	00 
80006a2b:	e8 c0 f5 ff ff       	call   80005ff0 <ObjectManager_SearchInClass>
80006a30:	85 c0                	test   %eax,%eax
80006a32:	89 c1                	mov    %eax,%ecx
80006a34:	74 3a                	je     80006a70 <ProcessManager_UpdateThreads+0x60>
80006a36:	8b 50 4c             	mov    0x4c(%eax),%edx
80006a39:	8b 42 30             	mov    0x30(%edx),%eax
80006a3c:	83 f8 03             	cmp    $0x3,%eax
80006a3f:	74 0d                	je     80006a4e <ProcessManager_UpdateThreads+0x3e>
80006a41:	48                   	dec    %eax
80006a42:	75 dc                	jne    80006a20 <ProcessManager_UpdateThreads+0x10>
80006a44:	83 42 44 01          	addl   $0x1,0x44(%edx)
80006a48:	83 52 48 00          	adcl   $0x0,0x48(%edx)
80006a4c:	eb d2                	jmp    80006a20 <ProcessManager_UpdateThreads+0x10>
80006a4e:	8b 42 40             	mov    0x40(%edx),%eax
80006a51:	85 c0                	test   %eax,%eax
80006a53:	74 cb                	je     80006a20 <ProcessManager_UpdateThreads+0x10>
80006a55:	8b 42 3c             	mov    0x3c(%edx),%eax
80006a58:	48                   	dec    %eax
80006a59:	85 c0                	test   %eax,%eax
80006a5b:	89 42 3c             	mov    %eax,0x3c(%edx)
80006a5e:	75 c0                	jne    80006a20 <ProcessManager_UpdateThreads+0x10>
80006a60:	c7 42 30 02 00 00 00 	movl   $0x2,0x30(%edx)
80006a67:	eb b7                	jmp    80006a20 <ProcessManager_UpdateThreads+0x10>
80006a69:	8d b4 26 00 00 00 00 	lea    0x0(%esi,1),%esi
80006a70:	c9                   	leave  
80006a71:	c3                   	ret    
80006a72:	8d b4 26 00 00 00 00 	lea    0x0(%esi,1),%esi
80006a79:	8d bc 27 00 00 00 00 	lea    0x0(%edi,1),%edi

80006a80 <ProcessManager_CreateModuleInterface>:
80006a80:	55                   	push   %ebp
80006a81:	89 e5                	mov    %esp,%ebp
80006a83:	83 ec 18             	sub    $0x18,%esp
80006a86:	c7 04 24 a7 a3 00 80 	movl   $0x8000a3a7,(%esp,1)
80006a8d:	e8 4e e7 ff ff       	call   800051e0 <ModuleManager_CreateModule>
80006a92:	c7 44 24 08 b0 6e 00 	movl   $0x80006eb0,0x8(%esp,1)
80006a99:	80 
80006a9a:	c7 44 24 04 b6 a3 00 	movl   $0x8000a3b6,0x4(%esp,1)
80006aa1:	80 
80006aa2:	c7 04 24 a7 a3 00 80 	movl   $0x8000a3a7,(%esp,1)
80006aa9:	e8 d2 e7 ff ff       	call   80005280 <ModuleManager_CreateModuleCall>
80006aae:	c7 44 24 08 00 6f 00 	movl   $0x80006f00,0x8(%esp,1)
80006ab5:	80 
80006ab6:	c7 44 24 04 c3 a3 00 	movl   $0x8000a3c3,0x4(%esp,1)
80006abd:	80 
80006abe:	c7 04 24 a7 a3 00 80 	movl   $0x8000a3a7,(%esp,1)
80006ac5:	e8 b6 e7 ff ff       	call   80005280 <ModuleManager_CreateModuleCall>
80006aca:	c7 44 24 08 60 6f 00 	movl   $0x80006f60,0x8(%esp,1)
80006ad1:	80 
80006ad2:	c7 44 24 04 cd a3 00 	movl   $0x8000a3cd,0x4(%esp,1)
80006ad9:	80 
80006ada:	c7 04 24 a7 a3 00 80 	movl   $0x8000a3a7,(%esp,1)
80006ae1:	e8 9a e7 ff ff       	call   80005280 <ModuleManager_CreateModuleCall>
80006ae6:	c7 44 24 08 d0 6f 00 	movl   $0x80006fd0,0x8(%esp,1)
80006aed:	80 
80006aee:	c7 44 24 04 da a3 00 	movl   $0x8000a3da,0x4(%esp,1)
80006af5:	80 
80006af6:	c7 04 24 a7 a3 00 80 	movl   $0x8000a3a7,(%esp,1)
80006afd:	e8 7e e7 ff ff       	call   80005280 <ModuleManager_CreateModuleCall>
80006b02:	c7 44 24 08 30 70 00 	movl   $0x80007030,0x8(%esp,1)
80006b09:	80 
80006b0a:	c7 44 24 04 e0 a3 00 	movl   $0x8000a3e0,0x4(%esp,1)
80006b11:	80 
80006b12:	c7 04 24 a7 a3 00 80 	movl   $0x8000a3a7,(%esp,1)
80006b19:	e8 62 e7 ff ff       	call   80005280 <ModuleManager_CreateModuleCall>
80006b1e:	89 ec                	mov    %ebp,%esp
80006b20:	5d                   	pop    %ebp
80006b21:	c3                   	ret    
80006b22:	8d b4 26 00 00 00 00 	lea    0x0(%esi,1),%esi
80006b29:	8d bc 27 00 00 00 00 	lea    0x0(%edi,1),%edi

80006b30 <ProcessManager_GetThreadObject>:
80006b30:	55                   	push   %ebp
80006b31:	89 e5                	mov    %esp,%ebp
80006b33:	83 ec 18             	sub    $0x18,%esp
80006b36:	c7 44 24 04 02 00 00 	movl   $0x2,0x4(%esp,1)
80006b3d:	00 
80006b3e:	8b 45 08             	mov    0x8(%ebp),%eax
80006b41:	c7 04 24 00 00 00 00 	movl   $0x0,(%esp,1)
80006b48:	89 44 24 08          	mov    %eax,0x8(%esp,1)
80006b4c:	e8 df f4 ff ff       	call   80006030 <ObjectManager_SearchInClassTypeIndex>
80006b51:	31 d2                	xor    %edx,%edx
80006b53:	85 c0                	test   %eax,%eax
80006b55:	74 03                	je     80006b5a <ProcessManager_GetThreadObject+0x2a>
80006b57:	8b 50 4c             	mov    0x4c(%eax),%edx
80006b5a:	89 ec                	mov    %ebp,%esp
80006b5c:	89 d0                	mov    %edx,%eax
80006b5e:	5d                   	pop    %ebp
80006b5f:	c3                   	ret    

80006b60 <ProcessManager_RunThread>:
80006b60:	55                   	push   %ebp
80006b61:	89 e5                	mov    %esp,%ebp
80006b63:	83 ec 18             	sub    $0x18,%esp
80006b66:	e8 55 ed ff ff       	call   800058c0 <ObjectManager_Lock>
80006b6b:	c7 04 24 00 00 00 00 	movl   $0x0,(%esp,1)
80006b72:	8b 45 08             	mov    0x8(%ebp),%eax
80006b75:	c7 44 24 04 02 00 00 	movl   $0x2,0x4(%esp,1)
80006b7c:	00 
80006b7d:	89 44 24 08          	mov    %eax,0x8(%esp,1)
80006b81:	e8 aa f4 ff ff       	call   80006030 <ObjectManager_SearchInClassTypeIndex>
80006b86:	31 d2                	xor    %edx,%edx
80006b88:	85 c0                	test   %eax,%eax
80006b8a:	74 03                	je     80006b8f <ProcessManager_RunThread+0x2f>
80006b8c:	8b 50 4c             	mov    0x4c(%eax),%edx
80006b8f:	85 d2                	test   %edx,%edx
80006b91:	74 07                	je     80006b9a <ProcessManager_RunThread+0x3a>
80006b93:	c7 42 30 02 00 00 00 	movl   $0x2,0x30(%edx)
80006b9a:	e8 41 ed ff ff       	call   800058e0 <ObjectManager_Unlock>
80006b9f:	89 ec                	mov    %ebp,%esp
80006ba1:	31 c0                	xor    %eax,%eax
80006ba3:	5d                   	pop    %ebp
80006ba4:	c3                   	ret    
80006ba5:	8d 74 26 00          	lea    0x0(%esi,1),%esi
80006ba9:	8d bc 27 00 00 00 00 	lea    0x0(%edi,1),%edi

80006bb0 <ProcessManager_GetNextThread>:
80006bb0:	55                   	push   %ebp
80006bb1:	89 e5                	mov    %esp,%ebp
80006bb3:	53                   	push   %ebx
80006bb4:	83 ec 14             	sub    $0x14,%esp
80006bb7:	8b 5d 08             	mov    0x8(%ebp),%ebx
80006bba:	89 da                	mov    %ebx,%edx
80006bbc:	8d 74 26 00          	lea    0x0(%esi,1),%esi
80006bc0:	89 14 24             	mov    %edx,(%esp,1)
80006bc3:	c7 44 24 04 02 00 00 	movl   $0x2,0x4(%esp,1)
80006bca:	00 
80006bcb:	e8 20 f4 ff ff       	call   80005ff0 <ObjectManager_SearchInClass>
80006bd0:	85 c0                	test   %eax,%eax
80006bd2:	89 c2                	mov    %eax,%edx
80006bd4:	74 15                	je     80006beb <ProcessManager_GetNextThread+0x3b>
80006bd6:	39 da                	cmp    %ebx,%edx
80006bd8:	74 09                	je     80006be3 <ProcessManager_GetNextThread+0x33>
80006bda:	8b 42 4c             	mov    0x4c(%edx),%eax
80006bdd:	83 78 30 02          	cmpl   $0x2,0x30(%eax)
80006be1:	75 dd                	jne    80006bc0 <ProcessManager_GetNextThread+0x10>
80006be3:	83 c4 14             	add    $0x14,%esp
80006be6:	89 d0                	mov    %edx,%eax
80006be8:	5b                   	pop    %ebx
80006be9:	5d                   	pop    %ebp
80006bea:	c3                   	ret    
80006beb:	c7 44 24 04 02 00 00 	movl   $0x2,0x4(%esp,1)
80006bf2:	00 
80006bf3:	c7 04 24 00 00 00 00 	movl   $0x0,(%esp,1)
80006bfa:	e8 f1 f3 ff ff       	call   80005ff0 <ObjectManager_SearchInClass>
80006bff:	89 c2                	mov    %eax,%edx
80006c01:	eb d3                	jmp    80006bd6 <ProcessManager_GetNextThread+0x26>
80006c03:	8d b6 00 00 00 00    	lea    0x0(%esi),%esi
80006c09:	8d bc 27 00 00 00 00 	lea    0x0(%edi,1),%edi

80006c10 <ProcessManager_SaveContext>:
80006c10:	55                   	push   %ebp
80006c11:	89 e5                	mov    %esp,%ebp
80006c13:	83 ec 18             	sub    $0x18,%esp
80006c16:	89 75 fc             	mov    %esi,0xfffffffc(%ebp)
80006c19:	a1 1c ad 00 80       	mov    0x8000ad1c,%eax
80006c1e:	8b 75 08             	mov    0x8(%ebp),%esi
80006c21:	89 5d f8             	mov    %ebx,0xfffffff8(%ebp)
80006c24:	8b 58 4c             	mov    0x4c(%eax),%ebx
80006c27:	8b 53 2c             	mov    0x2c(%ebx),%edx
80006c2a:	83 fa 08             	cmp    $0x8,%edx
80006c2d:	74 21                	je     80006c50 <ProcessManager_SaveContext+0x40>
80006c2f:	0f b7 4e 04          	movzwl 0x4(%esi),%ecx
80006c33:	89 4b 04             	mov    %ecx,0x4(%ebx)
80006c36:	8d 4a 01             	lea    0x1(%edx),%ecx
80006c39:	8b 06                	mov    (%esi),%eax
80006c3b:	89 4b 2c             	mov    %ecx,0x2c(%ebx)
80006c3e:	89 44 93 08          	mov    %eax,0x8(%ebx,%edx,4)
80006c42:	8b 5d f8             	mov    0xfffffff8(%ebp),%ebx
80006c45:	8b 75 fc             	mov    0xfffffffc(%ebp),%esi
80006c48:	89 ec                	mov    %ebp,%esp
80006c4a:	5d                   	pop    %ebp
80006c4b:	c3                   	ret    
80006c4c:	8d 74 26 00          	lea    0x0(%esi,1),%esi
80006c50:	c7 44 24 04 20 a4 00 	movl   $0x8000a420,0x4(%esp,1)
80006c57:	80 
80006c58:	c7 04 24 64 a3 00 80 	movl   $0x8000a364,(%esp,1)
80006c5f:	e8 9c 05 00 00       	call   80007200 <KPrint>
80006c64:	e8 80 9d ff ff       	call   800009e9 <halt>
80006c69:	8b 53 2c             	mov    0x2c(%ebx),%edx
80006c6c:	eb c1                	jmp    80006c2f <ProcessManager_SaveContext+0x1f>
80006c6e:	89 f6                	mov    %esi,%esi

80006c70 <ProcessManager_RestoreContext>:
80006c70:	55                   	push   %ebp
80006c71:	a1 1c ad 00 80       	mov    0x8000ad1c,%eax
80006c76:	89 e5                	mov    %esp,%ebp
80006c78:	53                   	push   %ebx
80006c79:	8b 5d 08             	mov    0x8(%ebp),%ebx
80006c7c:	8b 40 4c             	mov    0x4c(%eax),%eax
80006c7f:	0f b7 50 04          	movzwl 0x4(%eax),%edx
80006c83:	8b 48 2c             	mov    0x2c(%eax),%ecx
80006c86:	49                   	dec    %ecx
80006c87:	89 48 2c             	mov    %ecx,0x2c(%eax)
80006c8a:	8b 44 88 08          	mov    0x8(%eax,%ecx,4),%eax
80006c8e:	66 89 53 04          	mov    %dx,0x4(%ebx)
80006c92:	89 03                	mov    %eax,(%ebx)
80006c94:	5b                   	pop    %ebx
80006c95:	5d                   	pop    %ebp
80006c96:	c3                   	ret    
80006c97:	89 f6                	mov    %esi,%esi
80006c99:	8d bc 27 00 00 00 00 	lea    0x0(%edi,1),%edi

80006ca0 <ProcessManager_NextThread>:
80006ca0:	55                   	push   %ebp
80006ca1:	89 e5                	mov    %esp,%ebp
80006ca3:	31 d2                	xor    %edx,%edx
80006ca5:	57                   	push   %edi
80006ca6:	56                   	push   %esi
80006ca7:	53                   	push   %ebx
80006ca8:	83 ec 0c             	sub    $0xc,%esp
80006cab:	89 15 f8 aa 00 80    	mov    %edx,0x8000aaf8
80006cb1:	e8 5a fd ff ff       	call   80006a10 <ProcessManager_UpdateThreads>
80006cb6:	a1 1c ad 00 80       	mov    0x8000ad1c,%eax
80006cbb:	8b 48 4c             	mov    0x4c(%eax),%ecx
80006cbe:	89 c3                	mov    %eax,%ebx
80006cc0:	89 c6                	mov    %eax,%esi
80006cc2:	89 4d f0             	mov    %ecx,0xfffffff0(%ebp)
80006cc5:	8d 74 26 00          	lea    0x0(%esi,1),%esi
80006cc9:	8d bc 27 00 00 00 00 	lea    0x0(%edi,1),%edi
80006cd0:	89 1c 24             	mov    %ebx,(%esp,1)
80006cd3:	c7 44 24 04 02 00 00 	movl   $0x2,0x4(%esp,1)
80006cda:	00 
80006cdb:	e8 10 f3 ff ff       	call   80005ff0 <ObjectManager_SearchInClass>
80006ce0:	85 c0                	test   %eax,%eax
80006ce2:	89 c3                	mov    %eax,%ebx
80006ce4:	0f 84 a3 00 00 00    	je     80006d8d <ProcessManager_NextThread+0xed>
80006cea:	39 f3                	cmp    %esi,%ebx
80006cec:	74 09                	je     80006cf7 <ProcessManager_NextThread+0x57>
80006cee:	8b 43 4c             	mov    0x4c(%ebx),%eax
80006cf1:	83 78 30 02          	cmpl   $0x2,0x30(%eax)
80006cf5:	75 d9                	jne    80006cd0 <ProcessManager_NextThread+0x30>
80006cf7:	8b 7b 4c             	mov    0x4c(%ebx),%edi
80006cfa:	39 7d f0             	cmp    %edi,0xfffffff0(%ebp)
80006cfd:	74 5f                	je     80006d5e <ProcessManager_NextThread+0xbe>
80006cff:	a1 1c ad 00 80       	mov    0x8000ad1c,%eax
80006d04:	8b 70 4c             	mov    0x4c(%eax),%esi
80006d07:	8b 56 2c             	mov    0x2c(%esi),%edx
80006d0a:	83 fa 08             	cmp    $0x8,%edx
80006d0d:	74 60                	je     80006d6f <ProcessManager_NextThread+0xcf>
80006d0f:	8b 4d 08             	mov    0x8(%ebp),%ecx
80006d12:	0f b7 41 04          	movzwl 0x4(%ecx),%eax
80006d16:	89 46 04             	mov    %eax,0x4(%esi)
80006d19:	8b 01                	mov    (%ecx),%eax
80006d1b:	8d 4a 01             	lea    0x1(%edx),%ecx
80006d1e:	89 4e 2c             	mov    %ecx,0x2c(%esi)
80006d21:	89 44 96 08          	mov    %eax,0x8(%esi,%edx,4)
80006d25:	8b 45 f0             	mov    0xfffffff0(%ebp),%eax
80006d28:	83 78 30 01          	cmpl   $0x1,0x30(%eax)
80006d2c:	74 38                	je     80006d66 <ProcessManager_NextThread+0xc6>
80006d2e:	c7 47 30 01 00 00 00 	movl   $0x1,0x30(%edi)
80006d35:	8b 47 28             	mov    0x28(%edi),%eax
80006d38:	8b 75 08             	mov    0x8(%ebp),%esi
80006d3b:	89 1d 1c ad 00 80    	mov    %ebx,0x8000ad1c
80006d41:	a3 24 ad 00 80       	mov    %eax,0x8000ad24
80006d46:	8b 43 4c             	mov    0x4c(%ebx),%eax
80006d49:	8b 58 2c             	mov    0x2c(%eax),%ebx
80006d4c:	0f b7 78 04          	movzwl 0x4(%eax),%edi
80006d50:	4b                   	dec    %ebx
80006d51:	89 58 2c             	mov    %ebx,0x2c(%eax)
80006d54:	8b 44 98 08          	mov    0x8(%eax,%ebx,4),%eax
80006d58:	66 89 7e 04          	mov    %di,0x4(%esi)
80006d5c:	89 06                	mov    %eax,(%esi)
80006d5e:	83 c4 0c             	add    $0xc,%esp
80006d61:	5b                   	pop    %ebx
80006d62:	5e                   	pop    %esi
80006d63:	5f                   	pop    %edi
80006d64:	5d                   	pop    %ebp
80006d65:	c3                   	ret    
80006d66:	c7 40 30 02 00 00 00 	movl   $0x2,0x30(%eax)
80006d6d:	eb bf                	jmp    80006d2e <ProcessManager_NextThread+0x8e>
80006d6f:	c7 44 24 04 20 a4 00 	movl   $0x8000a420,0x4(%esp,1)
80006d76:	80 
80006d77:	c7 04 24 64 a3 00 80 	movl   $0x8000a364,(%esp,1)
80006d7e:	e8 7d 04 00 00       	call   80007200 <KPrint>
80006d83:	e8 61 9c ff ff       	call   800009e9 <halt>
80006d88:	8b 56 2c             	mov    0x2c(%esi),%edx
80006d8b:	eb 82                	jmp    80006d0f <ProcessManager_NextThread+0x6f>
80006d8d:	c7 44 24 04 02 00 00 	movl   $0x2,0x4(%esp,1)
80006d94:	00 
80006d95:	c7 04 24 00 00 00 00 	movl   $0x0,(%esp,1)
80006d9c:	e8 4f f2 ff ff       	call   80005ff0 <ObjectManager_SearchInClass>
80006da1:	89 c3                	mov    %eax,%ebx
80006da3:	e9 42 ff ff ff       	jmp    80006cea <ProcessManager_NextThread+0x4a>
80006da8:	90                   	nop    
80006da9:	8d b4 26 00 00 00 00 	lea    0x0(%esi,1),%esi

80006db0 <ProcessManager_Preempt>:
80006db0:	55                   	push   %ebp
80006db1:	89 e5                	mov    %esp,%ebp
80006db3:	83 ec 08             	sub    $0x8,%esp
80006db6:	a1 e0 aa 00 80       	mov    0x8000aae0,%eax
80006dbb:	85 c0                	test   %eax,%eax
80006dbd:	74 41                	je     80006e00 <ProcessManager_Preempt+0x50>
80006dbf:	b8 01 00 00 00       	mov    $0x1,%eax
80006dc4:	a3 f8 aa 00 80       	mov    %eax,0x8000aaf8
80006dc9:	0f b6 15 24 ad 00 80 	movzbl 0x8000ad24,%edx
80006dd0:	8b 0d 1c af 00 80    	mov    0x8000af1c,%ecx
80006dd6:	80 c2 30             	add    $0x30,%dl
80006dd9:	88 91 9e 00 00 00    	mov    %dl,0x9e(%ecx)
80006ddf:	a1 1c af 00 80       	mov    0x8000af1c,%eax
80006de4:	c6 80 9f 00 00 00 0f 	movb   $0xf,0x9f(%eax)
80006deb:	89 ec                	mov    %ebp,%esp
80006ded:	31 c0                	xor    %eax,%eax
80006def:	5d                   	pop    %ebp
80006df0:	c3                   	ret    
80006df1:	eb 0d                	jmp    80006e00 <ProcessManager_Preempt+0x50>
80006df3:	90                   	nop    
80006df4:	90                   	nop    
80006df5:	90                   	nop    
80006df6:	90                   	nop    
80006df7:	90                   	nop    
80006df8:	90                   	nop    
80006df9:	90                   	nop    
80006dfa:	90                   	nop    
80006dfb:	90                   	nop    
80006dfc:	90                   	nop    
80006dfd:	90                   	nop    
80006dfe:	90                   	nop    
80006dff:	90                   	nop    
80006e00:	e8 bb ea ff ff       	call   800058c0 <ObjectManager_Lock>
80006e05:	8b 45 08             	mov    0x8(%ebp),%eax
80006e08:	89 04 24             	mov    %eax,(%esp,1)
80006e0b:	e8 90 fe ff ff       	call   80006ca0 <ProcessManager_NextThread>
80006e10:	e8 cb ea ff ff       	call   800058e0 <ObjectManager_Unlock>
80006e15:	eb b2                	jmp    80006dc9 <ProcessManager_Preempt+0x19>
80006e17:	89 f6                	mov    %esi,%esi
80006e19:	8d bc 27 00 00 00 00 	lea    0x0(%edi,1),%edi

80006e20 <ProcessManager_Sleep>:
80006e20:	55                   	push   %ebp
80006e21:	89 e5                	mov    %esp,%ebp
80006e23:	83 ec 08             	sub    $0x8,%esp
80006e26:	89 5d fc             	mov    %ebx,0xfffffffc(%ebp)
80006e29:	8b 5d 08             	mov    0x8(%ebp),%ebx
80006e2c:	e8 8f ea ff ff       	call   800058c0 <ObjectManager_Lock>
80006e31:	a1 1c ad 00 80       	mov    0x8000ad1c,%eax
80006e36:	8b 40 4c             	mov    0x4c(%eax),%eax
80006e39:	89 58 3c             	mov    %ebx,0x3c(%eax)
80006e3c:	89 58 40             	mov    %ebx,0x40(%eax)
80006e3f:	c7 40 30 03 00 00 00 	movl   $0x3,0x30(%eax)
80006e46:	e8 95 ea ff ff       	call   800058e0 <ObjectManager_Unlock>
80006e4b:	8b 5d fc             	mov    0xfffffffc(%ebp),%ebx
80006e4e:	31 c0                	xor    %eax,%eax
80006e50:	89 ec                	mov    %ebp,%esp
80006e52:	5d                   	pop    %ebp
80006e53:	c3                   	ret    
80006e54:	8d b6 00 00 00 00    	lea    0x0(%esi),%esi
80006e5a:	8d bf 00 00 00 00    	lea    0x0(%edi),%edi

80006e60 <ProcessManager_Awaken>:
80006e60:	55                   	push   %ebp
80006e61:	89 e5                	mov    %esp,%ebp
80006e63:	83 ec 18             	sub    $0x18,%esp
80006e66:	e8 55 ea ff ff       	call   800058c0 <ObjectManager_Lock>
80006e6b:	c7 04 24 00 00 00 00 	movl   $0x0,(%esp,1)
80006e72:	8b 45 08             	mov    0x8(%ebp),%eax
80006e75:	c7 44 24 04 02 00 00 	movl   $0x2,0x4(%esp,1)
80006e7c:	00 
80006e7d:	89 44 24 08          	mov    %eax,0x8(%esp,1)
80006e81:	e8 aa f1 ff ff       	call   80006030 <ObjectManager_SearchInClassTypeIndex>
80006e86:	31 d2                	xor    %edx,%edx
80006e88:	85 c0                	test   %eax,%eax
80006e8a:	74 03                	je     80006e8f <ProcessManager_Awaken+0x2f>
80006e8c:	8b 50 4c             	mov    0x4c(%eax),%edx
80006e8f:	83 7a 30 03          	cmpl   $0x3,0x30(%edx)
80006e93:	74 0b                	je     80006ea0 <ProcessManager_Awaken+0x40>
80006e95:	e8 46 ea ff ff       	call   800058e0 <ObjectManager_Unlock>
80006e9a:	89 ec                	mov    %ebp,%esp
80006e9c:	31 c0                	xor    %eax,%eax
80006e9e:	5d                   	pop    %ebp
80006e9f:	c3                   	ret    
80006ea0:	c7 42 30 02 00 00 00 	movl   $0x2,0x30(%edx)
80006ea7:	eb ec                	jmp    80006e95 <ProcessManager_Awaken+0x35>
80006ea9:	8d b4 26 00 00 00 00 	lea    0x0(%esi,1),%esi

80006eb0 <ProcessManager_Call_CreateThread>:
80006eb0:	55                   	push   %ebp
80006eb1:	89 e5                	mov    %esp,%ebp
80006eb3:	83 ec 18             	sub    $0x18,%esp
80006eb6:	89 5d fc             	mov    %ebx,0xfffffffc(%ebp)
80006eb9:	8b 55 0c             	mov    0xc(%ebp),%edx
80006ebc:	8b 42 0c             	mov    0xc(%edx),%eax
80006ebf:	8b 5c 82 10          	mov    0x10(%edx,%eax,4),%ebx
80006ec3:	8b 4c 82 14          	mov    0x14(%edx,%eax,4),%ecx
80006ec7:	83 c0 02             	add    $0x2,%eax
80006eca:	89 42 0c             	mov    %eax,0xc(%edx)
80006ecd:	a1 18 ad 00 80       	mov    0x8000ad18,%eax
80006ed2:	8b 50 4c             	mov    0x4c(%eax),%edx
80006ed5:	89 5c 24 04          	mov    %ebx,0x4(%esp,1)
80006ed9:	8d 45 f8             	lea    0xfffffff8(%ebp),%eax
80006edc:	89 44 24 0c          	mov    %eax,0xc(%esp,1)
80006ee0:	89 4c 24 08          	mov    %ecx,0x8(%esp,1)
80006ee4:	89 14 24             	mov    %edx,(%esp,1)
80006ee7:	e8 64 f9 ff ff       	call   80006850 <ProcessManager_CreateThread>
80006eec:	8b 5d fc             	mov    0xfffffffc(%ebp),%ebx
80006eef:	89 ec                	mov    %ebp,%esp
80006ef1:	5d                   	pop    %ebp
80006ef2:	c3                   	ret    
80006ef3:	8d b6 00 00 00 00    	lea    0x0(%esi),%esi
80006ef9:	8d bc 27 00 00 00 00 	lea    0x0(%edi,1),%edi

80006f00 <ProcessManager_Call_RunThread>:
80006f00:	55                   	push   %ebp
80006f01:	89 e5                	mov    %esp,%ebp
80006f03:	83 ec 18             	sub    $0x18,%esp
80006f06:	89 5d fc             	mov    %ebx,0xfffffffc(%ebp)
80006f09:	8b 45 0c             	mov    0xc(%ebp),%eax
80006f0c:	8b 48 0c             	mov    0xc(%eax),%ecx
80006f0f:	8b 5c 88 10          	mov    0x10(%eax,%ecx,4),%ebx
80006f13:	41                   	inc    %ecx
80006f14:	89 48 0c             	mov    %ecx,0xc(%eax)
80006f17:	e8 a4 e9 ff ff       	call   800058c0 <ObjectManager_Lock>
80006f1c:	c7 04 24 00 00 00 00 	movl   $0x0,(%esp,1)
80006f23:	89 5c 24 08          	mov    %ebx,0x8(%esp,1)
80006f27:	c7 44 24 04 02 00 00 	movl   $0x2,0x4(%esp,1)
80006f2e:	00 
80006f2f:	e8 fc f0 ff ff       	call   80006030 <ObjectManager_SearchInClassTypeIndex>
80006f34:	31 d2                	xor    %edx,%edx
80006f36:	85 c0                	test   %eax,%eax
80006f38:	74 03                	je     80006f3d <ProcessManager_Call_RunThread+0x3d>
80006f3a:	8b 50 4c             	mov    0x4c(%eax),%edx
80006f3d:	85 d2                	test   %edx,%edx
80006f3f:	74 07                	je     80006f48 <ProcessManager_Call_RunThread+0x48>
80006f41:	c7 42 30 02 00 00 00 	movl   $0x2,0x30(%edx)
80006f48:	e8 93 e9 ff ff       	call   800058e0 <ObjectManager_Unlock>
80006f4d:	8b 5d fc             	mov    0xfffffffc(%ebp),%ebx
80006f50:	31 c0                	xor    %eax,%eax
80006f52:	89 ec                	mov    %ebp,%esp
80006f54:	5d                   	pop    %ebp
80006f55:	c3                   	ret    
80006f56:	8d 76 00             	lea    0x0(%esi),%esi
80006f59:	8d bc 27 00 00 00 00 	lea    0x0(%edi,1),%edi

80006f60 <ProcessManager_Call_AwakenThread>:
80006f60:	55                   	push   %ebp
80006f61:	89 e5                	mov    %esp,%ebp
80006f63:	83 ec 18             	sub    $0x18,%esp
80006f66:	89 5d fc             	mov    %ebx,0xfffffffc(%ebp)
80006f69:	8b 45 0c             	mov    0xc(%ebp),%eax
80006f6c:	8b 48 0c             	mov    0xc(%eax),%ecx
80006f6f:	8b 5c 88 10          	mov    0x10(%eax,%ecx,4),%ebx
80006f73:	41                   	inc    %ecx
80006f74:	89 48 0c             	mov    %ecx,0xc(%eax)
80006f77:	e8 44 e9 ff ff       	call   800058c0 <ObjectManager_Lock>
80006f7c:	c7 04 24 00 00 00 00 	movl   $0x0,(%esp,1)
80006f83:	89 5c 24 08          	mov    %ebx,0x8(%esp,1)
80006f87:	c7 44 24 04 02 00 00 	movl   $0x2,0x4(%esp,1)
80006f8e:	00 
80006f8f:	e8 9c f0 ff ff       	call   80006030 <ObjectManager_SearchInClassTypeIndex>
80006f94:	31 d2                	xor    %edx,%edx
80006f96:	85 c0                	test   %eax,%eax
80006f98:	74 03                	je     80006f9d <ProcessManager_Call_AwakenThread+0x3d>
80006f9a:	8b 50 4c             	mov    0x4c(%eax),%edx
80006f9d:	83 7a 30 03          	cmpl   $0x3,0x30(%edx)
80006fa1:	74 1d                	je     80006fc0 <ProcessManager_Call_AwakenThread+0x60>
80006fa3:	e8 38 e9 ff ff       	call   800058e0 <ObjectManager_Unlock>
80006fa8:	8b 5d fc             	mov    0xfffffffc(%ebp),%ebx
80006fab:	31 c0                	xor    %eax,%eax
80006fad:	89 ec                	mov    %ebp,%esp
80006faf:	5d                   	pop    %ebp
80006fb0:	c3                   	ret    
80006fb1:	eb 0d                	jmp    80006fc0 <ProcessManager_Call_AwakenThread+0x60>
80006fb3:	90                   	nop    
80006fb4:	90                   	nop    
80006fb5:	90                   	nop    
80006fb6:	90                   	nop    
80006fb7:	90                   	nop    
80006fb8:	90                   	nop    
80006fb9:	90                   	nop    
80006fba:	90                   	nop    
80006fbb:	90                   	nop    
80006fbc:	90                   	nop    
80006fbd:	90                   	nop    
80006fbe:	90                   	nop    
80006fbf:	90                   	nop    
80006fc0:	c7 42 30 02 00 00 00 	movl   $0x2,0x30(%edx)
80006fc7:	eb da                	jmp    80006fa3 <ProcessManager_Call_AwakenThread+0x43>
80006fc9:	8d b4 26 00 00 00 00 	lea    0x0(%esi,1),%esi

80006fd0 <ProcessManager_Call_Sleep>:
80006fd0:	55                   	push   %ebp
80006fd1:	89 e5                	mov    %esp,%ebp
80006fd3:	83 ec 08             	sub    $0x8,%esp
80006fd6:	89 5d fc             	mov    %ebx,0xfffffffc(%ebp)
80006fd9:	8b 4d 0c             	mov    0xc(%ebp),%ecx
80006fdc:	8b 41 0c             	mov    0xc(%ecx),%eax
80006fdf:	8b 5c 81 10          	mov    0x10(%ecx,%eax,4),%ebx
80006fe3:	40                   	inc    %eax
80006fe4:	89 41 0c             	mov    %eax,0xc(%ecx)
80006fe7:	e8 d4 e8 ff ff       	call   800058c0 <ObjectManager_Lock>
80006fec:	a1 1c ad 00 80       	mov    0x8000ad1c,%eax
80006ff1:	8b 40 4c             	mov    0x4c(%eax),%eax
80006ff4:	89 58 3c             	mov    %ebx,0x3c(%eax)
80006ff7:	89 58 40             	mov    %ebx,0x40(%eax)
80006ffa:	c7 40 30 03 00 00 00 	movl   $0x3,0x30(%eax)
80007001:	e8 da e8 ff ff       	call   800058e0 <ObjectManager_Unlock>
80007006:	e8 b5 e8 ff ff       	call   800058c0 <ObjectManager_Lock>
8000700b:	8b 45 08             	mov    0x8(%ebp),%eax
8000700e:	89 04 24             	mov    %eax,(%esp,1)
80007011:	e8 8a fc ff ff       	call   80006ca0 <ProcessManager_NextThread>
80007016:	e8 c5 e8 ff ff       	call   800058e0 <ObjectManager_Unlock>
8000701b:	8b 5d fc             	mov    0xfffffffc(%ebp),%ebx
8000701e:	89 ec                	mov    %ebp,%esp
80007020:	31 c0                	xor    %eax,%eax
80007022:	5d                   	pop    %ebp
80007023:	c3                   	ret    
80007024:	8d b6 00 00 00 00    	lea    0x0(%esi),%esi
8000702a:	8d bf 00 00 00 00    	lea    0x0(%edi),%edi

80007030 <ProcessManager_Call_Relinquish>:
80007030:	55                   	push   %ebp
80007031:	89 e5                	mov    %esp,%ebp
80007033:	83 ec 08             	sub    $0x8,%esp
80007036:	e8 85 e8 ff ff       	call   800058c0 <ObjectManager_Lock>
8000703b:	8b 45 08             	mov    0x8(%ebp),%eax
8000703e:	89 04 24             	mov    %eax,(%esp,1)
80007041:	e8 5a fc ff ff       	call   80006ca0 <ProcessManager_NextThread>
80007046:	e8 95 e8 ff ff       	call   800058e0 <ObjectManager_Unlock>
8000704b:	89 ec                	mov    %ebp,%esp
8000704d:	31 c0                	xor    %eax,%eax
8000704f:	5d                   	pop    %ebp
80007050:	c3                   	ret    
	...

80007060 <PIC_Init>:
80007060:	55                   	push   %ebp
80007061:	89 e5                	mov    %esp,%ebp
80007063:	83 ec 08             	sub    $0x8,%esp
80007066:	0f b6 0d fc aa 00 80 	movzbl 0x8000aafc,%ecx
8000706d:	88 c8                	mov    %cl,%al
8000706f:	e6 21                	out    %al,$0x21
80007071:	0f b6 15 fd aa 00 80 	movzbl 0x8000aafd,%edx
80007078:	88 d0                	mov    %dl,%al
8000707a:	e6 a1                	out    %al,$0xa1
8000707c:	b0 11                	mov    $0x11,%al
8000707e:	e6 20                	out    %al,$0x20
80007080:	b0 20                	mov    $0x20,%al
80007082:	e6 21                	out    %al,$0x21
80007084:	b0 04                	mov    $0x4,%al
80007086:	e6 21                	out    %al,$0x21
80007088:	b0 01                	mov    $0x1,%al
8000708a:	e6 21                	out    %al,$0x21
8000708c:	b0 11                	mov    $0x11,%al
8000708e:	e6 a0                	out    %al,$0xa0
80007090:	b0 28                	mov    $0x28,%al
80007092:	e6 a1                	out    %al,$0xa1
80007094:	b0 02                	mov    $0x2,%al
80007096:	e6 a1                	out    %al,$0xa1
80007098:	b0 01                	mov    $0x1,%al
8000709a:	e6 a1                	out    %al,$0xa1
8000709c:	88 c8                	mov    %cl,%al
8000709e:	e6 21                	out    %al,$0x21
800070a0:	88 d0                	mov    %dl,%al
800070a2:	e6 a1                	out    %al,$0xa1
800070a4:	c7 44 24 04 4b a4 00 	movl   $0x8000a44b,0x4(%esp,1)
800070ab:	80 
800070ac:	c7 04 24 5c a4 00 80 	movl   $0x8000a45c,(%esp,1)
800070b3:	e8 48 01 00 00       	call   80007200 <KPrint>
800070b8:	89 ec                	mov    %ebp,%esp
800070ba:	5d                   	pop    %ebp
800070bb:	c3                   	ret    
800070bc:	8d 74 26 00          	lea    0x0(%esi,1),%esi

800070c0 <PIC_EnableIRQ>:
800070c0:	55                   	push   %ebp
800070c1:	b8 fe ff ff ff       	mov    $0xfffffffe,%eax
800070c6:	89 e5                	mov    %esp,%ebp
800070c8:	0f b7 4d 08          	movzwl 0x8(%ebp),%ecx
800070cc:	0f b7 15 fc aa 00 80 	movzwl 0x8000aafc,%edx
800070d3:	d3 c0                	rol    %cl,%eax
800070d5:	83 e1 08             	and    $0x8,%ecx
800070d8:	21 d0                	and    %edx,%eax
800070da:	66 85 c9             	test   %cx,%cx
800070dd:	66 a3 fc aa 00 80    	mov    %ax,0x8000aafc
800070e3:	74 0b                	je     800070f0 <PIC_EnableIRQ+0x30>
800070e5:	0f b6 05 fd aa 00 80 	movzbl 0x8000aafd,%eax
800070ec:	e6 a1                	out    %al,$0xa1
800070ee:	5d                   	pop    %ebp
800070ef:	c3                   	ret    
800070f0:	0f b6 05 fc aa 00 80 	movzbl 0x8000aafc,%eax
800070f7:	e6 21                	out    %al,$0x21
800070f9:	eb f3                	jmp    800070ee <PIC_EnableIRQ+0x2e>
800070fb:	90                   	nop    
800070fc:	8d 74 26 00          	lea    0x0(%esi,1),%esi

80007100 <PIC_DisableIRQ>:
80007100:	55                   	push   %ebp
80007101:	b8 01 00 00 00       	mov    $0x1,%eax
80007106:	89 e5                	mov    %esp,%ebp
80007108:	0f b7 4d 08          	movzwl 0x8(%ebp),%ecx
8000710c:	0f b7 15 fc aa 00 80 	movzwl 0x8000aafc,%edx
80007113:	d3 e0                	shl    %cl,%eax
80007115:	83 e1 08             	and    $0x8,%ecx
80007118:	09 d0                	or     %edx,%eax
8000711a:	66 85 c9             	test   %cx,%cx
8000711d:	66 a3 fc aa 00 80    	mov    %ax,0x8000aafc
80007123:	74 0b                	je     80007130 <PIC_DisableIRQ+0x30>
80007125:	0f b6 05 fd aa 00 80 	movzbl 0x8000aafd,%eax
8000712c:	e6 a1                	out    %al,$0xa1
8000712e:	5d                   	pop    %ebp
8000712f:	c3                   	ret    
80007130:	0f b6 05 fc aa 00 80 	movzbl 0x8000aafc,%eax
80007137:	e6 21                	out    %al,$0x21
80007139:	eb f3                	jmp    8000712e <PIC_DisableIRQ+0x2e>
8000713b:	90                   	nop    
8000713c:	8d 74 26 00          	lea    0x0(%esi,1),%esi

80007140 <PIC_MaskAndAcknowledge>:
80007140:	55                   	push   %ebp
80007141:	b8 01 00 00 00       	mov    $0x1,%eax
80007146:	89 e5                	mov    %esp,%ebp
80007148:	0f b7 4d 08          	movzwl 0x8(%ebp),%ecx
8000714c:	0f b7 15 fc aa 00 80 	movzwl 0x8000aafc,%edx
80007153:	d3 e0                	shl    %cl,%eax
80007155:	09 d0                	or     %edx,%eax
80007157:	89 ca                	mov    %ecx,%edx
80007159:	83 e2 08             	and    $0x8,%edx
8000715c:	66 85 d2             	test   %dx,%dx
8000715f:	66 a3 fc aa 00 80    	mov    %ax,0x8000aafc
80007165:	74 19                	je     80007180 <PIC_MaskAndAcknowledge+0x40>
80007167:	e4 a1                	in     $0xa1,%al
80007169:	0f b6 05 fd aa 00 80 	movzbl 0x8000aafd,%eax
80007170:	e6 a1                	out    %al,$0xa1
80007172:	88 c8                	mov    %cl,%al
80007174:	24 07                	and    $0x7,%al
80007176:	04 60                	add    $0x60,%al
80007178:	e6 a0                	out    %al,$0xa0
8000717a:	b0 62                	mov    $0x62,%al
8000717c:	e6 20                	out    %al,$0x20
8000717e:	5d                   	pop    %ebp
8000717f:	c3                   	ret    
80007180:	e4 21                	in     $0x21,%al
80007182:	0f b6 05 fc aa 00 80 	movzbl 0x8000aafc,%eax
80007189:	e6 21                	out    %al,$0x21
8000718b:	88 c8                	mov    %cl,%al
8000718d:	04 60                	add    $0x60,%al
8000718f:	eb eb                	jmp    8000717c <PIC_MaskAndAcknowledge+0x3c>
	...

800071a0 <PIT_Init>:
800071a0:	55                   	push   %ebp
800071a1:	89 e5                	mov    %esp,%ebp
800071a3:	83 ec 08             	sub    $0x8,%esp
800071a6:	e4 61                	in     $0x61,%al
800071a8:	0c 01                	or     $0x1,%al
800071aa:	e6 61                	out    %al,$0x61
800071ac:	b0 34                	mov    $0x34,%al
800071ae:	e6 43                	out    %al,$0x43
800071b0:	b0 16                	mov    $0x16,%al
800071b2:	e6 40                	out    %al,$0x40
800071b4:	b0 d2                	mov    $0xd2,%al
800071b6:	e6 40                	out    %al,$0x40
800071b8:	b0 74                	mov    $0x74,%al
800071ba:	e6 43                	out    %al,$0x43
800071bc:	31 c0                	xor    %eax,%eax
800071be:	e6 42                	out    %al,$0x42
800071c0:	e6 42                	out    %al,$0x42
800071c2:	b0 b4                	mov    $0xb4,%al
800071c4:	e6 43                	out    %al,$0x43
800071c6:	31 c0                	xor    %eax,%eax
800071c8:	e6 42                	out    %al,$0x42
800071ca:	e6 42                	out    %al,$0x42
800071cc:	c7 44 24 04 60 a4 00 	movl   $0x8000a460,0x4(%esp,1)
800071d3:	80 
800071d4:	c7 04 24 71 a4 00 80 	movl   $0x8000a471,(%esp,1)
800071db:	e8 20 00 00 00       	call   80007200 <KPrint>
800071e0:	89 ec                	mov    %ebp,%esp
800071e2:	5d                   	pop    %ebp
800071e3:	c3                   	ret    
800071e4:	8d b6 00 00 00 00    	lea    0x0(%esi),%esi
800071ea:	8d bf 00 00 00 00    	lea    0x0(%edi),%edi

800071f0 <PIT_StopTimer>:
800071f0:	55                   	push   %ebp
800071f1:	89 e5                	mov    %esp,%ebp
800071f3:	b0 34                	mov    $0x34,%al
800071f5:	e6 43                	out    %al,$0x43
800071f7:	31 c0                	xor    %eax,%eax
800071f9:	e6 40                	out    %al,$0x40
800071fb:	e6 40                	out    %al,$0x40
800071fd:	5d                   	pop    %ebp
800071fe:	c3                   	ret    
	...

80007200 <KPrint>:
80007200:	55                   	push   %ebp
80007201:	89 e5                	mov    %esp,%ebp
80007203:	57                   	push   %edi
80007204:	56                   	push   %esi
80007205:	53                   	push   %ebx
80007206:	81 ec 2c 04 00 00    	sub    $0x42c,%esp
8000720c:	8b 45 08             	mov    0x8(%ebp),%eax
8000720f:	85 c0                	test   %eax,%eax
80007211:	0f 84 f8 00 00 00    	je     8000730f <KPrint+0x10f>
80007217:	89 44 24 0c          	mov    %eax,0xc(%esp,1)
8000721b:	8d 95 e8 fb ff ff    	lea    0xfffffbe8(%ebp),%edx
80007221:	31 ff                	xor    %edi,%edi
80007223:	c7 44 24 08 75 a4 00 	movl   $0x8000a475,0x8(%esp,1)
8000722a:	80 
8000722b:	c7 44 24 04 00 04 00 	movl   $0x400,0x4(%esp,1)
80007232:	00 
80007233:	89 14 24             	mov    %edx,(%esp,1)
80007236:	e8 85 0f 00 00       	call   800081c0 <snprintf>
8000723b:	80 bd e8 fb ff ff 00 	cmpb   $0x0,0xfffffbe8(%ebp)
80007242:	c6 05 00 ab 00 80 0e 	movb   $0xe,0x8000ab00
80007249:	0f 84 c0 00 00 00    	je     8000730f <KPrint+0x10f>
8000724f:	8b 1d 18 af 00 80    	mov    0x8000af18,%ebx
80007255:	8d 74 26 00          	lea    0x0(%esi,1),%esi
80007259:	8d bc 27 00 00 00 00 	lea    0x0(%edi,1),%edi
80007260:	0f b6 8c 3d e8 fb ff 	movzbl 0xfffffbe8(%ebp,%edi,1),%ecx
80007267:	ff 
80007268:	47                   	inc    %edi
80007269:	80 f9 0a             	cmp    $0xa,%cl
8000726c:	0f 84 74 02 00 00    	je     800074e6 <KPrint+0x2e6>
80007272:	80 f9 0d             	cmp    $0xd,%cl
80007275:	0f 84 6b 02 00 00    	je     800074e6 <KPrint+0x2e6>
8000727b:	a1 14 af 00 80       	mov    0x8000af14,%eax
80007280:	8d 14 9b             	lea    (%ebx,%ebx,4),%edx
80007283:	8b 35 1c af 00 80    	mov    0x8000af1c,%esi
80007289:	c1 e2 04             	shl    $0x4,%edx
8000728c:	01 c2                	add    %eax,%edx
8000728e:	88 0c 56             	mov    %cl,(%esi,%edx,2)
80007291:	a1 18 af 00 80       	mov    0x8000af18,%eax
80007296:	8b 0d 14 af 00 80    	mov    0x8000af14,%ecx
8000729c:	0f b6 15 00 ab 00 80 	movzbl 0x8000ab00,%edx
800072a3:	8b 35 1c af 00 80    	mov    0x8000af1c,%esi
800072a9:	8d 1c 80             	lea    (%eax,%eax,4),%ebx
800072ac:	c1 e3 04             	shl    $0x4,%ebx
800072af:	01 cb                	add    %ecx,%ebx
800072b1:	88 54 5e 01          	mov    %dl,0x1(%esi,%ebx,2)
800072b5:	8b 35 14 af 00 80    	mov    0x8000af14,%esi
800072bb:	46                   	inc    %esi
800072bc:	89 35 14 af 00 80    	mov    %esi,0x8000af14
800072c2:	83 fe 4f             	cmp    $0x4f,%esi
800072c5:	0f 8f 15 02 00 00    	jg     800074e0 <KPrint+0x2e0>
800072cb:	8b 1d 18 af 00 80    	mov    0x8000af18,%ebx
800072d1:	8d 0c 9b             	lea    (%ebx,%ebx,4),%ecx
800072d4:	c1 e1 04             	shl    $0x4,%ecx
800072d7:	8d 34 0e             	lea    (%esi,%ecx,1),%esi
800072da:	b1 0f                	mov    $0xf,%cl
800072dc:	ba d4 03 00 00       	mov    $0x3d4,%edx
800072e1:	88 c8                	mov    %cl,%al
800072e3:	ee                   	out    %al,(%dx)
800072e4:	ba d5 03 00 00       	mov    $0x3d5,%edx
800072e9:	89 f0                	mov    %esi,%eax
800072eb:	ee                   	out    %al,(%dx)
800072ec:	ba d4 03 00 00       	mov    $0x3d4,%edx
800072f1:	b1 0e                	mov    $0xe,%cl
800072f3:	88 c8                	mov    %cl,%al
800072f5:	ee                   	out    %al,(%dx)
800072f6:	ba d5 03 00 00       	mov    $0x3d5,%edx
800072fb:	89 f0                	mov    %esi,%eax
800072fd:	c1 e8 08             	shr    $0x8,%eax
80007300:	ee                   	out    %al,(%dx)
80007301:	80 bc 2f e8 fb ff ff 	cmpb   $0x0,0xfffffbe8(%edi,%ebp,1)
80007308:	00 
80007309:	0f 85 51 ff ff ff    	jne    80007260 <KPrint+0x60>
8000730f:	c7 44 24 04 f2 03 00 	movl   $0x3f2,0x4(%esp,1)
80007316:	00 
80007317:	8b 45 0c             	mov    0xc(%ebp),%eax
8000731a:	8d bd e8 fb ff ff    	lea    0xfffffbe8(%ebp),%edi
80007320:	89 3c 24             	mov    %edi,(%esp,1)
80007323:	8d 5d 10             	lea    0x10(%ebp),%ebx
80007326:	31 ff                	xor    %edi,%edi
80007328:	89 5c 24 0c          	mov    %ebx,0xc(%esp,1)
8000732c:	89 44 24 08          	mov    %eax,0x8(%esp,1)
80007330:	e8 cb 09 00 00       	call   80007d00 <vsnprintf>
80007335:	80 bd e8 fb ff ff 00 	cmpb   $0x0,0xfffffbe8(%ebp)
8000733c:	c6 05 00 ab 00 80 07 	movb   $0x7,0x8000ab00
80007343:	0f 84 81 01 00 00    	je     800074ca <KPrint+0x2ca>
80007349:	8b 1d 18 af 00 80    	mov    0x8000af18,%ebx
8000734f:	90                   	nop    
80007350:	0f b6 8c 3d e8 fb ff 	movzbl 0xfffffbe8(%ebp,%edi,1),%ecx
80007357:	ff 
80007358:	47                   	inc    %edi
80007359:	80 f9 0a             	cmp    $0xa,%cl
8000735c:	0f 84 f4 00 00 00    	je     80007456 <KPrint+0x256>
80007362:	80 f9 0d             	cmp    $0xd,%cl
80007365:	0f 84 eb 00 00 00    	je     80007456 <KPrint+0x256>
8000736b:	a1 14 af 00 80       	mov    0x8000af14,%eax
80007370:	8d 14 9b             	lea    (%ebx,%ebx,4),%edx
80007373:	8b 35 1c af 00 80    	mov    0x8000af1c,%esi
80007379:	c1 e2 04             	shl    $0x4,%edx
8000737c:	01 c2                	add    %eax,%edx
8000737e:	88 0c 56             	mov    %cl,(%esi,%edx,2)
80007381:	a1 18 af 00 80       	mov    0x8000af18,%eax
80007386:	8b 0d 14 af 00 80    	mov    0x8000af14,%ecx
8000738c:	0f b6 15 00 ab 00 80 	movzbl 0x8000ab00,%edx
80007393:	8b 35 1c af 00 80    	mov    0x8000af1c,%esi
80007399:	8d 1c 80             	lea    (%eax,%eax,4),%ebx
8000739c:	c1 e3 04             	shl    $0x4,%ebx
8000739f:	01 cb                	add    %ecx,%ebx
800073a1:	88 54 5e 01          	mov    %dl,0x1(%esi,%ebx,2)
800073a5:	8b 35 14 af 00 80    	mov    0x8000af14,%esi
800073ab:	46                   	inc    %esi
800073ac:	89 35 14 af 00 80    	mov    %esi,0x8000af14
800073b2:	83 fe 4f             	cmp    $0x4f,%esi
800073b5:	0f 8f 95 00 00 00    	jg     80007450 <KPrint+0x250>
800073bb:	8b 1d 18 af 00 80    	mov    0x8000af18,%ebx
800073c1:	8d 04 9b             	lea    (%ebx,%ebx,4),%eax
800073c4:	c1 e0 04             	shl    $0x4,%eax
800073c7:	01 f0                	add    %esi,%eax
800073c9:	b1 0f                	mov    $0xf,%cl
800073cb:	ba d4 03 00 00       	mov    $0x3d4,%edx
800073d0:	89 85 e4 fb ff ff    	mov    %eax,0xfffffbe4(%ebp)
800073d6:	88 c8                	mov    %cl,%al
800073d8:	ee                   	out    %al,(%dx)
800073d9:	ba d5 03 00 00       	mov    $0x3d5,%edx
800073de:	0f b6 85 e4 fb ff ff 	movzbl 0xfffffbe4(%ebp),%eax
800073e5:	ee                   	out    %al,(%dx)
800073e6:	ba d4 03 00 00       	mov    $0x3d4,%edx
800073eb:	b1 0e                	mov    $0xe,%cl
800073ed:	88 c8                	mov    %cl,%al
800073ef:	ee                   	out    %al,(%dx)
800073f0:	ba d5 03 00 00       	mov    $0x3d5,%edx
800073f5:	8b 85 e4 fb ff ff    	mov    0xfffffbe4(%ebp),%eax
800073fb:	c1 e8 08             	shr    $0x8,%eax
800073fe:	ee                   	out    %al,(%dx)
800073ff:	80 bc 2f e8 fb ff ff 	cmpb   $0x0,0xfffffbe8(%edi,%ebp,1)
80007406:	00 
80007407:	0f 85 43 ff ff ff    	jne    80007350 <KPrint+0x150>
8000740d:	8d 3c 9b             	lea    (%ebx,%ebx,4),%edi
80007410:	b1 0f                	mov    $0xf,%cl
80007412:	c1 e7 04             	shl    $0x4,%edi
80007415:	8d 1c 3e             	lea    (%esi,%edi,1),%ebx
80007418:	ba d4 03 00 00       	mov    $0x3d4,%edx
8000741d:	88 c8                	mov    %cl,%al
8000741f:	ee                   	out    %al,(%dx)
80007420:	ba d5 03 00 00       	mov    $0x3d5,%edx
80007425:	88 d8                	mov    %bl,%al
80007427:	ee                   	out    %al,(%dx)
80007428:	ba d4 03 00 00       	mov    $0x3d4,%edx
8000742d:	b1 0e                	mov    $0xe,%cl
8000742f:	88 c8                	mov    %cl,%al
80007431:	ee                   	out    %al,(%dx)
80007432:	ba d5 03 00 00       	mov    $0x3d5,%edx
80007437:	89 d8                	mov    %ebx,%eax
80007439:	c1 e8 08             	shr    $0x8,%eax
8000743c:	ee                   	out    %al,(%dx)
8000743d:	31 c0                	xor    %eax,%eax
8000743f:	81 c4 2c 04 00 00    	add    $0x42c,%esp
80007445:	5b                   	pop    %ebx
80007446:	5e                   	pop    %esi
80007447:	5f                   	pop    %edi
80007448:	5d                   	pop    %ebp
80007449:	c3                   	ret    
8000744a:	8d b6 00 00 00 00    	lea    0x0(%esi),%esi
80007450:	8b 1d 18 af 00 80    	mov    0x8000af18,%ebx
80007456:	43                   	inc    %ebx
80007457:	31 d2                	xor    %edx,%edx
80007459:	31 f6                	xor    %esi,%esi
8000745b:	89 15 14 af 00 80    	mov    %edx,0x8000af14
80007461:	83 fb 19             	cmp    $0x19,%ebx
80007464:	89 1d 18 af 00 80    	mov    %ebx,0x8000af18
8000746a:	74 14                	je     80007480 <KPrint+0x280>
8000746c:	8b 35 14 af 00 80    	mov    0x8000af14,%esi
80007472:	8d 04 9b             	lea    (%ebx,%ebx,4),%eax
80007475:	c1 e0 04             	shl    $0x4,%eax
80007478:	e9 4a ff ff ff       	jmp    800073c7 <KPrint+0x1c7>
8000747d:	8d 76 00             	lea    0x0(%esi),%esi
80007480:	8b 0d 1c af 00 80    	mov    0x8000af1c,%ecx
80007486:	b8 c0 03 00 00       	mov    $0x3c0,%eax
8000748b:	8d 91 a0 00 00 00    	lea    0xa0(%ecx),%edx
80007491:	89 cb                	mov    %ecx,%ebx
80007493:	8b 0a                	mov    (%edx),%ecx
80007495:	83 c2 04             	add    $0x4,%edx
80007498:	89 0b                	mov    %ecx,(%ebx)
8000749a:	83 c3 04             	add    $0x4,%ebx
8000749d:	48                   	dec    %eax
8000749e:	75 f3                	jne    80007493 <KPrint+0x293>
800074a0:	b8 28 00 00 00       	mov    $0x28,%eax
800074a5:	8b 1d 1c af 00 80    	mov    0x8000af1c,%ebx
800074ab:	89 f1                	mov    %esi,%ecx
800074ad:	81 c3 00 0f 00 00    	add    $0xf00,%ebx
800074b3:	89 0b                	mov    %ecx,(%ebx)
800074b5:	83 c3 04             	add    $0x4,%ebx
800074b8:	48                   	dec    %eax
800074b9:	75 f8                	jne    800074b3 <KPrint+0x2b3>
800074bb:	8b 1d 18 af 00 80    	mov    0x8000af18,%ebx
800074c1:	4b                   	dec    %ebx
800074c2:	89 1d 18 af 00 80    	mov    %ebx,0x8000af18
800074c8:	eb a2                	jmp    8000746c <KPrint+0x26c>
800074ca:	8b 1d 18 af 00 80    	mov    0x8000af18,%ebx
800074d0:	8b 35 14 af 00 80    	mov    0x8000af14,%esi
800074d6:	e9 32 ff ff ff       	jmp    8000740d <KPrint+0x20d>
800074db:	90                   	nop    
800074dc:	8d 74 26 00          	lea    0x0(%esi,1),%esi
800074e0:	8b 1d 18 af 00 80    	mov    0x8000af18,%ebx
800074e6:	43                   	inc    %ebx
800074e7:	31 d2                	xor    %edx,%edx
800074e9:	31 f6                	xor    %esi,%esi
800074eb:	89 15 14 af 00 80    	mov    %edx,0x8000af14
800074f1:	83 fb 19             	cmp    $0x19,%ebx
800074f4:	89 1d 18 af 00 80    	mov    %ebx,0x8000af18
800074fa:	74 14                	je     80007510 <KPrint+0x310>
800074fc:	a1 14 af 00 80       	mov    0x8000af14,%eax
80007501:	8d 34 9b             	lea    (%ebx,%ebx,4),%esi
80007504:	c1 e6 04             	shl    $0x4,%esi
80007507:	01 c6                	add    %eax,%esi
80007509:	e9 cc fd ff ff       	jmp    800072da <KPrint+0xda>
8000750e:	89 f6                	mov    %esi,%esi
80007510:	8b 0d 1c af 00 80    	mov    0x8000af1c,%ecx
80007516:	b8 c0 03 00 00       	mov    $0x3c0,%eax
8000751b:	8d 91 a0 00 00 00    	lea    0xa0(%ecx),%edx
80007521:	89 cb                	mov    %ecx,%ebx
80007523:	8b 0a                	mov    (%edx),%ecx
80007525:	83 c2 04             	add    $0x4,%edx
80007528:	89 0b                	mov    %ecx,(%ebx)
8000752a:	83 c3 04             	add    $0x4,%ebx
8000752d:	48                   	dec    %eax
8000752e:	75 f3                	jne    80007523 <KPrint+0x323>
80007530:	b8 28 00 00 00       	mov    $0x28,%eax
80007535:	8b 1d 1c af 00 80    	mov    0x8000af1c,%ebx
8000753b:	89 f1                	mov    %esi,%ecx
8000753d:	81 c3 00 0f 00 00    	add    $0xf00,%ebx
80007543:	89 0b                	mov    %ecx,(%ebx)
80007545:	83 c3 04             	add    $0x4,%ebx
80007548:	48                   	dec    %eax
80007549:	75 f8                	jne    80007543 <KPrint+0x343>
8000754b:	8b 1d 18 af 00 80    	mov    0x8000af18,%ebx
80007551:	4b                   	dec    %ebx
80007552:	89 1d 18 af 00 80    	mov    %ebx,0x8000af18
80007558:	eb a2                	jmp    800074fc <KPrint+0x2fc>
8000755a:	8d b6 00 00 00 00    	lea    0x0(%esi),%esi

80007560 <Console_Init>:
80007560:	55                   	push   %ebp
80007561:	b8 00 80 0b 00       	mov    $0xb8000,%eax
80007566:	89 e5                	mov    %esp,%ebp
80007568:	a3 1c af 00 80       	mov    %eax,0x8000af1c
8000756d:	ba d4 03 00 00       	mov    $0x3d4,%edx
80007572:	b0 09                	mov    $0x9,%al
80007574:	ee                   	out    %al,(%dx)
80007575:	ba d5 03 00 00       	mov    $0x3d5,%edx
8000757a:	ec                   	in     (%dx),%al
8000757b:	88 c1                	mov    %al,%cl
8000757d:	80 e1 1f             	and    $0x1f,%cl
80007580:	ba d4 03 00 00       	mov    $0x3d4,%edx
80007585:	b0 0a                	mov    $0xa,%al
80007587:	ee                   	out    %al,(%dx)
80007588:	ba d5 03 00 00       	mov    $0x3d5,%edx
8000758d:	88 c8                	mov    %cl,%al
8000758f:	d0 e8                	shr    %al
80007591:	ee                   	out    %al,(%dx)
80007592:	ba d4 03 00 00       	mov    $0x3d4,%edx
80007597:	b0 0b                	mov    $0xb,%al
80007599:	ee                   	out    %al,(%dx)
8000759a:	ba d5 03 00 00       	mov    $0x3d5,%edx
8000759f:	88 c8                	mov    %cl,%al
800075a1:	ee                   	out    %al,(%dx)
800075a2:	b8 e8 03 00 00       	mov    $0x3e8,%eax
800075a7:	b9 00 80 0b 00       	mov    $0xb8000,%ecx
800075ac:	31 d2                	xor    %edx,%edx
800075ae:	89 11                	mov    %edx,(%ecx)
800075b0:	83 c1 04             	add    $0x4,%ecx
800075b3:	48                   	dec    %eax
800075b4:	75 f8                	jne    800075ae <Console_Init+0x4e>
800075b6:	b0 0f                	mov    $0xf,%al
800075b8:	31 d2                	xor    %edx,%edx
800075ba:	89 15 14 af 00 80    	mov    %edx,0x8000af14
800075c0:	31 d2                	xor    %edx,%edx
800075c2:	89 15 18 af 00 80    	mov    %edx,0x8000af18
800075c8:	ba d4 03 00 00       	mov    $0x3d4,%edx
800075cd:	ee                   	out    %al,(%dx)
800075ce:	ba d5 03 00 00       	mov    $0x3d5,%edx
800075d3:	31 c0                	xor    %eax,%eax
800075d5:	ee                   	out    %al,(%dx)
800075d6:	ba d4 03 00 00       	mov    $0x3d4,%edx
800075db:	b0 0e                	mov    $0xe,%al
800075dd:	ee                   	out    %al,(%dx)
800075de:	ba d5 03 00 00       	mov    $0x3d5,%edx
800075e3:	31 c0                	xor    %eax,%eax
800075e5:	ee                   	out    %al,(%dx)
800075e6:	5d                   	pop    %ebp
800075e7:	c3                   	ret    
800075e8:	90                   	nop    
800075e9:	8d b4 26 00 00 00 00 	lea    0x0(%esi,1),%esi

800075f0 <Console_Remap>:
800075f0:	55                   	push   %ebp
800075f1:	89 e5                	mov    %esp,%ebp
800075f3:	83 ec 18             	sub    $0x18,%esp
800075f6:	e8 a5 c9 ff ff       	call   80003fa0 <MemoryManager_Lock>
800075fb:	c7 04 24 00 80 0b 00 	movl   $0xb8000,(%esp,1)
80007602:	a1 88 ac 00 80       	mov    0x8000ac88,%eax
80007607:	c7 44 24 0c 0a 00 00 	movl   $0xa,0xc(%esp,1)
8000760e:	00 
8000760f:	c7 44 24 08 08 00 00 	movl   $0x8,0x8(%esp,1)
80007616:	00 
80007617:	89 44 24 04          	mov    %eax,0x4(%esp,1)
8000761b:	e8 30 c3 ff ff       	call   80003950 <MemoryManager_Page_Map>
80007620:	e8 9b c9 ff ff       	call   80003fc0 <MemoryManager_Unlock>
80007625:	a1 88 ac 00 80       	mov    0x8000ac88,%eax
8000762a:	a3 1c af 00 80       	mov    %eax,0x8000af1c
8000762f:	05 00 80 00 00       	add    $0x8000,%eax
80007634:	a3 88 ac 00 80       	mov    %eax,0x8000ac88
80007639:	89 ec                	mov    %ebp,%esp
8000763b:	5d                   	pop    %ebp
8000763c:	c3                   	ret    
8000763d:	8d 76 00             	lea    0x0(%esi),%esi

80007640 <Console_MoveCursor>:
80007640:	55                   	push   %ebp
80007641:	a1 18 af 00 80       	mov    0x8000af18,%eax
80007646:	b1 0f                	mov    $0xf,%cl
80007648:	89 e5                	mov    %esp,%ebp
8000764a:	ba d4 03 00 00       	mov    $0x3d4,%edx
8000764f:	53                   	push   %ebx
80007650:	8d 1c 80             	lea    (%eax,%eax,4),%ebx
80007653:	a1 14 af 00 80       	mov    0x8000af14,%eax
80007658:	c1 e3 04             	shl    $0x4,%ebx
8000765b:	01 c3                	add    %eax,%ebx
8000765d:	88 c8                	mov    %cl,%al
8000765f:	ee                   	out    %al,(%dx)
80007660:	88 d8                	mov    %bl,%al
80007662:	ba d5 03 00 00       	mov    $0x3d5,%edx
80007667:	ee                   	out    %al,(%dx)
80007668:	ba d4 03 00 00       	mov    $0x3d4,%edx
8000766d:	b1 0e                	mov    $0xe,%cl
8000766f:	88 c8                	mov    %cl,%al
80007671:	ee                   	out    %al,(%dx)
80007672:	ba d5 03 00 00       	mov    $0x3d5,%edx
80007677:	89 d8                	mov    %ebx,%eax
80007679:	c1 e8 08             	shr    $0x8,%eax
8000767c:	ee                   	out    %al,(%dx)
8000767d:	5b                   	pop    %ebx
8000767e:	5d                   	pop    %ebp
8000767f:	c3                   	ret    

80007680 <KClear>:
80007680:	55                   	push   %ebp
80007681:	8b 0d 1c af 00 80    	mov    0x8000af1c,%ecx
80007687:	31 d2                	xor    %edx,%edx
80007689:	89 e5                	mov    %esp,%ebp
8000768b:	b8 e8 03 00 00       	mov    $0x3e8,%eax
80007690:	89 11                	mov    %edx,(%ecx)
80007692:	83 c1 04             	add    $0x4,%ecx
80007695:	48                   	dec    %eax
80007696:	75 f8                	jne    80007690 <KClear+0x10>
80007698:	ba d4 03 00 00       	mov    $0x3d4,%edx
8000769d:	31 c0                	xor    %eax,%eax
8000769f:	a3 14 af 00 80       	mov    %eax,0x8000af14
800076a4:	31 c0                	xor    %eax,%eax
800076a6:	a3 18 af 00 80       	mov    %eax,0x8000af18
800076ab:	b0 0f                	mov    $0xf,%al
800076ad:	ee                   	out    %al,(%dx)
800076ae:	ba d5 03 00 00       	mov    $0x3d5,%edx
800076b3:	31 c0                	xor    %eax,%eax
800076b5:	ee                   	out    %al,(%dx)
800076b6:	ba d4 03 00 00       	mov    $0x3d4,%edx
800076bb:	b0 0e                	mov    $0xe,%al
800076bd:	ee                   	out    %al,(%dx)
800076be:	ba d5 03 00 00       	mov    $0x3d5,%edx
800076c3:	31 c0                	xor    %eax,%eax
800076c5:	ee                   	out    %al,(%dx)
800076c6:	31 c0                	xor    %eax,%eax
800076c8:	5d                   	pop    %ebp
800076c9:	c3                   	ret    
800076ca:	8d b6 00 00 00 00    	lea    0x0(%esi),%esi

800076d0 <Console_WriteChar>:
800076d0:	55                   	push   %ebp
800076d1:	89 e5                	mov    %esp,%ebp
800076d3:	53                   	push   %ebx
800076d4:	8b 4d 08             	mov    0x8(%ebp),%ecx
800076d7:	80 f9 0a             	cmp    $0xa,%cl
800076da:	0f 84 a0 00 00 00    	je     80007780 <Console_WriteChar+0xb0>
800076e0:	80 f9 0d             	cmp    $0xd,%cl
800076e3:	0f 84 97 00 00 00    	je     80007780 <Console_WriteChar+0xb0>
800076e9:	a1 18 af 00 80       	mov    0x8000af18,%eax
800076ee:	8b 1d 14 af 00 80    	mov    0x8000af14,%ebx
800076f4:	8d 04 80             	lea    (%eax,%eax,4),%eax
800076f7:	c1 e0 04             	shl    $0x4,%eax
800076fa:	01 d8                	add    %ebx,%eax
800076fc:	8b 1d 1c af 00 80    	mov    0x8000af1c,%ebx
80007702:	88 0c 43             	mov    %cl,(%ebx,%eax,2)
80007705:	a1 18 af 00 80       	mov    0x8000af18,%eax
8000770a:	8b 0d 14 af 00 80    	mov    0x8000af14,%ecx
80007710:	8b 1d 1c af 00 80    	mov    0x8000af1c,%ebx
80007716:	8d 14 80             	lea    (%eax,%eax,4),%edx
80007719:	c1 e2 04             	shl    $0x4,%edx
8000771c:	01 ca                	add    %ecx,%edx
8000771e:	0f b6 0d 00 ab 00 80 	movzbl 0x8000ab00,%ecx
80007725:	88 4c 53 01          	mov    %cl,0x1(%ebx,%edx,2)
80007729:	8b 15 14 af 00 80    	mov    0x8000af14,%edx
8000772f:	42                   	inc    %edx
80007730:	89 15 14 af 00 80    	mov    %edx,0x8000af14
80007736:	83 fa 4f             	cmp    $0x4f,%edx
80007739:	7f 45                	jg     80007780 <Console_WriteChar+0xb0>
8000773b:	a1 18 af 00 80       	mov    0x8000af18,%eax
80007740:	8d 0c 80             	lea    (%eax,%eax,4),%ecx
80007743:	c1 e1 04             	shl    $0x4,%ecx
80007746:	8d 1c 0a             	lea    (%edx,%ecx,1),%ebx
80007749:	b1 0f                	mov    $0xf,%cl
8000774b:	ba d4 03 00 00       	mov    $0x3d4,%edx
80007750:	88 c8                	mov    %cl,%al
80007752:	ee                   	out    %al,(%dx)
80007753:	ba d5 03 00 00       	mov    $0x3d5,%edx
80007758:	88 d8                	mov    %bl,%al
8000775a:	ee                   	out    %al,(%dx)
8000775b:	ba d4 03 00 00       	mov    $0x3d4,%edx
80007760:	b1 0e                	mov    $0xe,%cl
80007762:	88 c8                	mov    %cl,%al
80007764:	ee                   	out    %al,(%dx)
80007765:	ba d5 03 00 00       	mov    $0x3d5,%edx
8000776a:	89 d8                	mov    %ebx,%eax
8000776c:	c1 e8 08             	shr    $0x8,%eax
8000776f:	ee                   	out    %al,(%dx)
80007770:	31 c0                	xor    %eax,%eax
80007772:	5b                   	pop    %ebx
80007773:	5d                   	pop    %ebp
80007774:	c3                   	ret    
80007775:	8d 74 26 00          	lea    0x0(%esi,1),%esi
80007779:	8d bc 27 00 00 00 00 	lea    0x0(%edi,1),%edi
80007780:	31 c0                	xor    %eax,%eax
80007782:	a3 14 af 00 80       	mov    %eax,0x8000af14
80007787:	a1 18 af 00 80       	mov    0x8000af18,%eax
8000778c:	40                   	inc    %eax
8000778d:	a3 18 af 00 80       	mov    %eax,0x8000af18
80007792:	83 f8 19             	cmp    $0x19,%eax
80007795:	74 19                	je     800077b0 <Console_WriteChar+0xe0>
80007797:	8d 1c 80             	lea    (%eax,%eax,4),%ebx
8000779a:	a1 14 af 00 80       	mov    0x8000af14,%eax
8000779f:	c1 e3 04             	shl    $0x4,%ebx
800077a2:	01 c3                	add    %eax,%ebx
800077a4:	eb a3                	jmp    80007749 <Console_WriteChar+0x79>
800077a6:	8d 76 00             	lea    0x0(%esi),%esi
800077a9:	8d bc 27 00 00 00 00 	lea    0x0(%edi,1),%edi
800077b0:	8b 0d 1c af 00 80    	mov    0x8000af1c,%ecx
800077b6:	b8 c0 03 00 00       	mov    $0x3c0,%eax
800077bb:	8d 91 a0 00 00 00    	lea    0xa0(%ecx),%edx
800077c1:	89 cb                	mov    %ecx,%ebx
800077c3:	8b 0a                	mov    (%edx),%ecx
800077c5:	83 c2 04             	add    $0x4,%edx
800077c8:	89 0b                	mov    %ecx,(%ebx)
800077ca:	83 c3 04             	add    $0x4,%ebx
800077cd:	48                   	dec    %eax
800077ce:	75 f3                	jne    800077c3 <Console_WriteChar+0xf3>
800077d0:	b8 28 00 00 00       	mov    $0x28,%eax
800077d5:	8b 1d 1c af 00 80    	mov    0x8000af1c,%ebx
800077db:	31 c9                	xor    %ecx,%ecx
800077dd:	81 c3 00 0f 00 00    	add    $0xf00,%ebx
800077e3:	89 0b                	mov    %ecx,(%ebx)
800077e5:	83 c3 04             	add    $0x4,%ebx
800077e8:	48                   	dec    %eax
800077e9:	75 f8                	jne    800077e3 <Console_WriteChar+0x113>
800077eb:	a1 18 af 00 80       	mov    0x8000af18,%eax
800077f0:	48                   	dec    %eax
800077f1:	a3 18 af 00 80       	mov    %eax,0x8000af18
800077f6:	eb 9f                	jmp    80007797 <Console_WriteChar+0xc7>
800077f8:	90                   	nop    
800077f9:	8d b4 26 00 00 00 00 	lea    0x0(%esi,1),%esi

80007800 <Console_DeleteChar>:
80007800:	55                   	push   %ebp
80007801:	a1 18 af 00 80       	mov    0x8000af18,%eax
80007806:	89 e5                	mov    %esp,%ebp
80007808:	53                   	push   %ebx
80007809:	8b 1d 14 af 00 80    	mov    0x8000af14,%ebx
8000780f:	8d 0c 80             	lea    (%eax,%eax,4),%ecx
80007812:	4b                   	dec    %ebx
80007813:	c1 e1 04             	shl    $0x4,%ecx
80007816:	01 d9                	add    %ebx,%ecx
80007818:	89 1d 14 af 00 80    	mov    %ebx,0x8000af14
8000781e:	8b 1d 1c af 00 80    	mov    0x8000af1c,%ebx
80007824:	c6 04 4b 00          	movb   $0x0,(%ebx,%ecx,2)
80007828:	a1 18 af 00 80       	mov    0x8000af18,%eax
8000782d:	8b 0d 14 af 00 80    	mov    0x8000af14,%ecx
80007833:	0f b6 15 00 ab 00 80 	movzbl 0x8000ab00,%edx
8000783a:	8b 1d 1c af 00 80    	mov    0x8000af1c,%ebx
80007840:	8d 04 80             	lea    (%eax,%eax,4),%eax
80007843:	c1 e0 04             	shl    $0x4,%eax
80007846:	01 c8                	add    %ecx,%eax
80007848:	b1 0f                	mov    $0xf,%cl
8000784a:	88 54 43 01          	mov    %dl,0x1(%ebx,%eax,2)
8000784e:	ba d4 03 00 00       	mov    $0x3d4,%edx
80007853:	a1 18 af 00 80       	mov    0x8000af18,%eax
80007858:	8d 1c 80             	lea    (%eax,%eax,4),%ebx
8000785b:	a1 14 af 00 80       	mov    0x8000af14,%eax
80007860:	c1 e3 04             	shl    $0x4,%ebx
80007863:	01 c3                	add    %eax,%ebx
80007865:	88 c8                	mov    %cl,%al
80007867:	ee                   	out    %al,(%dx)
80007868:	88 d8                	mov    %bl,%al
8000786a:	ba d5 03 00 00       	mov    $0x3d5,%edx
8000786f:	ee                   	out    %al,(%dx)
80007870:	ba d4 03 00 00       	mov    $0x3d4,%edx
80007875:	b1 0e                	mov    $0xe,%cl
80007877:	88 c8                	mov    %cl,%al
80007879:	ee                   	out    %al,(%dx)
8000787a:	ba d5 03 00 00       	mov    $0x3d5,%edx
8000787f:	89 d8                	mov    %ebx,%eax
80007881:	c1 e8 08             	shr    $0x8,%eax
80007884:	ee                   	out    %al,(%dx)
80007885:	31 c0                	xor    %eax,%eax
80007887:	5b                   	pop    %ebx
80007888:	5d                   	pop    %ebp
80007889:	c3                   	ret    
8000788a:	8d b6 00 00 00 00    	lea    0x0(%esi),%esi

80007890 <Console_Call_WriteCharacter>:
80007890:	55                   	push   %ebp
80007891:	89 e5                	mov    %esp,%ebp
80007893:	83 ec 08             	sub    $0x8,%esp
80007896:	8b 55 0c             	mov    0xc(%ebp),%edx
80007899:	8b 42 0c             	mov    0xc(%edx),%eax
8000789c:	8b 4c 82 10          	mov    0x10(%edx,%eax,4),%ecx
800078a0:	40                   	inc    %eax
800078a1:	89 42 0c             	mov    %eax,0xc(%edx)
800078a4:	0f b6 d1             	movzbl %cl,%edx
800078a7:	89 14 24             	mov    %edx,(%esp,1)
800078aa:	e8 21 fe ff ff       	call   800076d0 <Console_WriteChar>
800078af:	89 ec                	mov    %ebp,%esp
800078b1:	31 c0                	xor    %eax,%eax
800078b3:	5d                   	pop    %ebp
800078b4:	c3                   	ret    
800078b5:	8d 74 26 00          	lea    0x0(%esi,1),%esi
800078b9:	8d bc 27 00 00 00 00 	lea    0x0(%edi,1),%edi

800078c0 <Console_Call_DeleteCharacter>:
800078c0:	55                   	push   %ebp
800078c1:	89 e5                	mov    %esp,%ebp
800078c3:	83 ec 08             	sub    $0x8,%esp
800078c6:	e8 35 ff ff ff       	call   80007800 <Console_DeleteChar>
800078cb:	89 ec                	mov    %ebp,%esp
800078cd:	31 c0                	xor    %eax,%eax
800078cf:	5d                   	pop    %ebp
800078d0:	c3                   	ret    
800078d1:	eb 0d                	jmp    800078e0 <Console_Call_Print>
800078d3:	90                   	nop    
800078d4:	90                   	nop    
800078d5:	90                   	nop    
800078d6:	90                   	nop    
800078d7:	90                   	nop    
800078d8:	90                   	nop    
800078d9:	90                   	nop    
800078da:	90                   	nop    
800078db:	90                   	nop    
800078dc:	90                   	nop    
800078dd:	90                   	nop    
800078de:	90                   	nop    
800078df:	90                   	nop    

800078e0 <Console_Call_Print>:
800078e0:	55                   	push   %ebp
800078e1:	89 e5                	mov    %esp,%ebp
800078e3:	83 ec 08             	sub    $0x8,%esp
800078e6:	8b 45 0c             	mov    0xc(%ebp),%eax
800078e9:	8b 50 0c             	mov    0xc(%eax),%edx
800078ec:	8b 4c 90 10          	mov    0x10(%eax,%edx,4),%ecx
800078f0:	42                   	inc    %edx
800078f1:	89 50 0c             	mov    %edx,0xc(%eax)
800078f4:	c7 04 24 00 00 00 00 	movl   $0x0,(%esp,1)
800078fb:	89 4c 24 04          	mov    %ecx,0x4(%esp,1)
800078ff:	e8 fc f8 ff ff       	call   80007200 <KPrint>
80007904:	89 ec                	mov    %ebp,%esp
80007906:	31 c0                	xor    %eax,%eax
80007908:	5d                   	pop    %ebp
80007909:	c3                   	ret    
8000790a:	8d b6 00 00 00 00    	lea    0x0(%esi),%esi

80007910 <Console_Call_LogPrint>:
80007910:	55                   	push   %ebp
80007911:	89 e5                	mov    %esp,%ebp
80007913:	83 ec 18             	sub    $0x18,%esp
80007916:	89 5d fc             	mov    %ebx,0xfffffffc(%ebp)
80007919:	8b 55 0c             	mov    0xc(%ebp),%edx
8000791c:	8b 42 0c             	mov    0xc(%edx),%eax
8000791f:	8b 5c 82 10          	mov    0x10(%edx,%eax,4),%ebx
80007923:	8b 4c 82 14          	mov    0x14(%edx,%eax,4),%ecx
80007927:	83 c0 02             	add    $0x2,%eax
8000792a:	89 42 0c             	mov    %eax,0xc(%edx)
8000792d:	89 1c 24             	mov    %ebx,(%esp,1)
80007930:	89 4c 24 04          	mov    %ecx,0x4(%esp,1)
80007934:	e8 c7 f8 ff ff       	call   80007200 <KPrint>
80007939:	8b 5d fc             	mov    0xfffffffc(%ebp),%ebx
8000793c:	31 c0                	xor    %eax,%eax
8000793e:	89 ec                	mov    %ebp,%esp
80007940:	5d                   	pop    %ebp
80007941:	c3                   	ret    
80007942:	8d b4 26 00 00 00 00 	lea    0x0(%esi,1),%esi
80007949:	8d bc 27 00 00 00 00 	lea    0x0(%edi,1),%edi

80007950 <Console_Call_Clear>:
80007950:	55                   	push   %ebp
80007951:	89 e5                	mov    %esp,%ebp
80007953:	83 ec 08             	sub    $0x8,%esp
80007956:	e8 25 fd ff ff       	call   80007680 <KClear>
8000795b:	89 ec                	mov    %ebp,%esp
8000795d:	31 c0                	xor    %eax,%eax
8000795f:	5d                   	pop    %ebp
80007960:	c3                   	ret    
80007961:	eb 0d                	jmp    80007970 <Console_CreateModuleInterface>
80007963:	90                   	nop    
80007964:	90                   	nop    
80007965:	90                   	nop    
80007966:	90                   	nop    
80007967:	90                   	nop    
80007968:	90                   	nop    
80007969:	90                   	nop    
8000796a:	90                   	nop    
8000796b:	90                   	nop    
8000796c:	90                   	nop    
8000796d:	90                   	nop    
8000796e:	90                   	nop    
8000796f:	90                   	nop    

80007970 <Console_CreateModuleInterface>:
80007970:	55                   	push   %ebp
80007971:	89 e5                	mov    %esp,%ebp
80007973:	83 ec 18             	sub    $0x18,%esp
80007976:	c7 04 24 7e a4 00 80 	movl   $0x8000a47e,(%esp,1)
8000797d:	e8 5e d8 ff ff       	call   800051e0 <ModuleManager_CreateModule>
80007982:	c7 44 24 08 50 79 00 	movl   $0x80007950,0x8(%esp,1)
80007989:	80 
8000798a:	c7 44 24 04 86 a4 00 	movl   $0x8000a486,0x4(%esp,1)
80007991:	80 
80007992:	c7 04 24 7e a4 00 80 	movl   $0x8000a47e,(%esp,1)
80007999:	e8 e2 d8 ff ff       	call   80005280 <ModuleManager_CreateModuleCall>
8000799e:	c7 44 24 08 90 78 00 	movl   $0x80007890,0x8(%esp,1)
800079a5:	80 
800079a6:	c7 44 24 04 8c a4 00 	movl   $0x8000a48c,0x4(%esp,1)
800079ad:	80 
800079ae:	c7 04 24 7e a4 00 80 	movl   $0x8000a47e,(%esp,1)
800079b5:	e8 c6 d8 ff ff       	call   80005280 <ModuleManager_CreateModuleCall>
800079ba:	c7 44 24 08 c0 78 00 	movl   $0x800078c0,0x8(%esp,1)
800079c1:	80 
800079c2:	c7 44 24 04 9b a4 00 	movl   $0x8000a49b,0x4(%esp,1)
800079c9:	80 
800079ca:	c7 04 24 7e a4 00 80 	movl   $0x8000a47e,(%esp,1)
800079d1:	e8 aa d8 ff ff       	call   80005280 <ModuleManager_CreateModuleCall>
800079d6:	c7 44 24 08 e0 78 00 	movl   $0x800078e0,0x8(%esp,1)
800079dd:	80 
800079de:	c7 44 24 04 ae a4 00 	movl   $0x8000a4ae,0x4(%esp,1)
800079e5:	80 
800079e6:	c7 04 24 7e a4 00 80 	movl   $0x8000a47e,(%esp,1)
800079ed:	e8 8e d8 ff ff       	call   80005280 <ModuleManager_CreateModuleCall>
800079f2:	c7 44 24 08 10 79 00 	movl   $0x80007910,0x8(%esp,1)
800079f9:	80 
800079fa:	c7 44 24 04 ab a4 00 	movl   $0x8000a4ab,0x4(%esp,1)
80007a01:	80 
80007a02:	c7 04 24 7e a4 00 80 	movl   $0x8000a47e,(%esp,1)
80007a09:	e8 72 d8 ff ff       	call   80005280 <ModuleManager_CreateModuleCall>
80007a0e:	89 ec                	mov    %ebp,%esp
80007a10:	5d                   	pop    %ebp
80007a11:	c3                   	ret    
	...

80007a20 <Descriptor_SetInterruptGate>:
80007a20:	55                   	push   %ebp
80007a21:	89 e5                	mov    %esp,%ebp
80007a23:	8b 4d 08             	mov    0x8(%ebp),%ecx
80007a26:	a1 60 ac 00 80       	mov    0x8000ac60,%eax
80007a2b:	8b 55 0c             	mov    0xc(%ebp),%edx
80007a2e:	66 c7 44 c8 02 08 00 	movw   $0x8,0x2(%eax,%ecx,8)
80007a35:	66 89 14 c8          	mov    %dx,(%eax,%ecx,8)
80007a39:	c1 ea 10             	shr    $0x10,%edx
80007a3c:	66 89 54 c8 06       	mov    %dx,0x6(%eax,%ecx,8)
80007a41:	66 c7 44 c8 04 00 8e 	movw   $0x8e00,0x4(%eax,%ecx,8)
80007a48:	5d                   	pop    %ebp
80007a49:	c3                   	ret    
80007a4a:	8d b6 00 00 00 00    	lea    0x0(%esi),%esi

80007a50 <Descriptor_SetTaskGate>:
80007a50:	55                   	push   %ebp
80007a51:	89 e5                	mov    %esp,%ebp
80007a53:	8b 4d 08             	mov    0x8(%ebp),%ecx
80007a56:	a1 60 ac 00 80       	mov    0x8000ac60,%eax
80007a5b:	8b 55 0c             	mov    0xc(%ebp),%edx
80007a5e:	66 c7 44 c8 02 08 00 	movw   $0x8,0x2(%eax,%ecx,8)
80007a65:	66 89 14 c8          	mov    %dx,(%eax,%ecx,8)
80007a69:	c1 ea 10             	shr    $0x10,%edx
80007a6c:	66 89 54 c8 06       	mov    %dx,0x6(%eax,%ecx,8)
80007a71:	66 c7 44 c8 04 00 85 	movw   $0x8500,0x4(%eax,%ecx,8)
80007a78:	5d                   	pop    %ebp
80007a79:	c3                   	ret    
80007a7a:	8d b6 00 00 00 00    	lea    0x0(%esi),%esi

80007a80 <Descriptor_SetCallGate>:
80007a80:	55                   	push   %ebp
80007a81:	89 e5                	mov    %esp,%ebp
80007a83:	8b 4d 08             	mov    0x8(%ebp),%ecx
80007a86:	a1 60 ac 00 80       	mov    0x8000ac60,%eax
80007a8b:	8b 55 0c             	mov    0xc(%ebp),%edx
80007a8e:	66 c7 44 c8 02 08 00 	movw   $0x8,0x2(%eax,%ecx,8)
80007a95:	66 89 14 c8          	mov    %dx,(%eax,%ecx,8)
80007a99:	c1 ea 10             	shr    $0x10,%edx
80007a9c:	66 89 54 c8 06       	mov    %dx,0x6(%eax,%ecx,8)
80007aa1:	66 c7 44 c8 04 00 8c 	movw   $0x8c00,0x4(%eax,%ecx,8)
80007aa8:	5d                   	pop    %ebp
80007aa9:	c3                   	ret    
80007aaa:	8d b6 00 00 00 00    	lea    0x0(%esi),%esi

80007ab0 <Descriptor_SetBase>:
80007ab0:	55                   	push   %ebp
80007ab1:	89 e5                	mov    %esp,%ebp
80007ab3:	8b 45 0c             	mov    0xc(%ebp),%eax
80007ab6:	0f b7 4d 08          	movzwl 0x8(%ebp),%ecx
80007aba:	8b 15 64 ac 00 80    	mov    0x8000ac64,%edx
80007ac0:	c1 e9 03             	shr    $0x3,%ecx
80007ac3:	66 89 44 ca 02       	mov    %ax,0x2(%edx,%ecx,8)
80007ac8:	c1 e8 10             	shr    $0x10,%eax
80007acb:	88 44 ca 04          	mov    %al,0x4(%edx,%ecx,8)
80007acf:	c1 e8 08             	shr    $0x8,%eax
80007ad2:	8b 15 64 ac 00 80    	mov    0x8000ac64,%edx
80007ad8:	88 44 ca 07          	mov    %al,0x7(%edx,%ecx,8)
80007adc:	5d                   	pop    %ebp
80007add:	c3                   	ret    
80007ade:	89 f6                	mov    %esi,%esi

80007ae0 <Descriptor_SetLimit>:
80007ae0:	55                   	push   %ebp
80007ae1:	89 e5                	mov    %esp,%ebp
80007ae3:	8b 55 0c             	mov    0xc(%ebp),%edx
80007ae6:	0f b7 4d 08          	movzwl 0x8(%ebp),%ecx
80007aea:	a1 64 ac 00 80       	mov    0x8000ac64,%eax
80007aef:	c1 e9 03             	shr    $0x3,%ecx
80007af2:	81 fa ff ff 0f 00    	cmp    $0xfffff,%edx
80007af8:	c6 44 c8 06 40       	movb   $0x40,0x6(%eax,%ecx,8)
80007afd:	76 0d                	jbe    80007b0c <Descriptor_SetLimit+0x2c>
80007aff:	a1 64 ac 00 80       	mov    0x8000ac64,%eax
80007b04:	c1 ea 0c             	shr    $0xc,%edx
80007b07:	80 4c c8 06 80       	orb    $0x80,0x6(%eax,%ecx,8)
80007b0c:	a1 64 ac 00 80       	mov    0x8000ac64,%eax
80007b11:	66 89 14 c8          	mov    %dx,(%eax,%ecx,8)
80007b15:	c1 ea 10             	shr    $0x10,%edx
80007b18:	80 e2 0f             	and    $0xf,%dl
80007b1b:	08 54 c8 06          	or     %dl,0x6(%eax,%ecx,8)
80007b1f:	5d                   	pop    %ebp
80007b20:	c3                   	ret    
80007b21:	eb 0d                	jmp    80007b30 <Descriptor_SetAccess>
80007b23:	90                   	nop    
80007b24:	90                   	nop    
80007b25:	90                   	nop    
80007b26:	90                   	nop    
80007b27:	90                   	nop    
80007b28:	90                   	nop    
80007b29:	90                   	nop    
80007b2a:	90                   	nop    
80007b2b:	90                   	nop    
80007b2c:	90                   	nop    
80007b2d:	90                   	nop    
80007b2e:	90                   	nop    
80007b2f:	90                   	nop    

80007b30 <Descriptor_SetAccess>:
80007b30:	55                   	push   %ebp
80007b31:	89 e5                	mov    %esp,%ebp
80007b33:	8b 4d 0c             	mov    0xc(%ebp),%ecx
80007b36:	0f b7 45 08          	movzwl 0x8(%ebp),%eax
80007b3a:	8b 15 64 ac 00 80    	mov    0x8000ac64,%edx
80007b40:	c1 e8 03             	shr    $0x3,%eax
80007b43:	88 4c c2 05          	mov    %cl,0x5(%edx,%eax,8)
80007b47:	5d                   	pop    %ebp
80007b48:	c3                   	ret    
80007b49:	00 00                	add    %al,(%eax)
80007b4b:	00 00                	add    %al,(%eax)
80007b4d:	00 00                	add    %al,(%eax)
	...

80007b50 <Exception_Debug>:
80007b50:	55                   	push   %ebp
80007b51:	89 e5                	mov    %esp,%ebp
80007b53:	83 ec 18             	sub    $0x18,%esp
80007b56:	8b 45 08             	mov    0x8(%ebp),%eax
80007b59:	8b 48 34             	mov    0x34(%eax),%ecx
80007b5c:	89 4c 24 0c          	mov    %ecx,0xc(%esp,1)
80007b60:	0f b7 50 38          	movzwl 0x38(%eax),%edx
80007b64:	c7 04 24 b4 a4 00 80 	movl   $0x8000a4b4,(%esp,1)
80007b6b:	c7 44 24 04 e0 a4 00 	movl   $0x8000a4e0,0x4(%esp,1)
80007b72:	80 
80007b73:	89 54 24 08          	mov    %edx,0x8(%esp,1)
80007b77:	e8 84 f6 ff ff       	call   80007200 <KPrint>
80007b7c:	89 ec                	mov    %ebp,%esp
80007b7e:	5d                   	pop    %ebp
80007b7f:	c3                   	ret    

80007b80 <Exception_InvalidOpCode>:
80007b80:	55                   	push   %ebp
80007b81:	89 e5                	mov    %esp,%ebp
80007b83:	83 ec 18             	sub    $0x18,%esp
80007b86:	8b 45 08             	mov    0x8(%ebp),%eax
80007b89:	8b 48 34             	mov    0x34(%eax),%ecx
80007b8c:	89 4c 24 0c          	mov    %ecx,0xc(%esp,1)
80007b90:	0f b7 50 38          	movzwl 0x38(%eax),%edx
80007b94:	c7 04 24 b4 a4 00 80 	movl   $0x8000a4b4,(%esp,1)
80007b9b:	c7 44 24 04 20 a5 00 	movl   $0x8000a520,0x4(%esp,1)
80007ba2:	80 
80007ba3:	89 54 24 08          	mov    %edx,0x8(%esp,1)
80007ba7:	e8 54 f6 ff ff       	call   80007200 <KPrint>
80007bac:	89 ec                	mov    %ebp,%esp
80007bae:	5d                   	pop    %ebp
80007baf:	c3                   	ret    

80007bb0 <Exception_Double>:
80007bb0:	55                   	push   %ebp
80007bb1:	89 e5                	mov    %esp,%ebp
80007bb3:	83 ec 18             	sub    $0x18,%esp
80007bb6:	8b 45 08             	mov    0x8(%ebp),%eax
80007bb9:	8b 48 34             	mov    0x34(%eax),%ecx
80007bbc:	89 4c 24 0c          	mov    %ecx,0xc(%esp,1)
80007bc0:	0f b7 50 38          	movzwl 0x38(%eax),%edx
80007bc4:	c7 04 24 b4 a4 00 80 	movl   $0x8000a4b4,(%esp,1)
80007bcb:	c7 44 24 04 60 a5 00 	movl   $0x8000a560,0x4(%esp,1)
80007bd2:	80 
80007bd3:	89 54 24 08          	mov    %edx,0x8(%esp,1)
80007bd7:	e8 24 f6 ff ff       	call   80007200 <KPrint>
80007bdc:	89 ec                	mov    %ebp,%esp
80007bde:	5d                   	pop    %ebp
80007bdf:	c3                   	ret    

80007be0 <Exception_StackFault>:
80007be0:	55                   	push   %ebp
80007be1:	89 e5                	mov    %esp,%ebp
80007be3:	83 ec 18             	sub    $0x18,%esp
80007be6:	8b 45 08             	mov    0x8(%ebp),%eax
80007be9:	8b 48 34             	mov    0x34(%eax),%ecx
80007bec:	89 4c 24 0c          	mov    %ecx,0xc(%esp,1)
80007bf0:	0f b7 50 38          	movzwl 0x38(%eax),%edx
80007bf4:	c7 04 24 b4 a4 00 80 	movl   $0x8000a4b4,(%esp,1)
80007bfb:	c7 44 24 04 a0 a5 00 	movl   $0x8000a5a0,0x4(%esp,1)
80007c02:	80 
80007c03:	89 54 24 08          	mov    %edx,0x8(%esp,1)
80007c07:	e8 f4 f5 ff ff       	call   80007200 <KPrint>
80007c0c:	89 ec                	mov    %ebp,%esp
80007c0e:	5d                   	pop    %ebp
80007c0f:	c3                   	ret    

80007c10 <Exception_Page>:
80007c10:	55                   	push   %ebp
80007c11:	89 e5                	mov    %esp,%ebp
80007c13:	83 ec 28             	sub    $0x28,%esp
80007c16:	89 75 fc             	mov    %esi,0xfffffffc(%ebp)
80007c19:	8b 75 08             	mov    0x8(%ebp),%esi
80007c1c:	89 5d f8             	mov    %ebx,0xfffffff8(%ebp)
80007c1f:	0f 20 d0             	mov    %cr2,%eax
80007c22:	89 c3                	mov    %eax,%ebx
80007c24:	81 e3 00 f0 ff ff    	and    $0xfffff000,%ebx
80007c2a:	89 1c 24             	mov    %ebx,(%esp,1)
80007c2d:	e8 be c4 ff ff       	call   800040f0 <MemoryManager_GetPTAddress>
80007c32:	89 d9                	mov    %ebx,%ecx
80007c34:	29 c1                	sub    %eax,%ecx
80007c36:	c1 e8 0c             	shr    $0xc,%eax
80007c39:	c1 e9 0c             	shr    $0xc,%ecx
80007c3c:	01 c8                	add    %ecx,%eax
80007c3e:	8b 0d 78 ac 00 80    	mov    0x8000ac78,%ecx
80007c44:	8b 04 81             	mov    (%ecx,%eax,4),%eax
80007c47:	25 00 0e 00 00       	and    $0xe00,%eax
80007c4c:	3d 00 02 00 00       	cmp    $0x200,%eax
80007c51:	74 4d                	je     80007ca0 <Exception_Page+0x90>
80007c53:	89 44 24 18          	mov    %eax,0x18(%esp,1)
80007c57:	8b 46 34             	mov    0x34(%esi),%eax
80007c5a:	89 44 24 14          	mov    %eax,0x14(%esp,1)
80007c5e:	8b 46 38             	mov    0x38(%esi),%eax
80007c61:	89 44 24 10          	mov    %eax,0x10(%esp,1)
80007c65:	0f b7 56 3c          	movzwl 0x3c(%esi),%edx
80007c69:	c7 04 24 b4 a4 00 80 	movl   $0x8000a4b4,(%esp,1)
80007c70:	89 5c 24 08          	mov    %ebx,0x8(%esp,1)
80007c74:	c7 44 24 04 e0 a5 00 	movl   $0x8000a5e0,0x4(%esp,1)
80007c7b:	80 
80007c7c:	89 54 24 0c          	mov    %edx,0xc(%esp,1)
80007c80:	e8 7b f5 ff ff       	call   80007200 <KPrint>
80007c85:	e8 5f 8d ff ff       	call   800009e9 <halt>
80007c8a:	8b 5d f8             	mov    0xfffffff8(%ebp),%ebx
80007c8d:	8b 75 fc             	mov    0xfffffffc(%ebp),%esi
80007c90:	89 ec                	mov    %ebp,%esp
80007c92:	5d                   	pop    %ebp
80007c93:	c3                   	ret    
80007c94:	8d b6 00 00 00 00    	lea    0x0(%esi),%esi
80007c9a:	8d bf 00 00 00 00    	lea    0x0(%edi),%edi
80007ca0:	c7 44 24 04 01 00 00 	movl   $0x1,0x4(%esp,1)
80007ca7:	00 
80007ca8:	89 1c 24             	mov    %ebx,(%esp,1)
80007cab:	e8 00 c6 ff ff       	call   800042b0 <MemoryManager_Page_Allocate>
80007cb0:	eb d8                	jmp    80007c8a <Exception_Page+0x7a>
80007cb2:	8d b4 26 00 00 00 00 	lea    0x0(%esi,1),%esi
80007cb9:	8d bc 27 00 00 00 00 	lea    0x0(%edi,1),%edi

80007cc0 <Exception_GPF>:
80007cc0:	55                   	push   %ebp
80007cc1:	89 e5                	mov    %esp,%ebp
80007cc3:	83 ec 18             	sub    $0x18,%esp
80007cc6:	8b 45 08             	mov    0x8(%ebp),%eax
80007cc9:	8b 48 38             	mov    0x38(%eax),%ecx
80007ccc:	89 4c 24 0c          	mov    %ecx,0xc(%esp,1)
80007cd0:	0f b7 50 3c          	movzwl 0x3c(%eax),%edx
80007cd4:	c7 04 24 b4 a4 00 80 	movl   $0x8000a4b4,(%esp,1)
80007cdb:	c7 44 24 04 be a4 00 	movl   $0x8000a4be,0x4(%esp,1)
80007ce2:	80 
80007ce3:	89 54 24 08          	mov    %edx,0x8(%esp,1)
80007ce7:	e8 14 f5 ff ff       	call   80007200 <KPrint>
80007cec:	89 ec                	mov    %ebp,%esp
80007cee:	5d                   	pop    %ebp
80007cef:	e9 f5 8c ff ff       	jmp    800009e9 <halt>
	...

80007d00 <vsnprintf>:
80007d00:	55                   	push   %ebp
80007d01:	89 e5                	mov    %esp,%ebp
80007d03:	57                   	push   %edi
80007d04:	56                   	push   %esi
80007d05:	53                   	push   %ebx
80007d06:	83 ec 2c             	sub    $0x2c,%esp
80007d09:	8b 75 08             	mov    0x8(%ebp),%esi
80007d0c:	8b 45 0c             	mov    0xc(%ebp),%eax
80007d0f:	8d 54 30 ff          	lea    0xffffffff(%eax,%esi,1),%edx
80007d13:	89 55 f0             	mov    %edx,0xfffffff0(%ebp)
80007d16:	89 f2                	mov    %esi,%edx
80007d18:	4a                   	dec    %edx
80007d19:	39 55 f0             	cmp    %edx,0xfffffff0(%ebp)
80007d1c:	73 0e                	jae    80007d2c <vsnprintf+0x2c>
80007d1e:	c7 45 f0 ff ff ff ff 	movl   $0xffffffff,0xfffffff0(%ebp)
80007d25:	89 f0                	mov    %esi,%eax
80007d27:	f7 d8                	neg    %eax
80007d29:	89 45 0c             	mov    %eax,0xc(%ebp)
80007d2c:	8b 4d 10             	mov    0x10(%ebp),%ecx
80007d2f:	80 39 00             	cmpb   $0x0,(%ecx)
80007d32:	74 2a                	je     80007d5e <vsnprintf+0x5e>
80007d34:	8d b6 00 00 00 00    	lea    0x0(%esi),%esi
80007d3a:	8d bf 00 00 00 00    	lea    0x0(%edi),%edi
80007d40:	0f b6 01             	movzbl (%ecx),%eax
80007d43:	3c 25                	cmp    $0x25,%al
80007d45:	74 49                	je     80007d90 <vsnprintf+0x90>
80007d47:	3b 75 f0             	cmp    0xfffffff0(%ebp),%esi
80007d4a:	77 05                	ja     80007d51 <vsnprintf+0x51>
80007d4c:	88 06                	mov    %al,(%esi)
80007d4e:	8b 4d 10             	mov    0x10(%ebp),%ecx
80007d51:	46                   	inc    %esi
80007d52:	89 cf                	mov    %ecx,%edi
80007d54:	41                   	inc    %ecx
80007d55:	89 4d 10             	mov    %ecx,0x10(%ebp)
80007d58:	80 7f 01 00          	cmpb   $0x0,0x1(%edi)
80007d5c:	75 e2                	jne    80007d40 <vsnprintf+0x40>
80007d5e:	3b 75 f0             	cmp    0xfffffff0(%ebp),%esi
80007d61:	77 12                	ja     80007d75 <vsnprintf+0x75>
80007d63:	c6 06 00             	movb   $0x0,(%esi)
80007d66:	8b 45 08             	mov    0x8(%ebp),%eax
80007d69:	83 c4 2c             	add    $0x2c,%esp
80007d6c:	5b                   	pop    %ebx
80007d6d:	29 c6                	sub    %eax,%esi
80007d6f:	89 f0                	mov    %esi,%eax
80007d71:	5e                   	pop    %esi
80007d72:	5f                   	pop    %edi
80007d73:	5d                   	pop    %ebp
80007d74:	c3                   	ret    
80007d75:	8b 4d 0c             	mov    0xc(%ebp),%ecx
80007d78:	85 c9                	test   %ecx,%ecx
80007d7a:	74 ea                	je     80007d66 <vsnprintf+0x66>
80007d7c:	8b 45 f0             	mov    0xfffffff0(%ebp),%eax
80007d7f:	c6 00 00             	movb   $0x0,(%eax)
80007d82:	eb e2                	jmp    80007d66 <vsnprintf+0x66>
80007d84:	8d b6 00 00 00 00    	lea    0x0(%esi),%esi
80007d8a:	8d bf 00 00 00 00    	lea    0x0(%edi),%edi
80007d90:	31 ff                	xor    %edi,%edi
80007d92:	89 cb                	mov    %ecx,%ebx
80007d94:	41                   	inc    %ecx
80007d95:	89 ca                	mov    %ecx,%edx
80007d97:	89 4d 10             	mov    %ecx,0x10(%ebp)
80007d9a:	0f be 43 01          	movsbl 0x1(%ebx),%eax
80007d9e:	83 e8 20             	sub    $0x20,%eax
80007da1:	83 f8 10             	cmp    $0x10,%eax
80007da4:	77 4a                	ja     80007df0 <vsnprintf+0xf0>
80007da6:	ff 24 85 30 a6 00 80 	jmp    *0x8000a630(,%eax,4)
80007dad:	8d 76 00             	lea    0x0(%esi),%esi
80007db0:	83 cf 10             	or     $0x10,%edi
80007db3:	eb dd                	jmp    80007d92 <vsnprintf+0x92>
80007db5:	8d 74 26 00          	lea    0x0(%esi,1),%esi
80007db9:	8d bc 27 00 00 00 00 	lea    0x0(%edi,1),%edi
80007dc0:	83 cf 08             	or     $0x8,%edi
80007dc3:	eb cd                	jmp    80007d92 <vsnprintf+0x92>
80007dc5:	8d 74 26 00          	lea    0x0(%esi,1),%esi
80007dc9:	8d bc 27 00 00 00 00 	lea    0x0(%edi,1),%edi
80007dd0:	83 cf 20             	or     $0x20,%edi
80007dd3:	eb bd                	jmp    80007d92 <vsnprintf+0x92>
80007dd5:	8d 74 26 00          	lea    0x0(%esi,1),%esi
80007dd9:	8d bc 27 00 00 00 00 	lea    0x0(%edi,1),%edi
80007de0:	83 cf 04             	or     $0x4,%edi
80007de3:	eb ad                	jmp    80007d92 <vsnprintf+0x92>
80007de5:	8d 74 26 00          	lea    0x0(%esi,1),%esi
80007de9:	8d bc 27 00 00 00 00 	lea    0x0(%edi,1),%edi
80007df0:	c7 45 ec ff ff ff ff 	movl   $0xffffffff,0xffffffec(%ebp)
80007df7:	0f b6 1a             	movzbl (%edx),%ebx
80007dfa:	0f b6 c3             	movzbl %bl,%eax
80007dfd:	0f b6 80 20 ab 00 80 	movzbl 0x8000ab20(%eax),%eax
80007e04:	24 04                	and    $0x4,%al
80007e06:	84 c0                	test   %al,%al
80007e08:	0f 84 72 03 00 00    	je     80008180 <vsnprintf+0x480>
80007e0e:	8d 5d 10             	lea    0x10(%ebp),%ebx
80007e11:	31 c9                	xor    %ecx,%ecx
80007e13:	8d b6 00 00 00 00    	lea    0x0(%esi),%esi
80007e19:	8d bc 27 00 00 00 00 	lea    0x0(%edi,1),%edi
80007e20:	8b 13                	mov    (%ebx),%edx
80007e22:	8d 0c 89             	lea    (%ecx,%ecx,4),%ecx
80007e25:	0f be 02             	movsbl (%edx),%eax
80007e28:	8d 4c 48 d0          	lea    0xffffffd0(%eax,%ecx,2),%ecx
80007e2c:	8d 42 01             	lea    0x1(%edx),%eax
80007e2f:	89 03                	mov    %eax,(%ebx)
80007e31:	0f b6 42 01          	movzbl 0x1(%edx),%eax
80007e35:	0f b6 90 20 ab 00 80 	movzbl 0x8000ab20(%eax),%edx
80007e3c:	80 e2 04             	and    $0x4,%dl
80007e3f:	84 d2                	test   %dl,%dl
80007e41:	75 dd                	jne    80007e20 <vsnprintf+0x120>
80007e43:	89 4d ec             	mov    %ecx,0xffffffec(%ebp)
80007e46:	8b 4d 10             	mov    0x10(%ebp),%ecx
80007e49:	c7 45 e8 ff ff ff ff 	movl   $0xffffffff,0xffffffe8(%ebp)
80007e50:	89 cb                	mov    %ecx,%ebx
80007e52:	80 39 2e             	cmpb   $0x2e,(%ecx)
80007e55:	0f 84 a1 02 00 00    	je     800080fc <vsnprintf+0x3fc>
80007e5b:	0f b6 01             	movzbl (%ecx),%eax
80007e5e:	ba ff ff ff ff       	mov    $0xffffffff,%edx
80007e63:	3c 68                	cmp    $0x68,%al
80007e65:	0f 84 65 02 00 00    	je     800080d0 <vsnprintf+0x3d0>
80007e6b:	3c 6c                	cmp    $0x6c,%al
80007e6d:	0f 84 5d 02 00 00    	je     800080d0 <vsnprintf+0x3d0>
80007e73:	3c 4c                	cmp    $0x4c,%al
80007e75:	0f 84 55 02 00 00    	je     800080d0 <vsnprintf+0x3d0>
80007e7b:	3c 5a                	cmp    $0x5a,%al
80007e7d:	0f 84 4d 02 00 00    	je     800080d0 <vsnprintf+0x3d0>
80007e83:	0f be 01             	movsbl (%ecx),%eax
80007e86:	bb 0a 00 00 00       	mov    $0xa,%ebx
80007e8b:	83 e8 25             	sub    $0x25,%eax
80007e8e:	83 f8 53             	cmp    $0x53,%eax
80007e91:	0f 87 19 02 00 00    	ja     800080b0 <vsnprintf+0x3b0>
80007e97:	ff 24 85 74 a6 00 80 	jmp    *0x8000a674(,%eax,4)
80007e9e:	83 e7 10             	and    $0x10,%edi
80007ea1:	75 1d                	jne    80007ec0 <vsnprintf+0x1c0>
80007ea3:	ff 4d ec             	decl   0xffffffec(%ebp)
80007ea6:	8b 45 ec             	mov    0xffffffec(%ebp),%eax
80007ea9:	85 c0                	test   %eax,%eax
80007eab:	7e 13                	jle    80007ec0 <vsnprintf+0x1c0>
80007ead:	3b 75 f0             	cmp    0xfffffff0(%ebp),%esi
80007eb0:	77 03                	ja     80007eb5 <vsnprintf+0x1b5>
80007eb2:	c6 06 20             	movb   $0x20,(%esi)
80007eb5:	ff 4d ec             	decl   0xffffffec(%ebp)
80007eb8:	46                   	inc    %esi
80007eb9:	8b 45 ec             	mov    0xffffffec(%ebp),%eax
80007ebc:	85 c0                	test   %eax,%eax
80007ebe:	7f ed                	jg     80007ead <vsnprintf+0x1ad>
80007ec0:	8b 45 14             	mov    0x14(%ebp),%eax
80007ec3:	83 45 14 04          	addl   $0x4,0x14(%ebp)
80007ec7:	3b 75 f0             	cmp    0xfffffff0(%ebp),%esi
80007eca:	0f b6 00             	movzbl (%eax),%eax
80007ecd:	77 02                	ja     80007ed1 <vsnprintf+0x1d1>
80007ecf:	88 06                	mov    %al,(%esi)
80007ed1:	ff 4d ec             	decl   0xffffffec(%ebp)
80007ed4:	46                   	inc    %esi
80007ed5:	8b 45 ec             	mov    0xffffffec(%ebp),%eax
80007ed8:	85 c0                	test   %eax,%eax
80007eda:	7e 13                	jle    80007eef <vsnprintf+0x1ef>
80007edc:	3b 75 f0             	cmp    0xfffffff0(%ebp),%esi
80007edf:	77 03                	ja     80007ee4 <vsnprintf+0x1e4>
80007ee1:	c6 06 20             	movb   $0x20,(%esi)
80007ee4:	ff 4d ec             	decl   0xffffffec(%ebp)
80007ee7:	46                   	inc    %esi
80007ee8:	8b 4d ec             	mov    0xffffffec(%ebp),%ecx
80007eeb:	85 c9                	test   %ecx,%ecx
80007eed:	7f ed                	jg     80007edc <vsnprintf+0x1dc>
80007eef:	8b 4d 10             	mov    0x10(%ebp),%ecx
80007ef2:	e9 5b fe ff ff       	jmp    80007d52 <vsnprintf+0x52>
80007ef7:	3b 75 f0             	cmp    0xfffffff0(%ebp),%esi
80007efa:	0f 87 51 fe ff ff    	ja     80007d51 <vsnprintf+0x51>
80007f00:	c6 06 25             	movb   $0x25,(%esi)
80007f03:	e9 46 fe ff ff       	jmp    80007d4e <vsnprintf+0x4e>
80007f08:	83 cf 40             	or     $0x40,%edi
80007f0b:	bb 10 00 00 00       	mov    $0x10,%ebx
80007f10:	83 fa 4c             	cmp    $0x4c,%edx
80007f13:	0f 84 85 00 00 00    	je     80007f9e <vsnprintf+0x29e>
80007f19:	83 fa 6c             	cmp    $0x6c,%edx
80007f1c:	74 0a                	je     80007f28 <vsnprintf+0x228>
80007f1e:	83 fa 5a             	cmp    $0x5a,%edx
80007f21:	74 6e                	je     80007f91 <vsnprintf+0x291>
80007f23:	83 fa 68             	cmp    $0x68,%edx
80007f26:	74 4e                	je     80007f76 <vsnprintf+0x276>
80007f28:	8b 45 14             	mov    0x14(%ebp),%eax
80007f2b:	31 c9                	xor    %ecx,%ecx
80007f2d:	83 45 14 04          	addl   $0x4,0x14(%ebp)
80007f31:	f7 c7 02 00 00 00    	test   $0x2,%edi
80007f37:	8b 10                	mov    (%eax),%edx
80007f39:	74 07                	je     80007f42 <vsnprintf+0x242>
80007f3b:	89 d0                	mov    %edx,%eax
80007f3d:	89 c1                	mov    %eax,%ecx
80007f3f:	c1 f9 1f             	sar    $0x1f,%ecx
80007f42:	89 5c 24 10          	mov    %ebx,0x10(%esp,1)
80007f46:	8b 45 e8             	mov    0xffffffe8(%ebp),%eax
80007f49:	8b 5d f0             	mov    0xfffffff0(%ebp),%ebx
80007f4c:	89 7c 24 1c          	mov    %edi,0x1c(%esp,1)
80007f50:	89 44 24 18          	mov    %eax,0x18(%esp,1)
80007f54:	8b 45 ec             	mov    0xffffffec(%ebp),%eax
80007f57:	89 54 24 08          	mov    %edx,0x8(%esp,1)
80007f5b:	89 4c 24 0c          	mov    %ecx,0xc(%esp,1)
80007f5f:	89 44 24 14          	mov    %eax,0x14(%esp,1)
80007f63:	89 5c 24 04          	mov    %ebx,0x4(%esp,1)
80007f67:	89 34 24             	mov    %esi,(%esp,1)
80007f6a:	e8 81 02 00 00       	call   800081f0 <number>
80007f6f:	89 c6                	mov    %eax,%esi
80007f71:	e9 79 ff ff ff       	jmp    80007eef <vsnprintf+0x1ef>
80007f76:	8b 45 14             	mov    0x14(%ebp),%eax
80007f79:	31 c9                	xor    %ecx,%ecx
80007f7b:	83 45 14 04          	addl   $0x4,0x14(%ebp)
80007f7f:	f7 c7 02 00 00 00    	test   $0x2,%edi
80007f85:	0f b7 10             	movzwl (%eax),%edx
80007f88:	74 b8                	je     80007f42 <vsnprintf+0x242>
80007f8a:	0f bf d2             	movswl %dx,%edx
80007f8d:	89 d1                	mov    %edx,%ecx
80007f8f:	eb ae                	jmp    80007f3f <vsnprintf+0x23f>
80007f91:	8b 45 14             	mov    0x14(%ebp),%eax
80007f94:	31 c9                	xor    %ecx,%ecx
80007f96:	83 45 14 04          	addl   $0x4,0x14(%ebp)
80007f9a:	8b 10                	mov    (%eax),%edx
80007f9c:	eb a4                	jmp    80007f42 <vsnprintf+0x242>
80007f9e:	8b 45 14             	mov    0x14(%ebp),%eax
80007fa1:	83 45 14 08          	addl   $0x8,0x14(%ebp)
80007fa5:	8b 10                	mov    (%eax),%edx
80007fa7:	8b 48 04             	mov    0x4(%eax),%ecx
80007faa:	eb 96                	jmp    80007f42 <vsnprintf+0x242>
80007fac:	83 cf 02             	or     $0x2,%edi
80007faf:	e9 5c ff ff ff       	jmp    80007f10 <vsnprintf+0x210>
80007fb4:	8b 45 14             	mov    0x14(%ebp),%eax
80007fb7:	89 f2                	mov    %esi,%edx
80007fb9:	83 45 14 04          	addl   $0x4,0x14(%ebp)
80007fbd:	8b 38                	mov    (%eax),%edi
80007fbf:	8b 45 08             	mov    0x8(%ebp),%eax
80007fc2:	29 c2                	sub    %eax,%edx
80007fc4:	89 17                	mov    %edx,(%edi)
80007fc6:	e9 87 fd ff ff       	jmp    80007d52 <vsnprintf+0x52>
80007fcb:	bb 08 00 00 00       	mov    $0x8,%ebx
80007fd0:	e9 3b ff ff ff       	jmp    80007f10 <vsnprintf+0x210>
80007fd5:	83 7d ec ff          	cmpl   $0xffffffff,0xffffffec(%ebp)
80007fd9:	74 3b                	je     80008016 <vsnprintf+0x316>
80007fdb:	89 7c 24 1c          	mov    %edi,0x1c(%esp,1)
80007fdf:	8b 45 e8             	mov    0xffffffe8(%ebp),%eax
80007fe2:	c7 44 24 10 10 00 00 	movl   $0x10,0x10(%esp,1)
80007fe9:	00 
80007fea:	89 44 24 18          	mov    %eax,0x18(%esp,1)
80007fee:	8b 45 ec             	mov    0xffffffec(%ebp),%eax
80007ff1:	89 44 24 14          	mov    %eax,0x14(%esp,1)
80007ff5:	8b 45 14             	mov    0x14(%ebp),%eax
80007ff8:	83 45 14 04          	addl   $0x4,0x14(%ebp)
80007ffc:	8b 38                	mov    (%eax),%edi
80007ffe:	c7 44 24 0c 00 00 00 	movl   $0x0,0xc(%esp,1)
80008005:	00 
80008006:	8b 45 f0             	mov    0xfffffff0(%ebp),%eax
80008009:	89 7c 24 08          	mov    %edi,0x8(%esp,1)
8000800d:	89 44 24 04          	mov    %eax,0x4(%esp,1)
80008011:	e9 51 ff ff ff       	jmp    80007f67 <vsnprintf+0x267>
80008016:	c7 45 ec 08 00 00 00 	movl   $0x8,0xffffffec(%ebp)
8000801d:	83 cf 01             	or     $0x1,%edi
80008020:	eb b9                	jmp    80007fdb <vsnprintf+0x2db>
80008022:	8b 45 14             	mov    0x14(%ebp),%eax
80008025:	83 45 14 04          	addl   $0x4,0x14(%ebp)
80008029:	8b 08                	mov    (%eax),%ecx
8000802b:	85 c9                	test   %ecx,%ecx
8000802d:	74 74                	je     800080a3 <vsnprintf+0x3a3>
8000802f:	8b 55 e8             	mov    0xffffffe8(%ebp),%edx
80008032:	89 c8                	mov    %ecx,%eax
80008034:	eb 06                	jmp    8000803c <vsnprintf+0x33c>
80008036:	80 38 00             	cmpb   $0x0,(%eax)
80008039:	74 07                	je     80008042 <vsnprintf+0x342>
8000803b:	40                   	inc    %eax
8000803c:	4a                   	dec    %edx
8000803d:	83 fa ff             	cmp    $0xffffffff,%edx
80008040:	75 f4                	jne    80008036 <vsnprintf+0x336>
80008042:	29 c8                	sub    %ecx,%eax
80008044:	83 e7 10             	and    $0x10,%edi
80008047:	89 c3                	mov    %eax,%ebx
80008049:	75 1d                	jne    80008068 <vsnprintf+0x368>
8000804b:	8b 45 ec             	mov    0xffffffec(%ebp),%eax
8000804e:	ff 4d ec             	decl   0xffffffec(%ebp)
80008051:	39 d8                	cmp    %ebx,%eax
80008053:	7e 13                	jle    80008068 <vsnprintf+0x368>
80008055:	3b 75 f0             	cmp    0xfffffff0(%ebp),%esi
80008058:	77 03                	ja     8000805d <vsnprintf+0x35d>
8000805a:	c6 06 20             	movb   $0x20,(%esi)
8000805d:	8b 45 ec             	mov    0xffffffec(%ebp),%eax
80008060:	46                   	inc    %esi
80008061:	ff 4d ec             	decl   0xffffffec(%ebp)
80008064:	39 d8                	cmp    %ebx,%eax
80008066:	7f ed                	jg     80008055 <vsnprintf+0x355>
80008068:	85 db                	test   %ebx,%ebx
8000806a:	7e 11                	jle    8000807d <vsnprintf+0x37d>
8000806c:	89 da                	mov    %ebx,%edx
8000806e:	3b 75 f0             	cmp    0xfffffff0(%ebp),%esi
80008071:	77 05                	ja     80008078 <vsnprintf+0x378>
80008073:	0f b6 01             	movzbl (%ecx),%eax
80008076:	88 06                	mov    %al,(%esi)
80008078:	46                   	inc    %esi
80008079:	41                   	inc    %ecx
8000807a:	4a                   	dec    %edx
8000807b:	75 f1                	jne    8000806e <vsnprintf+0x36e>
8000807d:	8b 45 ec             	mov    0xffffffec(%ebp),%eax
80008080:	ff 4d ec             	decl   0xffffffec(%ebp)
80008083:	39 d8                	cmp    %ebx,%eax
80008085:	0f 8e 64 fe ff ff    	jle    80007eef <vsnprintf+0x1ef>
8000808b:	3b 75 f0             	cmp    0xfffffff0(%ebp),%esi
8000808e:	77 03                	ja     80008093 <vsnprintf+0x393>
80008090:	c6 06 20             	movb   $0x20,(%esi)
80008093:	8b 45 ec             	mov    0xffffffec(%ebp),%eax
80008096:	46                   	inc    %esi
80008097:	ff 4d ec             	decl   0xffffffec(%ebp)
8000809a:	39 d8                	cmp    %ebx,%eax
8000809c:	7f ed                	jg     8000808b <vsnprintf+0x38b>
8000809e:	e9 4c fe ff ff       	jmp    80007eef <vsnprintf+0x1ef>
800080a3:	b9 26 a6 00 80       	mov    $0x8000a626,%ecx
800080a8:	eb 85                	jmp    8000802f <vsnprintf+0x32f>
800080aa:	8d b6 00 00 00 00    	lea    0x0(%esi),%esi
800080b0:	3b 75 f0             	cmp    0xfffffff0(%ebp),%esi
800080b3:	77 06                	ja     800080bb <vsnprintf+0x3bb>
800080b5:	c6 06 25             	movb   $0x25,(%esi)
800080b8:	8b 4d 10             	mov    0x10(%ebp),%ecx
800080bb:	0f b6 01             	movzbl (%ecx),%eax
800080be:	46                   	inc    %esi
800080bf:	84 c0                	test   %al,%al
800080c1:	0f 85 80 fc ff ff    	jne    80007d47 <vsnprintf+0x47>
800080c7:	49                   	dec    %ecx
800080c8:	89 4d 10             	mov    %ecx,0x10(%ebp)
800080cb:	e9 82 fc ff ff       	jmp    80007d52 <vsnprintf+0x52>
800080d0:	0f be 11             	movsbl (%ecx),%edx
800080d3:	89 c8                	mov    %ecx,%eax
800080d5:	41                   	inc    %ecx
800080d6:	89 4d 10             	mov    %ecx,0x10(%ebp)
800080d9:	83 fa 6c             	cmp    $0x6c,%edx
800080dc:	0f 85 a1 fd ff ff    	jne    80007e83 <vsnprintf+0x183>
800080e2:	80 78 01 6c          	cmpb   $0x6c,0x1(%eax)
800080e6:	0f 85 97 fd ff ff    	jne    80007e83 <vsnprintf+0x183>
800080ec:	8d 48 02             	lea    0x2(%eax),%ecx
800080ef:	ba 4c 00 00 00       	mov    $0x4c,%edx
800080f4:	89 4d 10             	mov    %ecx,0x10(%ebp)
800080f7:	e9 87 fd ff ff       	jmp    80007e83 <vsnprintf+0x183>
800080fc:	41                   	inc    %ecx
800080fd:	89 4d 10             	mov    %ecx,0x10(%ebp)
80008100:	0f b6 53 01          	movzbl 0x1(%ebx),%edx
80008104:	0f b6 c2             	movzbl %dl,%eax
80008107:	0f b6 80 20 ab 00 80 	movzbl 0x8000ab20(%eax),%eax
8000810e:	24 04                	and    $0x4,%al
80008110:	84 c0                	test   %al,%al
80008112:	74 44                	je     80008158 <vsnprintf+0x458>
80008114:	8d 5d 10             	lea    0x10(%ebp),%ebx
80008117:	31 c9                	xor    %ecx,%ecx
80008119:	8d b4 26 00 00 00 00 	lea    0x0(%esi,1),%esi
80008120:	8b 13                	mov    (%ebx),%edx
80008122:	8d 0c 89             	lea    (%ecx,%ecx,4),%ecx
80008125:	0f be 02             	movsbl (%edx),%eax
80008128:	8d 4c 48 d0          	lea    0xffffffd0(%eax,%ecx,2),%ecx
8000812c:	8d 42 01             	lea    0x1(%edx),%eax
8000812f:	89 03                	mov    %eax,(%ebx)
80008131:	0f b6 42 01          	movzbl 0x1(%edx),%eax
80008135:	0f b6 90 20 ab 00 80 	movzbl 0x8000ab20(%eax),%edx
8000813c:	80 e2 04             	and    $0x4,%dl
8000813f:	84 d2                	test   %dl,%dl
80008141:	75 dd                	jne    80008120 <vsnprintf+0x420>
80008143:	89 4d e8             	mov    %ecx,0xffffffe8(%ebp)
80008146:	8b 4d 10             	mov    0x10(%ebp),%ecx
80008149:	8b 45 e8             	mov    0xffffffe8(%ebp),%eax
8000814c:	c1 e8 1f             	shr    $0x1f,%eax
8000814f:	48                   	dec    %eax
80008150:	21 45 e8             	and    %eax,0xffffffe8(%ebp)
80008153:	e9 03 fd ff ff       	jmp    80007e5b <vsnprintf+0x15b>
80008158:	80 fa 2a             	cmp    $0x2a,%dl
8000815b:	75 ec                	jne    80008149 <vsnprintf+0x449>
8000815d:	8b 45 14             	mov    0x14(%ebp),%eax
80008160:	8d 4b 02             	lea    0x2(%ebx),%ecx
80008163:	83 45 14 04          	addl   $0x4,0x14(%ebp)
80008167:	8b 00                	mov    (%eax),%eax
80008169:	89 4d 10             	mov    %ecx,0x10(%ebp)
8000816c:	89 45 e8             	mov    %eax,0xffffffe8(%ebp)
8000816f:	eb d8                	jmp    80008149 <vsnprintf+0x449>
80008171:	eb 0d                	jmp    80008180 <vsnprintf+0x480>
80008173:	90                   	nop    
80008174:	90                   	nop    
80008175:	90                   	nop    
80008176:	90                   	nop    
80008177:	90                   	nop    
80008178:	90                   	nop    
80008179:	90                   	nop    
8000817a:	90                   	nop    
8000817b:	90                   	nop    
8000817c:	90                   	nop    
8000817d:	90                   	nop    
8000817e:	90                   	nop    
8000817f:	90                   	nop    
80008180:	80 fb 2a             	cmp    $0x2a,%bl
80008183:	0f 85 c0 fc ff ff    	jne    80007e49 <vsnprintf+0x149>
80008189:	8b 45 14             	mov    0x14(%ebp),%eax
8000818c:	8d 4a 01             	lea    0x1(%edx),%ecx
8000818f:	83 45 14 04          	addl   $0x4,0x14(%ebp)
80008193:	8b 00                	mov    (%eax),%eax
80008195:	89 4d 10             	mov    %ecx,0x10(%ebp)
80008198:	85 c0                	test   %eax,%eax
8000819a:	89 45 ec             	mov    %eax,0xffffffec(%ebp)
8000819d:	0f 89 a6 fc ff ff    	jns    80007e49 <vsnprintf+0x149>
800081a3:	f7 d8                	neg    %eax
800081a5:	83 cf 10             	or     $0x10,%edi
800081a8:	89 45 ec             	mov    %eax,0xffffffec(%ebp)
800081ab:	e9 99 fc ff ff       	jmp    80007e49 <vsnprintf+0x149>
800081b0:	83 cf 01             	or     $0x1,%edi
800081b3:	e9 da fb ff ff       	jmp    80007d92 <vsnprintf+0x92>
800081b8:	90                   	nop    
800081b9:	8d b4 26 00 00 00 00 	lea    0x0(%esi,1),%esi

800081c0 <snprintf>:
800081c0:	55                   	push   %ebp
800081c1:	89 e5                	mov    %esp,%ebp
800081c3:	83 ec 18             	sub    $0x18,%esp
800081c6:	8b 45 10             	mov    0x10(%ebp),%eax
800081c9:	8d 55 14             	lea    0x14(%ebp),%edx
800081cc:	89 54 24 0c          	mov    %edx,0xc(%esp,1)
800081d0:	89 44 24 08          	mov    %eax,0x8(%esp,1)
800081d4:	8b 45 0c             	mov    0xc(%ebp),%eax
800081d7:	89 44 24 04          	mov    %eax,0x4(%esp,1)
800081db:	8b 45 08             	mov    0x8(%ebp),%eax
800081de:	89 04 24             	mov    %eax,(%esp,1)
800081e1:	e8 1a fb ff ff       	call   80007d00 <vsnprintf>
800081e6:	89 ec                	mov    %ebp,%esp
800081e8:	5d                   	pop    %ebp
800081e9:	c3                   	ret    
800081ea:	8d b6 00 00 00 00    	lea    0x0(%esi),%esi

800081f0 <number>:
800081f0:	55                   	push   %ebp
800081f1:	89 e5                	mov    %esp,%ebp
800081f3:	57                   	push   %edi
800081f4:	8d bd 68 ff ff ff    	lea    0xffffff68(%ebp),%edi
800081fa:	56                   	push   %esi
800081fb:	be e0 a7 00 80       	mov    $0x8000a7e0,%esi
80008200:	53                   	push   %ebx
80008201:	81 ec ec 00 00 00    	sub    $0xec,%esp
80008207:	8b 4d 14             	mov    0x14(%ebp),%ecx
8000820a:	fc                   	cld    
8000820b:	8b 45 10             	mov    0x10(%ebp),%eax
8000820e:	8b 5d 08             	mov    0x8(%ebp),%ebx
80008211:	89 8d 34 ff ff ff    	mov    %ecx,0xffffff34(%ebp)
80008217:	b9 09 00 00 00       	mov    $0x9,%ecx
8000821c:	f3 a5                	repz movsl %ds:(%esi),%es:(%edi)
8000821e:	89 85 30 ff ff ff    	mov    %eax,0xffffff30(%ebp)
80008224:	be 20 a8 00 80       	mov    $0x8000a820,%esi
80008229:	b9 09 00 00 00       	mov    $0x9,%ecx
8000822e:	0f b6 15 04 a8 00 80 	movzbl 0x8000a804,%edx
80008235:	88 17                	mov    %dl,(%edi)
80008237:	8d bd 38 ff ff ff    	lea    0xffffff38(%ebp),%edi
8000823d:	89 fa                	mov    %edi,%edx
8000823f:	f3 a5                	repz movsl %ds:(%esi),%es:(%edi)
80008241:	89 95 28 ff ff ff    	mov    %edx,0xffffff28(%ebp)
80008247:	0f b6 0d 44 a8 00 80 	movzbl 0x8000a844,%ecx
8000824e:	88 0f                	mov    %cl,(%edi)
80008250:	f7 45 24 40 00 00 00 	testl  $0x40,0x24(%ebp)
80008257:	75 0c                	jne    80008265 <number+0x75>
80008259:	8d b5 68 ff ff ff    	lea    0xffffff68(%ebp),%esi
8000825f:	89 b5 28 ff ff ff    	mov    %esi,0xffffff28(%ebp)
80008265:	f7 45 24 10 00 00 00 	testl  $0x10,0x24(%ebp)
8000826c:	74 04                	je     80008272 <number+0x82>
8000826e:	83 65 24 fe          	andl   $0xfffffffe,0x24(%ebp)
80008272:	8b 45 18             	mov    0x18(%ebp),%eax
80008275:	31 d2                	xor    %edx,%edx
80008277:	83 e8 02             	sub    $0x2,%eax
8000827a:	83 f8 22             	cmp    $0x22,%eax
8000827d:	0f 87 92 01 00 00    	ja     80008415 <number+0x225>
80008283:	f7 45 24 01 00 00 00 	testl  $0x1,0x24(%ebp)
8000828a:	c6 85 2f ff ff ff 30 	movb   $0x30,0xffffff2f(%ebp)
80008291:	75 07                	jne    8000829a <number+0xaa>
80008293:	c6 85 2f ff ff ff 20 	movb   $0x20,0xffffff2f(%ebp)
8000829a:	f7 45 24 02 00 00 00 	testl  $0x2,0x24(%ebp)
800082a1:	c6 85 2e ff ff ff 00 	movb   $0x0,0xffffff2e(%ebp)
800082a8:	74 25                	je     800082cf <number+0xdf>
800082aa:	8b 85 34 ff ff ff    	mov    0xffffff34(%ebp),%eax
800082b0:	85 c0                	test   %eax,%eax
800082b2:	0f 88 2d 02 00 00    	js     800084e5 <number+0x2f5>
800082b8:	f7 45 24 04 00 00 00 	testl  $0x4,0x24(%ebp)
800082bf:	0f 84 07 02 00 00    	je     800084cc <number+0x2dc>
800082c5:	c6 85 2e ff ff ff 2b 	movb   $0x2b,0xffffff2e(%ebp)
800082cc:	ff 4d 1c             	decl   0x1c(%ebp)
800082cf:	f7 45 24 20 00 00 00 	testl  $0x20,0x24(%ebp)
800082d6:	74 14                	je     800082ec <number+0xfc>
800082d8:	83 7d 18 10          	cmpl   $0x10,0x18(%ebp)
800082dc:	0f 84 e1 01 00 00    	je     800084c3 <number+0x2d3>
800082e2:	83 7d 18 08          	cmpl   $0x8,0x18(%ebp)
800082e6:	0f 84 cf 01 00 00    	je     800084bb <number+0x2cb>
800082ec:	8b 85 34 ff ff ff    	mov    0xffffff34(%ebp),%eax
800082f2:	31 f6                	xor    %esi,%esi
800082f4:	0b 85 30 ff ff ff    	or     0xffffff30(%ebp),%eax
800082fa:	0f 85 50 01 00 00    	jne    80008450 <number+0x260>
80008300:	c6 45 98 30          	movb   $0x30,0xffffff98(%ebp)
80008304:	be 01 00 00 00       	mov    $0x1,%esi
80008309:	3b 75 20             	cmp    0x20(%ebp),%esi
8000830c:	7e 03                	jle    80008311 <number+0x121>
8000830e:	89 75 20             	mov    %esi,0x20(%ebp)
80008311:	8b 7d 20             	mov    0x20(%ebp),%edi
80008314:	29 7d 1c             	sub    %edi,0x1c(%ebp)
80008317:	f7 45 24 11 00 00 00 	testl  $0x11,0x24(%ebp)
8000831e:	75 23                	jne    80008343 <number+0x153>
80008320:	8b 45 1c             	mov    0x1c(%ebp),%eax
80008323:	ff 4d 1c             	decl   0x1c(%ebp)
80008326:	85 c0                	test   %eax,%eax
80008328:	7e 19                	jle    80008343 <number+0x153>
8000832a:	8d b6 00 00 00 00    	lea    0x0(%esi),%esi
80008330:	3b 5d 0c             	cmp    0xc(%ebp),%ebx
80008333:	77 03                	ja     80008338 <number+0x148>
80008335:	c6 03 20             	movb   $0x20,(%ebx)
80008338:	8b 45 1c             	mov    0x1c(%ebp),%eax
8000833b:	43                   	inc    %ebx
8000833c:	ff 4d 1c             	decl   0x1c(%ebp)
8000833f:	85 c0                	test   %eax,%eax
80008341:	7f ed                	jg     80008330 <number+0x140>
80008343:	80 bd 2e ff ff ff 00 	cmpb   $0x0,0xffffff2e(%ebp)
8000834a:	74 0f                	je     8000835b <number+0x16b>
8000834c:	3b 5d 0c             	cmp    0xc(%ebp),%ebx
8000834f:	77 09                	ja     8000835a <number+0x16a>
80008351:	0f b6 85 2e ff ff ff 	movzbl 0xffffff2e(%ebp),%eax
80008358:	88 03                	mov    %al,(%ebx)
8000835a:	43                   	inc    %ebx
8000835b:	f7 45 24 20 00 00 00 	testl  $0x20,0x24(%ebp)
80008362:	74 14                	je     80008378 <number+0x188>
80008364:	83 7d 18 08          	cmpl   $0x8,0x18(%ebp)
80008368:	0f 84 d4 00 00 00    	je     80008442 <number+0x252>
8000836e:	83 7d 18 10          	cmpl   $0x10,0x18(%ebp)
80008372:	0f 84 aa 00 00 00    	je     80008422 <number+0x232>
80008378:	f7 45 24 10 00 00 00 	testl  $0x10,0x24(%ebp)
8000837f:	75 28                	jne    800083a9 <number+0x1b9>
80008381:	8b 45 1c             	mov    0x1c(%ebp),%eax
80008384:	ff 4d 1c             	decl   0x1c(%ebp)
80008387:	85 c0                	test   %eax,%eax
80008389:	7e 1e                	jle    800083a9 <number+0x1b9>
8000838b:	90                   	nop    
8000838c:	8d 74 26 00          	lea    0x0(%esi,1),%esi
80008390:	3b 5d 0c             	cmp    0xc(%ebp),%ebx
80008393:	77 09                	ja     8000839e <number+0x1ae>
80008395:	0f b6 95 2f ff ff ff 	movzbl 0xffffff2f(%ebp),%edx
8000839c:	88 13                	mov    %dl,(%ebx)
8000839e:	8b 45 1c             	mov    0x1c(%ebp),%eax
800083a1:	43                   	inc    %ebx
800083a2:	ff 4d 1c             	decl   0x1c(%ebp)
800083a5:	85 c0                	test   %eax,%eax
800083a7:	7f e7                	jg     80008390 <number+0x1a0>
800083a9:	8b 45 20             	mov    0x20(%ebp),%eax
800083ac:	ff 4d 20             	decl   0x20(%ebp)
800083af:	39 f0                	cmp    %esi,%eax
800083b1:	7e 20                	jle    800083d3 <number+0x1e3>
800083b3:	8d b6 00 00 00 00    	lea    0x0(%esi),%esi
800083b9:	8d bc 27 00 00 00 00 	lea    0x0(%edi,1),%edi
800083c0:	3b 5d 0c             	cmp    0xc(%ebp),%ebx
800083c3:	77 03                	ja     800083c8 <number+0x1d8>
800083c5:	c6 03 30             	movb   $0x30,(%ebx)
800083c8:	8b 45 20             	mov    0x20(%ebp),%eax
800083cb:	43                   	inc    %ebx
800083cc:	ff 4d 20             	decl   0x20(%ebp)
800083cf:	39 f0                	cmp    %esi,%eax
800083d1:	7f ed                	jg     800083c0 <number+0x1d0>
800083d3:	89 f1                	mov    %esi,%ecx
800083d5:	4e                   	dec    %esi
800083d6:	85 c9                	test   %ecx,%ecx
800083d8:	7e 1a                	jle    800083f4 <number+0x204>
800083da:	8d b6 00 00 00 00    	lea    0x0(%esi),%esi
800083e0:	3b 5d 0c             	cmp    0xc(%ebp),%ebx
800083e3:	77 07                	ja     800083ec <number+0x1fc>
800083e5:	0f b6 54 2e 98       	movzbl 0xffffff98(%esi,%ebp,1),%edx
800083ea:	88 13                	mov    %dl,(%ebx)
800083ec:	89 f7                	mov    %esi,%edi
800083ee:	43                   	inc    %ebx
800083ef:	4e                   	dec    %esi
800083f0:	85 ff                	test   %edi,%edi
800083f2:	7f ec                	jg     800083e0 <number+0x1f0>
800083f4:	8b 45 1c             	mov    0x1c(%ebp),%eax
800083f7:	ff 4d 1c             	decl   0x1c(%ebp)
800083fa:	85 c0                	test   %eax,%eax
800083fc:	7e 15                	jle    80008413 <number+0x223>
800083fe:	89 f6                	mov    %esi,%esi
80008400:	3b 5d 0c             	cmp    0xc(%ebp),%ebx
80008403:	77 03                	ja     80008408 <number+0x218>
80008405:	c6 03 20             	movb   $0x20,(%ebx)
80008408:	8b 45 1c             	mov    0x1c(%ebp),%eax
8000840b:	43                   	inc    %ebx
8000840c:	ff 4d 1c             	decl   0x1c(%ebp)
8000840f:	85 c0                	test   %eax,%eax
80008411:	7f ed                	jg     80008400 <number+0x210>
80008413:	89 da                	mov    %ebx,%edx
80008415:	81 c4 ec 00 00 00    	add    $0xec,%esp
8000841b:	89 d0                	mov    %edx,%eax
8000841d:	5b                   	pop    %ebx
8000841e:	5e                   	pop    %esi
8000841f:	5f                   	pop    %edi
80008420:	5d                   	pop    %ebp
80008421:	c3                   	ret    
80008422:	3b 5d 0c             	cmp    0xc(%ebp),%ebx
80008425:	77 03                	ja     8000842a <number+0x23a>
80008427:	c6 03 30             	movb   $0x30,(%ebx)
8000842a:	43                   	inc    %ebx
8000842b:	3b 5d 0c             	cmp    0xc(%ebp),%ebx
8000842e:	77 0c                	ja     8000843c <number+0x24c>
80008430:	8b bd 28 ff ff ff    	mov    0xffffff28(%ebp),%edi
80008436:	0f b6 4f 21          	movzbl 0x21(%edi),%ecx
8000843a:	88 0b                	mov    %cl,(%ebx)
8000843c:	43                   	inc    %ebx
8000843d:	e9 36 ff ff ff       	jmp    80008378 <number+0x188>
80008442:	3b 5d 0c             	cmp    0xc(%ebp),%ebx
80008445:	77 f5                	ja     8000843c <number+0x24c>
80008447:	c6 03 30             	movb   $0x30,(%ebx)
8000844a:	eb f0                	jmp    8000843c <number+0x24c>
8000844c:	8d 74 26 00          	lea    0x0(%esi,1),%esi
80008450:	8d 55 e8             	lea    0xffffffe8(%ebp),%edx
80008453:	8d 3c 32             	lea    (%edx,%esi,1),%edi
80008456:	8b 85 30 ff ff ff    	mov    0xffffff30(%ebp),%eax
8000845c:	8b 95 34 ff ff ff    	mov    0xffffff34(%ebp),%edx
80008462:	46                   	inc    %esi
80008463:	89 85 14 ff ff ff    	mov    %eax,0xffffff14(%ebp)
80008469:	85 d2                	test   %edx,%edx
8000846b:	89 d1                	mov    %edx,%ecx
8000846d:	74 09                	je     80008478 <number+0x288>
8000846f:	89 d0                	mov    %edx,%eax
80008471:	31 d2                	xor    %edx,%edx
80008473:	f7 75 18             	divl   0x18(%ebp)
80008476:	89 c1                	mov    %eax,%ecx
80008478:	8b 85 14 ff ff ff    	mov    0xffffff14(%ebp),%eax
8000847e:	f7 75 18             	divl   0x18(%ebp)
80008481:	89 95 10 ff ff ff    	mov    %edx,0xffffff10(%ebp)
80008487:	89 ca                	mov    %ecx,%edx
80008489:	89 95 34 ff ff ff    	mov    %edx,0xffffff34(%ebp)
8000848f:	8b 8d 10 ff ff ff    	mov    0xffffff10(%ebp),%ecx
80008495:	8b 95 28 ff ff ff    	mov    0xffffff28(%ebp),%edx
8000849b:	89 85 30 ff ff ff    	mov    %eax,0xffffff30(%ebp)
800084a1:	0f b6 04 11          	movzbl (%ecx,%edx,1),%eax
800084a5:	88 47 b0             	mov    %al,0xffffffb0(%edi)
800084a8:	8b 85 34 ff ff ff    	mov    0xffffff34(%ebp),%eax
800084ae:	0b 85 30 ff ff ff    	or     0xffffff30(%ebp),%eax
800084b4:	75 9a                	jne    80008450 <number+0x260>
800084b6:	e9 4e fe ff ff       	jmp    80008309 <number+0x119>
800084bb:	ff 4d 1c             	decl   0x1c(%ebp)
800084be:	e9 29 fe ff ff       	jmp    800082ec <number+0xfc>
800084c3:	83 6d 1c 02          	subl   $0x2,0x1c(%ebp)
800084c7:	e9 20 fe ff ff       	jmp    800082ec <number+0xfc>
800084cc:	f7 45 24 08 00 00 00 	testl  $0x8,0x24(%ebp)
800084d3:	0f 84 f6 fd ff ff    	je     800082cf <number+0xdf>
800084d9:	c6 85 2e ff ff ff 20 	movb   $0x20,0xffffff2e(%ebp)
800084e0:	e9 e7 fd ff ff       	jmp    800082cc <number+0xdc>
800084e5:	f7 9d 30 ff ff ff    	negl   0xffffff30(%ebp)
800084eb:	c6 85 2e ff ff ff 2d 	movb   $0x2d,0xffffff2e(%ebp)
800084f2:	83 95 34 ff ff ff 00 	adcl   $0x0,0xffffff34(%ebp)
800084f9:	f7 9d 34 ff ff ff    	negl   0xffffff34(%ebp)
800084ff:	e9 c8 fd ff ff       	jmp    800082cc <number+0xdc>
	...

80008510 <__v_scanf>:
80008510:	55                   	push   %ebp
80008511:	89 e5                	mov    %esp,%ebp
80008513:	57                   	push   %edi
80008514:	56                   	push   %esi
80008515:	53                   	push   %ebx
80008516:	83 ec 5c             	sub    $0x5c,%esp
80008519:	c7 45 e0 01 00 00 00 	movl   $0x1,0xffffffe0(%ebp)
80008520:	8b 4d 08             	mov    0x8(%ebp),%ecx
80008523:	c7 45 e4 00 00 00 00 	movl   $0x0,0xffffffe4(%ebp)
8000852a:	8b 7d 0c             	mov    0xc(%ebp),%edi
8000852d:	8b 01                	mov    (%ecx),%eax
8000852f:	89 04 24             	mov    %eax,(%esp,1)
80008532:	ff 51 04             	call   *0x4(%ecx)
80008535:	0f b6 17             	movzbl (%edi),%edx
80008538:	89 c6                	mov    %eax,%esi
8000853a:	84 d2                	test   %dl,%dl
8000853c:	74 76                	je     800085b4 <__v_scanf+0xa4>
8000853e:	0f b6 da             	movzbl %dl,%ebx
80008541:	47                   	inc    %edi
80008542:	83 fb 25             	cmp    $0x25,%ebx
80008545:	0f 87 e5 00 00 00    	ja     80008630 <__v_scanf+0x120>
8000854b:	ff 24 9d 58 a8 00 80 	jmp    *0x8000a858(,%ebx,4)
80008552:	8d b4 26 00 00 00 00 	lea    0x0(%esi,1),%esi
80008559:	8d bc 27 00 00 00 00 	lea    0x0(%edi,1),%edi
80008560:	0f b6 17             	movzbl (%edi),%edx
80008563:	84 d2                	test   %dl,%dl
80008565:	74 32                	je     80008599 <__v_scanf+0x89>
80008567:	0f b6 da             	movzbl %dl,%ebx
8000856a:	0f b6 8b 20 ab 00 80 	movzbl 0x8000ab20(%ebx),%ecx
80008571:	80 e1 20             	and    $0x20,%cl
80008574:	84 c9                	test   %cl,%cl
80008576:	74 21                	je     80008599 <__v_scanf+0x89>
80008578:	90                   	nop    
80008579:	8d b4 26 00 00 00 00 	lea    0x0(%esi,1),%esi
80008580:	47                   	inc    %edi
80008581:	0f b6 17             	movzbl (%edi),%edx
80008584:	84 d2                	test   %dl,%dl
80008586:	74 11                	je     80008599 <__v_scanf+0x89>
80008588:	0f b6 da             	movzbl %dl,%ebx
8000858b:	0f b6 8b 20 ab 00 80 	movzbl 0x8000ab20(%ebx),%ecx
80008592:	80 e1 20             	and    $0x20,%cl
80008595:	84 c9                	test   %cl,%cl
80008597:	75 e7                	jne    80008580 <__v_scanf+0x70>
80008599:	89 f0                	mov    %esi,%eax
8000859b:	0f b6 d8             	movzbl %al,%ebx
8000859e:	0f b6 8b 20 ab 00 80 	movzbl 0x8000ab20(%ebx),%ecx
800085a5:	80 e1 20             	and    $0x20,%cl
800085a8:	84 c9                	test   %cl,%cl
800085aa:	75 34                	jne    800085e0 <__v_scanf+0xd0>
800085ac:	8d 74 26 00          	lea    0x0(%esi,1),%esi
800085b0:	84 d2                	test   %dl,%dl
800085b2:	75 8a                	jne    8000853e <__v_scanf+0x2e>
800085b4:	85 f6                	test   %esi,%esi
800085b6:	78 1a                	js     800085d2 <__v_scanf+0xc2>
800085b8:	8b 5d 08             	mov    0x8(%ebp),%ebx
800085bb:	8b 03                	mov    (%ebx),%eax
800085bd:	89 34 24             	mov    %esi,(%esp,1)
800085c0:	89 44 24 04          	mov    %eax,0x4(%esp,1)
800085c4:	ff 53 08             	call   *0x8(%ebx)
800085c7:	8b 45 e4             	mov    0xffffffe4(%ebp),%eax
800085ca:	83 c4 5c             	add    $0x5c,%esp
800085cd:	5b                   	pop    %ebx
800085ce:	5e                   	pop    %esi
800085cf:	5f                   	pop    %edi
800085d0:	5d                   	pop    %ebp
800085d1:	c3                   	ret    
800085d2:	8b 7d e4             	mov    0xffffffe4(%ebp),%edi
800085d5:	b8 ff ff ff ff       	mov    $0xffffffff,%eax
800085da:	85 ff                	test   %edi,%edi
800085dc:	74 ec                	je     800085ca <__v_scanf+0xba>
800085de:	eb d8                	jmp    800085b8 <__v_scanf+0xa8>
800085e0:	ff 45 e0             	incl   0xffffffe0(%ebp)
800085e3:	8b 75 08             	mov    0x8(%ebp),%esi
800085e6:	8b 06                	mov    (%esi),%eax
800085e8:	89 04 24             	mov    %eax,(%esp,1)
800085eb:	ff 56 04             	call   *0x4(%esi)
800085ee:	0f b6 d8             	movzbl %al,%ebx
800085f1:	89 c6                	mov    %eax,%esi
800085f3:	0f b6 93 20 ab 00 80 	movzbl 0x8000ab20(%ebx),%edx
800085fa:	80 e2 20             	and    $0x20,%dl
800085fd:	84 d2                	test   %dl,%dl
800085ff:	75 df                	jne    800085e0 <__v_scanf+0xd0>
80008601:	eb 0d                	jmp    80008610 <__v_scanf+0x100>
80008603:	90                   	nop    
80008604:	90                   	nop    
80008605:	90                   	nop    
80008606:	90                   	nop    
80008607:	90                   	nop    
80008608:	90                   	nop    
80008609:	90                   	nop    
8000860a:	90                   	nop    
8000860b:	90                   	nop    
8000860c:	90                   	nop    
8000860d:	90                   	nop    
8000860e:	90                   	nop    
8000860f:	90                   	nop    
80008610:	0f b6 17             	movzbl (%edi),%edx
80008613:	eb 9b                	jmp    800085b0 <__v_scanf+0xa0>
80008615:	8d 74 26 00          	lea    0x0(%esi,1),%esi
80008619:	8d bc 27 00 00 00 00 	lea    0x0(%edi,1),%edi
80008620:	31 c0                	xor    %eax,%eax
80008622:	eb a6                	jmp    800085ca <__v_scanf+0xba>
80008624:	8d b6 00 00 00 00    	lea    0x0(%esi),%esi
8000862a:	8d bf 00 00 00 00    	lea    0x0(%edi),%edi
80008630:	89 f0                	mov    %esi,%eax
80008632:	0f b6 d0             	movzbl %al,%edx
80008635:	39 da                	cmp    %ebx,%edx
80008637:	0f 85 77 ff ff ff    	jne    800085b4 <__v_scanf+0xa4>
8000863d:	ff 45 e0             	incl   0xffffffe0(%ebp)
80008640:	8b 75 08             	mov    0x8(%ebp),%esi
80008643:	8b 06                	mov    (%esi),%eax
80008645:	89 04 24             	mov    %eax,(%esp,1)
80008648:	ff 56 04             	call   *0x4(%esi)
8000864b:	89 c6                	mov    %eax,%esi
8000864d:	eb c1                	jmp    80008610 <__v_scanf+0x100>
8000864f:	90                   	nop    
80008650:	c7 45 dc 00 00 00 00 	movl   $0x0,0xffffffdc(%ebp)
80008657:	c7 45 d8 ff ff ff ff 	movl   $0xffffffff,0xffffffd8(%ebp)
8000865e:	c6 45 d7 00          	movb   $0x0,0xffffffd7(%ebp)
80008662:	c6 45 d6 00          	movb   $0x0,0xffffffd6(%ebp)
80008666:	c6 45 d5 00          	movb   $0x0,0xffffffd5(%ebp)
8000866a:	c6 45 d4 00          	movb   $0x0,0xffffffd4(%ebp)
8000866e:	0f b6 1f             	movzbl (%edi),%ebx
80008671:	47                   	inc    %edi
80008672:	83 fb 6e             	cmp    $0x6e,%ebx
80008675:	74 09                	je     80008680 <__v_scanf+0x170>
80008677:	83 fe ff             	cmp    $0xffffffff,%esi
8000867a:	0f 84 34 ff ff ff    	je     800085b4 <__v_scanf+0xa4>
80008680:	83 fb 78             	cmp    $0x78,%ebx
80008683:	0f 87 2b ff ff ff    	ja     800085b4 <__v_scanf+0xa4>
80008689:	ff 24 9d f0 a8 00 80 	jmp    *0x8000a8f0(,%ebx,4)
80008690:	89 f0                	mov    %esi,%eax
80008692:	0f b6 c8             	movzbl %al,%ecx
80008695:	39 d9                	cmp    %ebx,%ecx
80008697:	0f 85 17 ff ff ff    	jne    800085b4 <__v_scanf+0xa4>
8000869d:	ff 45 e0             	incl   0xffffffe0(%ebp)
800086a0:	8b 55 08             	mov    0x8(%ebp),%edx
800086a3:	8b 02                	mov    (%edx),%eax
800086a5:	89 04 24             	mov    %eax,(%esp,1)
800086a8:	ff 52 04             	call   *0x4(%edx)
800086ab:	eb 9e                	jmp    8000864b <__v_scanf+0x13b>
800086ad:	c6 45 d6 01          	movb   $0x1,0xffffffd6(%ebp)
800086b1:	eb bb                	jmp    8000866e <__v_scanf+0x15e>
800086b3:	c7 44 24 08 0a 00 00 	movl   $0xa,0x8(%esp,1)
800086ba:	00 
800086bb:	8d 4d e8             	lea    0xffffffe8(%ebp),%ecx
800086be:	8d 5f ff             	lea    0xffffffff(%edi),%ebx
800086c1:	89 4c 24 04          	mov    %ecx,0x4(%esp,1)
800086c5:	89 1c 24             	mov    %ebx,(%esp,1)
800086c8:	e8 a3 07 00 00       	call   80008e70 <strtol>
800086cd:	8b 7d e8             	mov    0xffffffe8(%ebp),%edi
800086d0:	89 45 d8             	mov    %eax,0xffffffd8(%ebp)
800086d3:	c6 45 d7 01          	movb   $0x1,0xffffffd7(%ebp)
800086d7:	eb 95                	jmp    8000866e <__v_scanf+0x15e>
800086d9:	80 7d d6 00          	cmpb   $0x0,0xffffffd6(%ebp)
800086dd:	75 0f                	jne    800086ee <__v_scanf+0x1de>
800086df:	ff 45 e4             	incl   0xffffffe4(%ebp)
800086e2:	8b 45 10             	mov    0x10(%ebp),%eax
800086e5:	83 45 10 04          	addl   $0x4,0x10(%ebp)
800086e9:	8b 00                	mov    (%eax),%eax
800086eb:	89 45 e8             	mov    %eax,0xffffffe8(%ebp)
800086ee:	80 7d d7 00          	cmpb   $0x0,0xffffffd7(%ebp)
800086f2:	75 07                	jne    800086fb <__v_scanf+0x1eb>
800086f4:	c7 45 d8 01 00 00 00 	movl   $0x1,0xffffffd8(%ebp)
800086fb:	8b 45 d8             	mov    0xffffffd8(%ebp),%eax
800086fe:	85 c0                	test   %eax,%eax
80008700:	0f 84 0a ff ff ff    	je     80008610 <__v_scanf+0x100>
80008706:	83 fe ff             	cmp    $0xffffffff,%esi
80008709:	0f 84 01 ff ff ff    	je     80008610 <__v_scanf+0x100>
8000870f:	80 7d d6 00          	cmpb   $0x0,0xffffffd6(%ebp)
80008713:	75 0a                	jne    8000871f <__v_scanf+0x20f>
80008715:	8b 45 e8             	mov    0xffffffe8(%ebp),%eax
80008718:	89 f3                	mov    %esi,%ebx
8000871a:	88 18                	mov    %bl,(%eax)
8000871c:	ff 45 e8             	incl   0xffffffe8(%ebp)
8000871f:	ff 4d d8             	decl   0xffffffd8(%ebp)
80008722:	8b 55 08             	mov    0x8(%ebp),%edx
80008725:	ff 45 e0             	incl   0xffffffe0(%ebp)
80008728:	8b 02                	mov    (%edx),%eax
8000872a:	89 04 24             	mov    %eax,(%esp,1)
8000872d:	ff 52 04             	call   *0x4(%edx)
80008730:	89 c6                	mov    %eax,%esi
80008732:	8b 45 d8             	mov    0xffffffd8(%ebp),%eax
80008735:	85 c0                	test   %eax,%eax
80008737:	0f 84 d3 fe ff ff    	je     80008610 <__v_scanf+0x100>
8000873d:	83 fe ff             	cmp    $0xffffffff,%esi
80008740:	75 cd                	jne    8000870f <__v_scanf+0x1ff>
80008742:	e9 c9 fe ff ff       	jmp    80008610 <__v_scanf+0x100>
80008747:	83 45 dc 02          	addl   $0x2,0xffffffdc(%ebp)
8000874b:	83 45 dc 08          	addl   $0x8,0xffffffdc(%ebp)
8000874f:	c7 45 d0 00 00 00 00 	movl   $0x0,0xffffffd0(%ebp)
80008756:	8b 45 e0             	mov    0xffffffe0(%ebp),%eax
80008759:	c7 45 c8 00 00 00 00 	movl   $0x0,0xffffffc8(%ebp)
80008760:	89 45 cc             	mov    %eax,0xffffffcc(%ebp)
80008763:	89 f0                	mov    %esi,%eax
80008765:	0f b6 c8             	movzbl %al,%ecx
80008768:	0f b6 91 20 ab 00 80 	movzbl 0x8000ab20(%ecx),%edx
8000876f:	80 e2 20             	and    $0x20,%dl
80008772:	84 d2                	test   %dl,%dl
80008774:	0f 85 96 01 00 00    	jne    80008910 <__v_scanf+0x400>
8000877a:	83 fe 2d             	cmp    $0x2d,%esi
8000877d:	0f 84 65 01 00 00    	je     800088e8 <__v_scanf+0x3d8>
80008783:	83 fe 2b             	cmp    $0x2b,%esi
80008786:	0f 84 47 01 00 00    	je     800088d3 <__v_scanf+0x3c3>
8000878c:	80 7d d7 00          	cmpb   $0x0,0xffffffd7(%ebp)
80008790:	75 21                	jne    800087b3 <__v_scanf+0x2a3>
80008792:	83 7d dc 10          	cmpl   $0x10,0xffffffdc(%ebp)
80008796:	0f 84 2c 01 00 00    	je     800088c8 <__v_scanf+0x3b8>
8000879c:	8b 45 dc             	mov    0xffffffdc(%ebp),%eax
8000879f:	85 c0                	test   %eax,%eax
800087a1:	75 10                	jne    800087b3 <__v_scanf+0x2a3>
800087a3:	c7 45 dc 0a 00 00 00 	movl   $0xa,0xffffffdc(%ebp)
800087aa:	83 fe 30             	cmp    $0x30,%esi
800087ad:	0f 84 d6 00 00 00    	je     80008889 <__v_scanf+0x379>
800087b3:	8b 45 d8             	mov    0xffffffd8(%ebp),%eax
800087b6:	85 c0                	test   %eax,%eax
800087b8:	74 57                	je     80008811 <__v_scanf+0x301>
800087ba:	83 fe ff             	cmp    $0xffffffff,%esi
800087bd:	74 52                	je     80008811 <__v_scanf+0x301>
800087bf:	89 f0                	mov    %esi,%eax
800087c1:	25 ff 00 00 00       	and    $0xff,%eax
800087c6:	89 c2                	mov    %eax,%edx
800087c8:	83 ca 20             	or     $0x20,%edx
800087cb:	83 fa 60             	cmp    $0x60,%edx
800087ce:	0f 86 a1 00 00 00    	jbe    80008875 <__v_scanf+0x365>
800087d4:	8d 42 a9             	lea    0xffffffa9(%edx),%eax
800087d7:	3b 45 dc             	cmp    0xffffffdc(%ebp),%eax
800087da:	73 35                	jae    80008811 <__v_scanf+0x301>
800087dc:	8b 75 d0             	mov    0xffffffd0(%ebp),%esi
800087df:	8b 55 dc             	mov    0xffffffdc(%ebp),%edx
800087e2:	0f af f2             	imul   %edx,%esi
800087e5:	3b 75 d0             	cmp    0xffffffd0(%ebp),%esi
800087e8:	8d 0c 30             	lea    (%eax,%esi,1),%ecx
800087eb:	8b 75 08             	mov    0x8(%ebp),%esi
800087ee:	8b 06                	mov    (%esi),%eax
800087f0:	19 d2                	sbb    %edx,%edx
800087f2:	ff 45 e0             	incl   0xffffffe0(%ebp)
800087f5:	09 ca                	or     %ecx,%edx
800087f7:	ff 4d d8             	decl   0xffffffd8(%ebp)
800087fa:	89 55 d0             	mov    %edx,0xffffffd0(%ebp)
800087fd:	89 04 24             	mov    %eax,(%esp,1)
80008800:	ff 56 04             	call   *0x4(%esi)
80008803:	89 c6                	mov    %eax,%esi
80008805:	8b 45 d8             	mov    0xffffffd8(%ebp),%eax
80008808:	85 c0                	test   %eax,%eax
8000880a:	74 05                	je     80008811 <__v_scanf+0x301>
8000880c:	83 fe ff             	cmp    $0xffffffff,%esi
8000880f:	75 ae                	jne    800087bf <__v_scanf+0x2af>
80008811:	83 cb 20             	or     $0x20,%ebx
80008814:	83 fb 6f             	cmp    $0x6f,%ebx
80008817:	77 13                	ja     8000882c <__v_scanf+0x31c>
80008819:	81 7d d0 ff ff ff 7f 	cmpl   $0x7fffffff,0xffffffd0(%ebp)
80008820:	77 0a                	ja     8000882c <__v_scanf+0x31c>
80008822:	8b 45 c8             	mov    0xffffffc8(%ebp),%eax
80008825:	85 c0                	test   %eax,%eax
80008827:	74 03                	je     8000882c <__v_scanf+0x31c>
80008829:	f7 5d d0             	negl   0xffffffd0(%ebp)
8000882c:	80 7d d6 00          	cmpb   $0x0,0xffffffd6(%ebp)
80008830:	0f 85 da fd ff ff    	jne    80008610 <__v_scanf+0x100>
80008836:	80 7d d4 00          	cmpb   $0x0,0xffffffd4(%ebp)
8000883a:	75 29                	jne    80008865 <__v_scanf+0x355>
8000883c:	80 7d d5 00          	cmpb   $0x0,0xffffffd5(%ebp)
80008840:	74 23                	je     80008865 <__v_scanf+0x355>
80008842:	8b 45 10             	mov    0x10(%ebp),%eax
80008845:	8b 5d d0             	mov    0xffffffd0(%ebp),%ebx
80008848:	83 45 10 04          	addl   $0x4,0x10(%ebp)
8000884c:	8b 00                	mov    (%eax),%eax
8000884e:	66 89 18             	mov    %bx,(%eax)
80008851:	8b 45 e0             	mov    0xffffffe0(%ebp),%eax
80008854:	39 45 cc             	cmp    %eax,0xffffffcc(%ebp)
80008857:	0f 83 b3 fd ff ff    	jae    80008610 <__v_scanf+0x100>
8000885d:	ff 45 e4             	incl   0xffffffe4(%ebp)
80008860:	e9 ab fd ff ff       	jmp    80008610 <__v_scanf+0x100>
80008865:	8b 45 10             	mov    0x10(%ebp),%eax
80008868:	8b 55 d0             	mov    0xffffffd0(%ebp),%edx
8000886b:	83 45 10 04          	addl   $0x4,0x10(%ebp)
8000886f:	8b 00                	mov    (%eax),%eax
80008871:	89 10                	mov    %edx,(%eax)
80008873:	eb dc                	jmp    80008851 <__v_scanf+0x341>
80008875:	83 f8 39             	cmp    $0x39,%eax
80008878:	ba ff 00 00 00       	mov    $0xff,%edx
8000887d:	77 03                	ja     80008882 <__v_scanf+0x372>
8000887f:	8d 50 d0             	lea    0xffffffd0(%eax),%edx
80008882:	89 d0                	mov    %edx,%eax
80008884:	e9 4e ff ff ff       	jmp    800087d7 <__v_scanf+0x2c7>
80008889:	c7 45 dc 08 00 00 00 	movl   $0x8,0xffffffdc(%ebp)
80008890:	ff 45 e0             	incl   0xffffffe0(%ebp)
80008893:	8b 75 08             	mov    0x8(%ebp),%esi
80008896:	8b 06                	mov    (%esi),%eax
80008898:	89 04 24             	mov    %eax,(%esp,1)
8000889b:	ff 56 04             	call   *0x4(%esi)
8000889e:	89 c6                	mov    %eax,%esi
800088a0:	83 c8 20             	or     $0x20,%eax
800088a3:	83 f8 78             	cmp    $0x78,%eax
800088a6:	0f 85 07 ff ff ff    	jne    800087b3 <__v_scanf+0x2a3>
800088ac:	ff 45 e0             	incl   0xffffffe0(%ebp)
800088af:	8b 4d 08             	mov    0x8(%ebp),%ecx
800088b2:	8b 01                	mov    (%ecx),%eax
800088b4:	89 04 24             	mov    %eax,(%esp,1)
800088b7:	ff 51 04             	call   *0x4(%ecx)
800088ba:	c7 45 dc 10 00 00 00 	movl   $0x10,0xffffffdc(%ebp)
800088c1:	89 c6                	mov    %eax,%esi
800088c3:	e9 eb fe ff ff       	jmp    800087b3 <__v_scanf+0x2a3>
800088c8:	83 fe 30             	cmp    $0x30,%esi
800088cb:	0f 85 cb fe ff ff    	jne    8000879c <__v_scanf+0x28c>
800088d1:	eb bd                	jmp    80008890 <__v_scanf+0x380>
800088d3:	ff 45 e0             	incl   0xffffffe0(%ebp)
800088d6:	8b 4d 08             	mov    0x8(%ebp),%ecx
800088d9:	8b 01                	mov    (%ecx),%eax
800088db:	89 04 24             	mov    %eax,(%esp,1)
800088de:	ff 51 04             	call   *0x4(%ecx)
800088e1:	89 c6                	mov    %eax,%esi
800088e3:	e9 a4 fe ff ff       	jmp    8000878c <__v_scanf+0x27c>
800088e8:	ff 45 e0             	incl   0xffffffe0(%ebp)
800088eb:	8b 55 08             	mov    0x8(%ebp),%edx
800088ee:	8b 02                	mov    (%edx),%eax
800088f0:	89 04 24             	mov    %eax,(%esp,1)
800088f3:	ff 52 04             	call   *0x4(%edx)
800088f6:	c7 45 c8 01 00 00 00 	movl   $0x1,0xffffffc8(%ebp)
800088fd:	89 c6                	mov    %eax,%esi
800088ff:	e9 7f fe ff ff       	jmp    80008783 <__v_scanf+0x273>
80008904:	8d b6 00 00 00 00    	lea    0x0(%esi),%esi
8000890a:	8d bf 00 00 00 00    	lea    0x0(%edi),%edi
80008910:	ff 45 e0             	incl   0xffffffe0(%ebp)
80008913:	8b 75 08             	mov    0x8(%ebp),%esi
80008916:	8b 06                	mov    (%esi),%eax
80008918:	89 04 24             	mov    %eax,(%esp,1)
8000891b:	ff 56 04             	call   *0x4(%esi)
8000891e:	0f b6 c8             	movzbl %al,%ecx
80008921:	89 c6                	mov    %eax,%esi
80008923:	0f b6 91 20 ab 00 80 	movzbl 0x8000ab20(%ecx),%edx
8000892a:	80 e2 20             	and    $0x20,%dl
8000892d:	84 d2                	test   %dl,%dl
8000892f:	75 df                	jne    80008910 <__v_scanf+0x400>
80008931:	e9 44 fe ff ff       	jmp    8000877a <__v_scanf+0x26a>
80008936:	89 f0                	mov    %esi,%eax
80008938:	0f b6 d8             	movzbl %al,%ebx
8000893b:	d9 ee                	fldz   
8000893d:	0f b6 8b 20 ab 00 80 	movzbl 0x8000ab20(%ebx),%ecx
80008944:	dd 5d c0             	fstpl  0xffffffc0(%ebp)
80008947:	80 e1 20             	and    $0x20,%cl
8000894a:	84 c9                	test   %cl,%cl
8000894c:	0f 85 2e 02 00 00    	jne    80008b80 <__v_scanf+0x670>
80008952:	83 fe 2d             	cmp    $0x2d,%esi
80008955:	0f 84 0c 02 00 00    	je     80008b67 <__v_scanf+0x657>
8000895b:	83 fe 2b             	cmp    $0x2b,%esi
8000895e:	0f 84 ee 01 00 00    	je     80008b52 <__v_scanf+0x642>
80008964:	89 f0                	mov    %esi,%eax
80008966:	0f b6 d0             	movzbl %al,%edx
80008969:	0f b6 9a 20 ab 00 80 	movzbl 0x8000ab20(%edx),%ebx
80008970:	80 e3 04             	and    $0x4,%bl
80008973:	84 db                	test   %bl,%bl
80008975:	0f 85 95 01 00 00    	jne    80008b10 <__v_scanf+0x600>
8000897b:	83 fe 2e             	cmp    $0x2e,%esi
8000897e:	0f 84 0d 01 00 00    	je     80008a91 <__v_scanf+0x581>
80008984:	89 f3                	mov    %esi,%ebx
80008986:	83 cb 20             	or     $0x20,%ebx
80008989:	83 fb 65             	cmp    $0x65,%ebx
8000898c:	74 36                	je     800089c4 <__v_scanf+0x4b4>
8000898e:	80 7d d6 00          	cmpb   $0x0,0xffffffd6(%ebp)
80008992:	0f 85 c5 fe ff ff    	jne    8000885d <__v_scanf+0x34d>
80008998:	80 7d d4 00          	cmpb   $0x0,0xffffffd4(%ebp)
8000899c:	74 13                	je     800089b1 <__v_scanf+0x4a1>
8000899e:	dd 45 c0             	fldl   0xffffffc0(%ebp)
800089a1:	8b 45 10             	mov    0x10(%ebp),%eax
800089a4:	83 45 10 04          	addl   $0x4,0x10(%ebp)
800089a8:	8b 00                	mov    (%eax),%eax
800089aa:	dd 18                	fstpl  (%eax)
800089ac:	e9 ac fe ff ff       	jmp    8000885d <__v_scanf+0x34d>
800089b1:	dd 45 c0             	fldl   0xffffffc0(%ebp)
800089b4:	8b 45 10             	mov    0x10(%ebp),%eax
800089b7:	83 45 10 04          	addl   $0x4,0x10(%ebp)
800089bb:	8b 00                	mov    (%eax),%eax
800089bd:	d9 18                	fstps  (%eax)
800089bf:	e9 99 fe ff ff       	jmp    8000885d <__v_scanf+0x34d>
800089c4:	89 75 b4             	mov    %esi,0xffffffb4(%ebp)
800089c7:	31 db                	xor    %ebx,%ebx
800089c9:	8b 75 08             	mov    0x8(%ebp),%esi
800089cc:	dd 05 48 a8 00 80    	fldl   0x8000a848
800089d2:	ff 45 e0             	incl   0xffffffe0(%ebp)
800089d5:	8b 06                	mov    (%esi),%eax
800089d7:	dd 5d a8             	fstpl  0xffffffa8(%ebp)
800089da:	89 04 24             	mov    %eax,(%esp,1)
800089dd:	ff 56 04             	call   *0x4(%esi)
800089e0:	83 f8 2d             	cmp    $0x2d,%eax
800089e3:	89 c6                	mov    %eax,%esi
800089e5:	0f 84 8d 00 00 00    	je     80008a78 <__v_scanf+0x568>
800089eb:	83 f8 2b             	cmp    $0x2b,%eax
800089ee:	74 24                	je     80008a14 <__v_scanf+0x504>
800089f0:	d9 ee                	fldz   
800089f2:	83 f8 ff             	cmp    $0xffffffff,%eax
800089f5:	dd 5d c0             	fstpl  0xffffffc0(%ebp)
800089f8:	74 12                	je     80008a0c <__v_scanf+0x4fc>
800089fa:	ff 4d e0             	decl   0xffffffe0(%ebp)
800089fd:	8b 5d 08             	mov    0x8(%ebp),%ebx
80008a00:	8b 03                	mov    (%ebx),%eax
80008a02:	89 34 24             	mov    %esi,(%esp,1)
80008a05:	89 44 24 04          	mov    %eax,0x4(%esp,1)
80008a09:	ff 53 08             	call   *0x8(%ebx)
80008a0c:	8b 75 b4             	mov    0xffffffb4(%ebp),%esi
80008a0f:	e9 7a ff ff ff       	jmp    8000898e <__v_scanf+0x47e>
80008a14:	ff 45 e0             	incl   0xffffffe0(%ebp)
80008a17:	8b 55 08             	mov    0x8(%ebp),%edx
80008a1a:	8b 02                	mov    (%edx),%eax
80008a1c:	89 04 24             	mov    %eax,(%esp,1)
80008a1f:	ff 52 04             	call   *0x4(%edx)
80008a22:	0f b6 d0             	movzbl %al,%edx
80008a25:	89 c6                	mov    %eax,%esi
80008a27:	0f b6 8a 20 ab 00 80 	movzbl 0x8000ab20(%edx),%ecx
80008a2e:	80 e1 04             	and    $0x4,%cl
80008a31:	84 c9                	test   %cl,%cl
80008a33:	75 19                	jne    80008a4e <__v_scanf+0x53e>
80008a35:	85 db                	test   %ebx,%ebx
80008a37:	0f 84 51 ff ff ff    	je     8000898e <__v_scanf+0x47e>
80008a3d:	dd 45 c0             	fldl   0xffffffc0(%ebp)
80008a40:	4b                   	dec    %ebx
80008a41:	dc 4d a8             	fmull  0xffffffa8(%ebp)
80008a44:	dd 5d c0             	fstpl  0xffffffc0(%ebp)
80008a47:	75 f4                	jne    80008a3d <__v_scanf+0x52d>
80008a49:	e9 40 ff ff ff       	jmp    8000898e <__v_scanf+0x47e>
80008a4e:	ff 45 e0             	incl   0xffffffe0(%ebp)
80008a51:	8d 0c 9b             	lea    (%ebx,%ebx,4),%ecx
80008a54:	8d 5c 4e d0          	lea    0xffffffd0(%esi,%ecx,2),%ebx
80008a58:	8b 75 08             	mov    0x8(%ebp),%esi
80008a5b:	8b 06                	mov    (%esi),%eax
80008a5d:	89 04 24             	mov    %eax,(%esp,1)
80008a60:	ff 56 04             	call   *0x4(%esi)
80008a63:	0f b6 d0             	movzbl %al,%edx
80008a66:	89 c6                	mov    %eax,%esi
80008a68:	0f b6 8a 20 ab 00 80 	movzbl 0x8000ab20(%edx),%ecx
80008a6f:	80 e1 04             	and    $0x4,%cl
80008a72:	84 c9                	test   %cl,%cl
80008a74:	75 d8                	jne    80008a4e <__v_scanf+0x53e>
80008a76:	eb bd                	jmp    80008a35 <__v_scanf+0x525>
80008a78:	dd 05 50 a8 00 80    	fldl   0x8000a850
80008a7e:	8b 4d 08             	mov    0x8(%ebp),%ecx
80008a81:	ff 45 e0             	incl   0xffffffe0(%ebp)
80008a84:	8b 01                	mov    (%ecx),%eax
80008a86:	dd 5d a8             	fstpl  0xffffffa8(%ebp)
80008a89:	89 04 24             	mov    %eax,(%esp,1)
80008a8c:	ff 51 04             	call   *0x4(%ecx)
80008a8f:	eb 91                	jmp    80008a22 <__v_scanf+0x512>
80008a91:	dd 05 50 a8 00 80    	fldl   0x8000a850
80008a97:	8b 75 08             	mov    0x8(%ebp),%esi
80008a9a:	ff 45 e0             	incl   0xffffffe0(%ebp)
80008a9d:	8b 06                	mov    (%esi),%eax
80008a9f:	dd 5d b8             	fstpl  0xffffffb8(%ebp)
80008aa2:	89 04 24             	mov    %eax,(%esp,1)
80008aa5:	ff 56 04             	call   *0x4(%esi)
80008aa8:	0f b6 d0             	movzbl %al,%edx
80008aab:	89 c6                	mov    %eax,%esi
80008aad:	0f b6 9a 20 ab 00 80 	movzbl 0x8000ab20(%edx),%ebx
80008ab4:	80 e3 04             	and    $0x4,%bl
80008ab7:	84 db                	test   %bl,%bl
80008ab9:	0f 84 c5 fe ff ff    	je     80008984 <__v_scanf+0x474>
80008abf:	ff 45 e0             	incl   0xffffffe0(%ebp)
80008ac2:	8d 4e d0             	lea    0xffffffd0(%esi),%ecx
80008ac5:	8b 75 08             	mov    0x8(%ebp),%esi
80008ac8:	51                   	push   %ecx
80008ac9:	db 04 24             	fildl  (%esp,1)
80008acc:	83 c4 04             	add    $0x4,%esp
80008acf:	8b 06                	mov    (%esi),%eax
80008ad1:	dc 4d b8             	fmull  0xffffffb8(%ebp)
80008ad4:	89 04 24             	mov    %eax,(%esp,1)
80008ad7:	dc 45 c0             	faddl  0xffffffc0(%ebp)
80008ada:	dd 5d c0             	fstpl  0xffffffc0(%ebp)
80008add:	dd 45 b8             	fldl   0xffffffb8(%ebp)
80008ae0:	dc 35 48 a8 00 80    	fdivl  0x8000a848
80008ae6:	dd 5d b8             	fstpl  0xffffffb8(%ebp)
80008ae9:	ff 56 04             	call   *0x4(%esi)
80008aec:	0f b6 d8             	movzbl %al,%ebx
80008aef:	89 c6                	mov    %eax,%esi
80008af1:	0f b6 8b 20 ab 00 80 	movzbl 0x8000ab20(%ebx),%ecx
80008af8:	80 e1 04             	and    $0x4,%cl
80008afb:	84 c9                	test   %cl,%cl
80008afd:	75 c0                	jne    80008abf <__v_scanf+0x5af>
80008aff:	e9 80 fe ff ff       	jmp    80008984 <__v_scanf+0x474>
80008b04:	8d b6 00 00 00 00    	lea    0x0(%esi),%esi
80008b0a:	8d bf 00 00 00 00    	lea    0x0(%edi),%edi
80008b10:	dd 45 c0             	fldl   0xffffffc0(%ebp)
80008b13:	8d 4e d0             	lea    0xffffffd0(%esi),%ecx
80008b16:	8b 75 08             	mov    0x8(%ebp),%esi
80008b19:	dc 0d 48 a8 00 80    	fmull  0x8000a848
80008b1f:	51                   	push   %ecx
80008b20:	8b 06                	mov    (%esi),%eax
80008b22:	ff 45 e0             	incl   0xffffffe0(%ebp)
80008b25:	dd 5d c0             	fstpl  0xffffffc0(%ebp)
80008b28:	db 04 24             	fildl  (%esp,1)
80008b2b:	83 c4 04             	add    $0x4,%esp
80008b2e:	dc 45 c0             	faddl  0xffffffc0(%ebp)
80008b31:	89 04 24             	mov    %eax,(%esp,1)
80008b34:	dd 5d c0             	fstpl  0xffffffc0(%ebp)
80008b37:	ff 56 04             	call   *0x4(%esi)
80008b3a:	0f b6 d8             	movzbl %al,%ebx
80008b3d:	89 c6                	mov    %eax,%esi
80008b3f:	0f b6 8b 20 ab 00 80 	movzbl 0x8000ab20(%ebx),%ecx
80008b46:	80 e1 04             	and    $0x4,%cl
80008b49:	84 c9                	test   %cl,%cl
80008b4b:	75 c3                	jne    80008b10 <__v_scanf+0x600>
80008b4d:	e9 29 fe ff ff       	jmp    8000897b <__v_scanf+0x46b>
80008b52:	ff 45 e0             	incl   0xffffffe0(%ebp)
80008b55:	8b 4d 08             	mov    0x8(%ebp),%ecx
80008b58:	8b 01                	mov    (%ecx),%eax
80008b5a:	89 04 24             	mov    %eax,(%esp,1)
80008b5d:	ff 51 04             	call   *0x4(%ecx)
80008b60:	89 c6                	mov    %eax,%esi
80008b62:	e9 fd fd ff ff       	jmp    80008964 <__v_scanf+0x454>
80008b67:	ff 45 e0             	incl   0xffffffe0(%ebp)
80008b6a:	8b 55 08             	mov    0x8(%ebp),%edx
80008b6d:	8b 02                	mov    (%edx),%eax
80008b6f:	89 04 24             	mov    %eax,(%esp,1)
80008b72:	ff 52 04             	call   *0x4(%edx)
80008b75:	89 c6                	mov    %eax,%esi
80008b77:	e9 df fd ff ff       	jmp    8000895b <__v_scanf+0x44b>
80008b7c:	8d 74 26 00          	lea    0x0(%esi,1),%esi
80008b80:	ff 45 e0             	incl   0xffffffe0(%ebp)
80008b83:	8b 75 08             	mov    0x8(%ebp),%esi
80008b86:	8b 06                	mov    (%esi),%eax
80008b88:	89 04 24             	mov    %eax,(%esp,1)
80008b8b:	ff 56 04             	call   *0x4(%esi)
80008b8e:	0f b6 c8             	movzbl %al,%ecx
80008b91:	89 c6                	mov    %eax,%esi
80008b93:	0f b6 91 20 ab 00 80 	movzbl 0x8000ab20(%ecx),%edx
80008b9a:	80 e2 20             	and    $0x20,%dl
80008b9d:	84 d2                	test   %dl,%dl
80008b9f:	75 df                	jne    80008b80 <__v_scanf+0x670>
80008ba1:	e9 ac fd ff ff       	jmp    80008952 <__v_scanf+0x442>
80008ba6:	c6 45 d5 01          	movb   $0x1,0xffffffd5(%ebp)
80008baa:	e9 bf fa ff ff       	jmp    8000866e <__v_scanf+0x15e>
80008baf:	c6 45 d4 01          	movb   $0x1,0xffffffd4(%ebp)
80008bb3:	e9 b6 fa ff ff       	jmp    8000866e <__v_scanf+0x15e>
80008bb8:	80 7d d6 00          	cmpb   $0x0,0xffffffd6(%ebp)
80008bbc:	0f 85 4e fa ff ff    	jne    80008610 <__v_scanf+0x100>
80008bc2:	0f b6 55 e0          	movzbl 0xffffffe0(%ebp),%edx
80008bc6:	8b 45 10             	mov    0x10(%ebp),%eax
80008bc9:	83 45 10 04          	addl   $0x4,0x10(%ebp)
80008bcd:	8b 18                	mov    (%eax),%ebx
80008bcf:	fe ca                	dec    %dl
80008bd1:	89 5d e8             	mov    %ebx,0xffffffe8(%ebp)
80008bd4:	88 13                	mov    %dl,(%ebx)
80008bd6:	ff 45 e8             	incl   0xffffffe8(%ebp)
80008bd9:	e9 32 fa ff ff       	jmp    80008610 <__v_scanf+0x100>
80008bde:	80 7d d6 00          	cmpb   $0x0,0xffffffd6(%ebp)
80008be2:	75 0c                	jne    80008bf0 <__v_scanf+0x6e0>
80008be4:	8b 45 10             	mov    0x10(%ebp),%eax
80008be7:	83 45 10 04          	addl   $0x4,0x10(%ebp)
80008beb:	8b 00                	mov    (%eax),%eax
80008bed:	89 45 e8             	mov    %eax,0xffffffe8(%ebp)
80008bf0:	89 f0                	mov    %esi,%eax
80008bf2:	0f b6 d8             	movzbl %al,%ebx
80008bf5:	0f b6 8b 20 ab 00 80 	movzbl 0x8000ab20(%ebx),%ecx
80008bfc:	80 e1 20             	and    $0x20,%cl
80008bff:	84 c9                	test   %cl,%cl
80008c01:	75 78                	jne    80008c7b <__v_scanf+0x76b>
80008c03:	8b 45 d8             	mov    0xffffffd8(%ebp),%eax
80008c06:	85 c0                	test   %eax,%eax
80008c08:	74 5c                	je     80008c66 <__v_scanf+0x756>
80008c0a:	83 fe ff             	cmp    $0xffffffff,%esi
80008c0d:	74 57                	je     80008c66 <__v_scanf+0x756>
80008c0f:	89 f0                	mov    %esi,%eax
80008c11:	0f b6 d8             	movzbl %al,%ebx
80008c14:	0f b6 93 20 ab 00 80 	movzbl 0x8000ab20(%ebx),%edx
80008c1b:	80 e2 20             	and    $0x20,%dl
80008c1e:	84 d2                	test   %dl,%dl
80008c20:	75 44                	jne    80008c66 <__v_scanf+0x756>
80008c22:	80 7d d6 00          	cmpb   $0x0,0xffffffd6(%ebp)
80008c26:	75 07                	jne    80008c2f <__v_scanf+0x71f>
80008c28:	8b 45 e8             	mov    0xffffffe8(%ebp),%eax
80008c2b:	89 f1                	mov    %esi,%ecx
80008c2d:	88 08                	mov    %cl,(%eax)
80008c2f:	85 f6                	test   %esi,%esi
80008c31:	74 33                	je     80008c66 <__v_scanf+0x756>
80008c33:	ff 45 e8             	incl   0xffffffe8(%ebp)
80008c36:	8b 75 08             	mov    0x8(%ebp),%esi
80008c39:	ff 4d d8             	decl   0xffffffd8(%ebp)
80008c3c:	ff 45 e0             	incl   0xffffffe0(%ebp)
80008c3f:	8b 06                	mov    (%esi),%eax
80008c41:	89 04 24             	mov    %eax,(%esp,1)
80008c44:	ff 56 04             	call   *0x4(%esi)
80008c47:	8b 55 d8             	mov    0xffffffd8(%ebp),%edx
80008c4a:	85 d2                	test   %edx,%edx
80008c4c:	89 c6                	mov    %eax,%esi
80008c4e:	74 16                	je     80008c66 <__v_scanf+0x756>
80008c50:	83 f8 ff             	cmp    $0xffffffff,%eax
80008c53:	74 11                	je     80008c66 <__v_scanf+0x756>
80008c55:	0f b6 c8             	movzbl %al,%ecx
80008c58:	0f b6 99 20 ab 00 80 	movzbl 0x8000ab20(%ecx),%ebx
80008c5f:	80 e3 20             	and    $0x20,%bl
80008c62:	84 db                	test   %bl,%bl
80008c64:	74 bc                	je     80008c22 <__v_scanf+0x712>
80008c66:	80 7d d6 00          	cmpb   $0x0,0xffffffd6(%ebp)
80008c6a:	0f 85 a0 f9 ff ff    	jne    80008610 <__v_scanf+0x100>
80008c70:	8b 45 e8             	mov    0xffffffe8(%ebp),%eax
80008c73:	c6 00 00             	movb   $0x0,(%eax)
80008c76:	e9 e2 fb ff ff       	jmp    8000885d <__v_scanf+0x34d>
80008c7b:	ff 45 e0             	incl   0xffffffe0(%ebp)
80008c7e:	8b 75 08             	mov    0x8(%ebp),%esi
80008c81:	8b 06                	mov    (%esi),%eax
80008c83:	89 04 24             	mov    %eax,(%esp,1)
80008c86:	ff 56 04             	call   *0x4(%esi)
80008c89:	0f b6 c8             	movzbl %al,%ecx
80008c8c:	89 c6                	mov    %eax,%esi
80008c8e:	0f b6 91 20 ab 00 80 	movzbl 0x8000ab20(%ecx),%edx
80008c95:	80 e2 20             	and    $0x20,%dl
80008c98:	84 d2                	test   %dl,%dl
80008c9a:	75 df                	jne    80008c7b <__v_scanf+0x76b>
80008c9c:	e9 62 ff ff ff       	jmp    80008c03 <__v_scanf+0x6f3>
80008ca1:	c7 45 dc 06 00 00 00 	movl   $0x6,0xffffffdc(%ebp)
80008ca8:	e9 9a fa ff ff       	jmp    80008747 <__v_scanf+0x237>
80008cad:	8d 76 00             	lea    0x0(%esi),%esi

80008cb0 <sscanf>:
80008cb0:	55                   	push   %ebp
80008cb1:	89 e5                	mov    %esp,%ebp
80008cb3:	83 ec 38             	sub    $0x38,%esp
80008cb6:	c7 45 ec 30 8d 00 80 	movl   $0x80008d30,0xffffffec(%ebp)
80008cbd:	8b 45 08             	mov    0x8(%ebp),%eax
80008cc0:	8d 55 e4             	lea    0xffffffe4(%ebp),%edx
80008cc3:	89 55 e8             	mov    %edx,0xffffffe8(%ebp)
80008cc6:	8d 4d 10             	lea    0x10(%ebp),%ecx
80008cc9:	8d 55 e8             	lea    0xffffffe8(%ebp),%edx
80008ccc:	89 45 e4             	mov    %eax,0xffffffe4(%ebp)
80008ccf:	8b 45 0c             	mov    0xc(%ebp),%eax
80008cd2:	c7 45 f0 50 8d 00 80 	movl   $0x80008d50,0xfffffff0(%ebp)
80008cd9:	89 4c 24 08          	mov    %ecx,0x8(%esp,1)
80008cdd:	89 44 24 04          	mov    %eax,0x4(%esp,1)
80008ce1:	89 14 24             	mov    %edx,(%esp,1)
80008ce4:	e8 27 f8 ff ff       	call   80008510 <__v_scanf>
80008ce9:	89 ec                	mov    %ebp,%esp
80008ceb:	5d                   	pop    %ebp
80008cec:	c3                   	ret    
80008ced:	8d 76 00             	lea    0x0(%esi),%esi

80008cf0 <vsscanf>:
80008cf0:	55                   	push   %ebp
80008cf1:	89 e5                	mov    %esp,%ebp
80008cf3:	83 ec 38             	sub    $0x38,%esp
80008cf6:	c7 45 ec 30 8d 00 80 	movl   $0x80008d30,0xffffffec(%ebp)
80008cfd:	8b 45 08             	mov    0x8(%ebp),%eax
80008d00:	8d 55 e4             	lea    0xffffffe4(%ebp),%edx
80008d03:	89 55 e8             	mov    %edx,0xffffffe8(%ebp)
80008d06:	8d 55 e8             	lea    0xffffffe8(%ebp),%edx
80008d09:	89 45 e4             	mov    %eax,0xffffffe4(%ebp)
80008d0c:	8b 45 10             	mov    0x10(%ebp),%eax
80008d0f:	c7 45 f0 50 8d 00 80 	movl   $0x80008d50,0xfffffff0(%ebp)
80008d16:	89 14 24             	mov    %edx,(%esp,1)
80008d19:	89 44 24 08          	mov    %eax,0x8(%esp,1)
80008d1d:	8b 45 0c             	mov    0xc(%ebp),%eax
80008d20:	89 44 24 04          	mov    %eax,0x4(%esp,1)
80008d24:	e8 e7 f7 ff ff       	call   80008510 <__v_scanf>
80008d29:	89 ec                	mov    %ebp,%esp
80008d2b:	5d                   	pop    %ebp
80008d2c:	c3                   	ret    
80008d2d:	8d 76 00             	lea    0x0(%esi),%esi

80008d30 <sgetc>:
80008d30:	55                   	push   %ebp
80008d31:	89 e5                	mov    %esp,%ebp
80008d33:	8b 4d 08             	mov    0x8(%ebp),%ecx
80008d36:	8b 11                	mov    (%ecx),%edx
80008d38:	0f b6 02             	movzbl (%edx),%eax
80008d3b:	42                   	inc    %edx
80008d3c:	89 11                	mov    %edx,(%ecx)
80008d3e:	31 c9                	xor    %ecx,%ecx
80008d40:	5d                   	pop    %ebp
80008d41:	85 c0                	test   %eax,%eax
80008d43:	0f 95 c1             	setne  %cl
80008d46:	49                   	dec    %ecx
80008d47:	09 c8                	or     %ecx,%eax
80008d49:	c3                   	ret    
80008d4a:	8d b6 00 00 00 00    	lea    0x0(%esi),%esi

80008d50 <sputc>:
80008d50:	55                   	push   %ebp
80008d51:	89 e5                	mov    %esp,%ebp
80008d53:	53                   	push   %ebx
80008d54:	8b 4d 0c             	mov    0xc(%ebp),%ecx
80008d57:	8b 45 08             	mov    0x8(%ebp),%eax
80008d5a:	8b 19                	mov    (%ecx),%ebx
80008d5c:	8d 53 ff             	lea    0xffffffff(%ebx),%edx
80008d5f:	89 11                	mov    %edx,(%ecx)
80008d61:	0f b6 4b ff          	movzbl 0xffffffff(%ebx),%ecx
80008d65:	39 c1                	cmp    %eax,%ecx
80008d67:	0f 94 c3             	sete   %bl
80008d6a:	0f b6 cb             	movzbl %bl,%ecx
80008d6d:	5b                   	pop    %ebx
80008d6e:	49                   	dec    %ecx
80008d6f:	09 c8                	or     %ecx,%eax
80008d71:	5d                   	pop    %ebp
80008d72:	c3                   	ret    
	...

80008d80 <strtoul>:
80008d80:	55                   	push   %ebp
80008d81:	89 e5                	mov    %esp,%ebp
80008d83:	57                   	push   %edi
80008d84:	8b 4d 08             	mov    0x8(%ebp),%ecx
80008d87:	56                   	push   %esi
80008d88:	31 f6                	xor    %esi,%esi
80008d8a:	8b 7d 0c             	mov    0xc(%ebp),%edi
80008d8d:	53                   	push   %ebx
80008d8e:	8b 5d 10             	mov    0x10(%ebp),%ebx
80008d91:	0f b6 11             	movzbl (%ecx),%edx
80008d94:	0f b6 c2             	movzbl %dl,%eax
80008d97:	0f b6 80 20 ab 00 80 	movzbl 0x8000ab20(%eax),%eax
80008d9e:	24 20                	and    $0x20,%al
80008da0:	84 c0                	test   %al,%al
80008da2:	74 20                	je     80008dc4 <strtoul+0x44>
80008da4:	8d b6 00 00 00 00    	lea    0x0(%esi),%esi
80008daa:	8d bf 00 00 00 00    	lea    0x0(%edi),%edi
80008db0:	41                   	inc    %ecx
80008db1:	0f b6 11             	movzbl (%ecx),%edx
80008db4:	0f b6 c2             	movzbl %dl,%eax
80008db7:	0f b6 80 20 ab 00 80 	movzbl 0x8000ab20(%eax),%eax
80008dbe:	24 20                	and    $0x20,%al
80008dc0:	84 c0                	test   %al,%al
80008dc2:	75 ec                	jne    80008db0 <strtoul+0x30>
80008dc4:	80 fa 2b             	cmp    $0x2b,%dl
80008dc7:	0f 84 99 00 00 00    	je     80008e66 <strtoul+0xe6>
80008dcd:	83 fb 10             	cmp    $0x10,%ebx
80008dd0:	0f 84 85 00 00 00    	je     80008e5b <strtoul+0xdb>
80008dd6:	85 db                	test   %ebx,%ebx
80008dd8:	75 0a                	jne    80008de4 <strtoul+0x64>
80008dda:	80 fa 30             	cmp    $0x30,%dl
80008ddd:	bb 0a 00 00 00       	mov    $0xa,%ebx
80008de2:	74 59                	je     80008e3d <strtoul+0xbd>
80008de4:	84 d2                	test   %dl,%dl
80008de6:	74 26                	je     80008e0e <strtoul+0x8e>
80008de8:	80 fa 60             	cmp    $0x60,%dl
80008deb:	76 33                	jbe    80008e20 <strtoul+0xa0>
80008ded:	88 d0                	mov    %dl,%al
80008def:	2c 57                	sub    $0x57,%al
80008df1:	0f b6 d0             	movzbl %al,%edx
80008df4:	39 da                	cmp    %ebx,%edx
80008df6:	7d 16                	jge    80008e0e <strtoul+0x8e>
80008df8:	89 f0                	mov    %esi,%eax
80008dfa:	0f af c3             	imul   %ebx,%eax
80008dfd:	39 f0                	cmp    %esi,%eax
80008dff:	72 1a                	jb     80008e1b <strtoul+0x9b>
80008e01:	41                   	inc    %ecx
80008e02:	8d 34 02             	lea    (%edx,%eax,1),%esi
80008e05:	0f b6 01             	movzbl (%ecx),%eax
80008e08:	84 c0                	test   %al,%al
80008e0a:	88 c2                	mov    %al,%dl
80008e0c:	75 da                	jne    80008de8 <strtoul+0x68>
80008e0e:	85 ff                	test   %edi,%edi
80008e10:	74 02                	je     80008e14 <strtoul+0x94>
80008e12:	89 0f                	mov    %ecx,(%edi)
80008e14:	89 f0                	mov    %esi,%eax
80008e16:	5b                   	pop    %ebx
80008e17:	5e                   	pop    %esi
80008e18:	5f                   	pop    %edi
80008e19:	5d                   	pop    %ebp
80008e1a:	c3                   	ret    
80008e1b:	31 c0                	xor    %eax,%eax
80008e1d:	eb f7                	jmp    80008e16 <strtoul+0x96>
80008e1f:	90                   	nop    
80008e20:	80 fa 40             	cmp    $0x40,%dl
80008e23:	76 0b                	jbe    80008e30 <strtoul+0xb0>
80008e25:	88 d0                	mov    %dl,%al
80008e27:	2c 37                	sub    $0x37,%al
80008e29:	eb c6                	jmp    80008df1 <strtoul+0x71>
80008e2b:	90                   	nop    
80008e2c:	8d 74 26 00          	lea    0x0(%esi,1),%esi
80008e30:	80 fa 39             	cmp    $0x39,%dl
80008e33:	b0 ff                	mov    $0xff,%al
80008e35:	77 ba                	ja     80008df1 <strtoul+0x71>
80008e37:	88 d0                	mov    %dl,%al
80008e39:	2c 30                	sub    $0x30,%al
80008e3b:	eb b4                	jmp    80008df1 <strtoul+0x71>
80008e3d:	bb 08 00 00 00       	mov    $0x8,%ebx
80008e42:	0f b6 41 01          	movzbl 0x1(%ecx),%eax
80008e46:	3c 78                	cmp    $0x78,%al
80008e48:	74 04                	je     80008e4e <strtoul+0xce>
80008e4a:	3c 58                	cmp    $0x58,%al
80008e4c:	75 96                	jne    80008de4 <strtoul+0x64>
80008e4e:	83 c1 02             	add    $0x2,%ecx
80008e51:	bb 10 00 00 00       	mov    $0x10,%ebx
80008e56:	0f b6 11             	movzbl (%ecx),%edx
80008e59:	eb 89                	jmp    80008de4 <strtoul+0x64>
80008e5b:	80 fa 30             	cmp    $0x30,%dl
80008e5e:	0f 85 72 ff ff ff    	jne    80008dd6 <strtoul+0x56>
80008e64:	eb dc                	jmp    80008e42 <strtoul+0xc2>
80008e66:	41                   	inc    %ecx
80008e67:	0f b6 11             	movzbl (%ecx),%edx
80008e6a:	e9 5e ff ff ff       	jmp    80008dcd <strtoul+0x4d>
80008e6f:	90                   	nop    

80008e70 <strtol>:
80008e70:	55                   	push   %ebp
80008e71:	89 e5                	mov    %esp,%ebp
80008e73:	53                   	push   %ebx
80008e74:	83 ec 14             	sub    $0x14,%esp
80008e77:	8b 4d 08             	mov    0x8(%ebp),%ecx
80008e7a:	31 db                	xor    %ebx,%ebx
80008e7c:	0f b6 11             	movzbl (%ecx),%edx
80008e7f:	0f b6 c2             	movzbl %dl,%eax
80008e82:	0f b6 80 20 ab 00 80 	movzbl 0x8000ab20(%eax),%eax
80008e89:	24 20                	and    $0x20,%al
80008e8b:	84 c0                	test   %al,%al
80008e8d:	74 15                	je     80008ea4 <strtol+0x34>
80008e8f:	90                   	nop    
80008e90:	41                   	inc    %ecx
80008e91:	0f b6 11             	movzbl (%ecx),%edx
80008e94:	0f b6 c2             	movzbl %dl,%eax
80008e97:	0f b6 80 20 ab 00 80 	movzbl 0x8000ab20(%eax),%eax
80008e9e:	24 20                	and    $0x20,%al
80008ea0:	84 c0                	test   %al,%al
80008ea2:	75 ec                	jne    80008e90 <strtol+0x20>
80008ea4:	80 fa 2d             	cmp    $0x2d,%dl
80008ea7:	74 3f                	je     80008ee8 <strtol+0x78>
80008ea9:	89 0c 24             	mov    %ecx,(%esp,1)
80008eac:	8b 45 10             	mov    0x10(%ebp),%eax
80008eaf:	89 44 24 08          	mov    %eax,0x8(%esp,1)
80008eb3:	8b 45 0c             	mov    0xc(%ebp),%eax
80008eb6:	89 44 24 04          	mov    %eax,0x4(%esp,1)
80008eba:	e8 c1 fe ff ff       	call   80008d80 <strtoul>
80008ebf:	3d ff ff ff 7f       	cmp    $0x7fffffff,%eax
80008ec4:	76 1a                	jbe    80008ee0 <strtol+0x70>
80008ec6:	3d 00 00 00 80       	cmp    $0x80000000,%eax
80008ecb:	74 08                	je     80008ed5 <strtol+0x65>
80008ecd:	31 c0                	xor    %eax,%eax
80008ecf:	83 c4 14             	add    $0x14,%esp
80008ed2:	5b                   	pop    %ebx
80008ed3:	5d                   	pop    %ebp
80008ed4:	c3                   	ret    
80008ed5:	85 db                	test   %ebx,%ebx
80008ed7:	b8 00 00 00 80       	mov    $0x80000000,%eax
80008edc:	75 f1                	jne    80008ecf <strtol+0x5f>
80008ede:	eb ed                	jmp    80008ecd <strtol+0x5d>
80008ee0:	85 db                	test   %ebx,%ebx
80008ee2:	74 eb                	je     80008ecf <strtol+0x5f>
80008ee4:	f7 d8                	neg    %eax
80008ee6:	eb e7                	jmp    80008ecf <strtol+0x5f>
80008ee8:	bb ff ff ff ff       	mov    $0xffffffff,%ebx
80008eed:	41                   	inc    %ecx
80008eee:	eb b9                	jmp    80008ea9 <strtol+0x39>

80008ef0 <memset>:
80008ef0:	55                   	push   %ebp
80008ef1:	89 e5                	mov    %esp,%ebp
80008ef3:	53                   	push   %ebx
80008ef4:	8b 55 10             	mov    0x10(%ebp),%edx
80008ef7:	8b 5d 08             	mov    0x8(%ebp),%ebx
80008efa:	8b 45 0c             	mov    0xc(%ebp),%eax
80008efd:	4a                   	dec    %edx
80008efe:	83 fa ff             	cmp    $0xffffffff,%edx
80008f01:	89 d9                	mov    %ebx,%ecx
80008f03:	74 14                	je     80008f19 <memset+0x29>
80008f05:	8d 74 26 00          	lea    0x0(%esi,1),%esi
80008f09:	8d bc 27 00 00 00 00 	lea    0x0(%edi,1),%edi
80008f10:	88 01                	mov    %al,(%ecx)
80008f12:	4a                   	dec    %edx
80008f13:	41                   	inc    %ecx
80008f14:	83 fa ff             	cmp    $0xffffffff,%edx
80008f17:	75 f7                	jne    80008f10 <memset+0x20>
80008f19:	89 d8                	mov    %ebx,%eax
80008f1b:	5b                   	pop    %ebx
80008f1c:	5d                   	pop    %ebp
80008f1d:	c3                   	ret    
Disassembly of section .rodata:

80008f20 <rodata>:
80008f20:	5b                   	pop    %ebx
80008f21:	25 6c 75 5d 20       	and    $0x205d756c,%eax
80008f26:	62 6f 6f             	bound  %ebp,0x6f(%edi)
80008f29:	74 20                	je     80008f4b <rodata+0x2b>
80008f2b:	6d                   	insl   (%dx),%es:(%edi)
80008f2c:	6f                   	outsl  %ds:(%esi),(%dx)
80008f2d:	64                   	fs
80008f2e:	75 6c                	jne    80008f9c <rodata+0x7c>
80008f30:	65 28 73 29          	sub    %dh,%gs:0x29(%ebx)
80008f34:	20 66 6f             	and    %ah,0x6f(%esi)
80008f37:	75 6e                	jne    80008fa7 <rodata+0x87>
80008f39:	64 0a 00             	or     %fs:(%eax),%al
80008f3c:	4b                   	dec    %ebx
80008f3d:	45                   	inc    %ebp
80008f3e:	52                   	push   %edx
80008f3f:	4e                   	dec    %esi
80008f40:	45                   	inc    %ebp
80008f41:	4c                   	dec    %esp
80008f42:	00 30                	add    %dh,(%eax)
80008f44:	78 25                	js     80008f6b <rodata+0x4b>
80008f46:	58                   	pop    %eax
80008f47:	2f                   	das    
80008f48:	30 78 25             	xor    %bh,0x25(%eax)
80008f4b:	58                   	pop    %eax
80008f4c:	00 44 4d 4d          	add    %al,0x4d(%ebp,%ecx,2)
80008f50:	46                   	inc    %esi
80008f51:	53                   	push   %ebx
80008f52:	00 44 4d 4d          	add    %al,0x4d(%ebp,%ecx,2)
80008f56:	42                   	inc    %edx
80008f57:	6c                   	insb   (%dx),%es:(%edi)
80008f58:	6f                   	outsl  %ds:(%esi),(%dx)
80008f59:	63 6b 49             	arpl   %bp,0x49(%ebx)
80008f5c:	4f                   	dec    %edi
80008f5d:	00 44 4d 4d          	add    %al,0x4d(%ebp,%ecx,2)
80008f61:	3a 00                	cmp    (%eax),%al
80008f63:	44                   	inc    %esp
80008f64:	4d                   	dec    %ebp
80008f65:	4d                   	dec    %ebp
80008f66:	3a 2f                	cmp    (%edi),%ch
80008f68:	46                   	inc    %esi
80008f69:	49                   	dec    %ecx
80008f6a:	4c                   	dec    %esp
80008f6b:	45                   	inc    %ebp
	...
80008f80:	42                   	inc    %edx
80008f81:	6f                   	outsl  %ds:(%esi),(%dx)
80008f82:	6f                   	outsl  %ds:(%esi),(%dx)
80008f83:	74 20                	je     80008fa5 <rodata+0x85>
80008f85:	6d                   	insl   (%dx),%es:(%edi)
80008f86:	6f                   	outsl  %ds:(%esi),(%dx)
80008f87:	64                   	fs
80008f88:	75 6c                	jne    80008ff6 <rodata+0xd6>
80008f8a:	65 20 66 6f          	and    %ah,%gs:0x6f(%esi)
80008f8e:	75 6e                	jne    80008ffe <rodata+0xde>
80008f90:	64 20 61 74          	and    %ah,%fs:0x74(%ecx)
80008f94:	20 5b 30             	and    %bl,0x30(%ebx)
80008f97:	78 25                	js     80008fbe <rodata+0x9e>
80008f99:	58                   	pop    %eax
80008f9a:	2d 30 78 25 58       	sub    $0x58257830,%eax
80008f9f:	5d                   	pop    %ebp
80008fa0:	20 28                	and    %ch,(%eax)
80008fa2:	25 6c 75 20 62       	and    $0x6220756c,%eax
80008fa7:	79 74                	jns    8000901d <rodata+0xfd>
80008fa9:	65                   	gs
80008faa:	73 29                	jae    80008fd5 <rodata+0xb5>
80008fac:	0a 00                	or     (%eax),%al
	...
80008fbe:	00 00                	add    %al,(%eax)
80008fc0:	54                   	push   %esp
80008fc1:	6f                   	outsl  %ds:(%esi),(%dx)
80008fc2:	6f                   	outsl  %ds:(%esi),(%dx)
80008fc3:	20 6d 61             	and    %ch,0x61(%ebp)
80008fc6:	6e                   	outsb  %ds:(%esi),(%dx)
80008fc7:	79 20                	jns    80008fe9 <rodata+0xc9>
80008fc9:	62 6f 6f             	bound  %ebp,0x6f(%edi)
80008fcc:	74 20                	je     80008fee <rodata+0xce>
80008fce:	6d                   	insl   (%dx),%es:(%edi)
80008fcf:	6f                   	outsl  %ds:(%esi),(%dx)
80008fd0:	64                   	fs
80008fd1:	75 6c                	jne    8000903f <rodata+0x11f>
80008fd3:	65                   	gs
80008fd4:	73 20                	jae    80008ff6 <rodata+0xd6>
80008fd6:	2d 20 48 61 6c       	sub    $0x6c614820,%eax
80008fdb:	74 69                	je     80009046 <rodata+0x126>
80008fdd:	6e                   	outsb  %ds:(%esi),(%dx)
80008fde:	67 0a 00             	addr16 or (%bx,%si),%al
	...
80008ffd:	00 00                	add    %al,(%eax)
80008fff:	00 2f                	add    %ch,(%edi)
80009001:	53                   	push   %ebx
80009002:	79 73                	jns    80009077 <rodata+0x157>
80009004:	74 65                	je     8000906b <rodata+0x14b>
80009006:	6d                   	insl   (%dx),%es:(%edi)
80009007:	2f                   	das    
80009008:	44                   	inc    %esp
80009009:	65                   	gs
8000900a:	76 69                	jbe    80009075 <rodata+0x155>
8000900c:	63 65 4d             	arpl   %sp,0x4d(%ebp)
8000900f:	61                   	popa   
80009010:	6e                   	outsb  %ds:(%esi),(%dx)
80009011:	61                   	popa   
80009012:	67                   	addr16
80009013:	65                   	gs
80009014:	72 2f                	jb     80009045 <rodata+0x125>
80009016:	44                   	inc    %esp
80009017:	65                   	gs
80009018:	76 69                	jbe    80009083 <rodata+0x163>
8000901a:	63 65 73             	arpl   %sp,0x73(%ebp)
8000901d:	2f                   	das    
8000901e:	00 00                	add    %al,(%eax)
80009020:	44                   	inc    %esp
80009021:	65                   	gs
80009022:	76 69                	jbe    8000908d <rodata+0x16d>
80009024:	63 65 20             	arpl   %sp,0x20(%ebp)
80009027:	5b                   	pop    %ebx
80009028:	25 73 5d 20 61       	and    $0x61205d73,%eax
8000902d:	74 74                	je     800090a3 <rodata+0x183>
8000902f:	61                   	popa   
80009030:	63 68 65             	arpl   %bp,0x65(%eax)
80009033:	64 20 72 65          	and    %dh,%fs:0x65(%edx)
80009037:	73 6f                	jae    800090a8 <rodata+0x188>
80009039:	75 72                	jne    800090ad <rodata+0x18d>
8000903b:	63 65 20             	arpl   %sp,0x20(%ebp)
8000903e:	5b                   	pop    %ebx
8000903f:	25 73 5d 0a 00       	and    $0xa5d73,%eax
80009044:	44                   	inc    %esp
80009045:	45                   	inc    %ebp
80009046:	56                   	push   %esi
80009047:	49                   	dec    %ecx
80009048:	43                   	inc    %ebx
80009049:	45                   	inc    %ebp
8000904a:	00 44 4d 41          	add    %al,0x41(%ebp,%ecx,2)
8000904e:	20 30                	and    %dh,(%eax)
80009050:	78 25                	js     80009077 <rodata+0x157>
80009052:	58                   	pop    %eax
80009053:	00 50 4f             	add    %dl,0x4f(%eax)
80009056:	52                   	push   %edx
80009057:	54                   	push   %esp
80009058:	20 30                	and    %dh,(%eax)
8000905a:	78 25                	js     80009081 <rodata+0x161>
8000905c:	58                   	pop    %eax
8000905d:	00 49 52             	add    %cl,0x52(%ecx)
80009060:	51                   	push   %ecx
80009061:	20 30                	and    %dh,(%eax)
80009063:	78 25                	js     8000908a <rodata+0x16a>
80009065:	58                   	pop    %eax
80009066:	00 5b 25             	add    %bl,0x25(%ebx)
80009069:	73 5d                	jae    800090c8 <rodata+0x1a8>
8000906b:	20 44 65 76          	and    %al,0x76(%ebp,2)
8000906f:	69 63 65 20 64 65 76 	imul   $0x76656420,0x65(%ebx),%esp
80009076:	69 63 65 20 6e 6f 74 	imul   $0x746f6e20,0x65(%ebx),%esp
8000907d:	20 66 6f             	and    %ah,0x6f(%esi)
80009080:	75 6e                	jne    800090f0 <rodata+0x1d0>
80009082:	64 0a 00             	or     %fs:(%eax),%al
80009085:	44                   	inc    %esp
80009086:	65                   	gs
80009087:	76 69                	jbe    800090f2 <rodata+0x1d2>
80009089:	63 65 4d             	arpl   %sp,0x4d(%ebp)
8000908c:	61                   	popa   
8000908d:	6e                   	outsb  %ds:(%esi),(%dx)
8000908e:	61                   	popa   
8000908f:	67                   	addr16
80009090:	65                   	gs
80009091:	72 00                	jb     80009093 <rodata+0x173>
80009093:	52                   	push   %edx
80009094:	65 67 69 73 74 65 72 	addr16 imul $0x65447265,%gs:116(%bp,%di),%esi
8000909b:	44 65 
8000909d:	76 69                	jbe    80009108 <rodata+0x1e8>
8000909f:	63 65 00             	arpl   %sp,0x0(%ebp)
800090a2:	41                   	inc    %ecx
800090a3:	74 74                	je     80009119 <rodata+0x1f9>
800090a5:	61                   	popa   
800090a6:	63 68 52             	arpl   %bp,0x52(%eax)
800090a9:	65                   	gs
800090aa:	73 6f                	jae    8000911b <rodata+0x1fb>
800090ac:	75 72                	jne    80009120 <rodata+0x200>
800090ae:	63 65 00             	arpl   %sp,0x0(%ebp)
800090b1:	44                   	inc    %esp
800090b2:	65                   	gs
800090b3:	76 69                	jbe    8000911e <rodata+0x1fe>
800090b5:	63 65 20             	arpl   %sp,0x20(%ebp)
800090b8:	6d                   	insl   (%dx),%es:(%edi)
800090b9:	61                   	popa   
800090ba:	6e                   	outsb  %ds:(%esi),(%dx)
800090bb:	61                   	popa   
800090bc:	67                   	addr16
800090bd:	65                   	gs
800090be:	72 20                	jb     800090e0 <rodata+0x1c0>
800090c0:	69 6e 69 74 69 61 6c 	imul   $0x6c616974,0x69(%esi),%ebp
800090c7:	69 73 65 64 0a 00 00 	imul   $0xa64,0x65(%ebx),%esi
800090ce:	44                   	inc    %esp
800090cf:	65                   	gs
800090d0:	76 69                	jbe    8000913b <rodata+0x21b>
800090d2:	63 65 20             	arpl   %sp,0x20(%ebp)
800090d5:	5b                   	pop    %ebx
800090d6:	25 73 5d 20 61       	and    $0x61205d73,%eax
800090db:	64 64 65 64 0a 00    	or     %fs:%gs:(%eax),%al
800090e1:	44                   	inc    %esp
800090e2:	4d                   	dec    %ebp
800090e3:	4d                   	dec    %ebp
800090e4:	20 49 2f             	and    %cl,0x2f(%ecx)
800090e7:	4f                   	dec    %edi
800090e8:	20 69 6e             	and    %ch,0x6e(%ecx)
800090eb:	69 74 69 61 6c 69 73 	imul   $0x6573696c,0x61(%ecx,%ebp,2),%esi
800090f2:	65 
800090f3:	64 0a 00             	or     %fs:(%eax),%al
800090f6:	44                   	inc    %esp
800090f7:	4d                   	dec    %ebp
800090f8:	4d                   	dec    %ebp
800090f9:	20 49 2f             	and    %cl,0x2f(%ecx)
800090fc:	4f                   	dec    %edi
800090fd:	00 25 58 2f 25 58    	add    %ah,0x58252f58
	...
8000911f:	00 5b 25             	add    %bl,0x25(%ebx)
80009122:	73 5d                	jae    80009181 <rodata+0x261>
80009124:	20 69 73             	and    %ch,0x73(%ecx)
80009127:	20 6e 6f             	and    %ch,0x6f(%esi)
8000912a:	74 20                	je     8000914c <rodata+0x22c>
8000912c:	61                   	popa   
8000912d:	20 76 61             	and    %dh,0x61(%esi)
80009130:	6c                   	insb   (%dx),%es:(%edi)
80009131:	69 64 20 45 4c 46 20 	imul   $0x6620464c,0x45(%eax,1),%esp
80009138:	66 
80009139:	69 6c 65 20 3a 20 4e 	imul   $0x6f4e203a,0x20(%ebp,2),%ebp
80009140:	6f 
80009141:	74 20                	je     80009163 <rodata+0x243>
80009143:	33 32                	xor    (%edx),%esi
80009145:	62 69 74             	bound  %ebp,0x74(%ecx)
80009148:	20 63 6c             	and    %ah,0x6c(%ebx)
8000914b:	61                   	popa   
8000914c:	73 73                	jae    800091c1 <rodata+0x2a1>
8000914e:	0a 00                	or     (%eax),%al
	...
80009160:	5b                   	pop    %ebx
80009161:	25 73 5d 20 69       	and    $0x69205d73,%eax
80009166:	73 20                	jae    80009188 <rodata+0x268>
80009168:	6e                   	outsb  %ds:(%esi),(%dx)
80009169:	6f                   	outsl  %ds:(%esi),(%dx)
8000916a:	74 20                	je     8000918c <rodata+0x26c>
8000916c:	61                   	popa   
8000916d:	20 76 61             	and    %dh,0x61(%esi)
80009170:	6c                   	insb   (%dx),%es:(%edi)
80009171:	69 64 20 45 4c 46 20 	imul   $0x6620464c,0x45(%eax,1),%esp
80009178:	66 
80009179:	69 6c 65 20 3a 20 4e 	imul   $0x6f4e203a,0x20(%ebp,2),%ebp
80009180:	6f 
80009181:	74 20                	je     800091a3 <rodata+0x283>
80009183:	72 65                	jb     800091ea <rodata+0x2ca>
80009185:	6c                   	insb   (%dx),%es:(%edi)
80009186:	61                   	popa   
80009187:	74 69                	je     800091f2 <rodata+0x2d2>
80009189:	76 65                	jbe    800091f0 <rodata+0x2d0>
8000918b:	0a 00                	or     (%eax),%al
	...
8000919d:	00 00                	add    %al,(%eax)
8000919f:	00 5b 25             	add    %bl,0x25(%ebx)
800091a2:	73 5d                	jae    80009201 <rodata+0x2e1>
800091a4:	20 69 73             	and    %ch,0x73(%ecx)
800091a7:	20 6e 6f             	and    %ch,0x6f(%esi)
800091aa:	74 20                	je     800091cc <rodata+0x2ac>
800091ac:	61                   	popa   
800091ad:	20 76 61             	and    %dh,0x61(%esi)
800091b0:	6c                   	insb   (%dx),%es:(%edi)
800091b1:	69 64 20 45 4c 46 20 	imul   $0x6620464c,0x45(%eax,1),%esp
800091b8:	66 
800091b9:	69 6c 65 20 3a 20 4e 	imul   $0x6f4e203a,0x20(%ebp,2),%ebp
800091c0:	6f 
800091c1:	74 20                	je     800091e3 <rodata+0x2c3>
800091c3:	66 6f                	outsw  %ds:(%esi),(%dx)
800091c5:	72 20                	jb     800091e7 <rodata+0x2c7>
800091c7:	78 38                	js     80009201 <rodata+0x2e1>
800091c9:	36 0a 00             	or     %ss:(%eax),%al
	...
800091e0:	5b                   	pop    %ebx
800091e1:	25 73 5d 20 69       	and    $0x69205d73,%eax
800091e6:	73 20                	jae    80009208 <rodata+0x2e8>
800091e8:	6e                   	outsb  %ds:(%esi),(%dx)
800091e9:	6f                   	outsl  %ds:(%esi),(%dx)
800091ea:	74 20                	je     8000920c <rodata+0x2ec>
800091ec:	61                   	popa   
800091ed:	20 76 61             	and    %dh,0x61(%esi)
800091f0:	6c                   	insb   (%dx),%es:(%edi)
800091f1:	69 64 20 45 4c 46 20 	imul   $0x6620464c,0x45(%eax,1),%esp
800091f8:	66 
800091f9:	69 6c 65 20 3a 20 4e 	imul   $0x6f4e203a,0x20(%ebp,2),%ebp
80009200:	6f 
80009201:	74 20                	je     80009223 <rodata+0x303>
80009203:	63 75 72             	arpl   %si,0x72(%ebp)
80009206:	72 65                	jb     8000926d <rodata+0x34d>
80009208:	6e                   	outsb  %ds:(%esi),(%dx)
80009209:	74 20                	je     8000922b <rodata+0x30b>
8000920b:	76 65                	jbe    80009272 <rodata+0x352>
8000920d:	72 73                	jb     80009282 <rodata+0x362>
8000920f:	69 6f 6e 0a 00 5b 25 	imul   $0x255b000a,0x6e(%edi),%ebp
80009216:	73 5d                	jae    80009275 <rodata+0x355>
80009218:	20 69 73             	and    %ch,0x73(%ecx)
8000921b:	20 6e 6f             	and    %ch,0x6f(%esi)
8000921e:	74 20                	je     80009240 <rodata+0x320>
80009220:	61                   	popa   
80009221:	20 76 61             	and    %dh,0x61(%esi)
80009224:	6c                   	insb   (%dx),%es:(%edi)
80009225:	69 64 20 45 4c 46 20 	imul   $0x6620464c,0x45(%eax,1),%esp
8000922c:	66 
8000922d:	69 6c 65 0a 00 00 00 	imul   $0x64000000,0xa(%ebp,2),%ebp
80009234:	64 
80009235:	1d 00 80 4b 1d       	sbb    $0x1d4b8000,%eax
8000923a:	00 80 7e 1d 00 80    	add    %al,0x80001d7e(%eax)
80009240:	90                   	nop    
80009241:	1d 00 80 f6 1d       	sbb    $0x1df68000,%eax
80009246:	00 80 64 1d 00 80    	add    %al,0x80001d64(%eax)
8000924c:	64                   	fs
8000924d:	1d 00 80 64 1d       	sbb    $0x1d648000,%eax
80009252:	00 80 64 1d 00 80    	add    %al,0x80001d64(%eax)
80009258:	02 1e                	add    (%esi),%bl
8000925a:	00 80 12 1e 00 80    	add    %al,0x80001e12(%eax)
80009260:	2f                   	das    
80009261:	53                   	push   %ebx
80009262:	79 73                	jns    800092d7 <rodata+0x3b7>
80009264:	74 65                	je     800092cb <rodata+0x3ab>
80009266:	6d                   	insl   (%dx),%es:(%edi)
80009267:	2f                   	das    
80009268:	49                   	dec    %ecx
80009269:	4f                   	dec    %edi
8000926a:	4d                   	dec    %ebp
8000926b:	61                   	popa   
8000926c:	6e                   	outsb  %ds:(%esi),(%dx)
8000926d:	61                   	popa   
8000926e:	67                   	addr16
8000926f:	65                   	gs
80009270:	72 2f                	jb     800092a1 <rodata+0x381>
80009272:	44                   	inc    %esp
80009273:	65                   	gs
80009274:	76 69                	jbe    800092df <rodata+0x3bf>
80009276:	63 65 73             	arpl   %sp,0x73(%ebp)
80009279:	2f                   	das    
8000927a:	00 44 65 76          	add    %al,0x76(%ebp,2)
8000927e:	69 63 65 20 5b 25 73 	imul   $0x73255b20,0x65(%ebx),%esp
80009285:	5d                   	pop    %ebp
80009286:	20 66 61             	and    %ah,0x61(%esi)
80009289:	69 6c 65 64 20 6d 6f 	imul   $0x756f6d20,0x64(%ebp,2),%ebp
80009290:	75 
80009291:	6e                   	outsb  %ds:(%esi),(%dx)
80009292:	74 0a                	je     8000929e <rodata+0x37e>
80009294:	00 44 65 76          	add    %al,0x76(%ebp,2)
80009298:	69 63 65 20 5b 25 73 	imul   $0x73255b20,0x65(%ebx),%esp
8000929f:	5d                   	pop    %ebp
800092a0:	20 66 61             	and    %ah,0x61(%esi)
800092a3:	69 6c 65 64 20 64 69 	imul   $0x73696420,0x64(%ebp,2),%ebp
800092aa:	73 
800092ab:	6d                   	insl   (%dx),%es:(%edi)
800092ac:	6f                   	outsl  %ds:(%esi),(%dx)
800092ad:	75 6e                	jne    8000931d <rodata+0x3fd>
800092af:	74 0a                	je     800092bb <rodata+0x39b>
800092b1:	00 50 61             	add    %dl,0x61(%eax)
800092b4:	74 68                	je     8000931e <rodata+0x3fe>
800092b6:	20 5b 25             	and    %bl,0x25(%ebx)
800092b9:	73 5d                	jae    80009318 <rodata+0x3f8>
800092bb:	20 69 73             	and    %ch,0x73(%ecx)
800092be:	20 74 6f 6f          	and    %dh,0x6f(%edi,%ebp,2)
800092c2:	20 6c 6f 6e          	and    %ch,0x6e(%edi,%ebp,2)
800092c6:	67 0a 00             	addr16 or (%bx,%si),%al
800092c9:	50                   	push   %eax
800092ca:	61                   	popa   
800092cb:	74 68                	je     80009335 <rodata+0x415>
800092cd:	20 5b 25             	and    %bl,0x25(%ebx)
800092d0:	73 5d                	jae    8000932f <rodata+0x40f>
800092d2:	20 69 73             	and    %ch,0x73(%ecx)
800092d5:	20 6e 6f             	and    %ch,0x6f(%esi)
800092d8:	74 20                	je     800092fa <rodata+0x3da>
800092da:	76 61                	jbe    8000933d <rodata+0x41d>
800092dc:	6c                   	insb   (%dx),%es:(%edi)
800092dd:	69 64 0a 00 48 61 6e 	imul   $0x646e6148,0x0(%edx,%ecx,1),%esp
800092e4:	64 
800092e5:	6c                   	insb   (%dx),%es:(%edi)
800092e6:	65 20 25 75 00 4f 70 	and    %ah,%gs:0x704f0075
800092ed:	65 6e                	outsb  %gs:(%esi),(%dx)
800092ef:	20 66 61             	and    %ah,0x61(%esi)
800092f2:	69 6c 65 64 20 6f 6e 	imul   $0x206e6f20,0x64(%ebp,2),%ebp
800092f9:	20 
800092fa:	66 69 6c 65 20 5b 25 	imul   $0x255b,0x20(%ebp,2),%bp
80009301:	73 5d                	jae    80009360 <rodata+0x440>
80009303:	0a 00                	or     (%eax),%al
80009305:	56                   	push   %esi
80009306:	6f                   	outsl  %ds:(%esi),(%dx)
80009307:	6c                   	insb   (%dx),%es:(%edi)
80009308:	75 6d                	jne    80009377 <rodata+0x457>
8000930a:	65 20 5b 25          	and    %bl,%gs:0x25(%ebx)
8000930e:	73 5d                	jae    8000936d <rodata+0x44d>
80009310:	20 6e 6f             	and    %ch,0x6f(%esi)
80009313:	74 20                	je     80009335 <rodata+0x415>
80009315:	66 6f                	outsw  %ds:(%esi),(%dx)
80009317:	75 6e                	jne    80009387 <rodata+0x467>
80009319:	64 0a 00             	or     %fs:(%eax),%al
8000931c:	46                   	inc    %esi
8000931d:	49                   	dec    %ecx
8000931e:	4c                   	dec    %esp
8000931f:	45                   	inc    %ebp
80009320:	53                   	push   %ebx
80009321:	59                   	pop    %ecx
80009322:	53                   	push   %ebx
80009323:	54                   	push   %esp
80009324:	45                   	inc    %ebp
80009325:	4d                   	dec    %ebp
80009326:	00 46 69             	add    %al,0x69(%esi)
80009329:	6c                   	insb   (%dx),%es:(%edi)
8000932a:	65 20 73 79          	and    %dh,%gs:0x79(%ebx)
8000932e:	73 74                	jae    800093a4 <rodata+0x484>
80009330:	65                   	gs
80009331:	6d                   	insl   (%dx),%es:(%edi)
80009332:	20 69 6e             	and    %ch,0x6e(%ecx)
80009335:	69 74 69 61 6c 69 73 	imul   $0x6573696c,0x61(%ecx,%ebp,2),%esi
8000933c:	65 
8000933d:	64 0a 00             	or     %fs:(%eax),%al
80009340:	46                   	inc    %esi
80009341:	69 6c 65 73 79 73 74 	imul   $0x65747379,0x73(%ebp,2),%ebp
80009348:	65 
80009349:	6d                   	insl   (%dx),%es:(%edi)
8000934a:	20 5b 25             	and    %bl,0x25(%ebx)
8000934d:	73 5d                	jae    800093ac <rodata+0x48c>
8000934f:	20 72 65             	and    %dh,0x65(%edx)
80009352:	67 69 73 74 65 72 65 	addr16 imul $0x64657265,116(%bp,%di),%esi
80009359:	64 
8000935a:	0a 00                	or     (%eax),%al
8000935c:	48                   	dec    %eax
8000935d:	61                   	popa   
8000935e:	6e                   	outsb  %ds:(%esi),(%dx)
8000935f:	64                   	fs
80009360:	6c                   	insb   (%dx),%es:(%edi)
80009361:	65 20 5b 25          	and    %bl,%gs:0x25(%ebx)
80009365:	75 5d                	jne    800093c4 <rodata+0x4a4>
80009367:	20 6e 6f             	and    %ch,0x6f(%esi)
8000936a:	74 20                	je     8000938c <rodata+0x46c>
8000936c:	66 6f                	outsw  %ds:(%esi),(%dx)
8000936e:	75 6e                	jne    800093de <rodata+0x4be>
80009370:	64 0a 00             	or     %fs:(%eax),%al
	...
8000937f:	00 2f                	add    %ch,(%edi)
80009381:	53                   	push   %ebx
80009382:	79 73                	jns    800093f7 <rodata+0x4d7>
80009384:	74 65                	je     800093eb <rodata+0x4cb>
80009386:	6d                   	insl   (%dx),%es:(%edi)
80009387:	2f                   	das    
80009388:	46                   	inc    %esi
80009389:	69 6c 65 73 79 73 74 	imul   $0x65747379,0x73(%ebp,2),%ebp
80009390:	65 
80009391:	6d                   	insl   (%dx),%es:(%edi)
80009392:	4d                   	dec    %ebp
80009393:	61                   	popa   
80009394:	6e                   	outsb  %ds:(%esi),(%dx)
80009395:	61                   	popa   
80009396:	67                   	addr16
80009397:	65                   	gs
80009398:	72 2f                	jb     800093c9 <rodata+0x4a9>
8000939a:	46                   	inc    %esi
8000939b:	69 6c 65 73 79 73 74 	imul   $0x65747379,0x73(%ebp,2),%ebp
800093a2:	65 
800093a3:	6d                   	insl   (%dx),%es:(%edi)
800093a4:	73 2f                	jae    800093d5 <rodata+0x4b5>
800093a6:	2f                   	das    
	...
800093bf:	00 2f                	add    %ch,(%edi)
800093c1:	53                   	push   %ebx
800093c2:	79 73                	jns    80009437 <rodata+0x517>
800093c4:	74 65                	je     8000942b <rodata+0x50b>
800093c6:	6d                   	insl   (%dx),%es:(%edi)
800093c7:	2f                   	das    
800093c8:	46                   	inc    %esi
800093c9:	69 6c 65 73 79 73 74 	imul   $0x65747379,0x73(%ebp,2),%ebp
800093d0:	65 
800093d1:	6d                   	insl   (%dx),%es:(%edi)
800093d2:	4d                   	dec    %ebp
800093d3:	61                   	popa   
800093d4:	6e                   	outsb  %ds:(%esi),(%dx)
800093d5:	61                   	popa   
800093d6:	67                   	addr16
800093d7:	65                   	gs
800093d8:	72 2f                	jb     80009409 <rodata+0x4e9>
800093da:	56                   	push   %esi
800093db:	6f                   	outsl  %ds:(%esi),(%dx)
800093dc:	6c                   	insb   (%dx),%es:(%edi)
800093dd:	75 6d                	jne    8000944c <rodata+0x52c>
800093df:	65                   	gs
800093e0:	73 2f                	jae    80009411 <rodata+0x4f1>
	...
800093fe:	00 00                	add    %al,(%eax)
80009400:	53                   	push   %ebx
80009401:	75 63                	jne    80009466 <rodata+0x546>
80009403:	63 65 73             	arpl   %sp,0x73(%ebp)
80009406:	73 66                	jae    8000946e <rodata+0x54e>
80009408:	75 6c                	jne    80009476 <rodata+0x556>
8000940a:	6c                   	insb   (%dx),%es:(%edi)
8000940b:	79 20                	jns    8000942d <rodata+0x50d>
8000940d:	6d                   	insl   (%dx),%es:(%edi)
8000940e:	6f                   	outsl  %ds:(%esi),(%dx)
8000940f:	75 6e                	jne    8000947f <rodata+0x55f>
80009411:	74 65                	je     80009478 <rodata+0x558>
80009413:	64 20 76 6f          	and    %dh,%fs:0x6f(%esi)
80009417:	6c                   	insb   (%dx),%es:(%edi)
80009418:	75 6d                	jne    80009487 <rodata+0x567>
8000941a:	65 20 5b 25          	and    %bl,%gs:0x25(%ebx)
8000941e:	73 5d                	jae    8000947d <rodata+0x55d>
80009420:	5b                   	pop    %ebx
80009421:	25 73 5d 5b 25       	and    $0x255b5d73,%eax
80009426:	73 5d                	jae    80009485 <rodata+0x565>
80009428:	0a 00                	or     (%eax),%al
	...
8000943e:	00 00                	add    %al,(%eax)
80009440:	43                   	inc    %ebx
80009441:	61                   	popa   
80009442:	6e                   	outsb  %ds:(%esi),(%dx)
80009443:	27                   	daa    
80009444:	74 20                	je     80009466 <rodata+0x546>
80009446:	63 72 65             	arpl   %si,0x65(%edx)
80009449:	61                   	popa   
8000944a:	74 65                	je     800094b1 <rodata+0x591>
8000944c:	20 76 6f             	and    %dh,0x6f(%esi)
8000944f:	6c                   	insb   (%dx),%es:(%edi)
80009450:	75 6d                	jne    800094bf <rodata+0x59f>
80009452:	65 20 5b 25          	and    %bl,%gs:0x25(%ebx)
80009456:	73 5d                	jae    800094b5 <rodata+0x595>
80009458:	20 62 65             	and    %ah,0x65(%edx)
8000945b:	63 61 75             	arpl   %sp,0x75(%ecx)
8000945e:	73 65                	jae    800094c5 <rodata+0x5a5>
80009460:	20 66 69             	and    %ah,0x69(%esi)
80009463:	6c                   	insb   (%dx),%es:(%edi)
80009464:	65                   	gs
80009465:	73 79                	jae    800094e0 <rodata+0x5c0>
80009467:	73 74                	jae    800094dd <rodata+0x5bd>
80009469:	65                   	gs
8000946a:	6d                   	insl   (%dx),%es:(%edi)
8000946b:	20 5b 25             	and    %bl,0x25(%ebx)
8000946e:	73 5d                	jae    800094cd <rodata+0x5ad>
80009470:	20 6e 6f             	and    %ch,0x6f(%esi)
80009473:	6e                   	outsb  %ds:(%esi),(%dx)
80009474:	2d 65 78 69 73       	sub    $0x73697865,%eax
80009479:	74 61                	je     800094dc <rodata+0x5bc>
8000947b:	6e                   	outsb  %ds:(%esi),(%dx)
8000947c:	74 0a                	je     80009488 <rodata+0x568>
8000947e:	00 00                	add    %al,(%eax)
80009480:	43                   	inc    %ebx
80009481:	61                   	popa   
80009482:	6e                   	outsb  %ds:(%esi),(%dx)
80009483:	27                   	daa    
80009484:	74 20                	je     800094a6 <rodata+0x586>
80009486:	63 72 65             	arpl   %si,0x65(%edx)
80009489:	61                   	popa   
8000948a:	74 65                	je     800094f1 <rodata+0x5d1>
8000948c:	20 76 6f             	and    %dh,0x6f(%esi)
8000948f:	6c                   	insb   (%dx),%es:(%edi)
80009490:	75 6d                	jne    800094ff <rodata+0x5df>
80009492:	65 20 5b 25          	and    %bl,%gs:0x25(%ebx)
80009496:	73 5d                	jae    800094f5 <rodata+0x5d5>
80009498:	20 62 65             	and    %ah,0x65(%edx)
8000949b:	63 61 75             	arpl   %sp,0x75(%ecx)
8000949e:	73 65                	jae    80009505 <rodata+0x5e5>
800094a0:	20 49 2f             	and    %cl,0x2f(%ecx)
800094a3:	4f                   	dec    %edi
800094a4:	20 64 65 76          	and    %ah,0x76(%ebp,2)
800094a8:	69 63 65 20 5b 25 73 	imul   $0x73255b20,0x65(%ebx),%esp
800094af:	5d                   	pop    %ebp
800094b0:	20 6e 6f             	and    %ch,0x6f(%esi)
800094b3:	6e                   	outsb  %ds:(%esi),(%dx)
800094b4:	2d 65 78 69 73       	sub    $0x73697865,%eax
800094b9:	74 61                	je     8000951c <rodata+0x5fc>
800094bb:	6e                   	outsb  %ds:(%esi),(%dx)
800094bc:	74 0a                	je     800094c8 <rodata+0x5a8>
800094be:	00 00                	add    %al,(%eax)
800094c0:	56                   	push   %esi
800094c1:	6f                   	outsl  %ds:(%esi),(%dx)
800094c2:	6c                   	insb   (%dx),%es:(%edi)
800094c3:	75 6d                	jne    80009532 <rodata+0x612>
800094c5:	65 20 5b 25          	and    %bl,%gs:0x25(%ebx)
800094c9:	73 5d                	jae    80009528 <rodata+0x608>
800094cb:	20 68 61             	and    %ch,0x61(%eax)
800094ce:	73 20                	jae    800094f0 <rodata+0x5d0>
800094d0:	25 75 20 72 65       	and    $0x65722075,%eax
800094d5:	66                   	data16
800094d6:	65                   	gs
800094d7:	72 65                	jb     8000953e <rodata+0x61e>
800094d9:	6e                   	outsb  %ds:(%esi),(%dx)
800094da:	63 65 28             	arpl   %sp,0x28(%ebp)
800094dd:	73 29                	jae    80009508 <rodata+0x5e8>
800094df:	0a 00                	or     (%eax),%al
	...
800094fd:	00 00                	add    %al,(%eax)
800094ff:	00 53 75             	add    %dl,0x75(%ebx)
80009502:	63 63 65             	arpl   %sp,0x65(%ebx)
80009505:	73 73                	jae    8000957a <rodata+0x65a>
80009507:	66                   	data16
80009508:	75 6c                	jne    80009576 <rodata+0x656>
8000950a:	6c                   	insb   (%dx),%es:(%edi)
8000950b:	79 20                	jns    8000952d <rodata+0x60d>
8000950d:	64 69 73 6d 6f 75 6e 	imul   $0x746e756f,%fs:0x6d(%ebx),%esi
80009514:	74 
80009515:	65 64 20 76 6f       	and    %dh,%fs:%gs:0x6f(%esi)
8000951a:	6c                   	insb   (%dx),%es:(%edi)
8000951b:	75 6d                	jne    8000958a <rodata+0x66a>
8000951d:	65 20 5b 25          	and    %bl,%gs:0x25(%ebx)
80009521:	73 5d                	jae    80009580 <rodata+0x660>
80009523:	0a 00                	or     (%eax),%al
	...
8000953d:	00 00                	add    %al,(%eax)
8000953f:	00 43 61             	add    %al,0x61(%ebx)
80009542:	6e                   	outsb  %ds:(%esi),(%dx)
80009543:	27                   	daa    
80009544:	74 20                	je     80009566 <rodata+0x646>
80009546:	66 69 6e 64 20 76    	imul   $0x7620,0x64(%esi),%bp
8000954c:	6f                   	outsl  %ds:(%esi),(%dx)
8000954d:	6c                   	insb   (%dx),%es:(%edi)
8000954e:	75 6d                	jne    800095bd <rodata+0x69d>
80009550:	65 20 5b 25          	and    %bl,%gs:0x25(%ebx)
80009554:	73 5d                	jae    800095b3 <rodata+0x693>
80009556:	20 74 6f 20          	and    %dh,0x20(%edi,%ebp,2)
8000955a:	75 6e                	jne    800095ca <rodata+0x6aa>
8000955c:	6d                   	insl   (%dx),%es:(%edi)
8000955d:	6f                   	outsl  %ds:(%esi),(%dx)
8000955e:	75 6e                	jne    800095ce <rodata+0x6ae>
80009560:	74 0a                	je     8000956c <rodata+0x64c>
	...
8000957e:	00 00                	add    %al,(%eax)
80009580:	2f                   	das    
80009581:	53                   	push   %ebx
80009582:	79 73                	jns    800095f7 <rodata+0x6d7>
80009584:	74 65                	je     800095eb <rodata+0x6cb>
80009586:	6d                   	insl   (%dx),%es:(%edi)
80009587:	2f                   	das    
80009588:	46                   	inc    %esi
80009589:	69 6c 65 73 79 73 74 	imul   $0x65747379,0x73(%ebp,2),%ebp
80009590:	65 
80009591:	6d                   	insl   (%dx),%es:(%edi)
80009592:	4d                   	dec    %ebp
80009593:	61                   	popa   
80009594:	6e                   	outsb  %ds:(%esi),(%dx)
80009595:	61                   	popa   
80009596:	67                   	addr16
80009597:	65                   	gs
80009598:	72 2f                	jb     800095c9 <rodata+0x6a9>
8000959a:	48                   	dec    %eax
8000959b:	61                   	popa   
8000959c:	6e                   	outsb  %ds:(%esi),(%dx)
8000959d:	64                   	fs
8000959e:	6c                   	insb   (%dx),%es:(%edi)
8000959f:	65                   	gs
800095a0:	73 00                	jae    800095a2 <rodata+0x682>
	...
800095be:	00 00                	add    %al,(%eax)
800095c0:	2f                   	das    
800095c1:	53                   	push   %ebx
800095c2:	79 73                	jns    80009637 <rodata+0x717>
800095c4:	74 65                	je     8000962b <rodata+0x70b>
800095c6:	6d                   	insl   (%dx),%es:(%edi)
800095c7:	2f                   	das    
800095c8:	46                   	inc    %esi
800095c9:	69 6c 65 73 79 73 74 	imul   $0x65747379,0x73(%ebp,2),%ebp
800095d0:	65 
800095d1:	6d                   	insl   (%dx),%es:(%edi)
800095d2:	4d                   	dec    %ebp
800095d3:	61                   	popa   
800095d4:	6e                   	outsb  %ds:(%esi),(%dx)
800095d5:	61                   	popa   
800095d6:	67                   	addr16
800095d7:	65                   	gs
800095d8:	72 2f                	jb     80009609 <rodata+0x6e9>
800095da:	46                   	inc    %esi
800095db:	69 6c 65 73 79 73 74 	imul   $0x65747379,0x73(%ebp,2),%ebp
800095e2:	65 
800095e3:	6d                   	insl   (%dx),%es:(%edi)
800095e4:	73 2f                	jae    80009615 <rodata+0x6f5>
	...
800096e6:	00 49 6e             	add    %cl,0x6e(%ecx)
800096e9:	74 65                	je     80009750 <rodata+0x830>
800096eb:	72 72                	jb     8000975f <rodata+0x83f>
800096ed:	75 70                	jne    8000975f <rodata+0x83f>
800096ef:	74 73                	je     80009764 <rodata+0x844>
800096f1:	20 73 65             	and    %dh,0x65(%ebx)
800096f4:	74 20                	je     80009716 <rodata+0x7f6>
800096f6:	75 70                	jne    80009768 <rodata+0x848>
800096f8:	0a 00                	or     (%eax),%al
800096fa:	49                   	dec    %ecx
800096fb:	4e                   	dec    %esi
800096fc:	54                   	push   %esp
800096fd:	45                   	inc    %ebp
800096fe:	52                   	push   %edx
800096ff:	52                   	push   %edx
80009700:	55                   	push   %ebp
80009701:	50                   	push   %eax
80009702:	54                   	push   %esp
80009703:	00 55 6e             	add    %dl,0x6e(%ebp)
80009706:	68 61 6e 64 6c       	push   $0x6c646e61
8000970b:	65 64 20 69 6e       	and    %ch,%fs:%gs:0x6e(%ecx)
80009710:	74 65                	je     80009777 <rodata+0x857>
80009712:	72 72                	jb     80009786 <rodata+0x866>
80009714:	75 70                	jne    80009786 <rodata+0x866>
80009716:	74 20                	je     80009738 <rodata+0x818>
80009718:	25 64 0a 00 4e       	and    $0x4e000a64,%eax
8000971d:	6f                   	outsl  %ds:(%esi),(%dx)
8000971e:	20 68 61             	and    %ch,0x61(%eax)
80009721:	6e                   	outsb  %ds:(%esi),(%dx)
80009722:	64                   	fs
80009723:	6c                   	insb   (%dx),%es:(%edi)
80009724:	65                   	gs
80009725:	72 20                	jb     80009747 <rodata+0x827>
80009727:	66 6f                	outsw  %ds:(%esi),(%dx)
80009729:	72 20                	jb     8000974b <rodata+0x82b>
8000972b:	69 6e 74 65 72 72 75 	imul   $0x75727265,0x74(%esi),%ebp
80009732:	70 74                	jo     800097a8 <rodata+0x888>
80009734:	20 25 64 0a 00 45    	and    %ah,0x45000a64
8000973a:	6e                   	outsb  %ds:(%esi),(%dx)
8000973b:	61                   	popa   
8000973c:	62 6c 65 64          	bound  %ebp,0x64(%ebp,2)
80009740:	20 49 52             	and    %cl,0x52(%ecx)
80009743:	51                   	push   %ecx
80009744:	20 5b 25             	and    %bl,0x25(%ebx)
80009747:	6c                   	insb   (%dx),%es:(%edi)
80009748:	75 5d                	jne    800097a7 <rodata+0x887>
8000974a:	0a 00                	or     (%eax),%al
8000974c:	49                   	dec    %ecx
8000974d:	6e                   	outsb  %ds:(%esi),(%dx)
8000974e:	74 65                	je     800097b5 <rodata+0x895>
80009750:	72 72                	jb     800097c4 <rodata+0x8a4>
80009752:	75 70                	jne    800097c4 <rodata+0x8a4>
80009754:	74 4d                	je     800097a3 <rodata+0x883>
80009756:	61                   	popa   
80009757:	6e                   	outsb  %ds:(%esi),(%dx)
80009758:	61                   	popa   
80009759:	67                   	addr16
8000975a:	65                   	gs
8000975b:	72 00                	jb     8000975d <rodata+0x83d>
8000975d:	45                   	inc    %ebp
8000975e:	6e                   	outsb  %ds:(%esi),(%dx)
8000975f:	61                   	popa   
80009760:	62 6c 65 49          	bound  %ebp,0x49(%ebp,2)
80009764:	6e                   	outsb  %ds:(%esi),(%dx)
80009765:	74 65                	je     800097cc <rodata+0x8ac>
80009767:	72 72                	jb     800097db <rodata+0x8bb>
80009769:	75 70                	jne    800097db <rodata+0x8bb>
8000976b:	74 00                	je     8000976d <rodata+0x84d>
8000976d:	41                   	inc    %ecx
8000976e:	74 74                	je     800097e4 <rodata+0x8c4>
80009770:	61                   	popa   
80009771:	63 68 48             	arpl   %bp,0x48(%eax)
80009774:	61                   	popa   
80009775:	6e                   	outsb  %ds:(%esi),(%dx)
80009776:	64                   	fs
80009777:	6c                   	insb   (%dx),%es:(%edi)
80009778:	65                   	gs
80009779:	72 00                	jb     8000977b <rodata+0x85b>
8000977b:	00 00                	add    %al,(%eax)
8000977d:	00 00                	add    %al,(%eax)
8000977f:	00 41 74             	add    %al,0x74(%ecx)
80009782:	74 61                	je     800097e5 <rodata+0x8c5>
80009784:	63 68 65             	arpl   %bp,0x65(%eax)
80009787:	64 20 68 61          	and    %ch,%fs:0x61(%eax)
8000978b:	6e                   	outsb  %ds:(%esi),(%dx)
8000978c:	64                   	fs
8000978d:	6c                   	insb   (%dx),%es:(%edi)
8000978e:	65                   	gs
8000978f:	72 20                	jb     800097b1 <rodata+0x891>
80009791:	5b                   	pop    %ebx
80009792:	25 73 5d 20 66       	and    $0x66205d73,%eax
80009797:	6f                   	outsl  %ds:(%esi),(%dx)
80009798:	72 20                	jb     800097ba <rodata+0x89a>
8000979a:	49                   	dec    %ecx
8000979b:	52                   	push   %edx
8000979c:	51                   	push   %ecx
8000979d:	20 5b 25             	and    %bl,0x25(%ebx)
800097a0:	6c                   	insb   (%dx),%es:(%edi)
800097a1:	75 5d                	jne    80009800 <rodata+0x8e0>
800097a3:	0a 00                	or     (%eax),%al
800097a5:	42                   	inc    %edx
800097a6:	6c                   	insb   (%dx),%es:(%edi)
800097a7:	6f                   	outsl  %ds:(%esi),(%dx)
800097a8:	63 6b 20             	arpl   %bp,0x20(%ebx)
800097ab:	6e                   	outsb  %ds:(%esi),(%dx)
800097ac:	6f                   	outsl  %ds:(%esi),(%dx)
800097ad:	74 20                	je     800097cf <rodata+0x8af>
800097af:	69 6e 20 63 61 63 68 	imul   $0x68636163,0x20(%esi),%ebp
800097b6:	65 20 5b 25          	and    %bl,%gs:0x25(%ebx)
800097ba:	75 5d                	jne    80009819 <rodata+0x8f9>
800097bc:	0a 00                	or     (%eax),%al
800097be:	49                   	dec    %ecx
800097bf:	4f                   	dec    %edi
800097c0:	43                   	inc    %ebx
800097c1:	41                   	inc    %ecx
800097c2:	43                   	inc    %ebx
800097c3:	48                   	dec    %eax
800097c4:	45                   	inc    %ebp
800097c5:	00 49 4f             	add    %cl,0x4f(%ecx)
800097c8:	4d                   	dec    %ebp
800097c9:	41                   	inc    %ecx
800097ca:	4e                   	dec    %esi
800097cb:	41                   	inc    %ecx
800097cc:	47                   	inc    %edi
800097cd:	45                   	inc    %ebp
800097ce:	52                   	push   %edx
800097cf:	00 43 61             	add    %al,0x61(%ebx)
800097d2:	63 68 65             	arpl   %bp,0x65(%eax)
800097d5:	20 65 6e             	and    %ah,0x6e(%ebp)
800097d8:	74 72                	je     8000984c <rodata+0x92c>
800097da:	79 20                	jns    800097fc <rodata+0x8dc>
800097dc:	73 69                	jae    80009847 <rodata+0x927>
800097de:	7a 65                	jp     80009845 <rodata+0x925>
800097e0:	20 5b 25             	and    %bl,0x25(%ebx)
800097e3:	75 20                	jne    80009805 <rodata+0x8e5>
800097e5:	4b                   	dec    %ebx
800097e6:	62 5d 20             	bound  %ebx,0x20(%ebp)
800097e9:	0a 00                	or     (%eax),%al
800097eb:	49                   	dec    %ecx
800097ec:	2f                   	das    
800097ed:	4f                   	dec    %edi
800097ee:	20 4d 61             	and    %cl,0x61(%ebp)
800097f1:	6e                   	outsb  %ds:(%esi),(%dx)
800097f2:	61                   	popa   
800097f3:	67                   	addr16
800097f4:	65                   	gs
800097f5:	72 20                	jb     80009817 <rodata+0x8f7>
800097f7:	69 6e 69 74 69 61 6c 	imul   $0x6c616974,0x69(%esi),%ebp
800097fe:	69 73 65 64 0a 00 49 	imul   $0x49000a64,0x65(%ebx),%esi
80009805:	2f                   	das    
80009806:	4f                   	dec    %edi
80009807:	20 44 65 76          	and    %al,0x76(%ebp,2)
8000980b:	69 63 65 20 5b 25 73 	imul   $0x73255b20,0x65(%ebx),%esp
80009812:	5d                   	pop    %ebp
80009813:	20 72 65             	and    %dh,0x65(%edx)
80009816:	67 69 73 74 65 72 65 	addr16 imul $0x64657265,116(%bp,%di),%esi
8000981d:	64 
8000981e:	0a 00                	or     (%eax),%al
80009820:	43                   	inc    %ebx
80009821:	61                   	popa   
80009822:	6e                   	outsb  %ds:(%esi),(%dx)
80009823:	27                   	daa    
80009824:	74 20                	je     80009846 <rodata+0x926>
80009826:	64 69 72 65 63 74 20 	imul   $0x6d207463,%fs:0x65(%edx),%esi
8000982d:	6d 
8000982e:	61                   	popa   
8000982f:	70 20                	jo     80009851 <rodata+0x931>
80009831:	70 61                	jo     80009894 <rodata+0x974>
80009833:	67 65 20 5b 30       	addr16 and %bl,%gs:48(%bp,%di)
80009838:	78 25                	js     8000985f <rodata+0x93f>
8000983a:	58                   	pop    %eax
8000983b:	5d                   	pop    %ebp
8000983c:	20 69 6e             	and    %ch,0x6e(%ecx)
8000983f:	74 6f                	je     800098b0 <rodata+0x990>
80009841:	20 49 2f             	and    %cl,0x2f(%ecx)
80009844:	4f                   	dec    %edi
80009845:	20 43 61             	and    %al,0x61(%ebx)
80009848:	63 68 65             	arpl   %bp,0x65(%eax)
8000984b:	0a 00                	or     (%eax),%al
	...
8000985d:	00 00                	add    %al,(%eax)
8000985f:	00 5b 25             	add    %bl,0x25(%ebx)
80009862:	75 20                	jne    80009884 <rodata+0x964>
80009864:	4b                   	dec    %ebx
80009865:	62 5d 20             	bound  %ebx,0x20(%ebp)
80009868:	53                   	push   %ebx
80009869:	70 61                	jo     800098cc <rodata+0x9ac>
8000986b:	63 65 20             	arpl   %sp,0x20(%ebp)
8000986e:	6e                   	outsb  %ds:(%esi),(%dx)
8000986f:	65 65 64 65 64 20 66 	and    %ah,%fs:%gs:0x6f(%esi)
80009876:	6f 
80009877:	72 20                	jb     80009899 <rodata+0x979>
80009879:	65 6e                	outsb  %gs:(%esi),(%dx)
8000987b:	74 72                	je     800098ef <rodata+0x9cf>
8000987d:	69 65 73 0a 00 00 00 	imul   $0xa,0x73(%ebp),%esp
	...
800098a0:	49                   	dec    %ecx
800098a1:	2f                   	das    
800098a2:	4f                   	dec    %edi
800098a3:	20 43 61             	and    %al,0x61(%ebx)
800098a6:	63 68 65             	arpl   %bp,0x65(%eax)
800098a9:	20 69 6e             	and    %ch,0x6e(%ecx)
800098ac:	69 74 69 61 6c 69 73 	imul   $0x6573696c,0x61(%ecx,%ebp,2),%esi
800098b3:	65 
800098b4:	64 20 77 69          	and    %dh,%fs:0x69(%edi)
800098b8:	74 68                	je     80009922 <rodata+0xa02>
800098ba:	20 5b 25             	and    %bl,0x25(%ebx)
800098bd:	75 20                	jne    800098df <rodata+0x9bf>
800098bf:	65 6e                	outsb  %gs:(%esi),(%dx)
800098c1:	74 72                	je     80009935 <rodata+0xa15>
800098c3:	69 65 73 5d 20 5b 25 	imul   $0x255b205d,0x73(%ebp),%esp
800098ca:	75 20                	jne    800098ec <rodata+0x9cc>
800098cc:	4b                   	dec    %ebx
800098cd:	62 5d 0a             	bound  %ebx,0xa(%ebp)
	...
800098e0:	43                   	inc    %ebx
800098e1:	61                   	popa   
800098e2:	6e                   	outsb  %ds:(%esi),(%dx)
800098e3:	27                   	daa    
800098e4:	74 20                	je     80009906 <rodata+0x9e6>
800098e6:	75 6e                	jne    80009956 <rodata+0xa36>
800098e8:	6d                   	insl   (%dx),%es:(%edi)
800098e9:	61                   	popa   
800098ea:	70 20                	jo     8000990c <rodata+0x9ec>
800098ec:	70 61                	jo     8000994f <rodata+0xa2f>
800098ee:	67 65 20 5b 30       	addr16 and %bl,%gs:48(%bp,%di)
800098f3:	78 25                	js     8000991a <rodata+0x9fa>
800098f5:	58                   	pop    %eax
800098f6:	5d                   	pop    %ebp
800098f7:	20 66 72             	and    %ah,0x72(%esi)
800098fa:	6f                   	outsl  %ds:(%esi),(%dx)
800098fb:	6d                   	insl   (%dx),%es:(%edi)
800098fc:	20 49 2f             	and    %cl,0x2f(%ecx)
800098ff:	4f                   	dec    %edi
80009900:	20 43 61             	and    %al,0x61(%ebx)
80009903:	63 68 65             	arpl   %bp,0x65(%eax)
80009906:	0a 00                	or     (%eax),%al
80009908:	4d                   	dec    %ebp
80009909:	45                   	inc    %ebp
8000990a:	4d                   	dec    %ebp
8000990b:	4f                   	dec    %edi
8000990c:	52                   	push   %edx
8000990d:	59                   	pop    %ecx
8000990e:	00 4d 4d             	add    %cl,0x4d(%ebp)
80009911:	55                   	push   %ebp
80009912:	00 4d 65             	add    %cl,0x65(%ebp)
80009915:	6d                   	insl   (%dx),%es:(%edi)
80009916:	6f                   	outsl  %ds:(%esi),(%dx)
80009917:	72 79                	jb     80009992 <rodata+0xa72>
80009919:	20 6d 61             	and    %ch,0x61(%ebp)
8000991c:	6e                   	outsb  %ds:(%esi),(%dx)
8000991d:	61                   	popa   
8000991e:	67                   	addr16
8000991f:	65                   	gs
80009920:	72 20                	jb     80009942 <rodata+0xa22>
80009922:	69 6e 69 74 69 61 6c 	imul   $0x6c616974,0x69(%esi),%ebp
80009929:	69 73 65 64 0a 00 2f 	imul   $0x2f000a64,0x65(%ebx),%esi
80009930:	4d                   	dec    %ebp
80009931:	65                   	gs
80009932:	6d                   	insl   (%dx),%es:(%edi)
80009933:	6f                   	outsl  %ds:(%esi),(%dx)
80009934:	72 79                	jb     800099af <rodata+0xa8f>
80009936:	4d                   	dec    %ebp
80009937:	61                   	popa   
80009938:	6e                   	outsb  %ds:(%esi),(%dx)
80009939:	61                   	popa   
8000993a:	67                   	addr16
8000993b:	65                   	gs
8000993c:	72 2f                	jb     8000996d <rodata+0xa4d>
8000993e:	00 4d 65             	add    %cl,0x65(%ebp)
80009941:	6d                   	insl   (%dx),%es:(%edi)
80009942:	6f                   	outsl  %ds:(%esi),(%dx)
80009943:	72 79                	jb     800099be <rodata+0xa9e>
80009945:	53                   	push   %ebx
80009946:	69 7a 65 28 49 6e 50 	imul   $0x506e4928,0x65(%edx),%edi
8000994d:	61                   	popa   
8000994e:	67                   	addr16
8000994f:	65                   	gs
80009950:	73 29                	jae    8000997b <rodata+0xa5b>
80009952:	00 4b 65             	add    %cl,0x65(%ebx)
80009955:	72 6e                	jb     800099c5 <rodata+0xaa5>
80009957:	65                   	gs
80009958:	6c                   	insb   (%dx),%es:(%edi)
80009959:	20 68 65             	and    %ch,0x65(%eax)
8000995c:	61                   	popa   
8000995d:	70 20                	jo     8000997f <rodata+0xa5f>
8000995f:	2d 20 41 6c 6c       	sub    $0x6c6c4120,%eax
80009964:	6f                   	outsl  %ds:(%esi),(%dx)
80009965:	63 61 74             	arpl   %sp,0x74(%ecx)
80009968:	69 6f 6e 20 6d 61 70 	imul   $0x70616d20,0x6e(%edi),%ebp
8000996f:	0a 00                	or     (%eax),%al
80009971:	41                   	inc    %ecx
80009972:	6c                   	insb   (%dx),%es:(%edi)
80009973:	6c                   	insb   (%dx),%es:(%edi)
80009974:	6f                   	outsl  %ds:(%esi),(%dx)
80009975:	63 3a                	arpl   %di,(%edx)
80009977:	20 30                	and    %dh,(%eax)
80009979:	78 25                	js     800099a0 <rodata+0xa80>
8000997b:	58                   	pop    %eax
8000997c:	2d 30 78 25 58       	sub    $0x58257830,%eax
80009981:	20 28                	and    %ch,(%eax)
80009983:	25 6c 75 20 62       	and    $0x6220756c,%eax
80009988:	79 74                	jns    800099fe <rodata+0xade>
8000998a:	65                   	gs
8000998b:	73 29                	jae    800099b6 <rodata+0xa96>
8000998d:	0a 00                	or     (%eax),%al
8000998f:	4b                   	dec    %ebx
80009990:	65                   	gs
80009991:	72 6e                	jb     80009a01 <rodata+0xae1>
80009993:	65                   	gs
80009994:	6c                   	insb   (%dx),%es:(%edi)
80009995:	20 68 65             	and    %ch,0x65(%eax)
80009998:	61                   	popa   
80009999:	70 20                	jo     800099bb <rodata+0xa9b>
8000999b:	2d 20 46 72 65       	sub    $0x65724620,%eax
800099a0:	65 20 73 70          	and    %dh,%gs:0x70(%ebx)
800099a4:	61                   	popa   
800099a5:	63 65 20             	arpl   %sp,0x20(%ebp)
800099a8:	6d                   	insl   (%dx),%es:(%edi)
800099a9:	61                   	popa   
800099aa:	70 0a                	jo     800099b6 <rodata+0xa96>
800099ac:	00 46 72             	add    %al,0x72(%esi)
800099af:	65 65 3a 20          	cmp    %gs:(%eax),%ah
800099b3:	30 78 25             	xor    %bh,0x25(%eax)
800099b6:	58                   	pop    %eax
800099b7:	2d 30 78 25 58       	sub    $0x58257830,%eax
800099bc:	20 28                	and    %ch,(%eax)
800099be:	25 6c 75 20 62       	and    $0x6220756c,%eax
800099c3:	79 74                	jns    80009a39 <rodata+0xb19>
800099c5:	65                   	gs
800099c6:	73 29                	jae    800099f1 <rodata+0xad1>
800099c8:	0a 00                	or     (%eax),%al
	...
800099de:	00 00                	add    %al,(%eax)
800099e0:	53                   	push   %ebx
800099e1:	69 7a 65 20 6f 66 20 	imul   $0x20666f20,0x65(%edx),%edi
800099e8:	6d                   	insl   (%dx),%es:(%edi)
800099e9:	65                   	gs
800099ea:	6d                   	insl   (%dx),%es:(%edi)
800099eb:	6f                   	outsl  %ds:(%esi),(%dx)
800099ec:	72 79                	jb     80009a67 <rodata+0xb47>
800099ee:	20 69 73             	and    %ch,0x73(%ecx)
800099f1:	20 5b 25             	and    %bl,0x25(%ebx)
800099f4:	75 20                	jne    80009a16 <rodata+0xaf6>
800099f6:	50                   	push   %eax
800099f7:	61                   	popa   
800099f8:	67                   	addr16
800099f9:	65                   	gs
800099fa:	73 5d                	jae    80009a59 <rodata+0xb39>
800099fc:	20 5b 25             	and    %bl,0x25(%ebx)
800099ff:	75 20                	jne    80009a21 <rodata+0xb01>
80009a01:	4b                   	dec    %ebx
80009a02:	62 5d 0a             	bound  %ebx,0xa(%ebp)
	...
80009a1d:	00 00                	add    %al,(%eax)
80009a1f:	00 53 69             	add    %dl,0x69(%ebx)
80009a22:	7a 65                	jp     80009a89 <rodata+0xb69>
80009a24:	20 6f 66             	and    %ch,0x66(%edi)
80009a27:	20 66 72             	and    %ah,0x72(%esi)
80009a2a:	65 65 20 70 61       	and    %dh,%gs:0x61(%eax)
80009a2f:	67 65 20 73 74       	addr16 and %dh,%gs:116(%bp,%di)
80009a34:	61                   	popa   
80009a35:	63 6b 20             	arpl   %bp,0x20(%ebx)
80009a38:	69 73 20 5b 25 75 20 	imul   $0x2075255b,0x20(%ebx),%esi
80009a3f:	50                   	push   %eax
80009a40:	61                   	popa   
80009a41:	67                   	addr16
80009a42:	65                   	gs
80009a43:	73 5d                	jae    80009aa2 <rodata+0xb82>
80009a45:	0a 00                	or     (%eax),%al
	...
80009a5f:	00 4b 65             	add    %cl,0x65(%ebx)
80009a62:	72 6e                	jb     80009ad2 <rodata+0xbb2>
80009a64:	65                   	gs
80009a65:	6c                   	insb   (%dx),%es:(%edi)
80009a66:	20 68 65             	and    %ch,0x65(%eax)
80009a69:	61                   	popa   
80009a6a:	70 20                	jo     80009a8c <rodata+0xb6c>
80009a6c:	6f                   	outsl  %ds:(%esi),(%dx)
80009a6d:	66                   	data16
80009a6e:	20 5b 25             	and    %bl,0x25(%ebx)
80009a71:	75 20                	jne    80009a93 <rodata+0xb73>
80009a73:	4b                   	dec    %ebx
80009a74:	42                   	inc    %edx
80009a75:	79 74                	jns    80009aeb <rodata+0xbcb>
80009a77:	65                   	gs
80009a78:	73 5d                	jae    80009ad7 <rodata+0xbb7>
80009a7a:	20 6d 61             	and    %ch,0x61(%ebp)
80009a7d:	78 69                	js     80009ae8 <rodata+0xbc8>
80009a7f:	6d                   	insl   (%dx),%es:(%edi)
80009a80:	75 6d                	jne    80009aef <rodata+0xbcf>
80009a82:	20 63 72             	and    %ah,0x72(%ebx)
80009a85:	65                   	gs
80009a86:	61                   	popa   
80009a87:	74 65                	je     80009aee <rodata+0xbce>
80009a89:	64 0a 00             	or     %fs:(%eax),%al
	...
80009aa0:	46                   	inc    %esi
80009aa1:	41                   	inc    %ecx
80009aa2:	54                   	push   %esp
80009aa3:	41                   	inc    %ecx
80009aa4:	4c                   	dec    %esp
80009aa5:	3a 20                	cmp    (%eax),%ah
80009aa7:	4e                   	dec    %esi
80009aa8:	6f                   	outsl  %ds:(%esi),(%dx)
80009aa9:	20 6d 75             	and    %ch,0x75(%ebp)
80009aac:	6c                   	insb   (%dx),%es:(%edi)
80009aad:	74 69                	je     80009b18 <rodata+0xbf8>
80009aaf:	62 6f 6f             	bound  %ebp,0x6f(%edi)
80009ab2:	74 20                	je     80009ad4 <rodata+0xbb4>
80009ab4:	6d                   	insl   (%dx),%es:(%edi)
80009ab5:	65                   	gs
80009ab6:	6d                   	insl   (%dx),%es:(%edi)
80009ab7:	6f                   	outsl  %ds:(%esi),(%dx)
80009ab8:	72 79                	jb     80009b33 <rodata+0xc13>
80009aba:	20 6d 61             	and    %ch,0x61(%ebp)
80009abd:	70 20                	jo     80009adf <rodata+0xbbf>
80009abf:	69 6e 66 6f 72 6d 61 	imul   $0x616d726f,0x66(%esi),%ebp
80009ac6:	74 69                	je     80009b31 <rodata+0xc11>
80009ac8:	6f                   	outsl  %ds:(%esi),(%dx)
80009ac9:	6e                   	outsb  %ds:(%esi),(%dx)
80009aca:	20 61 76             	and    %ah,0x76(%ecx)
80009acd:	61                   	popa   
80009ace:	69 6c 61 62 6c 65 20 	imul   $0x2d20656c,0x62(%ecx,2),%ebp
80009ad5:	2d 
80009ad6:	20 48 61             	and    %cl,0x61(%eax)
80009ad9:	6c                   	insb   (%dx),%es:(%edi)
80009ada:	74 69                	je     80009b45 <rodata+0xc25>
80009adc:	6e                   	outsb  %ds:(%esi),(%dx)
80009add:	67 0a 00             	addr16 or (%bx,%si),%al
80009ae0:	46                   	inc    %esi
80009ae1:	41                   	inc    %ecx
80009ae2:	54                   	push   %esp
80009ae3:	41                   	inc    %ecx
80009ae4:	4c                   	dec    %esp
80009ae5:	3a 20                	cmp    (%eax),%ah
80009ae7:	4e                   	dec    %esi
80009ae8:	6f                   	outsl  %ds:(%esi),(%dx)
80009ae9:	20 6d 65             	and    %ch,0x65(%ebp)
80009aec:	6d                   	insl   (%dx),%es:(%edi)
80009aed:	6f                   	outsl  %ds:(%esi),(%dx)
80009aee:	72 79                	jb     80009b69 <rodata+0xc49>
80009af0:	20 61 76             	and    %ah,0x76(%ecx)
80009af3:	61                   	popa   
80009af4:	69 6c 61 62 6c 65 20 	imul   $0x2d20656c,0x62(%ecx,2),%ebp
80009afb:	2d 
80009afc:	20 48 61             	and    %cl,0x61(%eax)
80009aff:	6c                   	insb   (%dx),%es:(%edi)
80009b00:	74 69                	je     80009b6b <rodata+0xc4b>
80009b02:	6e                   	outsb  %ds:(%esi),(%dx)
80009b03:	67 0a 00             	addr16 or (%bx,%si),%al
	...
80009b1e:	00 00                	add    %al,(%eax)
80009b20:	46                   	inc    %esi
80009b21:	41                   	inc    %ecx
80009b22:	54                   	push   %esp
80009b23:	41                   	inc    %ecx
80009b24:	4c                   	dec    %esp
80009b25:	3a 20                	cmp    (%eax),%ah
80009b27:	55                   	push   %ebp
80009b28:	6e                   	outsb  %ds:(%esi),(%dx)
80009b29:	61                   	popa   
80009b2a:	62 6c 65 20          	bound  %ebp,0x20(%ebp,2)
80009b2e:	74 6f                	je     80009b9f <rodata+0xc7f>
80009b30:	20 61 6c             	and    %ah,0x6c(%ecx)
80009b33:	6c                   	insb   (%dx),%es:(%edi)
80009b34:	6f                   	outsl  %ds:(%esi),(%dx)
80009b35:	63 61 74             	arpl   %sp,0x74(%ecx)
80009b38:	65 20 6d 65          	and    %ch,%gs:0x65(%ebp)
80009b3c:	6d                   	insl   (%dx),%es:(%edi)
80009b3d:	6f                   	outsl  %ds:(%esi),(%dx)
80009b3e:	72 79                	jb     80009bb9 <rodata+0xc99>
80009b40:	20 28                	and    %ch,(%eax)
80009b42:	25 6c 75 20 62       	and    $0x6220756c,%eax
80009b47:	79 74                	jns    80009bbd <rodata+0xc9d>
80009b49:	65                   	gs
80009b4a:	73 29                	jae    80009b75 <rodata+0xc55>
80009b4c:	2d 20 48 61 6c       	sub    $0x6c614820,%eax
80009b51:	74 69                	je     80009bbc <rodata+0xc9c>
80009b53:	6e                   	outsb  %ds:(%esi),(%dx)
80009b54:	67 0a 00             	addr16 or (%bx,%si),%al
	...
80009b5f:	00 46 41             	add    %al,0x41(%esi)
80009b62:	54                   	push   %esp
80009b63:	41                   	inc    %ecx
80009b64:	4c                   	dec    %esp
80009b65:	3a 20                	cmp    (%eax),%ah
80009b67:	49                   	dec    %ecx
80009b68:	6e                   	outsb  %ds:(%esi),(%dx)
80009b69:	76 61                	jbe    80009bcc <rodata+0xcac>
80009b6b:	6c                   	insb   (%dx),%es:(%edi)
80009b6c:	69 64 20 66 72 65 65 	imul   $0x20656572,0x66(%eax,1),%esp
80009b73:	20 
80009b74:	72 65                	jb     80009bdb <rodata+0xcbb>
80009b76:	71 75                	jno    80009bed <rodata+0xccd>
80009b78:	65                   	gs
80009b79:	73 74                	jae    80009bef <rodata+0xccf>
80009b7b:	20 66 6f             	and    %ah,0x6f(%esi)
80009b7e:	72 20                	jb     80009ba0 <rodata+0xc80>
80009b80:	61                   	popa   
80009b81:	6c                   	insb   (%dx),%es:(%edi)
80009b82:	6c                   	insb   (%dx),%es:(%edi)
80009b83:	6f                   	outsl  %ds:(%esi),(%dx)
80009b84:	63 61 74             	arpl   %sp,0x74(%ecx)
80009b87:	69 6f 6e 20 61 74 20 	imul   $0x20746120,0x6e(%edi),%ebp
80009b8e:	30 78 25             	xor    %bh,0x25(%eax)
80009b91:	58                   	pop    %eax
80009b92:	0a 00                	or     (%eax),%al
	...
80009ba0:	41                   	inc    %ecx
80009ba1:	6c                   	insb   (%dx),%es:(%edi)
80009ba2:	6c                   	insb   (%dx),%es:(%edi)
80009ba3:	6f                   	outsl  %ds:(%esi),(%dx)
80009ba4:	63 61 74             	arpl   %sp,0x74(%ecx)
80009ba7:	69 6f 6e 20 72 65 71 	imul   $0x71657220,0x6e(%edi),%ebp
80009bae:	75 65                	jne    80009c15 <rodata+0xcf5>
80009bb0:	73 74                	jae    80009c26 <rodata+0xd06>
80009bb2:	65 64 20 25 64 20 62 	and    %ah,%fs:%gs:0x79622064
80009bb9:	79 
80009bba:	74 65                	je     80009c21 <rodata+0xd01>
80009bbc:	73 20                	jae    80009bde <rodata+0xcbe>
80009bbe:	66 6f                	outsw  %ds:(%esi),(%dx)
80009bc0:	72 20                	jb     80009be2 <rodata+0xcc2>
80009bc2:	61                   	popa   
80009bc3:	6c                   	insb   (%dx),%es:(%edi)
80009bc4:	6c                   	insb   (%dx),%es:(%edi)
80009bc5:	6f                   	outsl  %ds:(%esi),(%dx)
80009bc6:	63 61 74             	arpl   %sp,0x74(%ecx)
80009bc9:	6f                   	outsl  %ds:(%esi),(%dx)
80009bca:	72 20                	jb     80009bec <rodata+0xccc>
80009bcc:	30 78 25             	xor    %bh,0x25(%eax)
80009bcf:	58                   	pop    %eax
80009bd0:	20 61 74             	and    %ah,0x74(%ecx)
80009bd3:	20 30                	and    %dh,(%eax)
80009bd5:	78 25                	js     80009bfc <rodata+0xcdc>
80009bd7:	58                   	pop    %eax
80009bd8:	0a 00                	or     (%eax),%al
80009bda:	00 00                	add    %al,(%eax)
80009bdc:	00 00                	add    %al,(%eax)
80009bde:	00 00                	add    %al,(%eax)
80009be0:	46                   	inc    %esi
80009be1:	72 65                	jb     80009c48 <rodata+0xd28>
80009be3:	65 20 72 65          	and    %dh,%gs:0x65(%edx)
80009be7:	71 75                	jno    80009c5e <rodata+0xd3e>
80009be9:	65                   	gs
80009bea:	73 74                	jae    80009c60 <rodata+0xd40>
80009bec:	65 64 20 66 6f       	and    %ah,%fs:%gs:0x6f(%esi)
80009bf1:	72 20                	jb     80009c13 <rodata+0xcf3>
80009bf3:	61                   	popa   
80009bf4:	64                   	fs
80009bf5:	64                   	fs
80009bf6:	72 65                	jb     80009c5d <rodata+0xd3d>
80009bf8:	73 73                	jae    80009c6d <rodata+0xd4d>
80009bfa:	20 30                	and    %dh,(%eax)
80009bfc:	78 25                	js     80009c23 <rodata+0xd03>
80009bfe:	58                   	pop    %eax
80009bff:	0a 00                	or     (%eax),%al
80009c01:	4d                   	dec    %ebp
80009c02:	45                   	inc    %ebp
80009c03:	53                   	push   %ebx
80009c04:	53                   	push   %ebx
80009c05:	41                   	inc    %ecx
80009c06:	47                   	inc    %edi
80009c07:	45                   	inc    %ebp
80009c08:	53                   	push   %ebx
80009c09:	00 54 68 72          	add    %dl,0x72(%eax,%ebp,2)
80009c0d:	65                   	gs
80009c0e:	61                   	popa   
80009c0f:	64 20 25 75 2f 6e 00 	and    %ah,%fs:0x6e2f75
80009c16:	4d                   	dec    %ebp
80009c17:	65                   	gs
80009c18:	73 73                	jae    80009c8d <rodata+0xd6d>
80009c1a:	61                   	popa   
80009c1b:	67 65 20 25          	addr16 and %ah,%gs:(%di)
80009c1f:	75 00                	jne    80009c21 <rodata+0xd01>
80009c21:	4d                   	dec    %ebp
80009c22:	65                   	gs
80009c23:	73 73                	jae    80009c98 <rodata+0xd78>
80009c25:	61                   	popa   
80009c26:	67                   	addr16
80009c27:	65                   	gs
80009c28:	4d                   	dec    %ebp
80009c29:	61                   	popa   
80009c2a:	6e                   	outsb  %ds:(%esi),(%dx)
80009c2b:	61                   	popa   
80009c2c:	67                   	addr16
80009c2d:	65                   	gs
80009c2e:	72 00                	jb     80009c30 <rodata+0xd10>
80009c30:	43                   	inc    %ebx
80009c31:	72 65                	jb     80009c98 <rodata+0xd78>
80009c33:	61                   	popa   
80009c34:	74 65                	je     80009c9b <rodata+0xd7b>
80009c36:	4d                   	dec    %ebp
80009c37:	65                   	gs
80009c38:	73 73                	jae    80009cad <rodata+0xd8d>
80009c3a:	61                   	popa   
80009c3b:	67                   	addr16
80009c3c:	65                   	gs
80009c3d:	50                   	push   %eax
80009c3e:	6f                   	outsl  %ds:(%esi),(%dx)
80009c3f:	72 74                	jb     80009cb5 <rodata+0xd95>
80009c41:	00 43 72             	add    %al,0x72(%ebx)
80009c44:	65                   	gs
80009c45:	61                   	popa   
80009c46:	74 65                	je     80009cad <rodata+0xd8d>
80009c48:	4d                   	dec    %ebp
80009c49:	65                   	gs
80009c4a:	73 73                	jae    80009cbf <rodata+0xd9f>
80009c4c:	61                   	popa   
80009c4d:	67 65 00 47 65       	addr16 add %al,%gs:101(%bx)
80009c52:	74 4d                	je     80009ca1 <rodata+0xd81>
80009c54:	65                   	gs
80009c55:	73 73                	jae    80009cca <rodata+0xdaa>
80009c57:	61                   	popa   
80009c58:	67 65 00 4d 65       	addr16 add %cl,%gs:101(%di)
80009c5d:	73 73                	jae    80009cd2 <rodata+0xdb2>
80009c5f:	61                   	popa   
80009c60:	67                   	addr16
80009c61:	65                   	gs
80009c62:	50                   	push   %eax
80009c63:	72 6f                	jb     80009cd4 <rodata+0xdb4>
80009c65:	63 65 73             	arpl   %sp,0x73(%ebp)
80009c68:	73 65                	jae    80009ccf <rodata+0xdaf>
80009c6a:	64 00 53 65          	add    %dl,%fs:0x65(%ebx)
80009c6e:	6e                   	outsb  %ds:(%esi),(%dx)
80009c6f:	64                   	fs
80009c70:	4d                   	dec    %ebp
80009c71:	65                   	gs
80009c72:	73 73                	jae    80009ce7 <rodata+0xdc7>
80009c74:	61                   	popa   
80009c75:	67 65 00 47 65       	addr16 add %al,%gs:101(%bx)
80009c7a:	74 4d                	je     80009cc9 <rodata+0xda9>
80009c7c:	65                   	gs
80009c7d:	73 73                	jae    80009cf2 <rodata+0xdd2>
80009c7f:	61                   	popa   
80009c80:	67                   	addr16
80009c81:	65                   	gs
80009c82:	50                   	push   %eax
80009c83:	6f                   	outsl  %ds:(%esi),(%dx)
80009c84:	72 74                	jb     80009cfa <rodata+0xdda>
80009c86:	54                   	push   %esp
80009c87:	68 72 65 61 64       	push   $0x64616572
80009c8c:	49                   	dec    %ecx
80009c8d:	44                   	inc    %esp
80009c8e:	00 47 65             	add    %al,0x65(%edi)
80009c91:	74 4d                	je     80009ce0 <rodata+0xdc0>
80009c93:	65                   	gs
80009c94:	73 73                	jae    80009d09 <rodata+0xde9>
80009c96:	61                   	popa   
80009c97:	67                   	addr16
80009c98:	65                   	gs
80009c99:	51                   	push   %ecx
80009c9a:	75 65                	jne    80009d01 <rodata+0xde1>
80009c9c:	75 65                	jne    80009d03 <rodata+0xde3>
80009c9e:	4c                   	dec    %esp
80009c9f:	65 6e                	outsb  %gs:(%esi),(%dx)
80009ca1:	67 74 68             	addr16 je 80009d0c <rodata+0xdec>
80009ca4:	00 4d 65             	add    %cl,0x65(%ebp)
80009ca7:	73 73                	jae    80009d1c <rodata+0xdfc>
80009ca9:	61                   	popa   
80009caa:	67 65 20 6d 61       	addr16 and %ch,%gs:97(%di)
80009caf:	6e                   	outsb  %ds:(%esi),(%dx)
80009cb0:	61                   	popa   
80009cb1:	67                   	addr16
80009cb2:	65                   	gs
80009cb3:	72 20                	jb     80009cd5 <rodata+0xdb5>
80009cb5:	69 6e 69 74 69 61 6c 	imul   $0x6c616974,0x69(%esi),%ebp
80009cbc:	69 73 65 64 0a 00 54 	imul   $0x54000a64,0x65(%ebx),%esi
80009cc3:	68 72 65 61 64       	push   $0x64616572
80009cc8:	20 25 75 2f 00 00    	and    %ah,0x2f75
	...
80009cde:	00 00                	add    %al,(%eax)
80009ce0:	54                   	push   %esp
80009ce1:	68 72 65 61 64       	push   $0x64616572
80009ce6:	20 5b 25             	and    %bl,0x25(%ebx)
80009ce9:	75 5d                	jne    80009d48 <rodata+0xe28>
80009ceb:	20 61 6c             	and    %ah,0x6c(%ecx)
80009cee:	72 65                	jb     80009d55 <rodata+0xe35>
80009cf0:	61                   	popa   
80009cf1:	64                   	fs
80009cf2:	79 20                	jns    80009d14 <rodata+0xdf4>
80009cf4:	63 72 65             	arpl   %si,0x65(%edx)
80009cf7:	61                   	popa   
80009cf8:	74 69                	je     80009d63 <rodata+0xe43>
80009cfa:	6e                   	outsb  %ds:(%esi),(%dx)
80009cfb:	67 20 6d 65          	addr16 and %ch,101(%di)
80009cff:	73 73                	jae    80009d74 <rodata+0xe54>
80009d01:	61                   	popa   
80009d02:	67                   	addr16
80009d03:	65                   	gs
80009d04:	2c 20                	sub    $0x20,%al
80009d06:	63 61 6e             	arpl   %sp,0x6e(%ecx)
80009d09:	27                   	daa    
80009d0a:	74 20                	je     80009d2c <rodata+0xe0c>
80009d0c:	63 72 65             	arpl   %si,0x65(%edx)
80009d0f:	61                   	popa   
80009d10:	74 65                	je     80009d77 <rodata+0xe57>
80009d12:	20 6d 65             	and    %ch,0x65(%ebp)
80009d15:	73 73                	jae    80009d8a <rodata+0xe6a>
80009d17:	61                   	popa   
80009d18:	67 65 0a 00          	addr16 or %gs:(%bx,%si),%al
80009d1c:	00 00                	add    %al,(%eax)
80009d1e:	00 00                	add    %al,(%eax)
80009d20:	2f                   	das    
80009d21:	53                   	push   %ebx
80009d22:	79 73                	jns    80009d97 <rodata+0xe77>
80009d24:	74 65                	je     80009d8b <rodata+0xe6b>
80009d26:	6d                   	insl   (%dx),%es:(%edi)
80009d27:	2f                   	das    
80009d28:	4d                   	dec    %ebp
80009d29:	65                   	gs
80009d2a:	73 73                	jae    80009d9f <rodata+0xe7f>
80009d2c:	61                   	popa   
80009d2d:	67                   	addr16
80009d2e:	65                   	gs
80009d2f:	4d                   	dec    %ebp
80009d30:	61                   	popa   
80009d31:	6e                   	outsb  %ds:(%esi),(%dx)
80009d32:	61                   	popa   
80009d33:	67                   	addr16
80009d34:	65                   	gs
80009d35:	72 2f                	jb     80009d66 <rodata+0xe46>
80009d37:	4d                   	dec    %ebp
80009d38:	65                   	gs
80009d39:	73 73                	jae    80009dae <rodata+0xe8e>
80009d3b:	61                   	popa   
80009d3c:	67                   	addr16
80009d3d:	65                   	gs
80009d3e:	50                   	push   %eax
80009d3f:	6f                   	outsl  %ds:(%esi),(%dx)
80009d40:	72 74                	jb     80009db6 <rodata+0xe96>
80009d42:	73 2f                	jae    80009d73 <rodata+0xe53>
	...
80009d60:	54                   	push   %esp
80009d61:	68 72 65 61 64       	push   $0x64616572
80009d66:	20 5b 25             	and    %bl,0x25(%ebx)
80009d69:	75 5d                	jne    80009dc8 <rodata+0xea8>
80009d6b:	20 64 6f 65          	and    %ah,0x65(%edi,%ebp,2)
80009d6f:	73 6e                	jae    80009ddf <rodata+0xebf>
80009d71:	27                   	daa    
80009d72:	74 20                	je     80009d94 <rodata+0xe74>
80009d74:	68 61 76 65 20       	push   $0x20657661
80009d79:	6d                   	insl   (%dx),%es:(%edi)
80009d7a:	65                   	gs
80009d7b:	73 73                	jae    80009df0 <rodata+0xed0>
80009d7d:	61                   	popa   
80009d7e:	67 65 20 70 6f       	addr16 and %dh,%gs:111(%bx,%si)
80009d83:	72 74                	jb     80009df9 <rodata+0xed9>
80009d85:	2c 20                	sub    $0x20,%al
80009d87:	63 61 6e             	arpl   %sp,0x6e(%ecx)
80009d8a:	27                   	daa    
80009d8b:	74 20                	je     80009dad <rodata+0xe8d>
80009d8d:	63 72 65             	arpl   %si,0x65(%edx)
80009d90:	61                   	popa   
80009d91:	74 65                	je     80009df8 <rodata+0xed8>
80009d93:	20 6d 65             	and    %ch,0x65(%ebp)
80009d96:	73 73                	jae    80009e0b <rodata+0xeeb>
80009d98:	61                   	popa   
80009d99:	67 65 0a 00          	addr16 or %gs:(%bx,%si),%al
80009d9d:	00 00                	add    %al,(%eax)
80009d9f:	00 54 68 72          	add    %dl,0x72(%eax,%ebp,2)
80009da3:	65                   	gs
80009da4:	61                   	popa   
80009da5:	64 20 5b 25          	and    %bl,%fs:0x25(%ebx)
80009da9:	75 5d                	jne    80009e08 <rodata+0xee8>
80009dab:	20 6e 6f             	and    %ch,0x6f(%esi)
80009dae:	20 6d 65             	and    %ch,0x65(%ebp)
80009db1:	73 73                	jae    80009e26 <rodata+0xf06>
80009db3:	61                   	popa   
80009db4:	67 65 20 63 72       	addr16 and %ah,%gs:114(%bp,%di)
80009db9:	65                   	gs
80009dba:	61                   	popa   
80009dbb:	74 65                	je     80009e22 <rodata+0xf02>
80009dbd:	64                   	fs
80009dbe:	2c 20                	sub    $0x20,%al
80009dc0:	63 61 6e             	arpl   %sp,0x6e(%ecx)
80009dc3:	27                   	daa    
80009dc4:	74 20                	je     80009de6 <rodata+0xec6>
80009dc6:	73 65                	jae    80009e2d <rodata+0xf0d>
80009dc8:	6e                   	outsb  %ds:(%esi),(%dx)
80009dc9:	64 20 6d 65          	and    %ch,%fs:0x65(%ebp)
80009dcd:	73 73                	jae    80009e42 <rodata+0xf22>
80009dcf:	61                   	popa   
80009dd0:	67 65 0a 00          	addr16 or %gs:(%bx,%si),%al
	...
80009de0:	54                   	push   %esp
80009de1:	68 72 65 61 64       	push   $0x64616572
80009de6:	20 5b 25             	and    %bl,0x25(%ebx)
80009de9:	75 5d                	jne    80009e48 <rodata+0xf28>
80009deb:	2c 20                	sub    $0x20,%al
80009ded:	64                   	fs
80009dee:	65                   	gs
80009def:	73 74                	jae    80009e65 <rodata+0xf45>
80009df1:	69 6e 61 74 69 6f 6e 	imul   $0x6e6f6974,0x61(%esi),%ebp
80009df8:	20 6d 65             	and    %ch,0x65(%ebp)
80009dfb:	73 73                	jae    80009e70 <rodata+0xf50>
80009dfd:	61                   	popa   
80009dfe:	67 65 20 70 6f       	addr16 and %dh,%gs:111(%bx,%si)
80009e03:	72 74                	jb     80009e79 <rodata+0xf59>
80009e05:	20 5b 25             	and    %bl,0x25(%ebx)
80009e08:	75 5d                	jne    80009e67 <rodata+0xf47>
80009e0a:	20 6e 6f             	and    %ch,0x6f(%esi)
80009e0d:	74 20                	je     80009e2f <rodata+0xf0f>
80009e0f:	66 6f                	outsw  %ds:(%esi),(%dx)
80009e11:	75 6e                	jne    80009e81 <rodata+0xf61>
80009e13:	64 0a 00             	or     %fs:(%eax),%al
	...
80009e1e:	00 00                	add    %al,(%eax)
80009e20:	54                   	push   %esp
80009e21:	68 72 65 61 64       	push   $0x64616572
80009e26:	20 5b 25             	and    %bl,0x25(%ebx)
80009e29:	75 5d                	jne    80009e88 <rodata+0xf68>
80009e2b:	20 61 6c             	and    %ah,0x6c(%ecx)
80009e2e:	72 65                	jb     80009e95 <rodata+0xf75>
80009e30:	61                   	popa   
80009e31:	64                   	fs
80009e32:	79 20                	jns    80009e54 <rodata+0xf34>
80009e34:	68 61 73 20 6d       	push   $0x6d207361
80009e39:	65                   	gs
80009e3a:	73 73                	jae    80009eaf <rodata+0xf8f>
80009e3c:	61                   	popa   
80009e3d:	67 65 20 70 6f       	addr16 and %dh,%gs:111(%bx,%si)
80009e42:	72 74                	jb     80009eb8 <rodata+0xf98>
80009e44:	2c 20                	sub    $0x20,%al
80009e46:	63 61 6e             	arpl   %sp,0x6e(%ecx)
80009e49:	74 20                	je     80009e6b <rodata+0xf4b>
80009e4b:	63 72 65             	arpl   %si,0x65(%edx)
80009e4e:	61                   	popa   
80009e4f:	74 65                	je     80009eb6 <rodata+0xf96>
80009e51:	0a 00                	or     (%eax),%al
	...
80009e5f:	00 4d 65             	add    %cl,0x65(%ebp)
80009e62:	73 73                	jae    80009ed7 <rodata+0xfb7>
80009e64:	61                   	popa   
80009e65:	67 65 20 70 6f       	addr16 and %dh,%gs:111(%bx,%si)
80009e6a:	72 74                	jb     80009ee0 <rodata+0xfc0>
80009e6c:	20 63 72             	and    %ah,0x72(%ebx)
80009e6f:	65                   	gs
80009e70:	61                   	popa   
80009e71:	74 65                	je     80009ed8 <rodata+0xfb8>
80009e73:	64 20 66 6f          	and    %ah,%fs:0x6f(%esi)
80009e77:	72 20                	jb     80009e99 <rodata+0xf79>
80009e79:	74 68                	je     80009ee3 <rodata+0xfc3>
80009e7b:	72 65                	jb     80009ee2 <rodata+0xfc2>
80009e7d:	61                   	popa   
80009e7e:	64 20 5b 25          	and    %bl,%fs:0x25(%ebx)
80009e82:	75 5d                	jne    80009ee1 <rodata+0xfc1>
80009e84:	0a 00                	or     (%eax),%al
	...
80009e9e:	00 00                	add    %al,(%eax)
80009ea0:	54                   	push   %esp
80009ea1:	68 72 65 61 64       	push   $0x64616572
80009ea6:	20 5b 25             	and    %bl,0x25(%ebx)
80009ea9:	75 5d                	jne    80009f08 <rodata+0xfe8>
80009eab:	20 64 6f 65          	and    %ah,0x65(%edi,%ebp,2)
80009eaf:	73 6e                	jae    80009f1f <rodata+0xfff>
80009eb1:	27                   	daa    
80009eb2:	74 20                	je     80009ed4 <rodata+0xfb4>
80009eb4:	68 61 76 65 20       	push   $0x20657661
80009eb9:	6d                   	insl   (%dx),%es:(%edi)
80009eba:	65                   	gs
80009ebb:	73 73                	jae    80009f30 <rodata+0x1010>
80009ebd:	61                   	popa   
80009ebe:	67 65 20 70 6f       	addr16 and %dh,%gs:111(%bx,%si)
80009ec3:	72 74                	jb     80009f39 <rodata+0x1019>
80009ec5:	20 74 6f 20          	and    %dh,0x20(%edi,%ebp,2)
80009ec9:	6c                   	insb   (%dx),%es:(%edi)
80009eca:	69 6e 6b 20 74 6f 20 	imul   $0x206f7420,0x6b(%esi),%ebp
80009ed1:	5b                   	pop    %ebx
80009ed2:	25 73 5d 0a 00       	and    $0xa5d73,%eax
	...
80009edf:	00 2f                	add    %ch,(%edi)
80009ee1:	53                   	push   %ebx
80009ee2:	79 73                	jns    80009f57 <rodata+0x1037>
80009ee4:	74 65                	je     80009f4b <rodata+0x102b>
80009ee6:	6d                   	insl   (%dx),%es:(%edi)
80009ee7:	2f                   	das    
80009ee8:	4d                   	dec    %ebp
80009ee9:	65                   	gs
80009eea:	73 73                	jae    80009f5f <rodata+0x103f>
80009eec:	61                   	popa   
80009eed:	67                   	addr16
80009eee:	65                   	gs
80009eef:	4d                   	dec    %ebp
80009ef0:	61                   	popa   
80009ef1:	6e                   	outsb  %ds:(%esi),(%dx)
80009ef2:	61                   	popa   
80009ef3:	67                   	addr16
80009ef4:	65                   	gs
80009ef5:	72 2f                	jb     80009f26 <rodata+0x1006>
80009ef7:	4d                   	dec    %ebp
80009ef8:	65                   	gs
80009ef9:	73 73                	jae    80009f6e <rodata+0x104e>
80009efb:	61                   	popa   
80009efc:	67                   	addr16
80009efd:	65                   	gs
80009efe:	50                   	push   %eax
80009eff:	6f                   	outsl  %ds:(%esi),(%dx)
80009f00:	72 74                	jb     80009f76 <rodata+0x1056>
80009f02:	73 2f                	jae    80009f33 <rodata+0x1013>
80009f04:	50                   	push   %eax
80009f05:	75 62                	jne    80009f69 <rodata+0x1049>
80009f07:	6c                   	insb   (%dx),%es:(%edi)
80009f08:	69 63 2f 00 00 00 00 	imul   $0x0,0x2f(%ebx),%esp
	...
80009f1f:	00 4d 65             	add    %cl,0x65(%ebp)
80009f22:	73 73                	jae    80009f97 <rodata+0x1077>
80009f24:	61                   	popa   
80009f25:	67 65 20 70 6f       	addr16 and %dh,%gs:111(%bx,%si)
80009f2a:	72 74                	jb     80009fa0 <rodata+0x1080>
80009f2c:	20 5b 25             	and    %bl,0x25(%ebx)
80009f2f:	73 5d                	jae    80009f8e <rodata+0x106e>
80009f31:	20 6f 6e             	and    %ch,0x6e(%edi)
80009f34:	20 74 68 72          	and    %dh,0x72(%eax,%ebp,2)
80009f38:	65                   	gs
80009f39:	61                   	popa   
80009f3a:	64 20 5b 25          	and    %bl,%fs:0x25(%ebx)
80009f3e:	75 5d                	jne    80009f9d <rodata+0x107d>
80009f40:	20 66 6f             	and    %ah,0x6f(%esi)
80009f43:	75 6e                	jne    80009fb3 <rodata+0x1093>
80009f45:	64 0a 00             	or     %fs:(%eax),%al
	...
80009f60:	54                   	push   %esp
80009f61:	68 72 65 61 64       	push   $0x64616572
80009f66:	20 5b 25             	and    %bl,0x25(%ebx)
80009f69:	75 5d                	jne    80009fc8 <rodata+0x10a8>
80009f6b:	2c 20                	sub    $0x20,%al
80009f6d:	64                   	fs
80009f6e:	65                   	gs
80009f6f:	73 74                	jae    80009fe5 <rodata+0x10c5>
80009f71:	69 6e 61 74 69 6f 6e 	imul   $0x6e6f6974,0x61(%esi),%ebp
80009f78:	20 6d 65             	and    %ch,0x65(%ebp)
80009f7b:	73 73                	jae    80009ff0 <rodata+0x10d0>
80009f7d:	61                   	popa   
80009f7e:	67 65 20 70 6f       	addr16 and %dh,%gs:111(%bx,%si)
80009f83:	72 74                	jb     80009ff9 <rodata+0x10d9>
80009f85:	20 5b 25             	and    %bl,0x25(%ebx)
80009f88:	73 5d                	jae    80009fe7 <rodata+0x10c7>
80009f8a:	20 6e 6f             	and    %ch,0x6f(%esi)
80009f8d:	74 20                	je     80009faf <rodata+0x108f>
80009f8f:	66 6f                	outsw  %ds:(%esi),(%dx)
80009f91:	75 6e                	jne    8000a001 <rodata+0x10e1>
80009f93:	64 0a 00             	or     %fs:(%eax),%al
	...
80009f9e:	00 00                	add    %al,(%eax)
80009fa0:	54                   	push   %esp
80009fa1:	68 72 65 61 64       	push   $0x64616572
80009fa6:	20 5b 25             	and    %bl,0x25(%ebx)
80009fa9:	75 5d                	jne    8000a008 <rodata+0x10e8>
80009fab:	2c 20                	sub    $0x20,%al
80009fad:	6e                   	outsb  %ds:(%esi),(%dx)
80009fae:	6f                   	outsl  %ds:(%esi),(%dx)
80009faf:	20 6d 65             	and    %ch,0x65(%ebp)
80009fb2:	73 73                	jae    8000a027 <rodata+0x1107>
80009fb4:	61                   	popa   
80009fb5:	67                   	addr16
80009fb6:	65                   	gs
80009fb7:	73 20                	jae    80009fd9 <rodata+0x10b9>
80009fb9:	77 61                	ja     8000a01c <rodata+0x10fc>
80009fbb:	69 74 69 6e 67 2c 20 	imul   $0x63202c67,0x6e(%ecx,%ebp,2),%esi
80009fc2:	63 
80009fc3:	61                   	popa   
80009fc4:	6e                   	outsb  %ds:(%esi),(%dx)
80009fc5:	27                   	daa    
80009fc6:	74 20                	je     80009fe8 <rodata+0x10c8>
80009fc8:	67                   	addr16
80009fc9:	65                   	gs
80009fca:	74 20                	je     80009fec <rodata+0x10cc>
80009fcc:	6d                   	insl   (%dx),%es:(%edi)
80009fcd:	65                   	gs
80009fce:	73 73                	jae    8000a043 <rodata+0x1123>
80009fd0:	61                   	popa   
80009fd1:	67 65 0a 00          	addr16 or %gs:(%bx,%si),%al
	...
80009fdd:	00 00                	add    %al,(%eax)
80009fdf:	00 54 68 72          	add    %dl,0x72(%eax,%ebp,2)
80009fe3:	65                   	gs
80009fe4:	61                   	popa   
80009fe5:	64 20 5b 25          	and    %bl,%fs:0x25(%ebx)
80009fe9:	75 5d                	jne    8000a048 <rodata+0x1128>
80009feb:	2c 20                	sub    $0x20,%al
80009fed:	6e                   	outsb  %ds:(%esi),(%dx)
80009fee:	6f                   	outsl  %ds:(%esi),(%dx)
80009fef:	74 20                	je     8000a011 <rodata+0x10f1>
80009ff1:	70 72                	jo     8000a065 <rodata+0x1145>
80009ff3:	6f                   	outsl  %ds:(%esi),(%dx)
80009ff4:	63 65 73             	arpl   %sp,0x73(%ebp)
80009ff7:	73 69                	jae    8000a062 <rodata+0x1142>
80009ff9:	6e                   	outsb  %ds:(%esi),(%dx)
80009ffa:	67 20 6d 65          	addr16 and %ch,101(%di)
80009ffe:	73 73                	jae    8000a073 <rodata+0x1153>
8000a000:	61                   	popa   
8000a001:	67 65 0a 00          	addr16 or %gs:(%bx,%si),%al
	...
8000a035:	4d                   	dec    %ebp
8000a036:	4f                   	dec    %edi
8000a037:	44                   	inc    %esp
8000a038:	55                   	push   %ebp
8000a039:	4c                   	dec    %esp
8000a03a:	45                   	inc    %ebp
8000a03b:	53                   	push   %ebx
8000a03c:	00 4d 6f             	add    %cl,0x6f(%ebp)
8000a03f:	64                   	fs
8000a040:	75 6c                	jne    8000a0ae <rodata+0x118e>
8000a042:	65 20 6d 61          	and    %ch,%gs:0x61(%ebp)
8000a046:	6e                   	outsb  %ds:(%esi),(%dx)
8000a047:	61                   	popa   
8000a048:	67                   	addr16
8000a049:	65                   	gs
8000a04a:	72 20                	jb     8000a06c <rodata+0x114c>
8000a04c:	69 6e 69 74 69 61 6c 	imul   $0x6c616974,0x69(%esi),%ebp
8000a053:	69 73 65 64 0a 00 2f 	imul   $0x2f000a64,0x65(%ebx),%esi
8000a05a:	53                   	push   %ebx
8000a05b:	79 73                	jns    8000a0d0 <rodata+0x11b0>
8000a05d:	74 65                	je     8000a0c4 <rodata+0x11a4>
8000a05f:	6d                   	insl   (%dx),%es:(%edi)
8000a060:	2f                   	das    
8000a061:	4d                   	dec    %ebp
8000a062:	6f                   	outsl  %ds:(%esi),(%dx)
8000a063:	64                   	fs
8000a064:	75 6c                	jne    8000a0d2 <rodata+0x11b2>
8000a066:	65                   	gs
8000a067:	4d                   	dec    %ebp
8000a068:	61                   	popa   
8000a069:	6e                   	outsb  %ds:(%esi),(%dx)
8000a06a:	61                   	popa   
8000a06b:	67                   	addr16
8000a06c:	65                   	gs
8000a06d:	72 2f                	jb     8000a09e <rodata+0x117e>
8000a06f:	00 4d 6f             	add    %cl,0x6f(%ebp)
8000a072:	64                   	fs
8000a073:	75 6c                	jne    8000a0e1 <rodata+0x11c1>
8000a075:	65 20 5b 25          	and    %bl,%gs:0x25(%ebx)
8000a079:	73 5d                	jae    8000a0d8 <rodata+0x11b8>
8000a07b:	20 5b 25             	and    %bl,0x25(%ebx)
8000a07e:	75 5d                	jne    8000a0dd <rodata+0x11bd>
8000a080:	20 63 72             	and    %ah,0x72(%ebx)
8000a083:	65                   	gs
8000a084:	61                   	popa   
8000a085:	74 65                	je     8000a0ec <rodata+0x11cc>
8000a087:	64 0a 00             	or     %fs:(%eax),%al
8000a08a:	5b                   	pop    %ebx
8000a08b:	25 73 5d 20 4d       	and    $0x4d205d73,%eax
8000a090:	6f                   	outsl  %ds:(%esi),(%dx)
8000a091:	64                   	fs
8000a092:	75 6c                	jne    8000a100 <rodata+0x11e0>
8000a094:	65 20 6e 6f          	and    %ch,%gs:0x6f(%esi)
8000a098:	74 20                	je     8000a0ba <rodata+0x119a>
8000a09a:	66 6f                	outsw  %ds:(%esi),(%dx)
8000a09c:	75 6e                	jne    8000a10c <rodata+0x11ec>
8000a09e:	64 0a 00             	or     %fs:(%eax),%al
8000a0a1:	5b                   	pop    %ebx
8000a0a2:	25 73 5d 2d 5b       	and    $0x5b2d5d73,%eax
8000a0a7:	25 73 5d 20 43       	and    $0x43205d73,%eax
8000a0ac:	61                   	popa   
8000a0ad:	6c                   	insb   (%dx),%es:(%edi)
8000a0ae:	6c                   	insb   (%dx),%es:(%edi)
8000a0af:	20 66 6f             	and    %ah,0x6f(%esi)
8000a0b2:	75 6e                	jne    8000a122 <rodata+0x1202>
8000a0b4:	64 20 3d 20 30 78 25 	and    %bh,%fs:0x25783020
8000a0bb:	58                   	pop    %eax
8000a0bc:	0a 00                	or     (%eax),%al
8000a0be:	5b                   	pop    %ebx
8000a0bf:	25 73 5d 2d 5b       	and    $0x5b2d5d73,%eax
8000a0c4:	25 73 5d 20 43       	and    $0x43205d73,%eax
8000a0c9:	61                   	popa   
8000a0ca:	6c                   	insb   (%dx),%es:(%edi)
8000a0cb:	6c                   	insb   (%dx),%es:(%edi)
8000a0cc:	20 6e 6f             	and    %ch,0x6f(%esi)
8000a0cf:	74 20                	je     8000a0f1 <rodata+0x11d1>
8000a0d1:	66 6f                	outsw  %ds:(%esi),(%dx)
8000a0d3:	75 6e                	jne    8000a143 <rodata+0x1223>
8000a0d5:	64 0a 00             	or     %fs:(%eax),%al
8000a0d8:	5b                   	pop    %ebx
8000a0d9:	30 78 25             	xor    %bh,0x25(%eax)
8000a0dc:	58                   	pop    %eax
8000a0dd:	5d                   	pop    %ebp
8000a0de:	20 49 6e             	and    %cl,0x6e(%ecx)
8000a0e1:	76 61                	jbe    8000a144 <rodata+0x1224>
8000a0e3:	6c                   	insb   (%dx),%es:(%edi)
8000a0e4:	69 64 20 63 61 6c 6c 	imul   $0x206c6c61,0x63(%eax,1),%esp
8000a0eb:	20 
8000a0ec:	49                   	dec    %ecx
8000a0ed:	44                   	inc    %esp
8000a0ee:	0a 00                	or     (%eax),%al
8000a0f0:	45                   	inc    %ebp
8000a0f1:	72 72                	jb     8000a165 <rodata+0x1245>
8000a0f3:	6f                   	outsl  %ds:(%esi),(%dx)
8000a0f4:	72 20                	jb     8000a116 <rodata+0x11f6>
8000a0f6:	6c                   	insb   (%dx),%es:(%edi)
8000a0f7:	6f                   	outsl  %ds:(%esi),(%dx)
8000a0f8:	61                   	popa   
8000a0f9:	64 69 6e 67 20 6d 6f 	imul   $0x646f6d20,%fs:0x67(%esi),%ebp
8000a100:	64 
8000a101:	75 6c                	jne    8000a16f <rodata+0x124f>
8000a103:	65 20 5b 25          	and    %bl,%gs:0x25(%ebx)
8000a107:	73 5d                	jae    8000a166 <rodata+0x1246>
8000a109:	0a 00                	or     (%eax),%al
8000a10b:	4d                   	dec    %ebp
8000a10c:	6f                   	outsl  %ds:(%esi),(%dx)
8000a10d:	64                   	fs
8000a10e:	75 6c                	jne    8000a17c <rodata+0x125c>
8000a110:	65                   	gs
8000a111:	4d                   	dec    %ebp
8000a112:	61                   	popa   
8000a113:	6e                   	outsb  %ds:(%esi),(%dx)
8000a114:	61                   	popa   
8000a115:	67                   	addr16
8000a116:	65                   	gs
8000a117:	72 00                	jb     8000a119 <rodata+0x11f9>
8000a119:	43                   	inc    %ebx
8000a11a:	72 65                	jb     8000a181 <rodata+0x1261>
8000a11c:	61                   	popa   
8000a11d:	74 65                	je     8000a184 <rodata+0x1264>
8000a11f:	4d                   	dec    %ebp
8000a120:	6f                   	outsl  %ds:(%esi),(%dx)
8000a121:	64                   	fs
8000a122:	75 6c                	jne    8000a190 <rodata+0x1270>
8000a124:	65 00 43 72          	add    %al,%gs:0x72(%ebx)
8000a128:	65                   	gs
8000a129:	61                   	popa   
8000a12a:	74 65                	je     8000a191 <rodata+0x1271>
8000a12c:	4d                   	dec    %ebp
8000a12d:	6f                   	outsl  %ds:(%esi),(%dx)
8000a12e:	64                   	fs
8000a12f:	75 6c                	jne    8000a19d <rodata+0x127d>
8000a131:	65                   	gs
8000a132:	43                   	inc    %ebx
8000a133:	61                   	popa   
8000a134:	6c                   	insb   (%dx),%es:(%edi)
8000a135:	6c                   	insb   (%dx),%es:(%edi)
	...
8000a13e:	00 00                	add    %al,(%eax)
8000a140:	4d                   	dec    %ebp
8000a141:	6f                   	outsl  %ds:(%esi),(%dx)
8000a142:	64                   	fs
8000a143:	75 6c                	jne    8000a1b1 <rodata+0x1291>
8000a145:	65 20 63 61          	and    %ah,%gs:0x61(%ebx)
8000a149:	6c                   	insb   (%dx),%es:(%edi)
8000a14a:	6c                   	insb   (%dx),%es:(%edi)
8000a14b:	20 5b 25             	and    %bl,0x25(%ebx)
8000a14e:	73 5d                	jae    8000a1ad <rodata+0x128d>
8000a150:	20 5b 25             	and    %bl,0x25(%ebx)
8000a153:	75 2d                	jne    8000a182 <rodata+0x1262>
8000a155:	25 75 5d 20 63       	and    $0x63205d75,%eax
8000a15a:	72 65                	jb     8000a1c1 <rodata+0x12a1>
8000a15c:	61                   	popa   
8000a15d:	74 65                	je     8000a1c4 <rodata+0x12a4>
8000a15f:	64 0a 00             	or     %fs:(%eax),%al
	...
8000a17e:	00 00                	add    %al,(%eax)
8000a180:	4d                   	dec    %ebp
8000a181:	6f                   	outsl  %ds:(%esi),(%dx)
8000a182:	64                   	fs
8000a183:	75 6c                	jne    8000a1f1 <rodata+0x12d1>
8000a185:	65 20 5b 25          	and    %bl,%gs:0x25(%ebx)
8000a189:	73 5d                	jae    8000a1e8 <rodata+0x12c8>
8000a18b:	20 6c 6f 61          	and    %ch,0x61(%edi,%ebp,2)
8000a18f:	64 65 64 20 61 74    	and    %ah,%fs:%gs:0x74(%ecx)
8000a195:	20 30                	and    %dh,(%eax)
8000a197:	78 25                	js     8000a1be <rodata+0x129e>
8000a199:	58                   	pop    %eax
8000a19a:	20 2d 20 30 78 25    	and    %ch,0x25783020
8000a1a0:	58                   	pop    %eax
8000a1a1:	20 28                	and    %ch,(%eax)
8000a1a3:	45                   	inc    %ebp
8000a1a4:	6e                   	outsb  %ds:(%esi),(%dx)
8000a1a5:	74 72                	je     8000a219 <rodata+0x12f9>
8000a1a7:	79 20                	jns    8000a1c9 <rodata+0x12a9>
8000a1a9:	30 78 25             	xor    %bh,0x25(%eax)
8000a1ac:	58                   	pop    %eax
8000a1ad:	29 0a                	sub    %ecx,(%edx)
	...
8000a1bf:	00 4d 6f             	add    %cl,0x6f(%ebp)
8000a1c2:	64                   	fs
8000a1c3:	75 6c                	jne    8000a231 <rodata+0x1311>
8000a1c5:	65 20 5b 25          	and    %bl,%gs:0x25(%ebx)
8000a1c9:	73 5d                	jae    8000a228 <rodata+0x1308>
8000a1cb:	20 69 6e             	and    %ch,0x6e(%ecx)
8000a1ce:	69 74 20 72 65 74 75 	imul   $0x72757465,0x72(%eax,1),%esi
8000a1d5:	72 
8000a1d6:	6e                   	outsb  %ds:(%esi),(%dx)
8000a1d7:	65 64 20 3d 20 25 75 	and    %bh,%fs:%gs:0xa752520
8000a1de:	0a 
8000a1df:	00 4f 42             	add    %cl,0x42(%edi)
8000a1e2:	4a                   	dec    %edx
8000a1e3:	45                   	inc    %ebp
8000a1e4:	43                   	inc    %ebx
8000a1e5:	54                   	push   %esp
8000a1e6:	53                   	push   %ebx
8000a1e7:	00 2f                	add    %ch,(%edi)
8000a1e9:	4b                   	dec    %ebx
8000a1ea:	65                   	gs
8000a1eb:	72 6e                	jb     8000a25b <rodata+0x133b>
8000a1ed:	65                   	gs
8000a1ee:	6c                   	insb   (%dx),%es:(%edi)
8000a1ef:	2f                   	das    
8000a1f0:	00 56 65             	add    %dl,0x65(%esi)
8000a1f3:	72 73                	jb     8000a268 <rodata+0x1348>
8000a1f5:	69 6f 6e 28 4d 61 6a 	imul   $0x6a614d28,0x6e(%edi),%ebp
8000a1fc:	6f                   	outsl  %ds:(%esi),(%dx)
8000a1fd:	72 29                	jb     8000a228 <rodata+0x1308>
8000a1ff:	00 56 65             	add    %dl,0x65(%esi)
8000a202:	72 73                	jb     8000a277 <rodata+0x1357>
8000a204:	69 6f 6e 28 4d 69 6e 	imul   $0x6e694d28,0x6e(%edi),%ebp
8000a20b:	6f                   	outsl  %ds:(%esi),(%dx)
8000a20c:	72 29                	jb     8000a237 <rodata+0x1317>
8000a20e:	00 56 65             	add    %dl,0x65(%esi)
8000a211:	72 73                	jb     8000a286 <rodata+0x1366>
8000a213:	69 6f 6e 28 43 6f 64 	imul   $0x646f4328,0x6e(%edi),%ebp
8000a21a:	65 6e                	outsb  %gs:(%esi),(%dx)
8000a21c:	61                   	popa   
8000a21d:	6d                   	insl   (%dx),%es:(%edi)
8000a21e:	65 29 00             	sub    %eax,%gs:(%eax)
8000a221:	53                   	push   %ebx
8000a222:	69 72 75 73 00 4f 62 	imul   $0x624f0073,0x75(%edx),%esi
8000a229:	6a 65                	push   $0x65
8000a22b:	63 74 20 6d          	arpl   %si,0x6d(%eax,1)
8000a22f:	61                   	popa   
8000a230:	6e                   	outsb  %ds:(%esi),(%dx)
8000a231:	61                   	popa   
8000a232:	67                   	addr16
8000a233:	65                   	gs
8000a234:	72 20                	jb     8000a256 <rodata+0x1336>
8000a236:	69 6e 69 74 69 61 6c 	imul   $0x6c616974,0x69(%esi),%ebp
8000a23d:	69 73 65 64 0a 00 4b 	imul   $0x4b000a64,0x65(%ebx),%esi
8000a244:	65                   	gs
8000a245:	79 20                	jns    8000a267 <rodata+0x1347>
8000a247:	5b                   	pop    %ebx
8000a248:	25 73 5d 20 74       	and    $0x74205d73,%eax
8000a24d:	6f                   	outsl  %ds:(%esi),(%dx)
8000a24e:	6f                   	outsl  %ds:(%esi),(%dx)
8000a24f:	20 6c 6f 6e          	and    %ch,0x6e(%edi,%ebp,2)
8000a253:	67 0a 00             	addr16 or (%bx,%si),%al
8000a256:	50                   	push   %eax
8000a257:	61                   	popa   
8000a258:	74 68                	je     8000a2c2 <rodata+0x13a2>
8000a25a:	20 5b 25             	and    %bl,0x25(%ebx)
8000a25d:	73 5d                	jae    8000a2bc <rodata+0x139c>
8000a25f:	20 74 6f 6f          	and    %dh,0x6f(%edi,%ebp,2)
8000a263:	20 6c 6f 6e          	and    %ch,0x6e(%edi,%ebp,2)
8000a267:	67 0a 00             	addr16 or (%bx,%si),%al
8000a26a:	50                   	push   %eax
8000a26b:	61                   	popa   
8000a26c:	74 68                	je     8000a2d6 <rodata+0x13b6>
8000a26e:	20 63 6f             	and    %ah,0x6f(%ebx)
8000a271:	6d                   	insl   (%dx),%es:(%edi)
8000a272:	70 6f                	jo     8000a2e3 <rodata+0x13c3>
8000a274:	6e                   	outsb  %ds:(%esi),(%dx)
8000a275:	65 6e                	outsb  %gs:(%esi),(%dx)
8000a277:	74 20                	je     8000a299 <rodata+0x1379>
8000a279:	5b                   	pop    %ebx
8000a27a:	25 73 5d 20 74       	and    $0x74205d73,%eax
8000a27f:	6f                   	outsl  %ds:(%esi),(%dx)
8000a280:	6f                   	outsl  %ds:(%esi),(%dx)
8000a281:	20 6c 6f 6e          	and    %ch,0x6e(%edi,%ebp,2)
8000a285:	67 0a 00             	addr16 or (%bx,%si),%al
8000a288:	4b                   	dec    %ebx
8000a289:	65                   	gs
8000a28a:	79 20                	jns    8000a2ac <rodata+0x138c>
8000a28c:	63 6f 6d             	arpl   %bp,0x6d(%edi)
8000a28f:	70 6f                	jo     8000a300 <rodata+0x13e0>
8000a291:	6e                   	outsb  %ds:(%esi),(%dx)
8000a292:	65 6e                	outsb  %gs:(%esi),(%dx)
8000a294:	74 20                	je     8000a2b6 <rodata+0x1396>
8000a296:	5b                   	pop    %ebx
8000a297:	25 73 5d 20 74       	and    $0x74205d73,%eax
8000a29c:	6f                   	outsl  %ds:(%esi),(%dx)
8000a29d:	6f                   	outsl  %ds:(%esi),(%dx)
8000a29e:	20 6c 6f 6e          	and    %ch,0x6e(%edi,%ebp,2)
8000a2a2:	67 0a 00             	addr16 or (%bx,%si),%al
8000a2a5:	45                   	inc    %ebp
8000a2a6:	6e                   	outsb  %ds:(%esi),(%dx)
8000a2a7:	74 69                	je     8000a312 <rodata+0x13f2>
8000a2a9:	74 79                	je     8000a324 <rodata+0x1404>
8000a2ab:	20 5b 25             	and    %bl,0x25(%ebx)
8000a2ae:	73 5d                	jae    8000a30d <rodata+0x13ed>
8000a2b0:	20 5b 25             	and    %bl,0x25(%ebx)
8000a2b3:	73 5d                	jae    8000a312 <rodata+0x13f2>
8000a2b5:	20 6e 6f             	and    %ch,0x6f(%esi)
8000a2b8:	74 20                	je     8000a2da <rodata+0x13ba>
8000a2ba:	66 6f                	outsw  %ds:(%esi),(%dx)
8000a2bc:	75 6e                	jne    8000a32c <rodata+0x140c>
8000a2be:	64 0a 00             	or     %fs:(%eax),%al
	...
8000a2dd:	00 00                	add    %al,(%eax)
8000a2df:	00 4f 62             	add    %cl,0x62(%edi)
8000a2e2:	6a 65                	push   $0x65
8000a2e4:	63 74 20 5b          	arpl   %si,0x5b(%eax,1)
8000a2e8:	25 73 5d 20 63       	and    $0x63205d73,%eax
8000a2ed:	61                   	popa   
8000a2ee:	6e                   	outsb  %ds:(%esi),(%dx)
8000a2ef:	20 6e 6f             	and    %ch,0x6f(%esi)
8000a2f2:	74 20                	je     8000a314 <rodata+0x13f4>
8000a2f4:	62 65 20             	bound  %esp,0x20(%ebp)
8000a2f7:	64                   	fs
8000a2f8:	65                   	gs
8000a2f9:	6c                   	insb   (%dx),%es:(%edi)
8000a2fa:	65                   	gs
8000a2fb:	74 65                	je     8000a362 <rodata+0x1442>
8000a2fd:	64 20 62 65          	and    %ah,%fs:0x65(%edx)
8000a301:	63 61 75             	arpl   %sp,0x75(%ecx)
8000a304:	73 65                	jae    8000a36b <rodata+0x144b>
8000a306:	20 69 74             	and    %ch,0x74(%ecx)
8000a309:	73 20                	jae    8000a32b <rodata+0x140b>
8000a30b:	62 65 69             	bound  %esp,0x69(%ebp)
8000a30e:	6e                   	outsb  %ds:(%esi),(%dx)
8000a30f:	67 20 72 65          	addr16 and %dh,101(%bp,%si)
8000a313:	66                   	data16
8000a314:	65                   	gs
8000a315:	72 65                	jb     8000a37c <rodata+0x145c>
8000a317:	6e                   	outsb  %ds:(%esi),(%dx)
8000a318:	63 65 64             	arpl   %sp,0x64(%ebp)
8000a31b:	0a 00                	or     (%eax),%al
8000a31d:	54                   	push   %esp
8000a31e:	69 6d 65 72 00 54 69 	imul   $0x69540072,0x65(%ebp),%ebp
8000a325:	6d                   	insl   (%dx),%es:(%edi)
8000a326:	65                   	gs
8000a327:	72 20                	jb     8000a349 <rodata+0x1429>
8000a329:	69 6e 69 74 69 61 6c 	imul   $0x6c616974,0x69(%esi),%ebp
8000a330:	69 73 65 64 0a 00 54 	imul   $0x54000a64,0x65(%ebx),%esi
8000a337:	49                   	dec    %ecx
8000a338:	4d                   	dec    %ebp
8000a339:	45                   	inc    %ebp
8000a33a:	52                   	push   %edx
8000a33b:	00 4b 65             	add    %cl,0x65(%ebx)
8000a33e:	72 6e                	jb     8000a3ae <rodata+0x148e>
8000a340:	65                   	gs
8000a341:	6c                   	insb   (%dx),%es:(%edi)
8000a342:	00 53 63             	add    %dl,0x63(%ebx)
8000a345:	68 65 64 75 6c       	push   $0x6c756465
8000a34a:	65                   	gs
8000a34b:	72 00                	jb     8000a34d <rodata+0x142d>
8000a34d:	53                   	push   %ebx
8000a34e:	63 68 65             	arpl   %bp,0x65(%eax)
8000a351:	64                   	fs
8000a352:	75 6c                	jne    8000a3c0 <rodata+0x14a0>
8000a354:	65                   	gs
8000a355:	72 20                	jb     8000a377 <rodata+0x1457>
8000a357:	69 6e 69 74 69 61 6c 	imul   $0x6c616974,0x69(%esi),%ebp
8000a35e:	69 73 65 64 0a 00 50 	imul   $0x50000a64,0x65(%ebx),%esi
8000a365:	52                   	push   %edx
8000a366:	4f                   	dec    %edi
8000a367:	43                   	inc    %ebx
8000a368:	45                   	inc    %ebp
8000a369:	53                   	push   %ebx
8000a36a:	53                   	push   %ebx
8000a36b:	45                   	inc    %ebp
8000a36c:	53                   	push   %ebx
8000a36d:	00 2f                	add    %ch,(%edi)
8000a36f:	53                   	push   %ebx
8000a370:	79 73                	jns    8000a3e5 <rodata+0x14c5>
8000a372:	74 65                	je     8000a3d9 <rodata+0x14b9>
8000a374:	6d                   	insl   (%dx),%es:(%edi)
8000a375:	2f                   	das    
8000a376:	50                   	push   %eax
8000a377:	72 6f                	jb     8000a3e8 <rodata+0x14c8>
8000a379:	63 65 73             	arpl   %sp,0x73(%ebp)
8000a37c:	73 65                	jae    8000a3e3 <rodata+0x14c3>
8000a37e:	73 2f                	jae    8000a3af <rodata+0x148f>
8000a380:	00 50 72             	add    %dl,0x72(%eax)
8000a383:	6f                   	outsl  %ds:(%esi),(%dx)
8000a384:	63 65 73             	arpl   %sp,0x73(%ebp)
8000a387:	73 20                	jae    8000a3a9 <rodata+0x1489>
8000a389:	25 75 00 2f 53       	and    $0x532f0075,%eax
8000a38e:	79 73                	jns    8000a403 <rodata+0x14e3>
8000a390:	74 65                	je     8000a3f7 <rodata+0x14d7>
8000a392:	6d                   	insl   (%dx),%es:(%edi)
8000a393:	2f                   	das    
8000a394:	54                   	push   %esp
8000a395:	68 72 65 61 64       	push   $0x64616572
8000a39a:	73 2f                	jae    8000a3cb <rodata+0x14ab>
8000a39c:	00 54 68 72          	add    %dl,0x72(%eax,%ebp,2)
8000a3a0:	65                   	gs
8000a3a1:	61                   	popa   
8000a3a2:	64 20 25 75 00 50 72 	and    %ah,%fs:0x72500075
8000a3a9:	6f                   	outsl  %ds:(%esi),(%dx)
8000a3aa:	63 65 73             	arpl   %sp,0x73(%ebp)
8000a3ad:	73 4d                	jae    8000a3fc <rodata+0x14dc>
8000a3af:	61                   	popa   
8000a3b0:	6e                   	outsb  %ds:(%esi),(%dx)
8000a3b1:	61                   	popa   
8000a3b2:	67                   	addr16
8000a3b3:	65                   	gs
8000a3b4:	72 00                	jb     8000a3b6 <rodata+0x1496>
8000a3b6:	43                   	inc    %ebx
8000a3b7:	72 65                	jb     8000a41e <rodata+0x14fe>
8000a3b9:	61                   	popa   
8000a3ba:	74 65                	je     8000a421 <rodata+0x1501>
8000a3bc:	54                   	push   %esp
8000a3bd:	68 72 65 61 64       	push   $0x64616572
8000a3c2:	00 52 75             	add    %dl,0x75(%edx)
8000a3c5:	6e                   	outsb  %ds:(%esi),(%dx)
8000a3c6:	54                   	push   %esp
8000a3c7:	68 72 65 61 64       	push   $0x64616572
8000a3cc:	00 41 77             	add    %al,0x77(%ecx)
8000a3cf:	61                   	popa   
8000a3d0:	6b 65 6e 54          	imul   $0x54,0x6e(%ebp),%esp
8000a3d4:	68 72 65 61 64       	push   $0x64616572
8000a3d9:	00 53 6c             	add    %dl,0x6c(%ebx)
8000a3dc:	65                   	gs
8000a3dd:	65                   	gs
8000a3de:	70 00                	jo     8000a3e0 <rodata+0x14c0>
8000a3e0:	52                   	push   %edx
8000a3e1:	65                   	gs
8000a3e2:	6c                   	insb   (%dx),%es:(%edi)
8000a3e3:	69 6e 71 75 69 73 68 	imul   $0x68736975,0x71(%esi),%ebp
	...
8000a41e:	00 00                	add    %al,(%eax)
8000a420:	4b                   	dec    %ebx
8000a421:	65                   	gs
8000a422:	72 6e                	jb     8000a492 <rodata+0x1572>
8000a424:	65                   	gs
8000a425:	6c                   	insb   (%dx),%es:(%edi)
8000a426:	20 6e 65             	and    %ch,0x65(%esi)
8000a429:	73 74                	jae    8000a49f <rodata+0x157f>
8000a42b:	69 6e 67 20 65 78 63 	imul   $0x63786520,0x67(%esi),%ebp
8000a432:	65 65 64 65 64 20 6d 	and    %ch,%fs:%gs:0x61(%ebp)
8000a439:	61 
8000a43a:	78 69                	js     8000a4a5 <rodata+0x1585>
8000a43c:	6d                   	insl   (%dx),%es:(%edi)
8000a43d:	75 6d                	jne    8000a4ac <rodata+0x158c>
8000a43f:	20 2d 20 48 61 6c    	and    %ch,0x6c614820
8000a445:	74 69                	je     8000a4b0 <rodata+0x1590>
8000a447:	6e                   	outsb  %ds:(%esi),(%dx)
8000a448:	67 0a 00             	addr16 or (%bx,%si),%al
8000a44b:	50                   	push   %eax
8000a44c:	49                   	dec    %ecx
8000a44d:	43                   	inc    %ebx
8000a44e:	20 49 6e             	and    %cl,0x6e(%ecx)
8000a451:	69 74 69 61 6c 69 73 	imul   $0x6573696c,0x61(%ecx,%ebp,2),%esi
8000a458:	65 
8000a459:	64 0a 00             	or     %fs:(%eax),%al
8000a45c:	50                   	push   %eax
8000a45d:	49                   	dec    %ecx
8000a45e:	43                   	inc    %ebx
8000a45f:	00 50 49             	add    %dl,0x49(%eax)
8000a462:	54                   	push   %esp
8000a463:	20 49 6e             	and    %cl,0x6e(%ecx)
8000a466:	69 74 69 61 6c 69 73 	imul   $0x6573696c,0x61(%ecx,%ebp,2),%esi
8000a46d:	65 
8000a46e:	64 0a 00             	or     %fs:(%eax),%al
8000a471:	50                   	push   %eax
8000a472:	49                   	dec    %ecx
8000a473:	54                   	push   %esp
8000a474:	00 5b 25             	add    %bl,0x25(%ebx)
8000a477:	2d 31 30 73 5d       	sub    $0x5d733031,%eax
8000a47c:	20 00                	and    %al,(%eax)
8000a47e:	43                   	inc    %ebx
8000a47f:	6f                   	outsl  %ds:(%esi),(%dx)
8000a480:	6e                   	outsb  %ds:(%esi),(%dx)
8000a481:	73 6f                	jae    8000a4f2 <rodata+0x15d2>
8000a483:	6c                   	insb   (%dx),%es:(%edi)
8000a484:	65 00 43 6c          	add    %al,%gs:0x6c(%ebx)
8000a488:	65                   	gs
8000a489:	61                   	popa   
8000a48a:	72 00                	jb     8000a48c <rodata+0x156c>
8000a48c:	57                   	push   %edi
8000a48d:	72 69                	jb     8000a4f8 <rodata+0x15d8>
8000a48f:	74 65                	je     8000a4f6 <rodata+0x15d6>
8000a491:	43                   	inc    %ebx
8000a492:	68 61 72 61 63       	push   $0x63617261
8000a497:	74 65                	je     8000a4fe <rodata+0x15de>
8000a499:	72 00                	jb     8000a49b <rodata+0x157b>
8000a49b:	44                   	inc    %esp
8000a49c:	65                   	gs
8000a49d:	6c                   	insb   (%dx),%es:(%edi)
8000a49e:	65                   	gs
8000a49f:	74 65                	je     8000a506 <rodata+0x15e6>
8000a4a1:	43                   	inc    %ebx
8000a4a2:	68 61 72 61 63       	push   $0x63617261
8000a4a7:	74 65                	je     8000a50e <rodata+0x15ee>
8000a4a9:	72 00                	jb     8000a4ab <rodata+0x158b>
8000a4ab:	4c                   	dec    %esp
8000a4ac:	6f                   	outsl  %ds:(%esi),(%dx)
8000a4ad:	67 50                	addr16 push %eax
8000a4af:	72 69                	jb     8000a51a <rodata+0x15fa>
8000a4b1:	6e                   	outsb  %ds:(%esi),(%dx)
8000a4b2:	74 00                	je     8000a4b4 <rodata+0x1594>
8000a4b4:	45                   	inc    %ebp
8000a4b5:	58                   	pop    %eax
8000a4b6:	43                   	inc    %ebx
8000a4b7:	45                   	inc    %ebp
8000a4b8:	50                   	push   %eax
8000a4b9:	54                   	push   %esp
8000a4ba:	49                   	dec    %ecx
8000a4bb:	4f                   	dec    %edi
8000a4bc:	4e                   	dec    %esi
8000a4bd:	00 47 50             	add    %al,0x50(%edi)
8000a4c0:	46                   	inc    %esi
8000a4c1:	20 66 72             	and    %ah,0x72(%esi)
8000a4c4:	6f                   	outsl  %ds:(%esi),(%dx)
8000a4c5:	6d                   	insl   (%dx),%es:(%edi)
8000a4c6:	20 30                	and    %dh,(%eax)
8000a4c8:	78 25                	js     8000a4ef <rodata+0x15cf>
8000a4ca:	58                   	pop    %eax
8000a4cb:	3a 30                	cmp    (%eax),%dh
8000a4cd:	78 25                	js     8000a4f4 <rodata+0x15d4>
8000a4cf:	58                   	pop    %eax
8000a4d0:	20 2d 20 48 61 6c    	and    %ch,0x6c614820
8000a4d6:	74 69                	je     8000a541 <rodata+0x1621>
8000a4d8:	6e                   	outsb  %ds:(%esi),(%dx)
8000a4d9:	67 0a 00             	addr16 or (%bx,%si),%al
8000a4dc:	00 00                	add    %al,(%eax)
8000a4de:	00 00                	add    %al,(%eax)
8000a4e0:	44                   	inc    %esp
8000a4e1:	65 62 75 67          	bound  %esi,%gs:0x67(%ebp)
8000a4e5:	20 46 61             	and    %al,0x61(%esi)
8000a4e8:	75 6c                	jne    8000a556 <rodata+0x1636>
8000a4ea:	74 20                	je     8000a50c <rodata+0x15ec>
8000a4ec:	66                   	data16
8000a4ed:	72 6f                	jb     8000a55e <rodata+0x163e>
8000a4ef:	6d                   	insl   (%dx),%es:(%edi)
8000a4f0:	20 30                	and    %dh,(%eax)
8000a4f2:	78 25                	js     8000a519 <rodata+0x15f9>
8000a4f4:	58                   	pop    %eax
8000a4f5:	3a 30                	cmp    (%eax),%dh
8000a4f7:	78 25                	js     8000a51e <rodata+0x15fe>
8000a4f9:	58                   	pop    %eax
8000a4fa:	20 2d 20 48 61 6c    	and    %ch,0x6c614820
8000a500:	74 69                	je     8000a56b <rodata+0x164b>
8000a502:	6e                   	outsb  %ds:(%esi),(%dx)
8000a503:	67 0a 00             	addr16 or (%bx,%si),%al
	...
8000a51e:	00 00                	add    %al,(%eax)
8000a520:	49                   	dec    %ecx
8000a521:	6e                   	outsb  %ds:(%esi),(%dx)
8000a522:	76 61                	jbe    8000a585 <rodata+0x1665>
8000a524:	6c                   	insb   (%dx),%es:(%edi)
8000a525:	69 64 20 4f 70 63 6f 	imul   $0x646f6370,0x4f(%eax,1),%esp
8000a52c:	64 
8000a52d:	65 20 66 72          	and    %ah,%gs:0x72(%esi)
8000a531:	6f                   	outsl  %ds:(%esi),(%dx)
8000a532:	6d                   	insl   (%dx),%es:(%edi)
8000a533:	20 30                	and    %dh,(%eax)
8000a535:	78 25                	js     8000a55c <rodata+0x163c>
8000a537:	58                   	pop    %eax
8000a538:	3a 30                	cmp    (%eax),%dh
8000a53a:	78 25                	js     8000a561 <rodata+0x1641>
8000a53c:	58                   	pop    %eax
8000a53d:	20 2d 20 48 61 6c    	and    %ch,0x6c614820
8000a543:	74 69                	je     8000a5ae <rodata+0x168e>
8000a545:	6e                   	outsb  %ds:(%esi),(%dx)
8000a546:	67 0a 00             	addr16 or (%bx,%si),%al
	...
8000a55d:	00 00                	add    %al,(%eax)
8000a55f:	00 44 6f 75          	add    %al,0x75(%edi,%ebp,2)
8000a563:	62 6c 65 20          	bound  %ebp,0x20(%ebp,2)
8000a567:	46                   	inc    %esi
8000a568:	61                   	popa   
8000a569:	75 6c                	jne    8000a5d7 <rodata+0x16b7>
8000a56b:	74 20                	je     8000a58d <rodata+0x166d>
8000a56d:	66                   	data16
8000a56e:	72 6f                	jb     8000a5df <rodata+0x16bf>
8000a570:	6d                   	insl   (%dx),%es:(%edi)
8000a571:	20 30                	and    %dh,(%eax)
8000a573:	78 25                	js     8000a59a <rodata+0x167a>
8000a575:	58                   	pop    %eax
8000a576:	3a 30                	cmp    (%eax),%dh
8000a578:	78 25                	js     8000a59f <rodata+0x167f>
8000a57a:	58                   	pop    %eax
8000a57b:	20 2d 20 48 61 6c    	and    %ch,0x6c614820
8000a581:	74 69                	je     8000a5ec <rodata+0x16cc>
8000a583:	6e                   	outsb  %ds:(%esi),(%dx)
8000a584:	67 0a 00             	addr16 or (%bx,%si),%al
	...
8000a59f:	00 53 74             	add    %dl,0x74(%ebx)
8000a5a2:	61                   	popa   
8000a5a3:	63 6b 20             	arpl   %bp,0x20(%ebx)
8000a5a6:	46                   	inc    %esi
8000a5a7:	61                   	popa   
8000a5a8:	75 6c                	jne    8000a616 <rodata+0x16f6>
8000a5aa:	74 20                	je     8000a5cc <rodata+0x16ac>
8000a5ac:	66                   	data16
8000a5ad:	72 6f                	jb     8000a61e <rodata+0x16fe>
8000a5af:	6d                   	insl   (%dx),%es:(%edi)
8000a5b0:	20 30                	and    %dh,(%eax)
8000a5b2:	78 25                	js     8000a5d9 <rodata+0x16b9>
8000a5b4:	58                   	pop    %eax
8000a5b5:	3a 30                	cmp    (%eax),%dh
8000a5b7:	78 25                	js     8000a5de <rodata+0x16be>
8000a5b9:	58                   	pop    %eax
8000a5ba:	20 2d 20 48 61 6c    	and    %ch,0x6c614820
8000a5c0:	74 69                	je     8000a62b <rodata+0x170b>
8000a5c2:	6e                   	outsb  %ds:(%esi),(%dx)
8000a5c3:	67 0a 00             	addr16 or (%bx,%si),%al
	...
8000a5de:	00 00                	add    %al,(%eax)
8000a5e0:	55                   	push   %ebp
8000a5e1:	6e                   	outsb  %ds:(%esi),(%dx)
8000a5e2:	68 61 6e 64 6c       	push   $0x6c646e61
8000a5e7:	65 64 20 50 61       	and    %dl,%fs:%gs:0x61(%eax)
8000a5ec:	67 65 20 46 61       	addr16 and %al,%gs:97(%bp)
8000a5f1:	75 6c                	jne    8000a65f <rodata+0x173f>
8000a5f3:	74 20                	je     8000a615 <rodata+0x16f5>
8000a5f5:	61                   	popa   
8000a5f6:	74 20                	je     8000a618 <rodata+0x16f8>
8000a5f8:	30 78 25             	xor    %bh,0x25(%eax)
8000a5fb:	58                   	pop    %eax
8000a5fc:	20 66 72             	and    %ah,0x72(%esi)
8000a5ff:	6f                   	outsl  %ds:(%esi),(%dx)
8000a600:	6d                   	insl   (%dx),%es:(%edi)
8000a601:	20 30                	and    %dh,(%eax)
8000a603:	78 25                	js     8000a62a <rodata+0x170a>
8000a605:	58                   	pop    %eax
8000a606:	3a 30                	cmp    (%eax),%dh
8000a608:	78 25                	js     8000a62f <rodata+0x170f>
8000a60a:	58                   	pop    %eax
8000a60b:	20 28                	and    %ch,(%eax)
8000a60d:	45                   	inc    %ebp
8000a60e:	72 72                	jb     8000a682 <rodata+0x1762>
8000a610:	6f                   	outsl  %ds:(%esi),(%dx)
8000a611:	72 20                	jb     8000a633 <rodata+0x1713>
8000a613:	30 78 25             	xor    %bh,0x25(%eax)
8000a616:	58                   	pop    %eax
8000a617:	2c 20                	sub    $0x20,%al
8000a619:	46                   	inc    %esi
8000a61a:	6c                   	insb   (%dx),%es:(%edi)
8000a61b:	61                   	popa   
8000a61c:	67 73 20             	addr16 jae 8000a63f <rodata+0x171f>
8000a61f:	30 78 25             	xor    %bh,0x25(%eax)
8000a622:	58                   	pop    %eax
8000a623:	29 0a                	sub    %ecx,(%edx)
8000a625:	00 3c 4e             	add    %bh,(%esi,%ecx,2)
8000a628:	55                   	push   %ebp
8000a629:	4c                   	dec    %esp
8000a62a:	4c                   	dec    %esp
8000a62b:	3e 00 00             	add    %al,%ds:(%eax)
8000a62e:	00 00                	add    %al,(%eax)
8000a630:	c0 7d 00 80          	sarb   $0x80,0x0(%ebp)
8000a634:	f0 7d 00             	lock jge 8000a637 <rodata+0x1717>
8000a637:	80 f0 7d             	xor    $0x7d,%al
8000a63a:	00 80 d0 7d 00 80    	add    %al,0x80007dd0(%eax)
8000a640:	f0 7d 00             	lock jge 8000a643 <rodata+0x1723>
8000a643:	80 f0 7d             	xor    $0x7d,%al
8000a646:	00 80 f0 7d 00 80    	add    %al,0x80007df0(%eax)
8000a64c:	f0 7d 00             	lock jge 8000a64f <rodata+0x172f>
8000a64f:	80 f0 7d             	xor    $0x7d,%al
8000a652:	00 80 f0 7d 00 80    	add    %al,0x80007df0(%eax)
8000a658:	f0 7d 00             	lock jge 8000a65b <rodata+0x173b>
8000a65b:	80 e0 7d             	and    $0x7d,%al
8000a65e:	00 80 f0 7d 00 80    	add    %al,0x80007df0(%eax)
8000a664:	b0 7d                	mov    $0x7d,%al
8000a666:	00 80 f0 7d 00 80    	add    %al,0x80007df0(%eax)
8000a66c:	f0 7d 00             	lock jge 8000a66f <rodata+0x174f>
8000a66f:	80 b0 81 00 80 f7 7e 	xorb   $0x7e,0xf7800081(%eax)
8000a676:	00 80 b0 80 00 80    	add    %al,0x800080b0(%eax)
8000a67c:	b0 80                	mov    $0x80,%al
8000a67e:	00 80 b0 80 00 80    	add    %al,0x800080b0(%eax)
8000a684:	b0 80                	mov    $0x80,%al
8000a686:	00 80 b0 80 00 80    	add    %al,0x800080b0(%eax)
8000a68c:	b0 80                	mov    $0x80,%al
8000a68e:	00 80 b0 80 00 80    	add    %al,0x800080b0(%eax)
8000a694:	b0 80                	mov    $0x80,%al
8000a696:	00 80 b0 80 00 80    	add    %al,0x800080b0(%eax)
8000a69c:	b0 80                	mov    $0x80,%al
8000a69e:	00 80 b0 80 00 80    	add    %al,0x800080b0(%eax)
8000a6a4:	b0 80                	mov    $0x80,%al
8000a6a6:	00 80 b0 80 00 80    	add    %al,0x800080b0(%eax)
8000a6ac:	b0 80                	mov    $0x80,%al
8000a6ae:	00 80 b0 80 00 80    	add    %al,0x800080b0(%eax)
8000a6b4:	b0 80                	mov    $0x80,%al
8000a6b6:	00 80 b0 80 00 80    	add    %al,0x800080b0(%eax)
8000a6bc:	b0 80                	mov    $0x80,%al
8000a6be:	00 80 b0 80 00 80    	add    %al,0x800080b0(%eax)
8000a6c4:	b0 80                	mov    $0x80,%al
8000a6c6:	00 80 b0 80 00 80    	add    %al,0x800080b0(%eax)
8000a6cc:	b0 80                	mov    $0x80,%al
8000a6ce:	00 80 b0 80 00 80    	add    %al,0x800080b0(%eax)
8000a6d4:	b0 80                	mov    $0x80,%al
8000a6d6:	00 80 b0 80 00 80    	add    %al,0x800080b0(%eax)
8000a6dc:	b0 80                	mov    $0x80,%al
8000a6de:	00 80 b0 80 00 80    	add    %al,0x800080b0(%eax)
8000a6e4:	b0 80                	mov    $0x80,%al
8000a6e6:	00 80 b0 80 00 80    	add    %al,0x800080b0(%eax)
8000a6ec:	b0 80                	mov    $0x80,%al
8000a6ee:	00 80 b0 80 00 80    	add    %al,0x800080b0(%eax)
8000a6f4:	b0 80                	mov    $0x80,%al
8000a6f6:	00 80 b0 80 00 80    	add    %al,0x800080b0(%eax)
8000a6fc:	b0 80                	mov    $0x80,%al
8000a6fe:	00 80 b0 80 00 80    	add    %al,0x800080b0(%eax)
8000a704:	b0 80                	mov    $0x80,%al
8000a706:	00 80 b0 80 00 80    	add    %al,0x800080b0(%eax)
8000a70c:	b0 80                	mov    $0x80,%al
8000a70e:	00 80 b0 80 00 80    	add    %al,0x800080b0(%eax)
8000a714:	b0 80                	mov    $0x80,%al
8000a716:	00 80 b0 80 00 80    	add    %al,0x800080b0(%eax)
8000a71c:	b0 80                	mov    $0x80,%al
8000a71e:	00 80 b0 80 00 80    	add    %al,0x800080b0(%eax)
8000a724:	b0 80                	mov    $0x80,%al
8000a726:	00 80 b0 80 00 80    	add    %al,0x800080b0(%eax)
8000a72c:	b0 80                	mov    $0x80,%al
8000a72e:	00 80 b0 80 00 80    	add    %al,0x800080b0(%eax)
8000a734:	b0 80                	mov    $0x80,%al
8000a736:	00 80 b0 80 00 80    	add    %al,0x800080b0(%eax)
8000a73c:	b0 80                	mov    $0x80,%al
8000a73e:	00 80 08 7f 00 80    	add    %al,0x80007f08(%eax)
8000a744:	b0 80                	mov    $0x80,%al
8000a746:	00 80 b0 80 00 80    	add    %al,0x800080b0(%eax)
8000a74c:	b0 80                	mov    $0x80,%al
8000a74e:	00 80 b0 80 00 80    	add    %al,0x800080b0(%eax)
8000a754:	b0 80                	mov    $0x80,%al
8000a756:	00 80 b0 80 00 80    	add    %al,0x800080b0(%eax)
8000a75c:	b0 80                	mov    $0x80,%al
8000a75e:	00 80 b0 80 00 80    	add    %al,0x800080b0(%eax)
8000a764:	b0 80                	mov    $0x80,%al
8000a766:	00 80 b0 80 00 80    	add    %al,0x800080b0(%eax)
8000a76c:	9e                   	sahf   
8000a76d:	7e 00                	jle    8000a76f <rodata+0x184f>
8000a76f:	80 ac 7f 00 80 b0 80 	subb   $0x0,0x80b08000(%edi,%edi,2)
8000a776:	00 
8000a777:	80 b0 80 00 80 b0 80 	xorb   $0x80,0xb0800080(%eax)
8000a77e:	00 80 b0 80 00 80    	add    %al,0x800080b0(%eax)
8000a784:	ac                   	lods   %ds:(%esi),%al
8000a785:	7f 00                	jg     8000a787 <rodata+0x1867>
8000a787:	80 b0 80 00 80 b0 80 	xorb   $0x80,0xb0800080(%eax)
8000a78e:	00 80 b0 80 00 80    	add    %al,0x800080b0(%eax)
8000a794:	b0 80                	mov    $0x80,%al
8000a796:	00 80 b4 7f 00 80    	add    %al,0x80007fb4(%eax)
8000a79c:	cb                   	lret   
8000a79d:	7f 00                	jg     8000a79f <rodata+0x187f>
8000a79f:	80 d5 7f             	adc    $0x7f,%ch
8000a7a2:	00 80 b0 80 00 80    	add    %al,0x800080b0(%eax)
8000a7a8:	b0 80                	mov    $0x80,%al
8000a7aa:	00 80 22 80 00 80    	add    %al,0x80008022(%eax)
8000a7b0:	b0 80                	mov    $0x80,%al
8000a7b2:	00 80 10 7f 00 80    	add    %al,0x80007f10(%eax)
8000a7b8:	b0 80                	mov    $0x80,%al
8000a7ba:	00 80 b0 80 00 80    	add    %al,0x800080b0(%eax)
8000a7c0:	0b 7f 00             	or     0x0(%edi),%edi
8000a7c3:	80 00 00             	addb   $0x0,(%eax)
	...
8000a7de:	00 00                	add    %al,(%eax)
8000a7e0:	30 31                	xor    %dh,(%ecx)
8000a7e2:	32 33                	xor    (%ebx),%dh
8000a7e4:	34 35                	xor    $0x35,%al
8000a7e6:	36                   	ss
8000a7e7:	37                   	aaa    
8000a7e8:	38 39                	cmp    %bh,(%ecx)
8000a7ea:	61                   	popa   
8000a7eb:	62 63 64             	bound  %esp,0x64(%ebx)
8000a7ee:	65                   	gs
8000a7ef:	66 67 68 69 6a       	addr16 pushw $0x6a69
8000a7f4:	6b 6c 6d 6e 6f       	imul   $0x6f,0x6e(%ebp,%ebp,2),%ebp
8000a7f9:	70 71                	jo     8000a86c <rodata+0x194c>
8000a7fb:	72 73                	jb     8000a870 <rodata+0x1950>
8000a7fd:	74 75                	je     8000a874 <rodata+0x1954>
8000a7ff:	76 77                	jbe    8000a878 <rodata+0x1958>
8000a801:	78 79                	js     8000a87c <rodata+0x195c>
8000a803:	7a 00                	jp     8000a805 <rodata+0x18e5>
	...
8000a81d:	00 00                	add    %al,(%eax)
8000a81f:	00 30                	add    %dh,(%eax)
8000a821:	31 32                	xor    %esi,(%edx)
8000a823:	33 34 35 36 37 38 39 	xor    0x39383736(,%esi,1),%esi
8000a82a:	41                   	inc    %ecx
8000a82b:	42                   	inc    %edx
8000a82c:	43                   	inc    %ebx
8000a82d:	44                   	inc    %esp
8000a82e:	45                   	inc    %ebp
8000a82f:	46                   	inc    %esi
8000a830:	47                   	inc    %edi
8000a831:	48                   	dec    %eax
8000a832:	49                   	dec    %ecx
8000a833:	4a                   	dec    %edx
8000a834:	4b                   	dec    %ebx
8000a835:	4c                   	dec    %esp
8000a836:	4d                   	dec    %ebp
8000a837:	4e                   	dec    %esi
8000a838:	4f                   	dec    %edi
8000a839:	50                   	push   %eax
8000a83a:	51                   	push   %ecx
8000a83b:	52                   	push   %edx
8000a83c:	53                   	push   %ebx
8000a83d:	54                   	push   %esp
8000a83e:	55                   	push   %ebp
8000a83f:	56                   	push   %esi
8000a840:	57                   	push   %edi
8000a841:	58                   	pop    %eax
8000a842:	59                   	pop    %ecx
8000a843:	5a                   	pop    %edx
	...
8000a84c:	00 00                	add    %al,(%eax)
8000a84e:	24 40                	and    $0x40,%al
8000a850:	9a 99 99 99 99 99 b9 	lcall  $0xb999,$0x99999999
8000a857:	3f                   	aas    
8000a858:	20 86 00 80 30 86    	and    %al,0x86308000(%esi)
8000a85e:	00 80 30 86 00 80    	add    %al,0x80008630(%eax)
8000a864:	30 86 00 80 30 86    	xor    %al,0x86308000(%esi)
8000a86a:	00 80 30 86 00 80    	add    %al,0x80008630(%eax)
8000a870:	30 86 00 80 30 86    	xor    %al,0x86308000(%esi)
8000a876:	00 80 30 86 00 80    	add    %al,0x80008630(%eax)
8000a87c:	60                   	pusha  
8000a87d:	85 00                	test   %eax,(%eax)
8000a87f:	80 60 85 00          	andb   $0x0,0xffffff85(%eax)
8000a883:	80 60 85 00          	andb   $0x0,0xffffff85(%eax)
8000a887:	80 60 85 00          	andb   $0x0,0xffffff85(%eax)
8000a88b:	80 60 85 00          	andb   $0x0,0xffffff85(%eax)
8000a88f:	80 30 86             	xorb   $0x86,(%eax)
8000a892:	00 80 30 86 00 80    	add    %al,0x80008630(%eax)
8000a898:	30 86 00 80 30 86    	xor    %al,0x86308000(%esi)
8000a89e:	00 80 30 86 00 80    	add    %al,0x80008630(%eax)
8000a8a4:	30 86 00 80 30 86    	xor    %al,0x86308000(%esi)
8000a8aa:	00 80 30 86 00 80    	add    %al,0x80008630(%eax)
8000a8b0:	30 86 00 80 30 86    	xor    %al,0x86308000(%esi)
8000a8b6:	00 80 30 86 00 80    	add    %al,0x80008630(%eax)
8000a8bc:	30 86 00 80 30 86    	xor    %al,0x86308000(%esi)
8000a8c2:	00 80 30 86 00 80    	add    %al,0x80008630(%eax)
8000a8c8:	30 86 00 80 30 86    	xor    %al,0x86308000(%esi)
8000a8ce:	00 80 30 86 00 80    	add    %al,0x80008630(%eax)
8000a8d4:	30 86 00 80 60 85    	xor    %al,0x85608000(%esi)
8000a8da:	00 80 30 86 00 80    	add    %al,0x80008630(%eax)
8000a8e0:	30 86 00 80 30 86    	xor    %al,0x86308000(%esi)
8000a8e6:	00 80 30 86 00 80    	add    %al,0x80008630(%eax)
8000a8ec:	50                   	push   %eax
8000a8ed:	86 00                	xchg   %al,(%eax)
8000a8ef:	80 20 86             	andb   $0x86,(%eax)
8000a8f2:	00 80 b4 85 00 80    	add    %al,0x800085b4(%eax)
8000a8f8:	b4 85                	mov    $0x85,%ah
8000a8fa:	00 80 b4 85 00 80    	add    %al,0x800085b4(%eax)
8000a900:	b4 85                	mov    $0x85,%ah
8000a902:	00 80 b4 85 00 80    	add    %al,0x800085b4(%eax)
8000a908:	b4 85                	mov    $0x85,%ah
8000a90a:	00 80 b4 85 00 80    	add    %al,0x800085b4(%eax)
8000a910:	b4 85                	mov    $0x85,%ah
8000a912:	00 80 b4 85 00 80    	add    %al,0x800085b4(%eax)
8000a918:	b4 85                	mov    $0x85,%ah
8000a91a:	00 80 b4 85 00 80    	add    %al,0x800085b4(%eax)
8000a920:	b4 85                	mov    $0x85,%ah
8000a922:	00 80 b4 85 00 80    	add    %al,0x800085b4(%eax)
8000a928:	b4 85                	mov    $0x85,%ah
8000a92a:	00 80 b4 85 00 80    	add    %al,0x800085b4(%eax)
8000a930:	b4 85                	mov    $0x85,%ah
8000a932:	00 80 b4 85 00 80    	add    %al,0x800085b4(%eax)
8000a938:	b4 85                	mov    $0x85,%ah
8000a93a:	00 80 b4 85 00 80    	add    %al,0x800085b4(%eax)
8000a940:	b4 85                	mov    $0x85,%ah
8000a942:	00 80 b4 85 00 80    	add    %al,0x800085b4(%eax)
8000a948:	b4 85                	mov    $0x85,%ah
8000a94a:	00 80 b4 85 00 80    	add    %al,0x800085b4(%eax)
8000a950:	b4 85                	mov    $0x85,%ah
8000a952:	00 80 b4 85 00 80    	add    %al,0x800085b4(%eax)
8000a958:	b4 85                	mov    $0x85,%ah
8000a95a:	00 80 b4 85 00 80    	add    %al,0x800085b4(%eax)
8000a960:	b4 85                	mov    $0x85,%ah
8000a962:	00 80 b4 85 00 80    	add    %al,0x800085b4(%eax)
8000a968:	b4 85                	mov    $0x85,%ah
8000a96a:	00 80 b4 85 00 80    	add    %al,0x800085b4(%eax)
8000a970:	b4 85                	mov    $0x85,%ah
8000a972:	00 80 b4 85 00 80    	add    %al,0x800085b4(%eax)
8000a978:	b4 85                	mov    $0x85,%ah
8000a97a:	00 80 b4 85 00 80    	add    %al,0x800085b4(%eax)
8000a980:	b4 85                	mov    $0x85,%ah
8000a982:	00 80 90 86 00 80    	add    %al,0x80008690(%eax)
8000a988:	b4 85                	mov    $0x85,%ah
8000a98a:	00 80 b4 85 00 80    	add    %al,0x800085b4(%eax)
8000a990:	b4 85                	mov    $0x85,%ah
8000a992:	00 80 b4 85 00 80    	add    %al,0x800085b4(%eax)
8000a998:	ad                   	lods   %ds:(%esi),%eax
8000a999:	86 00                	xchg   %al,(%eax)
8000a99b:	80 b4 85 00 80 b4 85 	xorb   $0x0,0x85b48000(%ebp,%eax,4)
8000a9a2:	00 
8000a9a3:	80 b4 85 00 80 b4 85 	xorb   $0x0,0x85b48000(%ebp,%eax,4)
8000a9aa:	00 
8000a9ab:	80 b4 85 00 80 b3 86 	xorb   $0x0,0x86b38000(%ebp,%eax,4)
8000a9b2:	00 
8000a9b3:	80 b3 86 00 80 b3 86 	xorb   $0x86,0xb3800086(%ebx)
8000a9ba:	00 80 b3 86 00 80    	add    %al,0x800086b3(%eax)
8000a9c0:	b3 86                	mov    $0x86,%bl
8000a9c2:	00 80 b3 86 00 80    	add    %al,0x800086b3(%eax)
8000a9c8:	b3 86                	mov    $0x86,%bl
8000a9ca:	00 80 b3 86 00 80    	add    %al,0x800086b3(%eax)
8000a9d0:	b3 86                	mov    $0x86,%bl
8000a9d2:	00 80 b3 86 00 80    	add    %al,0x800086b3(%eax)
8000a9d8:	b4 85                	mov    $0x85,%ah
8000a9da:	00 80 b4 85 00 80    	add    %al,0x800085b4(%eax)
8000a9e0:	b4 85                	mov    $0x85,%ah
8000a9e2:	00 80 b4 85 00 80    	add    %al,0x800085b4(%eax)
8000a9e8:	b4 85                	mov    $0x85,%ah
8000a9ea:	00 80 b4 85 00 80    	add    %al,0x800085b4(%eax)
8000a9f0:	b4 85                	mov    $0x85,%ah
8000a9f2:	00 80 b4 85 00 80    	add    %al,0x800085b4(%eax)
8000a9f8:	b4 85                	mov    $0x85,%ah
8000a9fa:	00 80 b4 85 00 80    	add    %al,0x800085b4(%eax)
8000aa00:	b4 85                	mov    $0x85,%ah
8000aa02:	00 80 36 89 00 80    	add    %al,0x80008936(%eax)
8000aa08:	b4 85                	mov    $0x85,%ah
8000aa0a:	00 80 b4 85 00 80    	add    %al,0x800085b4(%eax)
8000aa10:	b4 85                	mov    $0x85,%ah
8000aa12:	00 80 b4 85 00 80    	add    %al,0x800085b4(%eax)
8000aa18:	b4 85                	mov    $0x85,%ah
8000aa1a:	00 80 b4 85 00 80    	add    %al,0x800085b4(%eax)
8000aa20:	6e                   	outsb  %ds:(%esi),(%dx)
8000aa21:	86 00                	xchg   %al,(%eax)
8000aa23:	80 b4 85 00 80 b4 85 	xorb   $0x0,0x85b48000(%ebp,%eax,4)
8000aa2a:	00 
8000aa2b:	80 b4 85 00 80 b4 85 	xorb   $0x0,0x85b48000(%ebp,%eax,4)
8000aa32:	00 
8000aa33:	80 b4 85 00 80 b4 85 	xorb   $0x0,0x85b48000(%ebp,%eax,4)
8000aa3a:	00 
8000aa3b:	80 b4 85 00 80 b4 85 	xorb   $0x0,0x85b48000(%ebp,%eax,4)
8000aa42:	00 
8000aa43:	80 b4 85 00 80 b4 85 	xorb   $0x0,0x85b48000(%ebp,%eax,4)
8000aa4a:	00 
8000aa4b:	80 b4 85 00 80 a1 8c 	xorb   $0x0,0x8ca18000(%ebp,%eax,4)
8000aa52:	00 
8000aa53:	80 b4 85 00 80 b4 85 	xorb   $0x0,0x85b48000(%ebp,%eax,4)
8000aa5a:	00 
8000aa5b:	80 b4 85 00 80 b4 85 	xorb   $0x0,0x85b48000(%ebp,%eax,4)
8000aa62:	00 
8000aa63:	80 b4 85 00 80 b4 85 	xorb   $0x0,0x85b48000(%ebp,%eax,4)
8000aa6a:	00 
8000aa6b:	80 b4 85 00 80 b4 85 	xorb   $0x0,0x85b48000(%ebp,%eax,4)
8000aa72:	00 
8000aa73:	80 b4 85 00 80 b4 85 	xorb   $0x0,0x85b48000(%ebp,%eax,4)
8000aa7a:	00 
8000aa7b:	80 d9 86             	sbb    $0x86,%cl
8000aa7e:	00 80 47 87 00 80    	add    %al,0x80008747(%eax)
8000aa84:	36 89 00             	mov    %eax,%ss:(%eax)
8000aa87:	80 36 89             	xorb   $0x89,(%esi)
8000aa8a:	00 80 36 89 00 80    	add    %al,0x80008936(%eax)
8000aa90:	a6                   	cmpsb  %es:(%edi),%ds:(%esi)
8000aa91:	8b 00                	mov    (%eax),%eax
8000aa93:	80 4f 87 00          	orb    $0x0,0xffffff87(%edi)
8000aa97:	80 b4 85 00 80 b4 85 	xorb   $0x0,0x85b48000(%ebp,%eax,4)
8000aa9e:	00 
8000aa9f:	80 af 8b 00 80 b4 85 	subb   $0x85,0xb480008b(%edi)
8000aaa6:	00 80 b8 8b 00 80    	add    %al,0x80008bb8(%eax)
8000aaac:	4b                   	dec    %ebx
8000aaad:	87 00                	xchg   %eax,(%eax)
8000aaaf:	80 a1 8c 00 80 6e 86 	andb   $0x86,0x6e80008c(%ecx)
8000aab6:	00 80 b4 85 00 80    	add    %al,0x800085b4(%eax)
8000aabc:	de 8b 00 80 b4 85    	fimul  0x85b48000(%ebx)
8000aac2:	00 80 4f 87 00 80    	add    %al,0x8000874f(%eax)
8000aac8:	b4 85                	mov    $0x85,%ah
8000aaca:	00 80 b4 85 00 80    	add    %al,0x800085b4(%eax)
8000aad0:	a1                   	.byte 0xa1
8000aad1:	8c 00                	movl   %es,(%eax)
8000aad3:	80                   	.byte 0x80
Disassembly of section .data:

8000aae0 <data>:
8000aae0:	00 00                	add    %al,(%eax)
	...

8000aae4 <g_bKernelInitDone>:
8000aae4:	00 00                	add    %al,(%eax)
	...

8000aae8 <ELF_MAGIC>:
8000aae8:	7f 45                	jg     8000ab2f <_ctype+0xf>
8000aaea:	4c                   	dec    %esp
8000aaeb:	46                   	inc    %esi

8000aaec <g_pszPath>:
8000aaec:	00 00                	add    %al,(%eax)
	...

8000aaf0 <g_pszKey>:
8000aaf0:	00 00                	add    %al,(%eax)
	...

8000aaf4 <bCreateThreadStack>:
8000aaf4:	00 00                	add    %al,(%eax)
	...

8000aaf8 <g_bTaskSwitchWaiting>:
8000aaf8:	00 00                	add    %al,(%eax)
	...

8000aafc <PICMask>:
8000aafc:	ff                   	(bad)  
8000aafd:	ff 00                	incl   (%eax)
	...

8000ab00 <nConsoleAttr>:
8000ab00:	07                   	pop    %es
	...

8000ab20 <_ctype>:
8000ab20:	08 08                	or     %cl,(%eax)
8000ab22:	08 08                	or     %cl,(%eax)
8000ab24:	08 08                	or     %cl,(%eax)
8000ab26:	08 08                	or     %cl,(%eax)
8000ab28:	08 28                	or     %ch,(%eax)
8000ab2a:	28 28                	sub    %ch,(%eax)
8000ab2c:	28 28                	sub    %ch,(%eax)
8000ab2e:	08 08                	or     %cl,(%eax)
8000ab30:	08 08                	or     %cl,(%eax)
8000ab32:	08 08                	or     %cl,(%eax)
8000ab34:	08 08                	or     %cl,(%eax)
8000ab36:	08 08                	or     %cl,(%eax)
8000ab38:	08 08                	or     %cl,(%eax)
8000ab3a:	08 08                	or     %cl,(%eax)
8000ab3c:	08 08                	or     %cl,(%eax)
8000ab3e:	08 08                	or     %cl,(%eax)
8000ab40:	a0 10 10 10 10       	mov    0x10101010,%al
8000ab45:	10 10                	adc    %dl,(%eax)
8000ab47:	10 10                	adc    %dl,(%eax)
8000ab49:	10 10                	adc    %dl,(%eax)
8000ab4b:	10 10                	adc    %dl,(%eax)
8000ab4d:	10 10                	adc    %dl,(%eax)
8000ab4f:	10 04 04             	adc    %al,(%esp,%eax,1)
8000ab52:	04 04                	add    $0x4,%al
8000ab54:	04 04                	add    $0x4,%al
8000ab56:	04 04                	add    $0x4,%al
8000ab58:	04 04                	add    $0x4,%al
8000ab5a:	10 10                	adc    %dl,(%eax)
8000ab5c:	10 10                	adc    %dl,(%eax)
8000ab5e:	10 10                	adc    %dl,(%eax)
8000ab60:	10 41 41             	adc    %al,0x41(%ecx)
8000ab63:	41                   	inc    %ecx
8000ab64:	41                   	inc    %ecx
8000ab65:	41                   	inc    %ecx
8000ab66:	41                   	inc    %ecx
8000ab67:	01 01                	add    %eax,(%ecx)
8000ab69:	01 01                	add    %eax,(%ecx)
8000ab6b:	01 01                	add    %eax,(%ecx)
8000ab6d:	01 01                	add    %eax,(%ecx)
8000ab6f:	01 01                	add    %eax,(%ecx)
8000ab71:	01 01                	add    %eax,(%ecx)
8000ab73:	01 01                	add    %eax,(%ecx)
8000ab75:	01 01                	add    %eax,(%ecx)
8000ab77:	01 01                	add    %eax,(%ecx)
8000ab79:	01 01                	add    %eax,(%ecx)
8000ab7b:	10 10                	adc    %dl,(%eax)
8000ab7d:	10 10                	adc    %dl,(%eax)
8000ab7f:	10 10                	adc    %dl,(%eax)
8000ab81:	42                   	inc    %edx
8000ab82:	42                   	inc    %edx
8000ab83:	42                   	inc    %edx
8000ab84:	42                   	inc    %edx
8000ab85:	42                   	inc    %edx
8000ab86:	42                   	inc    %edx
8000ab87:	02 02                	add    (%edx),%al
8000ab89:	02 02                	add    (%edx),%al
8000ab8b:	02 02                	add    (%edx),%al
8000ab8d:	02 02                	add    (%edx),%al
8000ab8f:	02 02                	add    (%edx),%al
8000ab91:	02 02                	add    (%edx),%al
8000ab93:	02 02                	add    (%edx),%al
8000ab95:	02 02                	add    (%edx),%al
8000ab97:	02 02                	add    (%edx),%al
8000ab99:	02 02                	add    (%edx),%al
8000ab9b:	10 10                	adc    %dl,(%eax)
8000ab9d:	10 10                	adc    %dl,(%eax)
8000ab9f:	08 00                	or     %al,(%eax)
	...
8000abbd:	00 00                	add    %al,(%eax)
8000abbf:	00 a0 10 10 10 10    	add    %ah,0x10101010(%eax)
8000abc5:	10 10                	adc    %dl,(%eax)
8000abc7:	10 10                	adc    %dl,(%eax)
8000abc9:	10 10                	adc    %dl,(%eax)
8000abcb:	10 10                	adc    %dl,(%eax)
8000abcd:	10 10                	adc    %dl,(%eax)
8000abcf:	10 10                	adc    %dl,(%eax)
8000abd1:	10 10                	adc    %dl,(%eax)
8000abd3:	10 10                	adc    %dl,(%eax)
8000abd5:	10 10                	adc    %dl,(%eax)
8000abd7:	10 10                	adc    %dl,(%eax)
8000abd9:	10 10                	adc    %dl,(%eax)
8000abdb:	10 10                	adc    %dl,(%eax)
8000abdd:	10 10                	adc    %dl,(%eax)
8000abdf:	10 01                	adc    %al,(%ecx)
8000abe1:	01 01                	add    %eax,(%ecx)
8000abe3:	01 01                	add    %eax,(%ecx)
8000abe5:	01 01                	add    %eax,(%ecx)
8000abe7:	01 01                	add    %eax,(%ecx)
8000abe9:	01 01                	add    %eax,(%ecx)
8000abeb:	01 01                	add    %eax,(%ecx)
8000abed:	01 01                	add    %eax,(%ecx)
8000abef:	01 01                	add    %eax,(%ecx)
8000abf1:	01 01                	add    %eax,(%ecx)
8000abf3:	01 01                	add    %eax,(%ecx)
8000abf5:	01 01                	add    %eax,(%ecx)
8000abf7:	10 01                	adc    %al,(%ecx)
8000abf9:	01 01                	add    %eax,(%ecx)
8000abfb:	01 01                	add    %eax,(%ecx)
8000abfd:	01 01                	add    %eax,(%ecx)
8000abff:	02 02                	add    (%edx),%al
8000ac01:	02 02                	add    (%edx),%al
8000ac03:	02 02                	add    (%edx),%al
8000ac05:	02 02                	add    (%edx),%al
8000ac07:	02 02                	add    (%edx),%al
8000ac09:	02 02                	add    (%edx),%al
8000ac0b:	02 02                	add    (%edx),%al
8000ac0d:	02 02                	add    (%edx),%al
8000ac0f:	02 02                	add    (%edx),%al
8000ac11:	02 02                	add    (%edx),%al
8000ac13:	02 02                	add    (%edx),%al
8000ac15:	02 02                	add    (%edx),%al
8000ac17:	10 02                	adc    %al,(%edx)
8000ac19:	02 02                	add    (%edx),%al
8000ac1b:	02 02                	add    (%edx),%al
8000ac1d:	02 02                	add    (%edx),%al
8000ac1f:	02                   	.byte 0x2
