
Kernel/x86-Kernel:     file format elf32-i386
Kernel/x86-Kernel
architecture: i386, flags 0x00000012:
EXEC_P, HAS_SYMS
start address 0x80000000

Program Header:
    LOAD off    0x00000060 vaddr 0x80000000 paddr 0x00100000 align 2**5
         filesz 0x0000a3e0 memsz 0x0000a5e0 flags rwx

Sections:
Idx Name          Size      VMA       LMA       File off  Algn
  0 .text         00008d00  80000000  00100000  00000060  2**4
                  CONTENTS, ALLOC, LOAD, CODE
  1 .rodata       00001594  80008d00  00108d00  00008d60  2**5
                  CONTENTS, ALLOC, LOAD, READONLY, DATA
  2 .data         00000140  8000a2a0  0010a2a0  0000a300  2**5
                  CONTENTS, ALLOC, LOAD, DATA
  3 .bss          00000200  8000a3e0  0010a3e0  0000a440  2**5
                  ALLOC
  4 .comment      0000017a  00000000  00000000  0000a440  2**0
                  CONTENTS, READONLY
SYMBOL TABLE:
80000000 l    d  .text	00000000 
80008d00 l    d  .rodata	00000000 
8000a2a0 l    d  .data	00000000 
8000a3e0 l    d  .bss	00000000 
00000000 l    d  .comment	00000000 
00000000 l    d  *ABS*	00000000 
00000000 l    d  *ABS*	00000000 
00000000 l    d  *ABS*	00000000 
8000086a l       .text	00000000 entry
80000008 l       .text	00000000 multiboot_header
80000044 l       .text	00000000 gdt_ptr
800008ca l       .text	00000000 multiboot
800008f5 l       .text	00000000 mapkernel
80000908 l       .text	00000000 mapkernel2
8000091b l       .text	00000000 mapstack
80000960 l       .text	00000000 mapkernelphysical
80000991 l       .text	00000000 Paging_Enabled
800009ad l       .text	00000000 reloadcs
800009e4 l       .text	00000000 halt2
800009e6 l       .text	00000000 DefaultIntHandlerMsg
80000a03 l       .text	00000000 DefaultExceptionMsg
80000a25 l       .text	00000000 ModuleName
00000000 l    df *ABS*	00000000 DeviceManager.c
00000000 l    df *ABS*	00000000 DMMFileIO.c
00000000 l    df *ABS*	00000000 FS.c
00000000 l    df *ABS*	00000000 Kernel.c
00000000 l    df *ABS*	00000000 InterruptManager.c
8000a3e0 l     O .bss	00000040 IRQ_Handler
00000000 l    df *ABS*	00000000 IOManager.c
00000000 l    df *ABS*	00000000 ObjectManager.c
80004060 l     F .text	00000056 Lock_Lock
800040c0 l     F .text	00000074 Lock_Unlock
00000000 l    df *ABS*	00000000 ProcessManager.c
8000a2b8 l     O .data	00000004 nTimer.0
00000000 l    df *ABS*	00000000 MemoryManager.c
800058d0 l     F .text	00000056 Lock_Lock
80005930 l     F .text	00000074 Lock_Unlock
00000000 l    df *ABS*	00000000 MessageManager.c
00000000 l    df *ABS*	00000000 ModuleManager.c
00000000 l    df *ABS*	00000000 TimerManager.c
00000000 l    df *ABS*	00000000 8259a.c
8000a2bc l     O .data	00000002 PICMask
00000000 l    df *ABS*	00000000 8254.c
00000000 l    df *ABS*	00000000 Console.c
00000000 l    df *ABS*	00000000 Descriptor.c
00000000 l    df *ABS*	00000000 Exception.c
00000000 l    df *ABS*	00000000 CType.c
00000000 l    df *ABS*	00000000 Printf.c
80008000 l     F .text	00000314 number
00000000 l    df *ABS*	00000000 Scanf.c
80008b40 l     F .text	0000001a sgetc
80008b60 l     F .text	00000023 sputc
00000000 l    df *ABS*	00000000 Strtol.c
00100000 g       *ABS*	00000000 phys
8000a420 g     O .bss	00000004 Kg_pszFilename
8000a2a8 g     O .data	00000004 Kg_bInterruptsActive
80001780 g     F .text	00000025 DeviceManager_AttachResourceCall
8000a2c0 g     O .data	00000001 n_ConsoleAttr
80001af0 g     F .text	0000018d FS_Mount
80005290 g     F .text	0000005e MemoryManager_Coalesce
80004960 g     F .text	000000bb ProcessManager_Handler
80000ca3 g       .text	00000000 EXC_STACKFAULT
80007690 g     F .text	000000c3 Console_WriteChar
80003360 g     F .text	0000001e IOManager_RecalculateDevice
800053e0 g     F .text	00000016 MemoryManager_Unlock
80000cd1 g       .text	00000000 EXC_GPF
80002ea0 g     F .text	0000003e InterruptManager_EnableIRQ
8000084c g       .text	00000000 idt_ptr
8000a5d0 g     O .bss	00000004 sMemoryLock
800012ed g       .text	00000000 IRQ_0F
80000cff g       .text	00000000 EXC_PAGEFAULT
80002480 g     F .text	000000b3 FS_Handler
800018c0 g     F .text	00000084 DMMFileIO_Mount
80000000 g       *ABS*	00000000 virt
800046c0 g     F .text	000000b8 ProcessManager_Preempt
80004e70 g     F .text	000001a1 MemoryManager_Page_Map
80007920 g     F .text	00000038 Exception_Debug
80007190 g     F .text	000002dd Console_Handler
80006ea0 g     F .text	000002ef KPrint
800079e0 g     F .text	00000038 Exception_StackFault
800045a0 g     F .text	00000053 ProcessManager_GetNextThread
80007fd0 g     F .text	0000002a snprintf
800035c0 g     F .text	0000000c ObjectManager_LockInit
8000a5d4 g     O .bss	00000004 nConsoleX
80003410 g     F .text	000000cb IOManager_MapCacheDirectPage
80000f7b g       .text	00000000 IRQ_06
80006b70 g     F .text	0000006a TimerManager_Handler
80003ee0 g     F .text	000000e2 ObjectManager_GetEntityString
80006570 g     F .text	0000008d ModuleManager_CreateModuleInt
80002ee0 g     F .text	00000040 InterruptManager_EnableIRQCall
80000aa6 g       .text	00000000 EXC_02
80001950 g     F .text	00000007 DMMFileIO_OpenCall
80007880 g     F .text	0000002e Descriptor_SetBase
800043f0 g     F .text	0000014f ProcessManager_CreateThread
80008b00 g     F .text	0000003d vsscanf
80007a20 g     F .text	000000a2 Exception_Page
80005790 g     F .text	00000073 MemoryManager_DumpAllocation
80000afc g       .text	00000000 EXC_04
80001ea0 g     F .text	000001c4 FS_Open
80005890 g     F .text	0000001d MemoryManager_KAlloc
80002230 g     F .text	000000c9 FS_Init
80003bb0 g     F .text	00000085 ObjectManager_CreateEntityWordCall
80007960 g     F .text	00000038 Exception_InvalidOpCode
800014d6 g       .text	00000000 ModuleManagerCreateModule
800034e0 g     F .text	000000e0 ObjectManager_CreateObject
800069a0 g     F .text	00000087 ModuleManager_CallInt
80000014 g       .text	00000000 gdt
80007600 g     F .text	00000040 Console_MoveCursor
80000d91 g       .text	00000000 IRQ_01
80007b10 g     F .text	000004b8 vsnprintf
800028d0 g     F .text	000000ab Kernel_LoadBootModules
80004900 g     F .text	00000059 ProcessManager_AwakenCall
80000c67 g       .text	00000000 EXC_0B
800077f0 g     F .text	0000002a Descriptor_SetInterruptGate
80008b90 g     F .text	000000ef strtoul
800048b0 g     F .text	00000049 ProcessManager_Awaken
80003990 g     F .text	00000078 ObjectManager_SearchNameInClass
80000b60 g       .text	00000000 EXC_INVALIDOPCODE
80000bc4 g       .text	00000000 EXC_DOUBLEFAULT
800055b0 g     F .text	00000081 MemoryManager_Page_Unmap
8000103f g       .text	00000000 IRQ_08
800015a0 g     F .text	000000ff DeviceManager_AttachResource
80000866 g       .text	00000000 MultibootAddress
80006060 g     F .text	000003df MessageManager_Handler
8000a424 g     O .bss	00000004 Kg_pszVolume
80004a20 g     F .text	0000044b MemoryManager_Init
8000a2b0 g     O .data	00000004 bCreateThreadStack
80005e30 g     F .text	000000f4 MessageManager_CreateMessage
80003a10 g     F .text	00000087 ObjectManager_SearchNameInClassTypeIndex
80007850 g     F .text	0000002a Descriptor_SetCallGate
80003ae0 g     F .text	00000042 ObjectManager_SearchInClassTypeIndex
800027c0 g     F .text	00000106 Kernel_ParseBootModules
80008c80 g     F .text	00000080 strtol
80000a42 g       .text	00000000 EXC_00
8000a428 g     O .bss	00000004 Kg_pszPath
80007ad0 g     F .text	00000038 Exception_GPF
8000128b g       .text	00000000 IRQ_0E
80007640 g     F .text	00000048 KClear
80005fd0 g     F .text	00000084 MessageManager_MessageProcessed
80005420 g     F .text	0000001c MemoryManager_Page_AddFree
800052f0 g     F .text	000000b6 MemoryManager_Free
8000a5c8 g     O .bss	00000004 Kg_nTaskESP
80003110 g     F .text	00000151 IOManager_Init
8000085e g       .text	00000000 ZeroPageTable
80002070 g     F .text	000001ba FS_LoadElf
80000eb7 g       .text	00000000 IRQ_04
80003aa0 g     F .text	0000003d ObjectManager_SearchInClass
80007550 g     F .text	000000aa Console_CreateModuleInterface
80004810 g     F .text	00000035 ProcessManager_RestoreContext
800058b0 g     F .text	0000001d MemoryManager_KFree
80007760 g     F .text	00000088 Console_DeleteChar
80002e70 g     F .text	00000026 InterruptManager_AttachHandlerCall
80008320 g     F .text	0000079d __v_scanf
80000bf2 g       .text	00000000 EXC_09
80001990 g     F .text	00000035 DMMFileIO_ReadCall
80000862 g       .text	00000000 PageTables
80007470 g     F .text	00000088 Console_Init
80003d00 g     F .text	0000001e ObjectManager_CreateEntityStringCall
80000ad1 g       .text	00000000 EXC_03
80006da0 g     F .text	000000e2 PIT_Init
800013b0 g       .text	00000000 ModuleManagerReleaseHandle
800035f0 g     F .text	00000016 ObjectManager_Unlock
80001960 g     F .text	0000002d DMMFileIO_Read
80000000 g       .text	00000000 _start
800029c0 g     F .text	000002ce InterruptManager_Init
80006ab0 g     F .text	000000bd TimerManager_AttachTimerHandler
80003df0 g     F .text	000000e2 ObjectManager_GetEntityStringLength
800038f0 g     F .text	00000097 ObjectManager_DeleteObject
80002630 g     F .text	00000181 Kernel_ParseParameters
80000b8b g       .text	00000000 EXC_07
80000c2b g       .text	00000000 EXC_0A
80000a2c g       .text	00000000 DefaultIntHandler
80003380 g     F .text	0000008e IOManager_Handler
8000a5d8 g     O .bss	00000004 nConsoleY
8000a5cc g     O .bss	00000002 Kg_nTaskSS
80006840 g     F .text	00000077 ModuleManager_ReleaseHandleInt
8000a3e0 g       .bss	00000000 bss
800066d0 g     F .text	000000dc ModuleManager_CreateModuleCallInt
80006a40 g     F .text	0000006d TimerManager_Init
80001165 g       .text	00000000 IRQ_0B
800011c7 g       .text	00000000 IRQ_0C
800056d0 g     F .text	000000bc MemoryManager_Page_Allocate
8000a2a0 g     O .data	00000004 K_ELF_MAGIC
80006e90 g     F .text	0000000f PIT_StopTimer
80005640 g     F .text	00000081 MemoryManager_Page_MapZeroFill
80008ac0 g     F .text	0000003d sscanf
80005440 g     F .text	000000ba MemoryManager_GetPTValue
800067b0 g     F .text	00000087 ModuleManager_GetHandleInt
8000a2e0 g     O .data	00000100 _ctype
800053c0 g     F .text	00000016 MemoryManager_Lock
80001c80 g     F .text	00000084 FS_CheckFilename
80000df3 g       .text	00000000 IRQ_02
800038d0 g     F .text	00000017 ObjectManager_GetStart
8000a2a0 g       .data	00000000 data
80003610 g     F .text	000002bd ObjectManager_Init
80001411 g       .text	00000000 ModuleManagerGetCallID
800010a1 g       .text	00000000 IRQ_09
80006d00 g     F .text	0000003b PIC_DisableIRQ
80003d20 g     F .text	000000d0 ObjectManager_GetEntityWord
800068c0 g     F .text	000000d7 ModuleManager_GetCallIDInt
800051f0 g     F .text	00000098 MemoryManager_Alloc
80002c90 g     F .text	00000056 InterruptManager_CreateModuleInterface
800079a0 g     F .text	00000038 Exception_Double
80001720 g     F .text	00000057 DeviceManager_RegisterDevice
80004540 g     F .text	0000005f ProcessManager_UpdateThreads
8000004c g       .text	00000000 idt
80001ad0 g     F .text	00000013 DMMBlockIO_Worker
80002f20 g     F .text	0000007b InterruptManager_Handler
800016a0 g     F .text	00000072 DeviceManager_Init
800017b0 g     F .text	00000096 DeviceManager_Handler
80003270 g     F .text	0000006d IOManager_RegisterIODevice
80000f19 g       .text	00000000 IRQ_05
80002980 g     F .text	00000032 Kernel_ExecuteBootModules
80005dd0 g     F .text	00000060 MessageManager_MessageQueueLength
80004780 g     F .text	00000081 ProcessManager_SaveContext
8000a5c4 g     O .bss	00000004 sObjectLock
80006cc0 g     F .text	0000003b PIC_EnableIRQ
80001473 g       .text	00000000 ModuleManagerCall
8000a2ac g     O .data	00000004 Kg_bInISR
80000e55 g       .text	00000000 IRQ_03
8000085a g       .text	00000000 CorePageTable
80005f30 g     F .text	00000092 MessageManager_GetMessage
80003fd0 g     F .text	00000087 ObjectManager_Handler
800053b0 g     F .text	0000000d MemoryManager_LockInit
80002360 g     F .text	00000067 FS_RegisterFilesystemCall
80002cf0 g     F .text	000000b8 InterruptManager_Handle
80002540 g     F .text	000000e3 Kernel_Main
80001850 g     F .text	00000063 DMMFileIO_Init
80002fa0 g     F .text	000000ac IOManager_Read
80002db0 g     F .text	000000be InterruptManager_AttachHandler
80006a30 g     F .text	00000009 ModuleManager_Load
80000b27 g       .text	00000000 EXC_05
80004870 g     F .text	0000003d ProcessManager_Sleep
80007500 g     F .text	0000004d Console_Remap
80004600 g     F .text	000000bf ProcessManager_NextThread
8000a5e0 g       *ABS*	00000000 _end
80000852 g       .text	00000000 KernelSize
800009e3 g       .text	00000000 halt
80002300 g     F .text	0000005f FS_RegisterFilesystem
80000000 g       .text	00000000 code
80005810 g     F .text	00000073 MemoryManager_DumpFreeMap
80005400 g     F .text	0000001f MemoryManager_CreateModuleInterface
80001d10 g     F .text	00000181 FS_Parse
80008d00 g       .rodata	00000000 rodata
800032e0 g     F .text	00000075 IOManager_RegisterIODeviceCall
80005cc0 g     F .text	00000105 MessageManager_SetMessageDestination
80007820 g     F .text	0000002a Descriptor_SetTaskGate
80007900 g     F .text	00000019 Descriptor_SetAccess
800064f0 g     F .text	0000007c ModuleManager_CreateModule
80003c40 g     F .text	000000b6 ObjectManager_CreateEntityString
80003050 g     F .text	000000c0 IOManager_ReadFromBlock
80006be0 g     F .text	000000de PIC_Init
80000fdd g       .text	00000000 IRQ_07
80001103 g       .text	00000000 IRQ_0A
80000856 g       .text	00000000 PageDirectory
80002400 g     F .text	00000079 FS_Read
80005ac0 g     F .text	000000fc MessageManager_Init
800035d0 g     F .text	00000016 ObjectManager_Lock
800023d0 g     F .text	0000002c FS_MountCall
80004380 g     F .text	00000066 ProcessManager_CreateProcess
800019d0 g     F .text	000000a4 DMMBlockIO_Handler
8000a2b4 g     O .data	00000004 Kg_bTaskSwitchWaiting
8000134f g       .text	00000000 ModuleManagerGetHandle
8000a440 g     O .bss	00000184 Kg_sKernel
80001538 g       .text	00000000 ModuleManagerCreateModuleCall
8000a2a4 g     O .data	00000004 Kg_nLocksHeld
80004140 g     F .text	0000023e ProcessManager_Init
80003b30 g     F .text	0000007d ObjectManager_CreateEntityWord
800078b0 g     F .text	00000041 Descriptor_SetLimit
8000a5dc g     O .bss	00000004 Kg_pConsoleVideo
800059b0 g     F .text	00000104 MessageManager_SendMessage
80006d40 g     F .text	00000051 PIC_MaskAndAcknowledge
80001229 g       .text	00000000 IRQ_0D
80000d2f g       .text	00000000 IRQ_00
80005500 g     F .text	000000a4 MemoryManager_GetPTAddress
80005bc0 g     F .text	000000f1 MessageManager_CreateMessagePort
80005020 g     F .text	000001cc MemoryManager_AllocInit
80001a80 g     F .text	00000048 DMMFileIO_Handler
80006600 g     F .text	000000cc ModuleManager_CreateModuleCall
80006440 g     F .text	000000a6 ModuleManager_Init
80000a7b g       .text	00000000 EXC_01
80004850 g     F .text	00000020 ProcessManager_CreateThreadCall


Disassembly of section .text:

80000000 <_start>:
80000000:	e9 65 08 00 00       	jmp    8000086a <entry>
80000005:	8d 76 00             	lea    0x0(%esi),%esi

80000008 <multiboot_header>:
80000008:	02 b0 ad 1b 03 00    	add    0x31bad(%eax),%dh
8000000e:	00 00                	add    %al,(%eax)
80000010:	fb                   	sti    
80000011:	4f                   	dec    %edi
80000012:	52                   	push   %edx
80000013:	e4 00                	in     $0x0,%al

80000014 <gdt>:
	...
8000001c:	ff                   	(bad)  
8000001d:	ff 00                	incl   (%eax)
8000001f:	00 00                	add    %al,(%eax)
80000021:	9a cf 00 ff ff 00 00 	lcall  $0x0,$0xffff00cf
80000028:	00 92 cf 00 00 00    	add    %dl,0xcf(%edx)
	...

80000044 <gdt_ptr>:
80000044:	30 00                	xor    %al,(%eax)
80000046:	14 00                	adc    $0x0,%al
80000048:	10 00                	adc    %al,(%eax)
8000004a:	89 f6                	mov    %esi,%esi

8000004c <idt>:
	...

8000084c <idt_ptr>:
8000084c:	00 08                	add    %cl,(%eax)
8000084e:	4c                   	dec    %esp
8000084f:	00 10                	add    %dl,(%eax)
	...

80000852 <KernelSize>:
80000852:	00 00                	add    %al,(%eax)
	...

80000856 <PageDirectory>:
80000856:	00 00                	add    %al,(%eax)
	...

8000085a <CorePageTable>:
8000085a:	00 00                	add    %al,(%eax)
	...

8000085e <ZeroPageTable>:
8000085e:	00 00                	add    %al,(%eax)
	...

80000862 <PageTables>:
80000862:	00 00                	add    %al,(%eax)
	...

80000866 <MultibootAddress>:
80000866:	00 00                	add    %al,(%eax)
	...

8000086a <entry>:
8000086a:	bf e0 a5 00 80       	mov    $0x8000a5e0,%edi
8000086f:	81 ef 00 00 00 80    	sub    $0x80000000,%edi
80000875:	81 c7 ff 0f 00 00    	add    $0xfff,%edi
8000087b:	c1 ef 0c             	shr    $0xc,%edi
8000087e:	89 3d 52 08 10 00    	mov    %edi,0x100852
80000884:	bf 00 00 20 00       	mov    $0x200000,%edi
80000889:	89 3d 56 08 10 00    	mov    %edi,0x100856
8000088f:	81 c7 00 10 00 00    	add    $0x1000,%edi
80000895:	89 3d 62 08 10 00    	mov    %edi,0x100862
8000089b:	81 c7 00 10 00 00    	add    $0x1000,%edi
800008a1:	89 3d 5a 08 10 00    	mov    %edi,0x10085a
800008a7:	81 c7 00 10 00 00    	add    $0x1000,%edi
800008ad:	89 3d 5e 08 10 00    	mov    %edi,0x10085e
800008b3:	81 c7 00 40 00 00    	add    $0x4000,%edi
800008b9:	89 fc                	mov    %edi,%esp
800008bb:	6a 02                	push   $0x2
800008bd:	9d                   	popf   
800008be:	3d 02 b0 ad 2b       	cmp    $0x2badb002,%eax
800008c3:	74 05                	je     800008ca <multiboot>
800008c5:	e9 19 01 00 00       	jmp    800009e3 <halt>

800008ca <multiboot>:
800008ca:	89 1d 66 08 10 00    	mov    %ebx,0x100866
800008d0:	8b 3d 56 08 10 00    	mov    0x100856,%edi
800008d6:	b9 00 40 00 00       	mov    $0x4000,%ecx
800008db:	b8 00 00 00 00       	mov    $0x0,%eax
800008e0:	fc                   	cld    
800008e1:	f3 ab                	repz stos %eax,%es:(%edi)
800008e3:	8b 3d 5a 08 10 00    	mov    0x10085a,%edi
800008e9:	8b 0d 52 08 10 00    	mov    0x100852,%ecx
800008ef:	b8 03 00 10 00       	mov    $0x100003,%eax
800008f4:	fc                   	cld    

800008f5 <mapkernel>:
800008f5:	ab                   	stos   %eax,%es:(%edi)
800008f6:	05 00 10 00 00       	add    $0x1000,%eax
800008fb:	e2 f8                	loop   800008f5 <mapkernel>
800008fd:	b9 02 00 00 00       	mov    $0x2,%ecx
80000902:	b8 03 00 20 00       	mov    $0x200003,%eax
80000907:	fc                   	cld    

80000908 <mapkernel2>:
80000908:	ab                   	stos   %eax,%es:(%edi)
80000909:	05 00 10 00 00       	add    $0x1000,%eax
8000090e:	e2 f8                	loop   80000908 <mapkernel2>
80000910:	b9 04 00 00 00       	mov    $0x4,%ecx
80000915:	b8 03 40 20 00       	mov    $0x204003,%eax
8000091a:	fc                   	cld    

8000091b <mapstack>:
8000091b:	ab                   	stos   %eax,%es:(%edi)
8000091c:	05 00 10 00 00       	add    $0x1000,%eax
80000921:	e2 f8                	loop   8000091b <mapstack>
80000923:	a1 5a 08 10 00       	mov    0x10085a,%eax
80000928:	83 c8 03             	or     $0x3,%eax
8000092b:	8b 3d 56 08 10 00    	mov    0x100856,%edi
80000931:	81 c7 00 08 00 00    	add    $0x800,%edi
80000937:	89 07                	mov    %eax,(%edi)
80000939:	a1 62 08 10 00       	mov    0x100862,%eax
8000093e:	83 c8 03             	or     $0x3,%eax
80000941:	8b 3d 56 08 10 00    	mov    0x100856,%edi
80000947:	81 c7 fc 08 00 00    	add    $0x8fc,%edi
8000094d:	89 07                	mov    %eax,(%edi)
8000094f:	8b 3d 5e 08 10 00    	mov    0x10085e,%edi
80000955:	b9 00 04 00 00       	mov    $0x400,%ecx
8000095a:	b8 03 00 00 00       	mov    $0x3,%eax
8000095f:	fc                   	cld    

80000960 <mapkernelphysical>:
80000960:	ab                   	stos   %eax,%es:(%edi)
80000961:	05 00 10 00 00       	add    $0x1000,%eax
80000966:	e2 f8                	loop   80000960 <mapkernelphysical>
80000968:	a1 5e 08 10 00       	mov    0x10085e,%eax
8000096d:	83 c8 03             	or     $0x3,%eax
80000970:	8b 3d 56 08 10 00    	mov    0x100856,%edi
80000976:	89 07                	mov    %eax,(%edi)
80000978:	a1 56 08 10 00       	mov    0x100856,%eax
8000097d:	0f 22 d8             	mov    %eax,%cr3
80000980:	0f 20 c0             	mov    %cr0,%eax
80000983:	0d 00 00 00 80       	or     $0x80000000,%eax
80000988:	0f 22 c0             	mov    %eax,%cr0
8000098b:	68 91 09 00 80       	push   $0x80000991
80000990:	c3                   	ret    

80000991 <Paging_Enabled>:
80000991:	0f 01 15 44 00 00 80 	lgdtl  0x80000044
80000998:	66 b8 10 00          	mov    $0x10,%ax
8000099c:	8e d8                	mov    %eax,%ds
8000099e:	8e c0                	mov    %eax,%es
800009a0:	8e e0                	mov    %eax,%fs
800009a2:	8e e8                	mov    %eax,%gs
800009a4:	8e d0                	mov    %eax,%ss
800009a6:	ea ad 09 00 80 08 00 	ljmp   $0x8,$0x800009ad

800009ad <reloadcs>:
800009ad:	a1 52 08 00 80       	mov    0x80000852,%eax
800009b2:	c1 e0 0c             	shl    $0xc,%eax
800009b5:	05 00 e0 df 7f       	add    $0x7fdfe000,%eax
800009ba:	01 c4                	add    %eax,%esp
800009bc:	a1 52 08 00 80       	mov    0x80000852,%eax
800009c1:	c1 e0 0c             	shl    $0xc,%eax
800009c4:	05 00 00 00 80       	add    $0x80000000,%eax
800009c9:	a3 56 08 00 80       	mov    %eax,0x80000856
800009ce:	05 00 10 00 00       	add    $0x1000,%eax
800009d3:	a3 62 08 00 80       	mov    %eax,0x80000862
800009d8:	a1 66 08 00 80       	mov    0x80000866,%eax
800009dd:	50                   	push   %eax
800009de:	e8 5d 1b 00 00       	call   80002540 <Kernel_Main>

800009e3 <halt>:
800009e3:	fa                   	cli    

800009e4 <halt2>:
800009e4:	eb fe                	jmp    800009e4 <halt2>

800009e6 <DefaultIntHandlerMsg>:
800009e6:	55                   	push   %ebp
800009e7:	6e                   	outsb  %ds:(%esi),(%dx)
800009e8:	6b 6e 6f 77          	imul   $0x77,0x6f(%esi),%ebp
800009ec:	6e                   	outsb  %ds:(%esi),(%dx)
800009ed:	20 69 6e             	and    %ch,0x6e(%ecx)
800009f0:	74 65                	je     80000a57 <EXC_00+0x15>
800009f2:	72 72                	jb     80000a66 <EXC_00+0x24>
800009f4:	75 70                	jne    80000a66 <EXC_00+0x24>
800009f6:	74 20                	je     80000a18 <DefaultExceptionMsg+0x15>
800009f8:	2d 20 48 61 6c       	sub    $0x6c614820,%eax
800009fd:	74 69                	je     80000a68 <EXC_00+0x26>
800009ff:	6e                   	outsb  %ds:(%esi),(%dx)
80000a00:	67 0a 00             	addr16 or (%bx,%si),%al

80000a03 <DefaultExceptionMsg>:
80000a03:	55                   	push   %ebp
80000a04:	6e                   	outsb  %ds:(%esi),(%dx)
80000a05:	68 61 6e 64 6c       	push   $0x6c646e61
80000a0a:	65 64 20 45 78       	and    %al,%fs:%gs:0x78(%ebp)
80000a0f:	63 65 70             	arpl   %sp,0x70(%ebp)
80000a12:	74 69                	je     80000a7d <EXC_01+0x2>
80000a14:	6f                   	outsl  %ds:(%esi),(%dx)
80000a15:	6e                   	outsb  %ds:(%esi),(%dx)
80000a16:	20 25 64 20 2d 20    	and    %ah,0x202d2064
80000a1c:	48                   	dec    %eax
80000a1d:	61                   	popa   
80000a1e:	6c                   	insb   (%dx),%es:(%edi)
80000a1f:	74 69                	je     80000a8a <EXC_01+0xf>
80000a21:	6e                   	outsb  %ds:(%esi),(%dx)
80000a22:	67 0a 00             	addr16 or (%bx,%si),%al

80000a25 <ModuleName>:
80000a25:	42                   	inc    %edx
80000a26:	4f                   	dec    %edi
80000a27:	4f                   	dec    %edi
80000a28:	54                   	push   %esp
80000a29:	2e                   	cs
80000a2a:	53                   	push   %ebx
	...

80000a2c <DefaultIntHandler>:
80000a2c:	68 e6 09 00 80       	push   $0x800009e6
80000a31:	68 25 0a 00 80       	push   $0x80000a25
80000a36:	6a 02                	push   $0x2
80000a38:	e8 63 64 00 00       	call   80006ea0 <KPrint>
80000a3d:	e9 a1 ff ff ff       	jmp    800009e3 <halt>

80000a42 <EXC_00>:
80000a42:	fc                   	cld    
80000a43:	1e                   	push   %ds
80000a44:	06                   	push   %es
80000a45:	0f a0                	push   %fs
80000a47:	0f a8                	push   %gs
80000a49:	50                   	push   %eax
80000a4a:	53                   	push   %ebx
80000a4b:	51                   	push   %ecx
80000a4c:	52                   	push   %edx
80000a4d:	55                   	push   %ebp
80000a4e:	56                   	push   %esi
80000a4f:	57                   	push   %edi
80000a50:	66 ba 10 00          	mov    $0x10,%dx
80000a54:	8e da                	mov    %edx,%ds
80000a56:	8e c2                	mov    %edx,%es
80000a58:	6a 00                	push   $0x0
80000a5a:	68 03 0a 00 80       	push   $0x80000a03
80000a5f:	68 25 0a 00 80       	push   $0x80000a25
80000a64:	6a 02                	push   $0x2
80000a66:	e8 35 64 00 00       	call   80006ea0 <KPrint>
80000a6b:	fa                   	cli    
80000a6c:	f4                   	hlt    
80000a6d:	5f                   	pop    %edi
80000a6e:	5e                   	pop    %esi
80000a6f:	5d                   	pop    %ebp
80000a70:	5a                   	pop    %edx
80000a71:	59                   	pop    %ecx
80000a72:	5b                   	pop    %ebx
80000a73:	58                   	pop    %eax
80000a74:	0f a9                	pop    %gs
80000a76:	0f a1                	pop    %fs
80000a78:	07                   	pop    %es
80000a79:	1f                   	pop    %ds
80000a7a:	cf                   	iret   

80000a7b <EXC_01>:
80000a7b:	fc                   	cld    
80000a7c:	1e                   	push   %ds
80000a7d:	06                   	push   %es
80000a7e:	0f a0                	push   %fs
80000a80:	0f a8                	push   %gs
80000a82:	50                   	push   %eax
80000a83:	53                   	push   %ebx
80000a84:	51                   	push   %ecx
80000a85:	52                   	push   %edx
80000a86:	55                   	push   %ebp
80000a87:	56                   	push   %esi
80000a88:	57                   	push   %edi
80000a89:	66 ba 10 00          	mov    $0x10,%dx
80000a8d:	8e da                	mov    %edx,%ds
80000a8f:	8e c2                	mov    %edx,%es
80000a91:	e8 8a 6e 00 00       	call   80007920 <Exception_Debug>
80000a96:	fa                   	cli    
80000a97:	f4                   	hlt    
80000a98:	5f                   	pop    %edi
80000a99:	5e                   	pop    %esi
80000a9a:	5d                   	pop    %ebp
80000a9b:	5a                   	pop    %edx
80000a9c:	59                   	pop    %ecx
80000a9d:	5b                   	pop    %ebx
80000a9e:	58                   	pop    %eax
80000a9f:	0f a9                	pop    %gs
80000aa1:	0f a1                	pop    %fs
80000aa3:	07                   	pop    %es
80000aa4:	1f                   	pop    %ds
80000aa5:	cf                   	iret   

80000aa6 <EXC_02>:
80000aa6:	fc                   	cld    
80000aa7:	1e                   	push   %ds
80000aa8:	06                   	push   %es
80000aa9:	0f a0                	push   %fs
80000aab:	0f a8                	push   %gs
80000aad:	50                   	push   %eax
80000aae:	53                   	push   %ebx
80000aaf:	51                   	push   %ecx
80000ab0:	52                   	push   %edx
80000ab1:	55                   	push   %ebp
80000ab2:	56                   	push   %esi
80000ab3:	57                   	push   %edi
80000ab4:	66 ba 10 00          	mov    $0x10,%dx
80000ab8:	8e da                	mov    %edx,%ds
80000aba:	8e c2                	mov    %edx,%es
80000abc:	6a 02                	push   $0x2
80000abe:	68 03 0a 00 80       	push   $0x80000a03
80000ac3:	68 25 0a 00 80       	push   $0x80000a25
80000ac8:	6a 02                	push   $0x2
80000aca:	e8 d1 63 00 00       	call   80006ea0 <KPrint>
80000acf:	fa                   	cli    
80000ad0:	f4                   	hlt    

80000ad1 <EXC_03>:
80000ad1:	fc                   	cld    
80000ad2:	1e                   	push   %ds
80000ad3:	06                   	push   %es
80000ad4:	0f a0                	push   %fs
80000ad6:	0f a8                	push   %gs
80000ad8:	50                   	push   %eax
80000ad9:	53                   	push   %ebx
80000ada:	51                   	push   %ecx
80000adb:	52                   	push   %edx
80000adc:	55                   	push   %ebp
80000add:	56                   	push   %esi
80000ade:	57                   	push   %edi
80000adf:	66 ba 10 00          	mov    $0x10,%dx
80000ae3:	8e da                	mov    %edx,%ds
80000ae5:	8e c2                	mov    %edx,%es
80000ae7:	6a 03                	push   $0x3
80000ae9:	68 03 0a 00 80       	push   $0x80000a03
80000aee:	68 25 0a 00 80       	push   $0x80000a25
80000af3:	6a 02                	push   $0x2
80000af5:	e8 a6 63 00 00       	call   80006ea0 <KPrint>
80000afa:	fa                   	cli    
80000afb:	f4                   	hlt    

80000afc <EXC_04>:
80000afc:	fc                   	cld    
80000afd:	1e                   	push   %ds
80000afe:	06                   	push   %es
80000aff:	0f a0                	push   %fs
80000b01:	0f a8                	push   %gs
80000b03:	50                   	push   %eax
80000b04:	53                   	push   %ebx
80000b05:	51                   	push   %ecx
80000b06:	52                   	push   %edx
80000b07:	55                   	push   %ebp
80000b08:	56                   	push   %esi
80000b09:	57                   	push   %edi
80000b0a:	66 ba 10 00          	mov    $0x10,%dx
80000b0e:	8e da                	mov    %edx,%ds
80000b10:	8e c2                	mov    %edx,%es
80000b12:	6a 04                	push   $0x4
80000b14:	68 03 0a 00 80       	push   $0x80000a03
80000b19:	68 25 0a 00 80       	push   $0x80000a25
80000b1e:	6a 02                	push   $0x2
80000b20:	e8 7b 63 00 00       	call   80006ea0 <KPrint>
80000b25:	fa                   	cli    
80000b26:	f4                   	hlt    

80000b27 <EXC_05>:
80000b27:	fc                   	cld    
80000b28:	1e                   	push   %ds
80000b29:	06                   	push   %es
80000b2a:	0f a0                	push   %fs
80000b2c:	0f a8                	push   %gs
80000b2e:	50                   	push   %eax
80000b2f:	53                   	push   %ebx
80000b30:	51                   	push   %ecx
80000b31:	52                   	push   %edx
80000b32:	55                   	push   %ebp
80000b33:	56                   	push   %esi
80000b34:	57                   	push   %edi
80000b35:	66 ba 10 00          	mov    $0x10,%dx
80000b39:	8e da                	mov    %edx,%ds
80000b3b:	8e c2                	mov    %edx,%es
80000b3d:	6a 05                	push   $0x5
80000b3f:	68 03 0a 00 80       	push   $0x80000a03
80000b44:	68 25 0a 00 80       	push   $0x80000a25
80000b49:	6a 02                	push   $0x2
80000b4b:	e8 50 63 00 00       	call   80006ea0 <KPrint>
80000b50:	fa                   	cli    
80000b51:	f4                   	hlt    
80000b52:	5f                   	pop    %edi
80000b53:	5e                   	pop    %esi
80000b54:	5d                   	pop    %ebp
80000b55:	5a                   	pop    %edx
80000b56:	59                   	pop    %ecx
80000b57:	5b                   	pop    %ebx
80000b58:	58                   	pop    %eax
80000b59:	0f a9                	pop    %gs
80000b5b:	0f a1                	pop    %fs
80000b5d:	07                   	pop    %es
80000b5e:	1f                   	pop    %ds
80000b5f:	cf                   	iret   

80000b60 <EXC_INVALIDOPCODE>:
80000b60:	fc                   	cld    
80000b61:	1e                   	push   %ds
80000b62:	06                   	push   %es
80000b63:	0f a0                	push   %fs
80000b65:	0f a8                	push   %gs
80000b67:	50                   	push   %eax
80000b68:	53                   	push   %ebx
80000b69:	51                   	push   %ecx
80000b6a:	52                   	push   %edx
80000b6b:	55                   	push   %ebp
80000b6c:	56                   	push   %esi
80000b6d:	57                   	push   %edi
80000b6e:	66 ba 10 00          	mov    $0x10,%dx
80000b72:	8e da                	mov    %edx,%ds
80000b74:	8e c2                	mov    %edx,%es
80000b76:	e8 e5 6d 00 00       	call   80007960 <Exception_InvalidOpCode>
80000b7b:	fa                   	cli    
80000b7c:	f4                   	hlt    
80000b7d:	5f                   	pop    %edi
80000b7e:	5e                   	pop    %esi
80000b7f:	5d                   	pop    %ebp
80000b80:	5a                   	pop    %edx
80000b81:	59                   	pop    %ecx
80000b82:	5b                   	pop    %ebx
80000b83:	58                   	pop    %eax
80000b84:	0f a9                	pop    %gs
80000b86:	0f a1                	pop    %fs
80000b88:	07                   	pop    %es
80000b89:	1f                   	pop    %ds
80000b8a:	cf                   	iret   

80000b8b <EXC_07>:
80000b8b:	fc                   	cld    
80000b8c:	1e                   	push   %ds
80000b8d:	06                   	push   %es
80000b8e:	0f a0                	push   %fs
80000b90:	0f a8                	push   %gs
80000b92:	50                   	push   %eax
80000b93:	53                   	push   %ebx
80000b94:	51                   	push   %ecx
80000b95:	52                   	push   %edx
80000b96:	55                   	push   %ebp
80000b97:	56                   	push   %esi
80000b98:	57                   	push   %edi
80000b99:	66 ba 10 00          	mov    $0x10,%dx
80000b9d:	8e da                	mov    %edx,%ds
80000b9f:	8e c2                	mov    %edx,%es
80000ba1:	6a 07                	push   $0x7
80000ba3:	68 03 0a 00 80       	push   $0x80000a03
80000ba8:	68 25 0a 00 80       	push   $0x80000a25
80000bad:	6a 02                	push   $0x2
80000baf:	e8 ec 62 00 00       	call   80006ea0 <KPrint>
80000bb4:	fa                   	cli    
80000bb5:	f4                   	hlt    
80000bb6:	5f                   	pop    %edi
80000bb7:	5e                   	pop    %esi
80000bb8:	5d                   	pop    %ebp
80000bb9:	5a                   	pop    %edx
80000bba:	59                   	pop    %ecx
80000bbb:	5b                   	pop    %ebx
80000bbc:	58                   	pop    %eax
80000bbd:	0f a9                	pop    %gs
80000bbf:	0f a1                	pop    %fs
80000bc1:	07                   	pop    %es
80000bc2:	1f                   	pop    %ds
80000bc3:	cf                   	iret   

80000bc4 <EXC_DOUBLEFAULT>:
80000bc4:	fc                   	cld    
80000bc5:	1e                   	push   %ds
80000bc6:	06                   	push   %es
80000bc7:	0f a0                	push   %fs
80000bc9:	0f a8                	push   %gs
80000bcb:	50                   	push   %eax
80000bcc:	53                   	push   %ebx
80000bcd:	51                   	push   %ecx
80000bce:	52                   	push   %edx
80000bcf:	55                   	push   %ebp
80000bd0:	56                   	push   %esi
80000bd1:	57                   	push   %edi
80000bd2:	66 ba 10 00          	mov    $0x10,%dx
80000bd6:	8e da                	mov    %edx,%ds
80000bd8:	8e c2                	mov    %edx,%es
80000bda:	e8 c1 6d 00 00       	call   800079a0 <Exception_Double>
80000bdf:	fa                   	cli    
80000be0:	f4                   	hlt    
80000be1:	5f                   	pop    %edi
80000be2:	5e                   	pop    %esi
80000be3:	5d                   	pop    %ebp
80000be4:	5a                   	pop    %edx
80000be5:	59                   	pop    %ecx
80000be6:	5b                   	pop    %ebx
80000be7:	58                   	pop    %eax
80000be8:	0f a9                	pop    %gs
80000bea:	0f a1                	pop    %fs
80000bec:	07                   	pop    %es
80000bed:	1f                   	pop    %ds
80000bee:	83 c4 04             	add    $0x4,%esp
80000bf1:	cf                   	iret   

80000bf2 <EXC_09>:
80000bf2:	fc                   	cld    
80000bf3:	1e                   	push   %ds
80000bf4:	06                   	push   %es
80000bf5:	0f a0                	push   %fs
80000bf7:	0f a8                	push   %gs
80000bf9:	50                   	push   %eax
80000bfa:	53                   	push   %ebx
80000bfb:	51                   	push   %ecx
80000bfc:	52                   	push   %edx
80000bfd:	55                   	push   %ebp
80000bfe:	56                   	push   %esi
80000bff:	57                   	push   %edi
80000c00:	66 ba 10 00          	mov    $0x10,%dx
80000c04:	8e da                	mov    %edx,%ds
80000c06:	8e c2                	mov    %edx,%es
80000c08:	6a 09                	push   $0x9
80000c0a:	68 03 0a 00 80       	push   $0x80000a03
80000c0f:	68 25 0a 00 80       	push   $0x80000a25
80000c14:	6a 02                	push   $0x2
80000c16:	e8 85 62 00 00       	call   80006ea0 <KPrint>
80000c1b:	fa                   	cli    
80000c1c:	f4                   	hlt    
80000c1d:	5f                   	pop    %edi
80000c1e:	5e                   	pop    %esi
80000c1f:	5d                   	pop    %ebp
80000c20:	5a                   	pop    %edx
80000c21:	59                   	pop    %ecx
80000c22:	5b                   	pop    %ebx
80000c23:	58                   	pop    %eax
80000c24:	0f a9                	pop    %gs
80000c26:	0f a1                	pop    %fs
80000c28:	07                   	pop    %es
80000c29:	1f                   	pop    %ds
80000c2a:	cf                   	iret   

80000c2b <EXC_0A>:
80000c2b:	fc                   	cld    
80000c2c:	1e                   	push   %ds
80000c2d:	06                   	push   %es
80000c2e:	0f a0                	push   %fs
80000c30:	0f a8                	push   %gs
80000c32:	50                   	push   %eax
80000c33:	53                   	push   %ebx
80000c34:	51                   	push   %ecx
80000c35:	52                   	push   %edx
80000c36:	55                   	push   %ebp
80000c37:	56                   	push   %esi
80000c38:	57                   	push   %edi
80000c39:	66 ba 10 00          	mov    $0x10,%dx
80000c3d:	8e da                	mov    %edx,%ds
80000c3f:	8e c2                	mov    %edx,%es
80000c41:	6a 0a                	push   $0xa
80000c43:	68 03 0a 00 80       	push   $0x80000a03
80000c48:	68 25 0a 00 80       	push   $0x80000a25
80000c4d:	6a 02                	push   $0x2
80000c4f:	e8 4c 62 00 00       	call   80006ea0 <KPrint>
80000c54:	fa                   	cli    
80000c55:	f4                   	hlt    
80000c56:	5f                   	pop    %edi
80000c57:	5e                   	pop    %esi
80000c58:	5d                   	pop    %ebp
80000c59:	5a                   	pop    %edx
80000c5a:	59                   	pop    %ecx
80000c5b:	5b                   	pop    %ebx
80000c5c:	58                   	pop    %eax
80000c5d:	0f a9                	pop    %gs
80000c5f:	0f a1                	pop    %fs
80000c61:	07                   	pop    %es
80000c62:	1f                   	pop    %ds
80000c63:	83 c4 04             	add    $0x4,%esp
80000c66:	cf                   	iret   

80000c67 <EXC_0B>:
80000c67:	fc                   	cld    
80000c68:	1e                   	push   %ds
80000c69:	06                   	push   %es
80000c6a:	0f a0                	push   %fs
80000c6c:	0f a8                	push   %gs
80000c6e:	50                   	push   %eax
80000c6f:	53                   	push   %ebx
80000c70:	51                   	push   %ecx
80000c71:	52                   	push   %edx
80000c72:	55                   	push   %ebp
80000c73:	56                   	push   %esi
80000c74:	57                   	push   %edi
80000c75:	66 ba 10 00          	mov    $0x10,%dx
80000c79:	8e da                	mov    %edx,%ds
80000c7b:	8e c2                	mov    %edx,%es
80000c7d:	6a 0b                	push   $0xb
80000c7f:	68 03 0a 00 80       	push   $0x80000a03
80000c84:	68 25 0a 00 80       	push   $0x80000a25
80000c89:	6a 02                	push   $0x2
80000c8b:	e8 10 62 00 00       	call   80006ea0 <KPrint>
80000c90:	fa                   	cli    
80000c91:	f4                   	hlt    
80000c92:	5f                   	pop    %edi
80000c93:	5e                   	pop    %esi
80000c94:	5d                   	pop    %ebp
80000c95:	5a                   	pop    %edx
80000c96:	59                   	pop    %ecx
80000c97:	5b                   	pop    %ebx
80000c98:	58                   	pop    %eax
80000c99:	0f a9                	pop    %gs
80000c9b:	0f a1                	pop    %fs
80000c9d:	07                   	pop    %es
80000c9e:	1f                   	pop    %ds
80000c9f:	83 c4 04             	add    $0x4,%esp
80000ca2:	cf                   	iret   

80000ca3 <EXC_STACKFAULT>:
80000ca3:	fc                   	cld    
80000ca4:	1e                   	push   %ds
80000ca5:	06                   	push   %es
80000ca6:	0f a0                	push   %fs
80000ca8:	0f a8                	push   %gs
80000caa:	50                   	push   %eax
80000cab:	53                   	push   %ebx
80000cac:	51                   	push   %ecx
80000cad:	52                   	push   %edx
80000cae:	55                   	push   %ebp
80000caf:	56                   	push   %esi
80000cb0:	57                   	push   %edi
80000cb1:	66 ba 10 00          	mov    $0x10,%dx
80000cb5:	8e da                	mov    %edx,%ds
80000cb7:	8e c2                	mov    %edx,%es
80000cb9:	e8 22 6d 00 00       	call   800079e0 <Exception_StackFault>
80000cbe:	fa                   	cli    
80000cbf:	f4                   	hlt    
80000cc0:	5f                   	pop    %edi
80000cc1:	5e                   	pop    %esi
80000cc2:	5d                   	pop    %ebp
80000cc3:	5a                   	pop    %edx
80000cc4:	59                   	pop    %ecx
80000cc5:	5b                   	pop    %ebx
80000cc6:	58                   	pop    %eax
80000cc7:	0f a9                	pop    %gs
80000cc9:	0f a1                	pop    %fs
80000ccb:	07                   	pop    %es
80000ccc:	1f                   	pop    %ds
80000ccd:	83 c4 04             	add    $0x4,%esp
80000cd0:	cf                   	iret   

80000cd1 <EXC_GPF>:
80000cd1:	fc                   	cld    
80000cd2:	1e                   	push   %ds
80000cd3:	06                   	push   %es
80000cd4:	0f a0                	push   %fs
80000cd6:	0f a8                	push   %gs
80000cd8:	50                   	push   %eax
80000cd9:	53                   	push   %ebx
80000cda:	51                   	push   %ecx
80000cdb:	52                   	push   %edx
80000cdc:	55                   	push   %ebp
80000cdd:	56                   	push   %esi
80000cde:	57                   	push   %edi
80000cdf:	66 ba 10 00          	mov    $0x10,%dx
80000ce3:	8e da                	mov    %edx,%ds
80000ce5:	8e c2                	mov    %edx,%es
80000ce7:	e8 e4 6d 00 00       	call   80007ad0 <Exception_GPF>
80000cec:	fa                   	cli    
80000ced:	f4                   	hlt    
80000cee:	5f                   	pop    %edi
80000cef:	5e                   	pop    %esi
80000cf0:	5d                   	pop    %ebp
80000cf1:	5a                   	pop    %edx
80000cf2:	59                   	pop    %ecx
80000cf3:	5b                   	pop    %ebx
80000cf4:	58                   	pop    %eax
80000cf5:	0f a9                	pop    %gs
80000cf7:	0f a1                	pop    %fs
80000cf9:	07                   	pop    %es
80000cfa:	1f                   	pop    %ds
80000cfb:	83 c4 04             	add    $0x4,%esp
80000cfe:	cf                   	iret   

80000cff <EXC_PAGEFAULT>:
80000cff:	fc                   	cld    
80000d00:	1e                   	push   %ds
80000d01:	06                   	push   %es
80000d02:	0f a0                	push   %fs
80000d04:	0f a8                	push   %gs
80000d06:	50                   	push   %eax
80000d07:	53                   	push   %ebx
80000d08:	51                   	push   %ecx
80000d09:	52                   	push   %edx
80000d0a:	55                   	push   %ebp
80000d0b:	56                   	push   %esi
80000d0c:	57                   	push   %edi
80000d0d:	66 ba 10 00          	mov    $0x10,%dx
80000d11:	8e da                	mov    %edx,%ds
80000d13:	8e c2                	mov    %edx,%es
80000d15:	54                   	push   %esp
80000d16:	e8 05 6d 00 00       	call   80007a20 <Exception_Page>
80000d1b:	83 c4 04             	add    $0x4,%esp
80000d1e:	5f                   	pop    %edi
80000d1f:	5e                   	pop    %esi
80000d20:	5d                   	pop    %ebp
80000d21:	5a                   	pop    %edx
80000d22:	59                   	pop    %ecx
80000d23:	5b                   	pop    %ebx
80000d24:	58                   	pop    %eax
80000d25:	0f a9                	pop    %gs
80000d27:	0f a1                	pop    %fs
80000d29:	07                   	pop    %es
80000d2a:	1f                   	pop    %ds
80000d2b:	83 c4 04             	add    $0x4,%esp
80000d2e:	cf                   	iret   

80000d2f <IRQ_00>:
80000d2f:	c7 05 ac a2 00 80 01 	movl   $0x1,0x8000a2ac
80000d36:	00 00 00 
80000d39:	fc                   	cld    
80000d3a:	1e                   	push   %ds
80000d3b:	06                   	push   %es
80000d3c:	0f a0                	push   %fs
80000d3e:	0f a8                	push   %gs
80000d40:	50                   	push   %eax
80000d41:	53                   	push   %ebx
80000d42:	51                   	push   %ecx
80000d43:	52                   	push   %edx
80000d44:	55                   	push   %ebp
80000d45:	56                   	push   %esi
80000d46:	57                   	push   %edi
80000d47:	8c d2                	mov    %ss,%edx
80000d49:	66 89 15 cc a5 00 80 	mov    %dx,0x8000a5cc
80000d50:	89 25 c8 a5 00 80    	mov    %esp,0x8000a5c8
80000d56:	66 ba 10 00          	mov    $0x10,%dx
80000d5a:	8e da                	mov    %edx,%ds
80000d5c:	8e c2                	mov    %edx,%es
80000d5e:	6a 00                	push   $0x0
80000d60:	e8 1b 3a 00 00       	call   80004780 <ProcessManager_SaveContext>
80000d65:	e8 86 1f 00 00       	call   80002cf0 <InterruptManager_Handle>
80000d6a:	e8 a1 3a 00 00       	call   80004810 <ProcessManager_RestoreContext>
80000d6f:	83 c4 04             	add    $0x4,%esp
80000d72:	0f b2 25 c8 a5 00 80 	lss    0x8000a5c8,%esp
80000d79:	5f                   	pop    %edi
80000d7a:	5e                   	pop    %esi
80000d7b:	5d                   	pop    %ebp
80000d7c:	5a                   	pop    %edx
80000d7d:	59                   	pop    %ecx
80000d7e:	5b                   	pop    %ebx
80000d7f:	58                   	pop    %eax
80000d80:	0f a9                	pop    %gs
80000d82:	0f a1                	pop    %fs
80000d84:	07                   	pop    %es
80000d85:	1f                   	pop    %ds
80000d86:	c7 05 ac a2 00 80 00 	movl   $0x0,0x8000a2ac
80000d8d:	00 00 00 
80000d90:	cf                   	iret   

80000d91 <IRQ_01>:
80000d91:	c7 05 ac a2 00 80 01 	movl   $0x1,0x8000a2ac
80000d98:	00 00 00 
80000d9b:	fc                   	cld    
80000d9c:	1e                   	push   %ds
80000d9d:	06                   	push   %es
80000d9e:	0f a0                	push   %fs
80000da0:	0f a8                	push   %gs
80000da2:	50                   	push   %eax
80000da3:	53                   	push   %ebx
80000da4:	51                   	push   %ecx
80000da5:	52                   	push   %edx
80000da6:	55                   	push   %ebp
80000da7:	56                   	push   %esi
80000da8:	57                   	push   %edi
80000da9:	8c d2                	mov    %ss,%edx
80000dab:	66 89 15 cc a5 00 80 	mov    %dx,0x8000a5cc
80000db2:	89 25 c8 a5 00 80    	mov    %esp,0x8000a5c8
80000db8:	66 ba 10 00          	mov    $0x10,%dx
80000dbc:	8e da                	mov    %edx,%ds
80000dbe:	8e c2                	mov    %edx,%es
80000dc0:	6a 01                	push   $0x1
80000dc2:	e8 b9 39 00 00       	call   80004780 <ProcessManager_SaveContext>
80000dc7:	e8 24 1f 00 00       	call   80002cf0 <InterruptManager_Handle>
80000dcc:	e8 3f 3a 00 00       	call   80004810 <ProcessManager_RestoreContext>
80000dd1:	83 c4 04             	add    $0x4,%esp
80000dd4:	0f b2 25 c8 a5 00 80 	lss    0x8000a5c8,%esp
80000ddb:	5f                   	pop    %edi
80000ddc:	5e                   	pop    %esi
80000ddd:	5d                   	pop    %ebp
80000dde:	5a                   	pop    %edx
80000ddf:	59                   	pop    %ecx
80000de0:	5b                   	pop    %ebx
80000de1:	58                   	pop    %eax
80000de2:	0f a9                	pop    %gs
80000de4:	0f a1                	pop    %fs
80000de6:	07                   	pop    %es
80000de7:	1f                   	pop    %ds
80000de8:	c7 05 ac a2 00 80 00 	movl   $0x0,0x8000a2ac
80000def:	00 00 00 
80000df2:	cf                   	iret   

80000df3 <IRQ_02>:
80000df3:	c7 05 ac a2 00 80 01 	movl   $0x1,0x8000a2ac
80000dfa:	00 00 00 
80000dfd:	fc                   	cld    
80000dfe:	1e                   	push   %ds
80000dff:	06                   	push   %es
80000e00:	0f a0                	push   %fs
80000e02:	0f a8                	push   %gs
80000e04:	50                   	push   %eax
80000e05:	53                   	push   %ebx
80000e06:	51                   	push   %ecx
80000e07:	52                   	push   %edx
80000e08:	55                   	push   %ebp
80000e09:	56                   	push   %esi
80000e0a:	57                   	push   %edi
80000e0b:	8c d2                	mov    %ss,%edx
80000e0d:	66 89 15 cc a5 00 80 	mov    %dx,0x8000a5cc
80000e14:	89 25 c8 a5 00 80    	mov    %esp,0x8000a5c8
80000e1a:	66 ba 10 00          	mov    $0x10,%dx
80000e1e:	8e da                	mov    %edx,%ds
80000e20:	8e c2                	mov    %edx,%es
80000e22:	6a 02                	push   $0x2
80000e24:	e8 57 39 00 00       	call   80004780 <ProcessManager_SaveContext>
80000e29:	e8 c2 1e 00 00       	call   80002cf0 <InterruptManager_Handle>
80000e2e:	e8 dd 39 00 00       	call   80004810 <ProcessManager_RestoreContext>
80000e33:	83 c4 04             	add    $0x4,%esp
80000e36:	0f b2 25 c8 a5 00 80 	lss    0x8000a5c8,%esp
80000e3d:	5f                   	pop    %edi
80000e3e:	5e                   	pop    %esi
80000e3f:	5d                   	pop    %ebp
80000e40:	5a                   	pop    %edx
80000e41:	59                   	pop    %ecx
80000e42:	5b                   	pop    %ebx
80000e43:	58                   	pop    %eax
80000e44:	0f a9                	pop    %gs
80000e46:	0f a1                	pop    %fs
80000e48:	07                   	pop    %es
80000e49:	1f                   	pop    %ds
80000e4a:	c7 05 ac a2 00 80 00 	movl   $0x0,0x8000a2ac
80000e51:	00 00 00 
80000e54:	cf                   	iret   

80000e55 <IRQ_03>:
80000e55:	c7 05 ac a2 00 80 01 	movl   $0x1,0x8000a2ac
80000e5c:	00 00 00 
80000e5f:	fc                   	cld    
80000e60:	1e                   	push   %ds
80000e61:	06                   	push   %es
80000e62:	0f a0                	push   %fs
80000e64:	0f a8                	push   %gs
80000e66:	50                   	push   %eax
80000e67:	53                   	push   %ebx
80000e68:	51                   	push   %ecx
80000e69:	52                   	push   %edx
80000e6a:	55                   	push   %ebp
80000e6b:	56                   	push   %esi
80000e6c:	57                   	push   %edi
80000e6d:	8c d2                	mov    %ss,%edx
80000e6f:	66 89 15 cc a5 00 80 	mov    %dx,0x8000a5cc
80000e76:	89 25 c8 a5 00 80    	mov    %esp,0x8000a5c8
80000e7c:	66 ba 10 00          	mov    $0x10,%dx
80000e80:	8e da                	mov    %edx,%ds
80000e82:	8e c2                	mov    %edx,%es
80000e84:	6a 03                	push   $0x3
80000e86:	e8 f5 38 00 00       	call   80004780 <ProcessManager_SaveContext>
80000e8b:	e8 60 1e 00 00       	call   80002cf0 <InterruptManager_Handle>
80000e90:	e8 7b 39 00 00       	call   80004810 <ProcessManager_RestoreContext>
80000e95:	83 c4 04             	add    $0x4,%esp
80000e98:	0f b2 25 c8 a5 00 80 	lss    0x8000a5c8,%esp
80000e9f:	5f                   	pop    %edi
80000ea0:	5e                   	pop    %esi
80000ea1:	5d                   	pop    %ebp
80000ea2:	5a                   	pop    %edx
80000ea3:	59                   	pop    %ecx
80000ea4:	5b                   	pop    %ebx
80000ea5:	58                   	pop    %eax
80000ea6:	0f a9                	pop    %gs
80000ea8:	0f a1                	pop    %fs
80000eaa:	07                   	pop    %es
80000eab:	1f                   	pop    %ds
80000eac:	c7 05 ac a2 00 80 00 	movl   $0x0,0x8000a2ac
80000eb3:	00 00 00 
80000eb6:	cf                   	iret   

80000eb7 <IRQ_04>:
80000eb7:	c7 05 ac a2 00 80 01 	movl   $0x1,0x8000a2ac
80000ebe:	00 00 00 
80000ec1:	fc                   	cld    
80000ec2:	1e                   	push   %ds
80000ec3:	06                   	push   %es
80000ec4:	0f a0                	push   %fs
80000ec6:	0f a8                	push   %gs
80000ec8:	50                   	push   %eax
80000ec9:	53                   	push   %ebx
80000eca:	51                   	push   %ecx
80000ecb:	52                   	push   %edx
80000ecc:	55                   	push   %ebp
80000ecd:	56                   	push   %esi
80000ece:	57                   	push   %edi
80000ecf:	8c d2                	mov    %ss,%edx
80000ed1:	66 89 15 cc a5 00 80 	mov    %dx,0x8000a5cc
80000ed8:	89 25 c8 a5 00 80    	mov    %esp,0x8000a5c8
80000ede:	66 ba 10 00          	mov    $0x10,%dx
80000ee2:	8e da                	mov    %edx,%ds
80000ee4:	8e c2                	mov    %edx,%es
80000ee6:	6a 04                	push   $0x4
80000ee8:	e8 93 38 00 00       	call   80004780 <ProcessManager_SaveContext>
80000eed:	e8 fe 1d 00 00       	call   80002cf0 <InterruptManager_Handle>
80000ef2:	e8 19 39 00 00       	call   80004810 <ProcessManager_RestoreContext>
80000ef7:	83 c4 04             	add    $0x4,%esp
80000efa:	0f b2 25 c8 a5 00 80 	lss    0x8000a5c8,%esp
80000f01:	5f                   	pop    %edi
80000f02:	5e                   	pop    %esi
80000f03:	5d                   	pop    %ebp
80000f04:	5a                   	pop    %edx
80000f05:	59                   	pop    %ecx
80000f06:	5b                   	pop    %ebx
80000f07:	58                   	pop    %eax
80000f08:	0f a9                	pop    %gs
80000f0a:	0f a1                	pop    %fs
80000f0c:	07                   	pop    %es
80000f0d:	1f                   	pop    %ds
80000f0e:	c7 05 ac a2 00 80 00 	movl   $0x0,0x8000a2ac
80000f15:	00 00 00 
80000f18:	cf                   	iret   

80000f19 <IRQ_05>:
80000f19:	c7 05 ac a2 00 80 01 	movl   $0x1,0x8000a2ac
80000f20:	00 00 00 
80000f23:	fc                   	cld    
80000f24:	1e                   	push   %ds
80000f25:	06                   	push   %es
80000f26:	0f a0                	push   %fs
80000f28:	0f a8                	push   %gs
80000f2a:	50                   	push   %eax
80000f2b:	53                   	push   %ebx
80000f2c:	51                   	push   %ecx
80000f2d:	52                   	push   %edx
80000f2e:	55                   	push   %ebp
80000f2f:	56                   	push   %esi
80000f30:	57                   	push   %edi
80000f31:	8c d2                	mov    %ss,%edx
80000f33:	66 89 15 cc a5 00 80 	mov    %dx,0x8000a5cc
80000f3a:	89 25 c8 a5 00 80    	mov    %esp,0x8000a5c8
80000f40:	66 ba 10 00          	mov    $0x10,%dx
80000f44:	8e da                	mov    %edx,%ds
80000f46:	8e c2                	mov    %edx,%es
80000f48:	6a 05                	push   $0x5
80000f4a:	e8 31 38 00 00       	call   80004780 <ProcessManager_SaveContext>
80000f4f:	e8 9c 1d 00 00       	call   80002cf0 <InterruptManager_Handle>
80000f54:	e8 b7 38 00 00       	call   80004810 <ProcessManager_RestoreContext>
80000f59:	83 c4 04             	add    $0x4,%esp
80000f5c:	0f b2 25 c8 a5 00 80 	lss    0x8000a5c8,%esp
80000f63:	5f                   	pop    %edi
80000f64:	5e                   	pop    %esi
80000f65:	5d                   	pop    %ebp
80000f66:	5a                   	pop    %edx
80000f67:	59                   	pop    %ecx
80000f68:	5b                   	pop    %ebx
80000f69:	58                   	pop    %eax
80000f6a:	0f a9                	pop    %gs
80000f6c:	0f a1                	pop    %fs
80000f6e:	07                   	pop    %es
80000f6f:	1f                   	pop    %ds
80000f70:	c7 05 ac a2 00 80 00 	movl   $0x0,0x8000a2ac
80000f77:	00 00 00 
80000f7a:	cf                   	iret   

80000f7b <IRQ_06>:
80000f7b:	c7 05 ac a2 00 80 01 	movl   $0x1,0x8000a2ac
80000f82:	00 00 00 
80000f85:	fc                   	cld    
80000f86:	1e                   	push   %ds
80000f87:	06                   	push   %es
80000f88:	0f a0                	push   %fs
80000f8a:	0f a8                	push   %gs
80000f8c:	50                   	push   %eax
80000f8d:	53                   	push   %ebx
80000f8e:	51                   	push   %ecx
80000f8f:	52                   	push   %edx
80000f90:	55                   	push   %ebp
80000f91:	56                   	push   %esi
80000f92:	57                   	push   %edi
80000f93:	8c d2                	mov    %ss,%edx
80000f95:	66 89 15 cc a5 00 80 	mov    %dx,0x8000a5cc
80000f9c:	89 25 c8 a5 00 80    	mov    %esp,0x8000a5c8
80000fa2:	66 ba 10 00          	mov    $0x10,%dx
80000fa6:	8e da                	mov    %edx,%ds
80000fa8:	8e c2                	mov    %edx,%es
80000faa:	6a 06                	push   $0x6
80000fac:	e8 cf 37 00 00       	call   80004780 <ProcessManager_SaveContext>
80000fb1:	e8 3a 1d 00 00       	call   80002cf0 <InterruptManager_Handle>
80000fb6:	e8 55 38 00 00       	call   80004810 <ProcessManager_RestoreContext>
80000fbb:	83 c4 04             	add    $0x4,%esp
80000fbe:	0f b2 25 c8 a5 00 80 	lss    0x8000a5c8,%esp
80000fc5:	5f                   	pop    %edi
80000fc6:	5e                   	pop    %esi
80000fc7:	5d                   	pop    %ebp
80000fc8:	5a                   	pop    %edx
80000fc9:	59                   	pop    %ecx
80000fca:	5b                   	pop    %ebx
80000fcb:	58                   	pop    %eax
80000fcc:	0f a9                	pop    %gs
80000fce:	0f a1                	pop    %fs
80000fd0:	07                   	pop    %es
80000fd1:	1f                   	pop    %ds
80000fd2:	c7 05 ac a2 00 80 00 	movl   $0x0,0x8000a2ac
80000fd9:	00 00 00 
80000fdc:	cf                   	iret   

80000fdd <IRQ_07>:
80000fdd:	c7 05 ac a2 00 80 01 	movl   $0x1,0x8000a2ac
80000fe4:	00 00 00 
80000fe7:	fc                   	cld    
80000fe8:	1e                   	push   %ds
80000fe9:	06                   	push   %es
80000fea:	0f a0                	push   %fs
80000fec:	0f a8                	push   %gs
80000fee:	50                   	push   %eax
80000fef:	53                   	push   %ebx
80000ff0:	51                   	push   %ecx
80000ff1:	52                   	push   %edx
80000ff2:	55                   	push   %ebp
80000ff3:	56                   	push   %esi
80000ff4:	57                   	push   %edi
80000ff5:	8c d2                	mov    %ss,%edx
80000ff7:	66 89 15 cc a5 00 80 	mov    %dx,0x8000a5cc
80000ffe:	89 25 c8 a5 00 80    	mov    %esp,0x8000a5c8
80001004:	66 ba 10 00          	mov    $0x10,%dx
80001008:	8e da                	mov    %edx,%ds
8000100a:	8e c2                	mov    %edx,%es
8000100c:	6a 07                	push   $0x7
8000100e:	e8 6d 37 00 00       	call   80004780 <ProcessManager_SaveContext>
80001013:	e8 d8 1c 00 00       	call   80002cf0 <InterruptManager_Handle>
80001018:	e8 f3 37 00 00       	call   80004810 <ProcessManager_RestoreContext>
8000101d:	83 c4 04             	add    $0x4,%esp
80001020:	0f b2 25 c8 a5 00 80 	lss    0x8000a5c8,%esp
80001027:	5f                   	pop    %edi
80001028:	5e                   	pop    %esi
80001029:	5d                   	pop    %ebp
8000102a:	5a                   	pop    %edx
8000102b:	59                   	pop    %ecx
8000102c:	5b                   	pop    %ebx
8000102d:	58                   	pop    %eax
8000102e:	0f a9                	pop    %gs
80001030:	0f a1                	pop    %fs
80001032:	07                   	pop    %es
80001033:	1f                   	pop    %ds
80001034:	c7 05 ac a2 00 80 00 	movl   $0x0,0x8000a2ac
8000103b:	00 00 00 
8000103e:	cf                   	iret   

8000103f <IRQ_08>:
8000103f:	c7 05 ac a2 00 80 01 	movl   $0x1,0x8000a2ac
80001046:	00 00 00 
80001049:	fc                   	cld    
8000104a:	1e                   	push   %ds
8000104b:	06                   	push   %es
8000104c:	0f a0                	push   %fs
8000104e:	0f a8                	push   %gs
80001050:	50                   	push   %eax
80001051:	53                   	push   %ebx
80001052:	51                   	push   %ecx
80001053:	52                   	push   %edx
80001054:	55                   	push   %ebp
80001055:	56                   	push   %esi
80001056:	57                   	push   %edi
80001057:	8c d2                	mov    %ss,%edx
80001059:	66 89 15 cc a5 00 80 	mov    %dx,0x8000a5cc
80001060:	89 25 c8 a5 00 80    	mov    %esp,0x8000a5c8
80001066:	66 ba 10 00          	mov    $0x10,%dx
8000106a:	8e da                	mov    %edx,%ds
8000106c:	8e c2                	mov    %edx,%es
8000106e:	6a 08                	push   $0x8
80001070:	e8 0b 37 00 00       	call   80004780 <ProcessManager_SaveContext>
80001075:	e8 76 1c 00 00       	call   80002cf0 <InterruptManager_Handle>
8000107a:	e8 91 37 00 00       	call   80004810 <ProcessManager_RestoreContext>
8000107f:	83 c4 04             	add    $0x4,%esp
80001082:	0f b2 25 c8 a5 00 80 	lss    0x8000a5c8,%esp
80001089:	5f                   	pop    %edi
8000108a:	5e                   	pop    %esi
8000108b:	5d                   	pop    %ebp
8000108c:	5a                   	pop    %edx
8000108d:	59                   	pop    %ecx
8000108e:	5b                   	pop    %ebx
8000108f:	58                   	pop    %eax
80001090:	0f a9                	pop    %gs
80001092:	0f a1                	pop    %fs
80001094:	07                   	pop    %es
80001095:	1f                   	pop    %ds
80001096:	c7 05 ac a2 00 80 00 	movl   $0x0,0x8000a2ac
8000109d:	00 00 00 
800010a0:	cf                   	iret   

800010a1 <IRQ_09>:
800010a1:	c7 05 ac a2 00 80 01 	movl   $0x1,0x8000a2ac
800010a8:	00 00 00 
800010ab:	fc                   	cld    
800010ac:	1e                   	push   %ds
800010ad:	06                   	push   %es
800010ae:	0f a0                	push   %fs
800010b0:	0f a8                	push   %gs
800010b2:	50                   	push   %eax
800010b3:	53                   	push   %ebx
800010b4:	51                   	push   %ecx
800010b5:	52                   	push   %edx
800010b6:	55                   	push   %ebp
800010b7:	56                   	push   %esi
800010b8:	57                   	push   %edi
800010b9:	8c d2                	mov    %ss,%edx
800010bb:	66 89 15 cc a5 00 80 	mov    %dx,0x8000a5cc
800010c2:	89 25 c8 a5 00 80    	mov    %esp,0x8000a5c8
800010c8:	66 ba 10 00          	mov    $0x10,%dx
800010cc:	8e da                	mov    %edx,%ds
800010ce:	8e c2                	mov    %edx,%es
800010d0:	6a 09                	push   $0x9
800010d2:	e8 a9 36 00 00       	call   80004780 <ProcessManager_SaveContext>
800010d7:	e8 14 1c 00 00       	call   80002cf0 <InterruptManager_Handle>
800010dc:	e8 2f 37 00 00       	call   80004810 <ProcessManager_RestoreContext>
800010e1:	83 c4 04             	add    $0x4,%esp
800010e4:	0f b2 25 c8 a5 00 80 	lss    0x8000a5c8,%esp
800010eb:	5f                   	pop    %edi
800010ec:	5e                   	pop    %esi
800010ed:	5d                   	pop    %ebp
800010ee:	5a                   	pop    %edx
800010ef:	59                   	pop    %ecx
800010f0:	5b                   	pop    %ebx
800010f1:	58                   	pop    %eax
800010f2:	0f a9                	pop    %gs
800010f4:	0f a1                	pop    %fs
800010f6:	07                   	pop    %es
800010f7:	1f                   	pop    %ds
800010f8:	c7 05 ac a2 00 80 00 	movl   $0x0,0x8000a2ac
800010ff:	00 00 00 
80001102:	cf                   	iret   

80001103 <IRQ_0A>:
80001103:	c7 05 ac a2 00 80 01 	movl   $0x1,0x8000a2ac
8000110a:	00 00 00 
8000110d:	fc                   	cld    
8000110e:	1e                   	push   %ds
8000110f:	06                   	push   %es
80001110:	0f a0                	push   %fs
80001112:	0f a8                	push   %gs
80001114:	50                   	push   %eax
80001115:	53                   	push   %ebx
80001116:	51                   	push   %ecx
80001117:	52                   	push   %edx
80001118:	55                   	push   %ebp
80001119:	56                   	push   %esi
8000111a:	57                   	push   %edi
8000111b:	8c d2                	mov    %ss,%edx
8000111d:	66 89 15 cc a5 00 80 	mov    %dx,0x8000a5cc
80001124:	89 25 c8 a5 00 80    	mov    %esp,0x8000a5c8
8000112a:	66 ba 10 00          	mov    $0x10,%dx
8000112e:	8e da                	mov    %edx,%ds
80001130:	8e c2                	mov    %edx,%es
80001132:	6a 0a                	push   $0xa
80001134:	e8 47 36 00 00       	call   80004780 <ProcessManager_SaveContext>
80001139:	e8 b2 1b 00 00       	call   80002cf0 <InterruptManager_Handle>
8000113e:	e8 cd 36 00 00       	call   80004810 <ProcessManager_RestoreContext>
80001143:	83 c4 04             	add    $0x4,%esp
80001146:	0f b2 25 c8 a5 00 80 	lss    0x8000a5c8,%esp
8000114d:	5f                   	pop    %edi
8000114e:	5e                   	pop    %esi
8000114f:	5d                   	pop    %ebp
80001150:	5a                   	pop    %edx
80001151:	59                   	pop    %ecx
80001152:	5b                   	pop    %ebx
80001153:	58                   	pop    %eax
80001154:	0f a9                	pop    %gs
80001156:	0f a1                	pop    %fs
80001158:	07                   	pop    %es
80001159:	1f                   	pop    %ds
8000115a:	c7 05 ac a2 00 80 00 	movl   $0x0,0x8000a2ac
80001161:	00 00 00 
80001164:	cf                   	iret   

80001165 <IRQ_0B>:
80001165:	c7 05 ac a2 00 80 01 	movl   $0x1,0x8000a2ac
8000116c:	00 00 00 
8000116f:	fc                   	cld    
80001170:	1e                   	push   %ds
80001171:	06                   	push   %es
80001172:	0f a0                	push   %fs
80001174:	0f a8                	push   %gs
80001176:	50                   	push   %eax
80001177:	53                   	push   %ebx
80001178:	51                   	push   %ecx
80001179:	52                   	push   %edx
8000117a:	55                   	push   %ebp
8000117b:	56                   	push   %esi
8000117c:	57                   	push   %edi
8000117d:	8c d2                	mov    %ss,%edx
8000117f:	66 89 15 cc a5 00 80 	mov    %dx,0x8000a5cc
80001186:	89 25 c8 a5 00 80    	mov    %esp,0x8000a5c8
8000118c:	66 ba 10 00          	mov    $0x10,%dx
80001190:	8e da                	mov    %edx,%ds
80001192:	8e c2                	mov    %edx,%es
80001194:	6a 0b                	push   $0xb
80001196:	e8 e5 35 00 00       	call   80004780 <ProcessManager_SaveContext>
8000119b:	e8 50 1b 00 00       	call   80002cf0 <InterruptManager_Handle>
800011a0:	e8 6b 36 00 00       	call   80004810 <ProcessManager_RestoreContext>
800011a5:	83 c4 04             	add    $0x4,%esp
800011a8:	0f b2 25 c8 a5 00 80 	lss    0x8000a5c8,%esp
800011af:	5f                   	pop    %edi
800011b0:	5e                   	pop    %esi
800011b1:	5d                   	pop    %ebp
800011b2:	5a                   	pop    %edx
800011b3:	59                   	pop    %ecx
800011b4:	5b                   	pop    %ebx
800011b5:	58                   	pop    %eax
800011b6:	0f a9                	pop    %gs
800011b8:	0f a1                	pop    %fs
800011ba:	07                   	pop    %es
800011bb:	1f                   	pop    %ds
800011bc:	c7 05 ac a2 00 80 00 	movl   $0x0,0x8000a2ac
800011c3:	00 00 00 
800011c6:	cf                   	iret   

800011c7 <IRQ_0C>:
800011c7:	c7 05 ac a2 00 80 01 	movl   $0x1,0x8000a2ac
800011ce:	00 00 00 
800011d1:	fc                   	cld    
800011d2:	1e                   	push   %ds
800011d3:	06                   	push   %es
800011d4:	0f a0                	push   %fs
800011d6:	0f a8                	push   %gs
800011d8:	50                   	push   %eax
800011d9:	53                   	push   %ebx
800011da:	51                   	push   %ecx
800011db:	52                   	push   %edx
800011dc:	55                   	push   %ebp
800011dd:	56                   	push   %esi
800011de:	57                   	push   %edi
800011df:	8c d2                	mov    %ss,%edx
800011e1:	66 89 15 cc a5 00 80 	mov    %dx,0x8000a5cc
800011e8:	89 25 c8 a5 00 80    	mov    %esp,0x8000a5c8
800011ee:	66 ba 10 00          	mov    $0x10,%dx
800011f2:	8e da                	mov    %edx,%ds
800011f4:	8e c2                	mov    %edx,%es
800011f6:	6a 0c                	push   $0xc
800011f8:	e8 83 35 00 00       	call   80004780 <ProcessManager_SaveContext>
800011fd:	e8 ee 1a 00 00       	call   80002cf0 <InterruptManager_Handle>
80001202:	e8 09 36 00 00       	call   80004810 <ProcessManager_RestoreContext>
80001207:	83 c4 04             	add    $0x4,%esp
8000120a:	0f b2 25 c8 a5 00 80 	lss    0x8000a5c8,%esp
80001211:	5f                   	pop    %edi
80001212:	5e                   	pop    %esi
80001213:	5d                   	pop    %ebp
80001214:	5a                   	pop    %edx
80001215:	59                   	pop    %ecx
80001216:	5b                   	pop    %ebx
80001217:	58                   	pop    %eax
80001218:	0f a9                	pop    %gs
8000121a:	0f a1                	pop    %fs
8000121c:	07                   	pop    %es
8000121d:	1f                   	pop    %ds
8000121e:	c7 05 ac a2 00 80 00 	movl   $0x0,0x8000a2ac
80001225:	00 00 00 
80001228:	cf                   	iret   

80001229 <IRQ_0D>:
80001229:	c7 05 ac a2 00 80 01 	movl   $0x1,0x8000a2ac
80001230:	00 00 00 
80001233:	fc                   	cld    
80001234:	1e                   	push   %ds
80001235:	06                   	push   %es
80001236:	0f a0                	push   %fs
80001238:	0f a8                	push   %gs
8000123a:	50                   	push   %eax
8000123b:	53                   	push   %ebx
8000123c:	51                   	push   %ecx
8000123d:	52                   	push   %edx
8000123e:	55                   	push   %ebp
8000123f:	56                   	push   %esi
80001240:	57                   	push   %edi
80001241:	8c d2                	mov    %ss,%edx
80001243:	66 89 15 cc a5 00 80 	mov    %dx,0x8000a5cc
8000124a:	89 25 c8 a5 00 80    	mov    %esp,0x8000a5c8
80001250:	66 ba 10 00          	mov    $0x10,%dx
80001254:	8e da                	mov    %edx,%ds
80001256:	8e c2                	mov    %edx,%es
80001258:	6a 0d                	push   $0xd
8000125a:	e8 21 35 00 00       	call   80004780 <ProcessManager_SaveContext>
8000125f:	e8 8c 1a 00 00       	call   80002cf0 <InterruptManager_Handle>
80001264:	e8 a7 35 00 00       	call   80004810 <ProcessManager_RestoreContext>
80001269:	83 c4 04             	add    $0x4,%esp
8000126c:	0f b2 25 c8 a5 00 80 	lss    0x8000a5c8,%esp
80001273:	5f                   	pop    %edi
80001274:	5e                   	pop    %esi
80001275:	5d                   	pop    %ebp
80001276:	5a                   	pop    %edx
80001277:	59                   	pop    %ecx
80001278:	5b                   	pop    %ebx
80001279:	58                   	pop    %eax
8000127a:	0f a9                	pop    %gs
8000127c:	0f a1                	pop    %fs
8000127e:	07                   	pop    %es
8000127f:	1f                   	pop    %ds
80001280:	c7 05 ac a2 00 80 00 	movl   $0x0,0x8000a2ac
80001287:	00 00 00 
8000128a:	cf                   	iret   

8000128b <IRQ_0E>:
8000128b:	c7 05 ac a2 00 80 01 	movl   $0x1,0x8000a2ac
80001292:	00 00 00 
80001295:	fc                   	cld    
80001296:	1e                   	push   %ds
80001297:	06                   	push   %es
80001298:	0f a0                	push   %fs
8000129a:	0f a8                	push   %gs
8000129c:	50                   	push   %eax
8000129d:	53                   	push   %ebx
8000129e:	51                   	push   %ecx
8000129f:	52                   	push   %edx
800012a0:	55                   	push   %ebp
800012a1:	56                   	push   %esi
800012a2:	57                   	push   %edi
800012a3:	8c d2                	mov    %ss,%edx
800012a5:	66 89 15 cc a5 00 80 	mov    %dx,0x8000a5cc
800012ac:	89 25 c8 a5 00 80    	mov    %esp,0x8000a5c8
800012b2:	66 ba 10 00          	mov    $0x10,%dx
800012b6:	8e da                	mov    %edx,%ds
800012b8:	8e c2                	mov    %edx,%es
800012ba:	6a 0e                	push   $0xe
800012bc:	e8 bf 34 00 00       	call   80004780 <ProcessManager_SaveContext>
800012c1:	e8 2a 1a 00 00       	call   80002cf0 <InterruptManager_Handle>
800012c6:	e8 45 35 00 00       	call   80004810 <ProcessManager_RestoreContext>
800012cb:	83 c4 04             	add    $0x4,%esp
800012ce:	0f b2 25 c8 a5 00 80 	lss    0x8000a5c8,%esp
800012d5:	5f                   	pop    %edi
800012d6:	5e                   	pop    %esi
800012d7:	5d                   	pop    %ebp
800012d8:	5a                   	pop    %edx
800012d9:	59                   	pop    %ecx
800012da:	5b                   	pop    %ebx
800012db:	58                   	pop    %eax
800012dc:	0f a9                	pop    %gs
800012de:	0f a1                	pop    %fs
800012e0:	07                   	pop    %es
800012e1:	1f                   	pop    %ds
800012e2:	c7 05 ac a2 00 80 00 	movl   $0x0,0x8000a2ac
800012e9:	00 00 00 
800012ec:	cf                   	iret   

800012ed <IRQ_0F>:
800012ed:	c7 05 ac a2 00 80 01 	movl   $0x1,0x8000a2ac
800012f4:	00 00 00 
800012f7:	fc                   	cld    
800012f8:	1e                   	push   %ds
800012f9:	06                   	push   %es
800012fa:	0f a0                	push   %fs
800012fc:	0f a8                	push   %gs
800012fe:	50                   	push   %eax
800012ff:	53                   	push   %ebx
80001300:	51                   	push   %ecx
80001301:	52                   	push   %edx
80001302:	55                   	push   %ebp
80001303:	56                   	push   %esi
80001304:	57                   	push   %edi
80001305:	8c d2                	mov    %ss,%edx
80001307:	66 89 15 cc a5 00 80 	mov    %dx,0x8000a5cc
8000130e:	89 25 c8 a5 00 80    	mov    %esp,0x8000a5c8
80001314:	66 ba 10 00          	mov    $0x10,%dx
80001318:	8e da                	mov    %edx,%ds
8000131a:	8e c2                	mov    %edx,%es
8000131c:	6a 0f                	push   $0xf
8000131e:	e8 5d 34 00 00       	call   80004780 <ProcessManager_SaveContext>
80001323:	e8 c8 19 00 00       	call   80002cf0 <InterruptManager_Handle>
80001328:	e8 e3 34 00 00       	call   80004810 <ProcessManager_RestoreContext>
8000132d:	83 c4 04             	add    $0x4,%esp
80001330:	0f b2 25 c8 a5 00 80 	lss    0x8000a5c8,%esp
80001337:	5f                   	pop    %edi
80001338:	5e                   	pop    %esi
80001339:	5d                   	pop    %ebp
8000133a:	5a                   	pop    %edx
8000133b:	59                   	pop    %ecx
8000133c:	5b                   	pop    %ebx
8000133d:	58                   	pop    %eax
8000133e:	0f a9                	pop    %gs
80001340:	0f a1                	pop    %fs
80001342:	07                   	pop    %es
80001343:	1f                   	pop    %ds
80001344:	c7 05 ac a2 00 80 00 	movl   $0x0,0x8000a2ac
8000134b:	00 00 00 
8000134e:	cf                   	iret   

8000134f <ModuleManagerGetHandle>:
8000134f:	c7 05 ac a2 00 80 01 	movl   $0x1,0x8000a2ac
80001356:	00 00 00 
80001359:	fc                   	cld    
8000135a:	1e                   	push   %ds
8000135b:	06                   	push   %es
8000135c:	0f a0                	push   %fs
8000135e:	0f a8                	push   %gs
80001360:	50                   	push   %eax
80001361:	53                   	push   %ebx
80001362:	51                   	push   %ecx
80001363:	52                   	push   %edx
80001364:	55                   	push   %ebp
80001365:	56                   	push   %esi
80001366:	57                   	push   %edi
80001367:	8c d2                	mov    %ss,%edx
80001369:	66 89 15 cc a5 00 80 	mov    %dx,0x8000a5cc
80001370:	89 25 c8 a5 00 80    	mov    %esp,0x8000a5c8
80001376:	66 ba 10 00          	mov    $0x10,%dx
8000137a:	8e da                	mov    %edx,%ds
8000137c:	8e c2                	mov    %edx,%es
8000137e:	50                   	push   %eax
8000137f:	e8 fc 33 00 00       	call   80004780 <ProcessManager_SaveContext>
80001384:	e8 27 54 00 00       	call   800067b0 <ModuleManager_GetHandleInt>
80001389:	e8 82 34 00 00       	call   80004810 <ProcessManager_RestoreContext>
8000138e:	83 c4 04             	add    $0x4,%esp
80001391:	0f b2 25 c8 a5 00 80 	lss    0x8000a5c8,%esp
80001398:	5f                   	pop    %edi
80001399:	5e                   	pop    %esi
8000139a:	5d                   	pop    %ebp
8000139b:	5a                   	pop    %edx
8000139c:	59                   	pop    %ecx
8000139d:	5b                   	pop    %ebx
8000139e:	58                   	pop    %eax
8000139f:	0f a9                	pop    %gs
800013a1:	0f a1                	pop    %fs
800013a3:	07                   	pop    %es
800013a4:	1f                   	pop    %ds
800013a5:	c7 05 ac a2 00 80 00 	movl   $0x0,0x8000a2ac
800013ac:	00 00 00 
800013af:	cf                   	iret   

800013b0 <ModuleManagerReleaseHandle>:
800013b0:	c7 05 ac a2 00 80 01 	movl   $0x1,0x8000a2ac
800013b7:	00 00 00 
800013ba:	fc                   	cld    
800013bb:	1e                   	push   %ds
800013bc:	06                   	push   %es
800013bd:	0f a0                	push   %fs
800013bf:	0f a8                	push   %gs
800013c1:	50                   	push   %eax
800013c2:	53                   	push   %ebx
800013c3:	51                   	push   %ecx
800013c4:	52                   	push   %edx
800013c5:	55                   	push   %ebp
800013c6:	56                   	push   %esi
800013c7:	57                   	push   %edi
800013c8:	8c d2                	mov    %ss,%edx
800013ca:	66 89 15 cc a5 00 80 	mov    %dx,0x8000a5cc
800013d1:	89 25 c8 a5 00 80    	mov    %esp,0x8000a5c8
800013d7:	66 ba 10 00          	mov    $0x10,%dx
800013db:	8e da                	mov    %edx,%ds
800013dd:	8e c2                	mov    %edx,%es
800013df:	50                   	push   %eax
800013e0:	e8 9b 33 00 00       	call   80004780 <ProcessManager_SaveContext>
800013e5:	e8 56 54 00 00       	call   80006840 <ModuleManager_ReleaseHandleInt>
800013ea:	e8 21 34 00 00       	call   80004810 <ProcessManager_RestoreContext>
800013ef:	83 c4 04             	add    $0x4,%esp
800013f2:	0f b2 25 c8 a5 00 80 	lss    0x8000a5c8,%esp
800013f9:	5f                   	pop    %edi
800013fa:	5e                   	pop    %esi
800013fb:	5d                   	pop    %ebp
800013fc:	5a                   	pop    %edx
800013fd:	59                   	pop    %ecx
800013fe:	5b                   	pop    %ebx
800013ff:	58                   	pop    %eax
80001400:	0f a9                	pop    %gs
80001402:	0f a1                	pop    %fs
80001404:	07                   	pop    %es
80001405:	1f                   	pop    %ds
80001406:	c7 05 ac a2 00 80 00 	movl   $0x0,0x8000a2ac
8000140d:	00 00 00 
80001410:	cf                   	iret   

80001411 <ModuleManagerGetCallID>:
80001411:	c7 05 ac a2 00 80 01 	movl   $0x1,0x8000a2ac
80001418:	00 00 00 
8000141b:	fc                   	cld    
8000141c:	1e                   	push   %ds
8000141d:	06                   	push   %es
8000141e:	0f a0                	push   %fs
80001420:	0f a8                	push   %gs
80001422:	50                   	push   %eax
80001423:	53                   	push   %ebx
80001424:	51                   	push   %ecx
80001425:	52                   	push   %edx
80001426:	55                   	push   %ebp
80001427:	56                   	push   %esi
80001428:	57                   	push   %edi
80001429:	8c d2                	mov    %ss,%edx
8000142b:	66 89 15 cc a5 00 80 	mov    %dx,0x8000a5cc
80001432:	89 25 c8 a5 00 80    	mov    %esp,0x8000a5c8
80001438:	66 ba 10 00          	mov    $0x10,%dx
8000143c:	8e da                	mov    %edx,%ds
8000143e:	8e c2                	mov    %edx,%es
80001440:	53                   	push   %ebx
80001441:	50                   	push   %eax
80001442:	e8 39 33 00 00       	call   80004780 <ProcessManager_SaveContext>
80001447:	e8 74 54 00 00       	call   800068c0 <ModuleManager_GetCallIDInt>
8000144c:	e8 bf 33 00 00       	call   80004810 <ProcessManager_RestoreContext>
80001451:	83 c4 08             	add    $0x8,%esp
80001454:	0f b2 25 c8 a5 00 80 	lss    0x8000a5c8,%esp
8000145b:	5f                   	pop    %edi
8000145c:	5e                   	pop    %esi
8000145d:	5d                   	pop    %ebp
8000145e:	5a                   	pop    %edx
8000145f:	59                   	pop    %ecx
80001460:	5b                   	pop    %ebx
80001461:	58                   	pop    %eax
80001462:	0f a9                	pop    %gs
80001464:	0f a1                	pop    %fs
80001466:	07                   	pop    %es
80001467:	1f                   	pop    %ds
80001468:	c7 05 ac a2 00 80 00 	movl   $0x0,0x8000a2ac
8000146f:	00 00 00 
80001472:	cf                   	iret   

80001473 <ModuleManagerCall>:
80001473:	c7 05 ac a2 00 80 01 	movl   $0x1,0x8000a2ac
8000147a:	00 00 00 
8000147d:	fc                   	cld    
8000147e:	1e                   	push   %ds
8000147f:	06                   	push   %es
80001480:	0f a0                	push   %fs
80001482:	0f a8                	push   %gs
80001484:	50                   	push   %eax
80001485:	53                   	push   %ebx
80001486:	51                   	push   %ecx
80001487:	52                   	push   %edx
80001488:	55                   	push   %ebp
80001489:	56                   	push   %esi
8000148a:	57                   	push   %edi
8000148b:	8c d2                	mov    %ss,%edx
8000148d:	66 89 15 cc a5 00 80 	mov    %dx,0x8000a5cc
80001494:	89 25 c8 a5 00 80    	mov    %esp,0x8000a5c8
8000149a:	66 ba 10 00          	mov    $0x10,%dx
8000149e:	8e da                	mov    %edx,%ds
800014a0:	8e c2                	mov    %edx,%es
800014a2:	51                   	push   %ecx
800014a3:	53                   	push   %ebx
800014a4:	50                   	push   %eax
800014a5:	e8 d6 32 00 00       	call   80004780 <ProcessManager_SaveContext>
800014aa:	e8 f1 54 00 00       	call   800069a0 <ModuleManager_CallInt>
800014af:	e8 5c 33 00 00       	call   80004810 <ProcessManager_RestoreContext>
800014b4:	83 c4 0c             	add    $0xc,%esp
800014b7:	0f b2 25 c8 a5 00 80 	lss    0x8000a5c8,%esp
800014be:	5f                   	pop    %edi
800014bf:	5e                   	pop    %esi
800014c0:	5d                   	pop    %ebp
800014c1:	5a                   	pop    %edx
800014c2:	59                   	pop    %ecx
800014c3:	5b                   	pop    %ebx
800014c4:	58                   	pop    %eax
800014c5:	0f a9                	pop    %gs
800014c7:	0f a1                	pop    %fs
800014c9:	07                   	pop    %es
800014ca:	1f                   	pop    %ds
800014cb:	c7 05 ac a2 00 80 00 	movl   $0x0,0x8000a2ac
800014d2:	00 00 00 
800014d5:	cf                   	iret   

800014d6 <ModuleManagerCreateModule>:
800014d6:	c7 05 ac a2 00 80 01 	movl   $0x1,0x8000a2ac
800014dd:	00 00 00 
800014e0:	fc                   	cld    
800014e1:	1e                   	push   %ds
800014e2:	06                   	push   %es
800014e3:	0f a0                	push   %fs
800014e5:	0f a8                	push   %gs
800014e7:	50                   	push   %eax
800014e8:	53                   	push   %ebx
800014e9:	51                   	push   %ecx
800014ea:	52                   	push   %edx
800014eb:	55                   	push   %ebp
800014ec:	56                   	push   %esi
800014ed:	57                   	push   %edi
800014ee:	8c d2                	mov    %ss,%edx
800014f0:	66 89 15 cc a5 00 80 	mov    %dx,0x8000a5cc
800014f7:	89 25 c8 a5 00 80    	mov    %esp,0x8000a5c8
800014fd:	66 ba 10 00          	mov    $0x10,%dx
80001501:	8e da                	mov    %edx,%ds
80001503:	8e c2                	mov    %edx,%es
80001505:	53                   	push   %ebx
80001506:	50                   	push   %eax
80001507:	e8 74 32 00 00       	call   80004780 <ProcessManager_SaveContext>
8000150c:	e8 5f 50 00 00       	call   80006570 <ModuleManager_CreateModuleInt>
80001511:	e8 fa 32 00 00       	call   80004810 <ProcessManager_RestoreContext>
80001516:	83 c4 08             	add    $0x8,%esp
80001519:	0f b2 25 c8 a5 00 80 	lss    0x8000a5c8,%esp
80001520:	5f                   	pop    %edi
80001521:	5e                   	pop    %esi
80001522:	5d                   	pop    %ebp
80001523:	5a                   	pop    %edx
80001524:	59                   	pop    %ecx
80001525:	5b                   	pop    %ebx
80001526:	58                   	pop    %eax
80001527:	0f a9                	pop    %gs
80001529:	0f a1                	pop    %fs
8000152b:	07                   	pop    %es
8000152c:	1f                   	pop    %ds
8000152d:	c7 05 ac a2 00 80 00 	movl   $0x0,0x8000a2ac
80001534:	00 00 00 
80001537:	cf                   	iret   

80001538 <ModuleManagerCreateModuleCall>:
80001538:	c7 05 ac a2 00 80 01 	movl   $0x1,0x8000a2ac
8000153f:	00 00 00 
80001542:	fc                   	cld    
80001543:	1e                   	push   %ds
80001544:	06                   	push   %es
80001545:	0f a0                	push   %fs
80001547:	0f a8                	push   %gs
80001549:	50                   	push   %eax
8000154a:	53                   	push   %ebx
8000154b:	51                   	push   %ecx
8000154c:	52                   	push   %edx
8000154d:	55                   	push   %ebp
8000154e:	56                   	push   %esi
8000154f:	57                   	push   %edi
80001550:	8c d2                	mov    %ss,%edx
80001552:	66 89 15 cc a5 00 80 	mov    %dx,0x8000a5cc
80001559:	89 25 c8 a5 00 80    	mov    %esp,0x8000a5c8
8000155f:	66 ba 10 00          	mov    $0x10,%dx
80001563:	8e da                	mov    %edx,%ds
80001565:	8e c2                	mov    %edx,%es
80001567:	51                   	push   %ecx
80001568:	53                   	push   %ebx
80001569:	50                   	push   %eax
8000156a:	e8 11 32 00 00       	call   80004780 <ProcessManager_SaveContext>
8000156f:	e8 5c 51 00 00       	call   800066d0 <ModuleManager_CreateModuleCallInt>
80001574:	e8 97 32 00 00       	call   80004810 <ProcessManager_RestoreContext>
80001579:	83 c4 0c             	add    $0xc,%esp
8000157c:	0f b2 25 c8 a5 00 80 	lss    0x8000a5c8,%esp
80001583:	5f                   	pop    %edi
80001584:	5e                   	pop    %esi
80001585:	5d                   	pop    %ebp
80001586:	5a                   	pop    %edx
80001587:	59                   	pop    %ecx
80001588:	5b                   	pop    %ebx
80001589:	58                   	pop    %eax
8000158a:	0f a9                	pop    %gs
8000158c:	0f a1                	pop    %fs
8000158e:	07                   	pop    %es
8000158f:	1f                   	pop    %ds
80001590:	c7 05 ac a2 00 80 00 	movl   $0x0,0x8000a2ac
80001597:	00 00 00 
8000159a:	cf                   	iret   
8000159b:	00 00                	add    %al,(%eax)
8000159d:	00 00                	add    %al,(%eax)
	...

800015a0 <DeviceManager_AttachResource>:
800015a0:	55                   	push   %ebp
800015a1:	89 e5                	mov    %esp,%ebp
800015a3:	83 ec 28             	sub    $0x28,%esp
800015a6:	89 5d f4             	mov    %ebx,0xfffffff4(%ebp)
800015a9:	8b 5d 08             	mov    0x8(%ebp),%ebx
800015ac:	89 75 f8             	mov    %esi,0xfffffff8(%ebp)
800015af:	8b 75 0c             	mov    0xc(%ebp),%esi
800015b2:	89 7d fc             	mov    %edi,0xfffffffc(%ebp)
800015b5:	8b 7d 10             	mov    0x10(%ebp),%edi
800015b8:	e8 13 20 00 00       	call   800035d0 <ObjectManager_Lock>
800015bd:	89 5c 24 08          	mov    %ebx,0x8(%esp,1)
800015c1:	c7 44 24 04 08 00 00 	movl   $0x8,0x4(%esp,1)
800015c8:	00 
800015c9:	c7 04 24 00 00 00 00 	movl   $0x0,(%esp,1)
800015d0:	e8 bb 23 00 00       	call   80003990 <ObjectManager_SearchNameInClass>
800015d5:	85 c0                	test   %eax,%eax
800015d7:	0f 84 93 00 00 00    	je     80001670 <DeviceManager_AttachResource+0xd0>
800015dd:	c7 44 24 08 00 8d 00 	movl   $0x80008d00,0x8(%esp,1)
800015e4:	80 
800015e5:	c7 44 24 04 08 00 00 	movl   $0x8,0x4(%esp,1)
800015ec:	00 
800015ed:	c7 04 24 09 00 00 00 	movl   $0x9,(%esp,1)
800015f4:	e8 e7 1e 00 00       	call   800034e0 <ObjectManager_CreateObject>
800015f9:	83 fe 01             	cmp    $0x1,%esi
800015fc:	89 c3                	mov    %eax,%ebx
800015fe:	74 60                	je     80001660 <DeviceManager_AttachResource+0xc0>
80001600:	83 fe 01             	cmp    $0x1,%esi
80001603:	72 4b                	jb     80001650 <DeviceManager_AttachResource+0xb0>
80001605:	83 fe 02             	cmp    $0x2,%esi
80001608:	74 1c                	je     80001626 <DeviceManager_AttachResource+0x86>
8000160a:	8b 43 4c             	mov    0x4c(%ebx),%eax
8000160d:	89 30                	mov    %esi,(%eax)
8000160f:	89 78 04             	mov    %edi,0x4(%eax)
80001612:	e8 d9 1f 00 00       	call   800035f0 <ObjectManager_Unlock>
80001617:	31 c0                	xor    %eax,%eax
80001619:	8b 5d f4             	mov    0xfffffff4(%ebp),%ebx
8000161c:	8b 75 f8             	mov    0xfffffff8(%ebp),%esi
8000161f:	8b 7d fc             	mov    0xfffffffc(%ebp),%edi
80001622:	89 ec                	mov    %ebp,%esp
80001624:	5d                   	pop    %ebp
80001625:	c3                   	ret    
80001626:	89 7c 24 0c          	mov    %edi,0xc(%esp,1)
8000162a:	c7 44 24 08 01 8d 00 	movl   $0x80008d01,0x8(%esp,1)
80001631:	80 
80001632:	c7 44 24 04 30 00 00 	movl   $0x30,0x4(%esp,1)
80001639:	00 
8000163a:	89 1c 24             	mov    %ebx,(%esp,1)
8000163d:	e8 8e 69 00 00       	call   80007fd0 <snprintf>
80001642:	eb c6                	jmp    8000160a <DeviceManager_AttachResource+0x6a>
80001644:	8d b6 00 00 00 00    	lea    0x0(%esi),%esi
8000164a:	8d bf 00 00 00 00    	lea    0x0(%edi),%edi
80001650:	89 7c 24 0c          	mov    %edi,0xc(%esp,1)
80001654:	c7 44 24 08 0a 8d 00 	movl   $0x80008d0a,0x8(%esp,1)
8000165b:	80 
8000165c:	eb d4                	jmp    80001632 <DeviceManager_AttachResource+0x92>
8000165e:	89 f6                	mov    %esi,%esi
80001660:	89 7c 24 0c          	mov    %edi,0xc(%esp,1)
80001664:	c7 44 24 08 14 8d 00 	movl   $0x80008d14,0x8(%esp,1)
8000166b:	80 
8000166c:	eb c4                	jmp    80001632 <DeviceManager_AttachResource+0x92>
8000166e:	89 f6                	mov    %esi,%esi
80001670:	89 5c 24 0c          	mov    %ebx,0xc(%esp,1)
80001674:	c7 44 24 08 1d 8d 00 	movl   $0x80008d1d,0x8(%esp,1)
8000167b:	80 
8000167c:	c7 44 24 04 3b 8d 00 	movl   $0x80008d3b,0x4(%esp,1)
80001683:	80 
80001684:	c7 04 24 00 00 00 00 	movl   $0x0,(%esp,1)
8000168b:	e8 10 58 00 00       	call   80006ea0 <KPrint>
80001690:	e8 5b 1f 00 00       	call   800035f0 <ObjectManager_Unlock>
80001695:	b8 ff ff ff ff       	mov    $0xffffffff,%eax
8000169a:	e9 7a ff ff ff       	jmp    80001619 <DeviceManager_AttachResource+0x79>
8000169f:	90                   	nop    

800016a0 <DeviceManager_Init>:
800016a0:	55                   	push   %ebp
800016a1:	89 e5                	mov    %esp,%ebp
800016a3:	83 ec 18             	sub    $0x18,%esp
800016a6:	c7 44 24 04 b0 17 00 	movl   $0x800017b0,0x4(%esp,1)
800016ad:	80 
800016ae:	c7 04 24 42 8d 00 80 	movl   $0x80008d42,(%esp,1)
800016b5:	e8 36 4e 00 00       	call   800064f0 <ModuleManager_CreateModule>
800016ba:	c7 44 24 08 00 00 00 	movl   $0x0,0x8(%esp,1)
800016c1:	00 
800016c2:	c7 44 24 04 50 8d 00 	movl   $0x80008d50,0x4(%esp,1)
800016c9:	80 
800016ca:	c7 04 24 42 8d 00 80 	movl   $0x80008d42,(%esp,1)
800016d1:	e8 2a 4f 00 00       	call   80006600 <ModuleManager_CreateModuleCall>
800016d6:	c7 44 24 08 01 00 00 	movl   $0x1,0x8(%esp,1)
800016dd:	00 
800016de:	c7 44 24 04 5f 8d 00 	movl   $0x80008d5f,0x4(%esp,1)
800016e5:	80 
800016e6:	c7 04 24 42 8d 00 80 	movl   $0x80008d42,(%esp,1)
800016ed:	e8 0e 4f 00 00       	call   80006600 <ModuleManager_CreateModuleCall>
800016f2:	c7 44 24 08 6e 8d 00 	movl   $0x80008d6e,0x8(%esp,1)
800016f9:	80 
800016fa:	c7 44 24 04 3b 8d 00 	movl   $0x80008d3b,0x4(%esp,1)
80001701:	80 
80001702:	c7 04 24 01 00 00 00 	movl   $0x1,(%esp,1)
80001709:	e8 92 57 00 00       	call   80006ea0 <KPrint>
8000170e:	89 ec                	mov    %ebp,%esp
80001710:	5d                   	pop    %ebp
80001711:	c3                   	ret    
80001712:	8d b4 26 00 00 00 00 	lea    0x0(%esi,1),%esi
80001719:	8d bc 27 00 00 00 00 	lea    0x0(%edi,1),%edi

80001720 <DeviceManager_RegisterDevice>:
80001720:	55                   	push   %ebp
80001721:	89 e5                	mov    %esp,%ebp
80001723:	83 ec 18             	sub    $0x18,%esp
80001726:	89 5d fc             	mov    %ebx,0xfffffffc(%ebp)
80001729:	8b 5d 08             	mov    0x8(%ebp),%ebx
8000172c:	e8 9f 1e 00 00       	call   800035d0 <ObjectManager_Lock>
80001731:	c7 44 24 04 00 00 00 	movl   $0x0,0x4(%esp,1)
80001738:	00 
80001739:	c7 04 24 08 00 00 00 	movl   $0x8,(%esp,1)
80001740:	89 5c 24 08          	mov    %ebx,0x8(%esp,1)
80001744:	e8 97 1d 00 00       	call   800034e0 <ObjectManager_CreateObject>
80001749:	e8 a2 1e 00 00       	call   800035f0 <ObjectManager_Unlock>
8000174e:	89 5c 24 0c          	mov    %ebx,0xc(%esp,1)
80001752:	c7 44 24 08 8a 8d 00 	movl   $0x80008d8a,0x8(%esp,1)
80001759:	80 
8000175a:	c7 44 24 04 3b 8d 00 	movl   $0x80008d3b,0x4(%esp,1)
80001761:	80 
80001762:	c7 04 24 00 00 00 00 	movl   $0x0,(%esp,1)
80001769:	e8 32 57 00 00       	call   80006ea0 <KPrint>
8000176e:	8b 5d fc             	mov    0xfffffffc(%ebp),%ebx
80001771:	31 c0                	xor    %eax,%eax
80001773:	89 ec                	mov    %ebp,%esp
80001775:	5d                   	pop    %ebp
80001776:	c3                   	ret    
80001777:	89 f6                	mov    %esi,%esi
80001779:	8d bc 27 00 00 00 00 	lea    0x0(%edi,1),%edi

80001780 <DeviceManager_AttachResourceCall>:
80001780:	55                   	push   %ebp
80001781:	89 e5                	mov    %esp,%ebp
80001783:	83 ec 18             	sub    $0x18,%esp
80001786:	8b 4d 08             	mov    0x8(%ebp),%ecx
80001789:	8b 41 08             	mov    0x8(%ecx),%eax
8000178c:	89 44 24 08          	mov    %eax,0x8(%esp,1)
80001790:	8b 41 04             	mov    0x4(%ecx),%eax
80001793:	89 44 24 04          	mov    %eax,0x4(%esp,1)
80001797:	8b 01                	mov    (%ecx),%eax
80001799:	89 04 24             	mov    %eax,(%esp,1)
8000179c:	e8 ff fd ff ff       	call   800015a0 <DeviceManager_AttachResource>
800017a1:	89 ec                	mov    %ebp,%esp
800017a3:	5d                   	pop    %ebp
800017a4:	c3                   	ret    
800017a5:	8d 74 26 00          	lea    0x0(%esi,1),%esi
800017a9:	8d bc 27 00 00 00 00 	lea    0x0(%edi,1),%edi

800017b0 <DeviceManager_Handler>:
800017b0:	55                   	push   %ebp
800017b1:	89 e5                	mov    %esp,%ebp
800017b3:	83 ec 18             	sub    $0x18,%esp
800017b6:	89 5d fc             	mov    %ebx,0xfffffffc(%ebp)
800017b9:	8b 45 08             	mov    0x8(%ebp),%eax
800017bc:	8b 5d 0c             	mov    0xc(%ebp),%ebx
800017bf:	85 c0                	test   %eax,%eax
800017c1:	74 3d                	je     80001800 <DeviceManager_Handler+0x50>
800017c3:	48                   	dec    %eax
800017c4:	74 1a                	je     800017e0 <DeviceManager_Handler+0x30>
800017c6:	b8 fc ff ff ff       	mov    $0xfffffffc,%eax
800017cb:	8b 5d fc             	mov    0xfffffffc(%ebp),%ebx
800017ce:	89 ec                	mov    %ebp,%esp
800017d0:	5d                   	pop    %ebp
800017d1:	c3                   	ret    
800017d2:	8d b4 26 00 00 00 00 	lea    0x0(%esi,1),%esi
800017d9:	8d bc 27 00 00 00 00 	lea    0x0(%edi,1),%edi
800017e0:	8b 43 08             	mov    0x8(%ebx),%eax
800017e3:	89 44 24 08          	mov    %eax,0x8(%esp,1)
800017e7:	8b 43 04             	mov    0x4(%ebx),%eax
800017ea:	89 44 24 04          	mov    %eax,0x4(%esp,1)
800017ee:	8b 03                	mov    (%ebx),%eax
800017f0:	89 04 24             	mov    %eax,(%esp,1)
800017f3:	e8 a8 fd ff ff       	call   800015a0 <DeviceManager_AttachResource>
800017f8:	eb d1                	jmp    800017cb <DeviceManager_Handler+0x1b>
800017fa:	8d b6 00 00 00 00    	lea    0x0(%esi),%esi
80001800:	e8 cb 1d 00 00       	call   800035d0 <ObjectManager_Lock>
80001805:	c7 04 24 08 00 00 00 	movl   $0x8,(%esp,1)
8000180c:	89 5c 24 08          	mov    %ebx,0x8(%esp,1)
80001810:	c7 44 24 04 00 00 00 	movl   $0x0,0x4(%esp,1)
80001817:	00 
80001818:	e8 c3 1c 00 00       	call   800034e0 <ObjectManager_CreateObject>
8000181d:	e8 ce 1d 00 00       	call   800035f0 <ObjectManager_Unlock>
80001822:	89 5c 24 0c          	mov    %ebx,0xc(%esp,1)
80001826:	c7 44 24 08 8a 8d 00 	movl   $0x80008d8a,0x8(%esp,1)
8000182d:	80 
8000182e:	c7 44 24 04 3b 8d 00 	movl   $0x80008d3b,0x4(%esp,1)
80001835:	80 
80001836:	c7 04 24 00 00 00 00 	movl   $0x0,(%esp,1)
8000183d:	e8 5e 56 00 00       	call   80006ea0 <KPrint>
80001842:	31 c0                	xor    %eax,%eax
80001844:	eb 85                	jmp    800017cb <DeviceManager_Handler+0x1b>
	...

80001850 <DMMFileIO_Init>:
80001850:	55                   	push   %ebp
80001851:	89 e5                	mov    %esp,%ebp
80001853:	83 ec 18             	sub    $0x18,%esp
80001856:	c7 44 24 04 d0 19 00 	movl   $0x800019d0,0x4(%esp,1)
8000185d:	80 
8000185e:	c7 04 24 9d 8d 00 80 	movl   $0x80008d9d,(%esp,1)
80001865:	e8 06 1a 00 00       	call   80003270 <IOManager_RegisterIODevice>
8000186a:	a1 f8 a4 00 80       	mov    0x8000a4f8,%eax
8000186f:	c7 44 24 04 d0 1a 00 	movl   $0x80001ad0,0x4(%esp,1)
80001876:	80 
80001877:	89 04 24             	mov    %eax,(%esp,1)
8000187a:	e8 71 2b 00 00       	call   800043f0 <ProcessManager_CreateThread>
8000187f:	c7 44 24 04 80 1a 00 	movl   $0x80001a80,0x4(%esp,1)
80001886:	80 
80001887:	c7 04 24 a8 8d 00 80 	movl   $0x80008da8,(%esp,1)
8000188e:	e8 6d 0a 00 00       	call   80002300 <FS_RegisterFilesystem>
80001893:	c7 44 24 08 ae 8d 00 	movl   $0x80008dae,0x8(%esp,1)
8000189a:	80 
8000189b:	c7 44 24 04 c3 8d 00 	movl   $0x80008dc3,0x4(%esp,1)
800018a2:	80 
800018a3:	c7 04 24 01 00 00 00 	movl   $0x1,(%esp,1)
800018aa:	e8 f1 55 00 00       	call   80006ea0 <KPrint>
800018af:	89 ec                	mov    %ebp,%esp
800018b1:	5d                   	pop    %ebp
800018b2:	c3                   	ret    
800018b3:	8d b6 00 00 00 00    	lea    0x0(%esi),%esi
800018b9:	8d bc 27 00 00 00 00 	lea    0x0(%edi,1),%edi

800018c0 <DMMFileIO_Mount>:
800018c0:	55                   	push   %ebp
800018c1:	89 e5                	mov    %esp,%ebp
800018c3:	56                   	push   %esi
800018c4:	8d 55 f4             	lea    0xfffffff4(%ebp),%edx
800018c7:	53                   	push   %ebx
800018c8:	31 db                	xor    %ebx,%ebx
800018ca:	83 ec 20             	sub    $0x20,%esp
800018cd:	89 54 24 0c          	mov    %edx,0xc(%esp,1)
800018d1:	8b 75 08             	mov    0x8(%ebp),%esi
800018d4:	8d 55 f0             	lea    0xfffffff0(%ebp),%edx
800018d7:	89 54 24 08          	mov    %edx,0x8(%esp,1)
800018db:	c7 44 24 04 cb 8d 00 	movl   $0x80008dcb,0x4(%esp,1)
800018e2:	80 
800018e3:	8b 46 04             	mov    0x4(%esi),%eax
800018e6:	89 04 24             	mov    %eax,(%esp,1)
800018e9:	e8 d2 71 00 00       	call   80008ac0 <sscanf>
800018ee:	3b 5d f4             	cmp    0xfffffff4(%ebp),%ebx
800018f1:	72 2d                	jb     80001920 <DMMFileIO_Mount+0x60>
800018f3:	8b 06                	mov    (%esi),%eax
800018f5:	8b 4d f4             	mov    0xfffffff4(%ebp),%ecx
800018f8:	c7 40 08 00 10 00 00 	movl   $0x1000,0x8(%eax)
800018ff:	89 48 04             	mov    %ecx,0x4(%eax)
80001902:	89 04 24             	mov    %eax,(%esp,1)
80001905:	e8 56 1a 00 00       	call   80003360 <IOManager_RecalculateDevice>
8000190a:	83 c4 20             	add    $0x20,%esp
8000190d:	31 c0                	xor    %eax,%eax
8000190f:	5b                   	pop    %ebx
80001910:	5e                   	pop    %esi
80001911:	5d                   	pop    %ebp
80001912:	c3                   	ret    
80001913:	8d b6 00 00 00 00    	lea    0x0(%esi),%esi
80001919:	8d bc 27 00 00 00 00 	lea    0x0(%edi,1),%edi
80001920:	89 5c 24 08          	mov    %ebx,0x8(%esp,1)
80001924:	8b 45 f0             	mov    0xfffffff0(%ebp),%eax
80001927:	43                   	inc    %ebx
80001928:	89 44 24 04          	mov    %eax,0x4(%esp,1)
8000192c:	8b 06                	mov    (%esi),%eax
8000192e:	89 04 24             	mov    %eax,(%esp,1)
80001931:	e8 da 1a 00 00       	call   80003410 <IOManager_MapCacheDirectPage>
80001936:	81 45 f0 00 10 00 00 	addl   $0x1000,0xfffffff0(%ebp)
8000193d:	3b 5d f4             	cmp    0xfffffff4(%ebp),%ebx
80001940:	72 de                	jb     80001920 <DMMFileIO_Mount+0x60>
80001942:	eb af                	jmp    800018f3 <DMMFileIO_Mount+0x33>
80001944:	8d b6 00 00 00 00    	lea    0x0(%esi),%esi
8000194a:	8d bf 00 00 00 00    	lea    0x0(%edi),%edi

80001950 <DMMFileIO_OpenCall>:
80001950:	55                   	push   %ebp
80001951:	89 e5                	mov    %esp,%ebp
80001953:	31 c0                	xor    %eax,%eax
80001955:	5d                   	pop    %ebp
80001956:	c3                   	ret    
80001957:	89 f6                	mov    %esi,%esi
80001959:	8d bc 27 00 00 00 00 	lea    0x0(%edi,1),%edi

80001960 <DMMFileIO_Read>:
80001960:	55                   	push   %ebp
80001961:	89 e5                	mov    %esp,%ebp
80001963:	83 ec 28             	sub    $0x28,%esp
80001966:	8b 45 08             	mov    0x8(%ebp),%eax
80001969:	8d 55 e8             	lea    0xffffffe8(%ebp),%edx
8000196c:	89 14 24             	mov    %edx,(%esp,1)
8000196f:	89 45 e8             	mov    %eax,0xffffffe8(%ebp)
80001972:	8b 45 0c             	mov    0xc(%ebp),%eax
80001975:	89 45 ec             	mov    %eax,0xffffffec(%ebp)
80001978:	8b 45 10             	mov    0x10(%ebp),%eax
8000197b:	89 45 f0             	mov    %eax,0xfffffff0(%ebp)
8000197e:	8b 45 14             	mov    0x14(%ebp),%eax
80001981:	89 45 f4             	mov    %eax,0xfffffff4(%ebp)
80001984:	e8 17 16 00 00       	call   80002fa0 <IOManager_Read>
80001989:	89 ec                	mov    %ebp,%esp
8000198b:	5d                   	pop    %ebp
8000198c:	c3                   	ret    
8000198d:	8d 76 00             	lea    0x0(%esi),%esi

80001990 <DMMFileIO_ReadCall>:
80001990:	55                   	push   %ebp
80001991:	89 e5                	mov    %esp,%ebp
80001993:	83 ec 28             	sub    $0x28,%esp
80001996:	89 5d fc             	mov    %ebx,0xfffffffc(%ebp)
80001999:	8b 45 08             	mov    0x8(%ebp),%eax
8000199c:	8b 10                	mov    (%eax),%edx
8000199e:	8b 58 08             	mov    0x8(%eax),%ebx
800019a1:	8b 48 04             	mov    0x4(%eax),%ecx
800019a4:	8b 40 0c             	mov    0xc(%eax),%eax
800019a7:	89 55 e8             	mov    %edx,0xffffffe8(%ebp)
800019aa:	8d 55 e8             	lea    0xffffffe8(%ebp),%edx
800019ad:	89 5d f0             	mov    %ebx,0xfffffff0(%ebp)
800019b0:	89 4d ec             	mov    %ecx,0xffffffec(%ebp)
800019b3:	89 45 f4             	mov    %eax,0xfffffff4(%ebp)
800019b6:	89 14 24             	mov    %edx,(%esp,1)
800019b9:	e8 e2 15 00 00       	call   80002fa0 <IOManager_Read>
800019be:	8b 5d fc             	mov    0xfffffffc(%ebp),%ebx
800019c1:	89 ec                	mov    %ebp,%esp
800019c3:	5d                   	pop    %ebp
800019c4:	c3                   	ret    
800019c5:	8d 74 26 00          	lea    0x0(%esi,1),%esi
800019c9:	8d bc 27 00 00 00 00 	lea    0x0(%edi,1),%edi

800019d0 <DMMBlockIO_Handler>:
800019d0:	55                   	push   %ebp
800019d1:	89 e5                	mov    %esp,%ebp
800019d3:	83 ec 28             	sub    $0x28,%esp
800019d6:	89 75 fc             	mov    %esi,0xfffffffc(%ebp)
800019d9:	8b 45 08             	mov    0x8(%ebp),%eax
800019dc:	8b 75 0c             	mov    0xc(%ebp),%esi
800019df:	89 5d f8             	mov    %ebx,0xfffffff8(%ebp)
800019e2:	85 c0                	test   %eax,%eax
800019e4:	74 1a                	je     80001a00 <DMMBlockIO_Handler+0x30>
800019e6:	b8 fc ff ff ff       	mov    $0xfffffffc,%eax
800019eb:	8b 5d f8             	mov    0xfffffff8(%ebp),%ebx
800019ee:	8b 75 fc             	mov    0xfffffffc(%ebp),%esi
800019f1:	89 ec                	mov    %ebp,%esp
800019f3:	5d                   	pop    %ebp
800019f4:	c3                   	ret    
800019f5:	8d 74 26 00          	lea    0x0(%esi,1),%esi
800019f9:	8d bc 27 00 00 00 00 	lea    0x0(%edi,1),%edi
80001a00:	c7 44 24 04 cb 8d 00 	movl   $0x80008dcb,0x4(%esp,1)
80001a07:	80 
80001a08:	8d 55 f4             	lea    0xfffffff4(%ebp),%edx
80001a0b:	31 db                	xor    %ebx,%ebx
80001a0d:	89 54 24 0c          	mov    %edx,0xc(%esp,1)
80001a11:	8d 55 f0             	lea    0xfffffff0(%ebp),%edx
80001a14:	89 54 24 08          	mov    %edx,0x8(%esp,1)
80001a18:	8b 46 04             	mov    0x4(%esi),%eax
80001a1b:	89 04 24             	mov    %eax,(%esp,1)
80001a1e:	e8 9d 70 00 00       	call   80008ac0 <sscanf>
80001a23:	3b 5d f4             	cmp    0xfffffff4(%ebp),%ebx
80001a26:	72 28                	jb     80001a50 <DMMBlockIO_Handler+0x80>
80001a28:	8b 06                	mov    (%esi),%eax
80001a2a:	8b 4d f4             	mov    0xfffffff4(%ebp),%ecx
80001a2d:	c7 40 08 00 10 00 00 	movl   $0x1000,0x8(%eax)
80001a34:	89 48 04             	mov    %ecx,0x4(%eax)
80001a37:	89 04 24             	mov    %eax,(%esp,1)
80001a3a:	e8 21 19 00 00       	call   80003360 <IOManager_RecalculateDevice>
80001a3f:	31 c0                	xor    %eax,%eax
80001a41:	eb a8                	jmp    800019eb <DMMBlockIO_Handler+0x1b>
80001a43:	8d b6 00 00 00 00    	lea    0x0(%esi),%esi
80001a49:	8d bc 27 00 00 00 00 	lea    0x0(%edi,1),%edi
80001a50:	89 5c 24 08          	mov    %ebx,0x8(%esp,1)
80001a54:	8b 45 f0             	mov    0xfffffff0(%ebp),%eax
80001a57:	43                   	inc    %ebx
80001a58:	89 44 24 04          	mov    %eax,0x4(%esp,1)
80001a5c:	8b 06                	mov    (%esi),%eax
80001a5e:	89 04 24             	mov    %eax,(%esp,1)
80001a61:	e8 aa 19 00 00       	call   80003410 <IOManager_MapCacheDirectPage>
80001a66:	81 45 f0 00 10 00 00 	addl   $0x1000,0xfffffff0(%ebp)
80001a6d:	3b 5d f4             	cmp    0xfffffff4(%ebp),%ebx
80001a70:	72 de                	jb     80001a50 <DMMBlockIO_Handler+0x80>
80001a72:	eb b4                	jmp    80001a28 <DMMBlockIO_Handler+0x58>
80001a74:	8d b6 00 00 00 00    	lea    0x0(%esi),%esi
80001a7a:	8d bf 00 00 00 00    	lea    0x0(%edi),%edi

80001a80 <DMMFileIO_Handler>:
80001a80:	55                   	push   %ebp
80001a81:	89 e5                	mov    %esp,%ebp
80001a83:	83 ec 28             	sub    $0x28,%esp
80001a86:	89 5d fc             	mov    %ebx,0xfffffffc(%ebp)
80001a89:	8b 55 08             	mov    0x8(%ebp),%edx
80001a8c:	31 c0                	xor    %eax,%eax
80001a8e:	8b 5d 0c             	mov    0xc(%ebp),%ebx
80001a91:	85 d2                	test   %edx,%edx
80001a93:	74 08                	je     80001a9d <DMMFileIO_Handler+0x1d>
80001a95:	4a                   	dec    %edx
80001a96:	74 0c                	je     80001aa4 <DMMFileIO_Handler+0x24>
80001a98:	b8 fc ff ff ff       	mov    $0xfffffffc,%eax
80001a9d:	8b 5d fc             	mov    0xfffffffc(%ebp),%ebx
80001aa0:	89 ec                	mov    %ebp,%esp
80001aa2:	5d                   	pop    %ebp
80001aa3:	c3                   	ret    
80001aa4:	8b 53 04             	mov    0x4(%ebx),%edx
80001aa7:	8b 4b 08             	mov    0x8(%ebx),%ecx
80001aaa:	8b 03                	mov    (%ebx),%eax
80001aac:	89 55 ec             	mov    %edx,0xffffffec(%ebp)
80001aaf:	8b 5b 0c             	mov    0xc(%ebx),%ebx
80001ab2:	8d 55 e8             	lea    0xffffffe8(%ebp),%edx
80001ab5:	89 45 e8             	mov    %eax,0xffffffe8(%ebp)
80001ab8:	89 4d f0             	mov    %ecx,0xfffffff0(%ebp)
80001abb:	89 5d f4             	mov    %ebx,0xfffffff4(%ebp)
80001abe:	89 14 24             	mov    %edx,(%esp,1)
80001ac1:	e8 da 14 00 00       	call   80002fa0 <IOManager_Read>
80001ac6:	eb d5                	jmp    80001a9d <DMMFileIO_Handler+0x1d>
80001ac8:	90                   	nop    
80001ac9:	8d b4 26 00 00 00 00 	lea    0x0(%esi,1),%esi

80001ad0 <DMMBlockIO_Worker>:
80001ad0:	55                   	push   %ebp
80001ad1:	89 e5                	mov    %esp,%ebp
80001ad3:	8d b6 00 00 00 00    	lea    0x0(%esi),%esi
80001ad9:	8d bc 27 00 00 00 00 	lea    0x0(%edi,1),%edi
80001ae0:	90                   	nop    
80001ae1:	eb fd                	jmp    80001ae0 <DMMBlockIO_Worker+0x10>
	...

80001af0 <FS_Mount>:
80001af0:	55                   	push   %ebp
80001af1:	89 e5                	mov    %esp,%ebp
80001af3:	57                   	push   %edi
80001af4:	56                   	push   %esi
80001af5:	53                   	push   %ebx
80001af6:	83 ec 2c             	sub    $0x2c,%esp
80001af9:	e8 d2 1a 00 00       	call   800035d0 <ObjectManager_Lock>
80001afe:	c7 04 24 00 00 00 00 	movl   $0x0,(%esp,1)
80001b05:	8b 45 0c             	mov    0xc(%ebp),%eax
80001b08:	c7 44 24 04 0a 00 00 	movl   $0xa,0x4(%esp,1)
80001b0f:	00 
80001b10:	89 44 24 08          	mov    %eax,0x8(%esp,1)
80001b14:	e8 77 1e 00 00       	call   80003990 <ObjectManager_SearchNameInClass>
80001b19:	85 c0                	test   %eax,%eax
80001b1b:	89 c7                	mov    %eax,%edi
80001b1d:	0f 84 3d 01 00 00    	je     80001c60 <FS_Mount+0x170>
80001b23:	8b 40 4c             	mov    0x4c(%eax),%eax
80001b26:	c7 04 24 00 00 00 00 	movl   $0x0,(%esp,1)
80001b2d:	c7 44 24 04 0b 00 00 	movl   $0xb,0x4(%esp,1)
80001b34:	00 
80001b35:	89 45 e4             	mov    %eax,0xffffffe4(%ebp)
80001b38:	8b 45 10             	mov    0x10(%ebp),%eax
80001b3b:	89 44 24 08          	mov    %eax,0x8(%esp,1)
80001b3f:	e8 4c 1e 00 00       	call   80003990 <ObjectManager_SearchNameInClass>
80001b44:	85 c0                	test   %eax,%eax
80001b46:	89 c6                	mov    %eax,%esi
80001b48:	0f 84 d2 00 00 00    	je     80001c20 <FS_Mount+0x130>
80001b4e:	8b 58 4c             	mov    0x4c(%eax),%ebx
80001b51:	c7 04 24 0c 00 00 00 	movl   $0xc,(%esp,1)
80001b58:	8b 45 08             	mov    0x8(%ebp),%eax
80001b5b:	c7 44 24 04 10 00 00 	movl   $0x10,0x4(%esp,1)
80001b62:	00 
80001b63:	89 44 24 08          	mov    %eax,0x8(%esp,1)
80001b67:	e8 74 19 00 00       	call   800034e0 <ObjectManager_CreateObject>
80001b6c:	8d 55 e8             	lea    0xffffffe8(%ebp),%edx
80001b6f:	8b 4d e4             	mov    0xffffffe4(%ebp),%ecx
80001b72:	8b 40 4c             	mov    0x4c(%eax),%eax
80001b75:	ff 47 48             	incl   0x48(%edi)
80001b78:	89 48 08             	mov    %ecx,0x8(%eax)
80001b7b:	89 38                	mov    %edi,(%eax)
80001b7d:	89 70 04             	mov    %esi,0x4(%eax)
80001b80:	89 58 0c             	mov    %ebx,0xc(%eax)
80001b83:	8b 45 14             	mov    0x14(%ebp),%eax
80001b86:	ff 46 48             	incl   0x48(%esi)
80001b89:	89 4d e8             	mov    %ecx,0xffffffe8(%ebp)
80001b8c:	89 45 ec             	mov    %eax,0xffffffec(%ebp)
80001b8f:	89 54 24 04          	mov    %edx,0x4(%esp,1)
80001b93:	c7 04 24 00 00 00 00 	movl   $0x0,(%esp,1)
80001b9a:	ff 51 14             	call   *0x14(%ecx)
80001b9d:	85 c0                	test   %eax,%eax
80001b9f:	74 3f                	je     80001be0 <FS_Mount+0xf0>
80001ba1:	e8 4a 1a 00 00       	call   800035f0 <ObjectManager_Unlock>
80001ba6:	c7 04 24 00 00 00 00 	movl   $0x0,(%esp,1)
80001bad:	89 7c 24 0c          	mov    %edi,0xc(%esp,1)
80001bb1:	c7 44 24 08 d1 8d 00 	movl   $0x80008dd1,0x8(%esp,1)
80001bb8:	80 
80001bb9:	c7 44 24 04 ab 8d 00 	movl   $0x80008dab,0x4(%esp,1)
80001bc0:	80 
80001bc1:	e8 da 52 00 00       	call   80006ea0 <KPrint>
80001bc6:	b8 f8 ff ff ff       	mov    $0xfffffff8,%eax
80001bcb:	83 c4 2c             	add    $0x2c,%esp
80001bce:	5b                   	pop    %ebx
80001bcf:	5e                   	pop    %esi
80001bd0:	5f                   	pop    %edi
80001bd1:	5d                   	pop    %ebp
80001bd2:	c3                   	ret    
80001bd3:	8d b6 00 00 00 00    	lea    0x0(%esi),%esi
80001bd9:	8d bc 27 00 00 00 00 	lea    0x0(%edi,1),%edi
80001be0:	c7 44 24 08 eb 8d 00 	movl   $0x80008deb,0x8(%esp,1)
80001be7:	80 
80001be8:	8b 45 10             	mov    0x10(%ebp),%eax
80001beb:	8b 5d 0c             	mov    0xc(%ebp),%ebx
80001bee:	c7 44 24 04 ab 8d 00 	movl   $0x80008dab,0x4(%esp,1)
80001bf5:	80 
80001bf6:	89 44 24 14          	mov    %eax,0x14(%esp,1)
80001bfa:	8b 45 08             	mov    0x8(%ebp),%eax
80001bfd:	89 5c 24 10          	mov    %ebx,0x10(%esp,1)
80001c01:	c7 04 24 00 00 00 00 	movl   $0x0,(%esp,1)
80001c08:	89 44 24 0c          	mov    %eax,0xc(%esp,1)
80001c0c:	e8 8f 52 00 00       	call   80006ea0 <KPrint>
80001c11:	e8 da 19 00 00       	call   800035f0 <ObjectManager_Unlock>
80001c16:	31 c0                	xor    %eax,%eax
80001c18:	eb b1                	jmp    80001bcb <FS_Mount+0xdb>
80001c1a:	8d b6 00 00 00 00    	lea    0x0(%esi),%esi
80001c20:	e8 cb 19 00 00       	call   800035f0 <ObjectManager_Unlock>
80001c25:	c7 44 24 08 00 8f 00 	movl   $0x80008f00,0x8(%esp,1)
80001c2c:	80 
80001c2d:	8b 45 08             	mov    0x8(%ebp),%eax
80001c30:	8b 4d 10             	mov    0x10(%ebp),%ecx
80001c33:	89 44 24 0c          	mov    %eax,0xc(%esp,1)
80001c37:	89 4c 24 10          	mov    %ecx,0x10(%esp,1)
80001c3b:	c7 44 24 04 ab 8d 00 	movl   $0x80008dab,0x4(%esp,1)
80001c42:	80 
80001c43:	c7 04 24 00 00 00 00 	movl   $0x0,(%esp,1)
80001c4a:	e8 51 52 00 00       	call   80006ea0 <KPrint>
80001c4f:	b8 ff ff ff ff       	mov    $0xffffffff,%eax
80001c54:	e9 72 ff ff ff       	jmp    80001bcb <FS_Mount+0xdb>
80001c59:	8d b4 26 00 00 00 00 	lea    0x0(%esi,1),%esi
80001c60:	e8 8b 19 00 00       	call   800035f0 <ObjectManager_Unlock>
80001c65:	c7 44 24 08 40 8f 00 	movl   $0x80008f40,0x8(%esp,1)
80001c6c:	80 
80001c6d:	8b 45 0c             	mov    0xc(%ebp),%eax
80001c70:	89 44 24 10          	mov    %eax,0x10(%esp,1)
80001c74:	8b 45 08             	mov    0x8(%ebp),%eax
80001c77:	89 44 24 0c          	mov    %eax,0xc(%esp,1)
80001c7b:	eb be                	jmp    80001c3b <FS_Mount+0x14b>
80001c7d:	8d 76 00             	lea    0x0(%esi),%esi

80001c80 <FS_CheckFilename>:
80001c80:	55                   	push   %ebp
80001c81:	89 e5                	mov    %esp,%ebp
80001c83:	56                   	push   %esi
80001c84:	8b 4d 0c             	mov    0xc(%ebp),%ecx
80001c87:	53                   	push   %ebx
80001c88:	8b 75 08             	mov    0x8(%ebp),%esi
80001c8b:	31 db                	xor    %ebx,%ebx
80001c8d:	89 c8                	mov    %ecx,%eax
80001c8f:	8a 10                	mov    (%eax),%dl
80001c91:	40                   	inc    %eax
80001c92:	84 d2                	test   %dl,%dl
80001c94:	75 f9                	jne    80001c8f <FS_CheckFilename+0xf>
80001c96:	29 c8                	sub    %ecx,%eax
80001c98:	48                   	dec    %eax
80001c99:	39 c3                	cmp    %eax,%ebx
80001c9b:	73 44                	jae    80001ce1 <FS_CheckFilename+0x61>
80001c9d:	8d 76 00             	lea    0x0(%esi),%esi
80001ca0:	0f b6 14 0b          	movzbl (%ebx,%ecx,1),%edx
80001ca4:	88 d0                	mov    %dl,%al
80001ca6:	2c 41                	sub    $0x41,%al
80001ca8:	3c 19                	cmp    $0x19,%al
80001caa:	76 24                	jbe    80001cd0 <FS_CheckFilename+0x50>
80001cac:	2c 20                	sub    $0x20,%al
80001cae:	3c 19                	cmp    $0x19,%al
80001cb0:	76 1e                	jbe    80001cd0 <FS_CheckFilename+0x50>
80001cb2:	04 31                	add    $0x31,%al
80001cb4:	3c 09                	cmp    $0x9,%al
80001cb6:	76 18                	jbe    80001cd0 <FS_CheckFilename+0x50>
80001cb8:	0f b6 c2             	movzbl %dl,%eax
80001cbb:	83 f8 2f             	cmp    $0x2f,%eax
80001cbe:	74 3d                	je     80001cfd <FS_CheckFilename+0x7d>
80001cc0:	83 f8 2f             	cmp    $0x2f,%eax
80001cc3:	7f 2b                	jg     80001cf0 <FS_CheckFilename+0x70>
80001cc5:	83 f8 2d             	cmp    $0x2d,%eax
80001cc8:	75 20                	jne    80001cea <FS_CheckFilename+0x6a>
80001cca:	8d b6 00 00 00 00    	lea    0x0(%esi),%esi
80001cd0:	43                   	inc    %ebx
80001cd1:	89 c8                	mov    %ecx,%eax
80001cd3:	8a 10                	mov    (%eax),%dl
80001cd5:	40                   	inc    %eax
80001cd6:	84 d2                	test   %dl,%dl
80001cd8:	75 f9                	jne    80001cd3 <FS_CheckFilename+0x53>
80001cda:	29 c8                	sub    %ecx,%eax
80001cdc:	48                   	dec    %eax
80001cdd:	39 c3                	cmp    %eax,%ebx
80001cdf:	72 bf                	jb     80001ca0 <FS_CheckFilename+0x20>
80001ce1:	b8 01 00 00 00       	mov    $0x1,%eax
80001ce6:	5b                   	pop    %ebx
80001ce7:	5e                   	pop    %esi
80001ce8:	5d                   	pop    %ebp
80001ce9:	c3                   	ret    
80001cea:	31 c0                	xor    %eax,%eax
80001cec:	eb f8                	jmp    80001ce6 <FS_CheckFilename+0x66>
80001cee:	89 f6                	mov    %esi,%esi
80001cf0:	83 f8 3a             	cmp    $0x3a,%eax
80001cf3:	75 f5                	jne    80001cea <FS_CheckFilename+0x6a>
80001cf5:	31 c0                	xor    %eax,%eax
80001cf7:	85 f6                	test   %esi,%esi
80001cf9:	75 eb                	jne    80001ce6 <FS_CheckFilename+0x66>
80001cfb:	eb d3                	jmp    80001cd0 <FS_CheckFilename+0x50>
80001cfd:	31 c0                	xor    %eax,%eax
80001cff:	83 fe 01             	cmp    $0x1,%esi
80001d02:	eb f5                	jmp    80001cf9 <FS_CheckFilename+0x79>
80001d04:	8d b6 00 00 00 00    	lea    0x0(%esi),%esi
80001d0a:	8d bf 00 00 00 00    	lea    0x0(%edi),%edi

80001d10 <FS_Parse>:
80001d10:	55                   	push   %ebp
80001d11:	89 e5                	mov    %esp,%ebp
80001d13:	57                   	push   %edi
80001d14:	56                   	push   %esi
80001d15:	53                   	push   %ebx
80001d16:	83 ec 0c             	sub    $0xc,%esp
80001d19:	8b 45 0c             	mov    0xc(%ebp),%eax
80001d1c:	c6 00 00             	movb   $0x0,(%eax)
80001d1f:	8b 45 10             	mov    0x10(%ebp),%eax
80001d22:	c6 00 00             	movb   $0x0,(%eax)
80001d25:	8b 45 14             	mov    0x14(%ebp),%eax
80001d28:	c6 00 00             	movb   $0x0,(%eax)
80001d2b:	8b 45 08             	mov    0x8(%ebp),%eax
80001d2e:	8a 10                	mov    (%eax),%dl
80001d30:	40                   	inc    %eax
80001d31:	84 d2                	test   %dl,%dl
80001d33:	75 f9                	jne    80001d2e <FS_Parse+0x1e>
80001d35:	31 f6                	xor    %esi,%esi
80001d37:	8b 55 08             	mov    0x8(%ebp),%edx
80001d3a:	29 d0                	sub    %edx,%eax
80001d3c:	8d 78 ff             	lea    0xffffffff(%eax),%edi
80001d3f:	39 fe                	cmp    %edi,%esi
80001d41:	73 1f                	jae    80001d62 <FS_Parse+0x52>
80001d43:	8d b6 00 00 00 00    	lea    0x0(%esi),%esi
80001d49:	8d bc 27 00 00 00 00 	lea    0x0(%edi,1),%edi
80001d50:	8b 4d 08             	mov    0x8(%ebp),%ecx
80001d53:	80 3c 0e 3a          	cmpb   $0x3a,(%esi,%ecx,1)
80001d57:	0f 84 e4 00 00 00    	je     80001e41 <FS_Parse+0x131>
80001d5d:	46                   	inc    %esi
80001d5e:	39 fe                	cmp    %edi,%esi
80001d60:	72 ee                	jb     80001d50 <FS_Parse+0x40>
80001d62:	85 ff                	test   %edi,%edi
80001d64:	74 19                	je     80001d7f <FS_Parse+0x6f>
80001d66:	8b 4d 08             	mov    0x8(%ebp),%ecx
80001d69:	8b 45 10             	mov    0x10(%ebp),%eax
80001d6c:	8a 11                	mov    (%ecx),%dl
80001d6e:	41                   	inc    %ecx
80001d6f:	88 10                	mov    %dl,(%eax)
80001d71:	40                   	inc    %eax
80001d72:	4f                   	dec    %edi
80001d73:	74 0a                	je     80001d7f <FS_Parse+0x6f>
80001d75:	84 d2                	test   %dl,%dl
80001d77:	75 f3                	jne    80001d6c <FS_Parse+0x5c>
80001d79:	88 10                	mov    %dl,(%eax)
80001d7b:	40                   	inc    %eax
80001d7c:	4f                   	dec    %edi
80001d7d:	75 fa                	jne    80001d79 <FS_Parse+0x69>
80001d7f:	8b 45 10             	mov    0x10(%ebp),%eax
80001d82:	8a 10                	mov    (%eax),%dl
80001d84:	40                   	inc    %eax
80001d85:	84 d2                	test   %dl,%dl
80001d87:	75 f9                	jne    80001d82 <FS_Parse+0x72>
80001d89:	8b 5d 10             	mov    0x10(%ebp),%ebx
80001d8c:	29 d8                	sub    %ebx,%eax
80001d8e:	8d 70 ff             	lea    0xffffffff(%eax),%esi
80001d91:	85 f6                	test   %esi,%esi
80001d93:	89 f0                	mov    %esi,%eax
80001d95:	78 15                	js     80001dac <FS_Parse+0x9c>
80001d97:	89 f6                	mov    %esi,%esi
80001d99:	8d bc 27 00 00 00 00 	lea    0x0(%edi,1),%edi
80001da0:	8b 7d 10             	mov    0x10(%ebp),%edi
80001da3:	80 3c 3e 2f          	cmpb   $0x2f,(%esi,%edi,1)
80001da7:	74 03                	je     80001dac <FS_Parse+0x9c>
80001da9:	4e                   	dec    %esi
80001daa:	79 f4                	jns    80001da0 <FS_Parse+0x90>
80001dac:	83 fe ff             	cmp    $0xffffffff,%esi
80001daf:	74 2c                	je     80001ddd <FS_Parse+0xcd>
80001db1:	8b 4d 10             	mov    0x10(%ebp),%ecx
80001db4:	29 f0                	sub    %esi,%eax
80001db6:	8d 5c 0e 01          	lea    0x1(%esi,%ecx,1),%ebx
80001dba:	89 c1                	mov    %eax,%ecx
80001dbc:	49                   	dec    %ecx
80001dbd:	74 16                	je     80001dd5 <FS_Parse+0xc5>
80001dbf:	8b 7d 14             	mov    0x14(%ebp),%edi
80001dc2:	8a 03                	mov    (%ebx),%al
80001dc4:	43                   	inc    %ebx
80001dc5:	88 07                	mov    %al,(%edi)
80001dc7:	47                   	inc    %edi
80001dc8:	49                   	dec    %ecx
80001dc9:	74 0a                	je     80001dd5 <FS_Parse+0xc5>
80001dcb:	84 c0                	test   %al,%al
80001dcd:	75 f3                	jne    80001dc2 <FS_Parse+0xb2>
80001dcf:	88 07                	mov    %al,(%edi)
80001dd1:	47                   	inc    %edi
80001dd2:	49                   	dec    %ecx
80001dd3:	75 fa                	jne    80001dcf <FS_Parse+0xbf>
80001dd5:	8b 45 10             	mov    0x10(%ebp),%eax
80001dd8:	c6 44 06 01 00       	movb   $0x0,0x1(%esi,%eax,1)
80001ddd:	c7 04 24 00 00 00 00 	movl   $0x0,(%esp,1)
80001de4:	8b 75 0c             	mov    0xc(%ebp),%esi
80001de7:	89 74 24 04          	mov    %esi,0x4(%esp,1)
80001deb:	e8 90 fe ff ff       	call   80001c80 <FS_CheckFilename>
80001df0:	ba fd ff ff ff       	mov    $0xfffffffd,%edx
80001df5:	48                   	dec    %eax
80001df6:	74 0a                	je     80001e02 <FS_Parse+0xf2>
80001df8:	83 c4 0c             	add    $0xc,%esp
80001dfb:	89 d0                	mov    %edx,%eax
80001dfd:	5b                   	pop    %ebx
80001dfe:	5e                   	pop    %esi
80001dff:	5f                   	pop    %edi
80001e00:	5d                   	pop    %ebp
80001e01:	c3                   	ret    
80001e02:	c7 04 24 01 00 00 00 	movl   $0x1,(%esp,1)
80001e09:	8b 45 10             	mov    0x10(%ebp),%eax
80001e0c:	89 44 24 04          	mov    %eax,0x4(%esp,1)
80001e10:	e8 6b fe ff ff       	call   80001c80 <FS_CheckFilename>
80001e15:	ba fc ff ff ff       	mov    $0xfffffffc,%edx
80001e1a:	48                   	dec    %eax
80001e1b:	75 db                	jne    80001df8 <FS_Parse+0xe8>
80001e1d:	c7 04 24 02 00 00 00 	movl   $0x2,(%esp,1)
80001e24:	8b 45 14             	mov    0x14(%ebp),%eax
80001e27:	31 db                	xor    %ebx,%ebx
80001e29:	89 44 24 04          	mov    %eax,0x4(%esp,1)
80001e2d:	e8 4e fe ff ff       	call   80001c80 <FS_CheckFilename>
80001e32:	83 f8 01             	cmp    $0x1,%eax
80001e35:	0f 94 c3             	sete   %bl
80001e38:	8d 14 9d fc ff ff ff 	lea    0xfffffffc(,%ebx,4),%edx
80001e3f:	eb b7                	jmp    80001df8 <FS_Parse+0xe8>
80001e41:	39 fe                	cmp    %edi,%esi
80001e43:	0f 83 19 ff ff ff    	jae    80001d62 <FS_Parse+0x52>
80001e49:	46                   	inc    %esi
80001e4a:	74 1b                	je     80001e67 <FS_Parse+0x157>
80001e4c:	8b 5d 08             	mov    0x8(%ebp),%ebx
80001e4f:	89 f0                	mov    %esi,%eax
80001e51:	8b 4d 0c             	mov    0xc(%ebp),%ecx
80001e54:	8a 13                	mov    (%ebx),%dl
80001e56:	43                   	inc    %ebx
80001e57:	88 11                	mov    %dl,(%ecx)
80001e59:	41                   	inc    %ecx
80001e5a:	48                   	dec    %eax
80001e5b:	74 0a                	je     80001e67 <FS_Parse+0x157>
80001e5d:	84 d2                	test   %dl,%dl
80001e5f:	75 f3                	jne    80001e54 <FS_Parse+0x144>
80001e61:	88 11                	mov    %dl,(%ecx)
80001e63:	41                   	inc    %ecx
80001e64:	48                   	dec    %eax
80001e65:	75 fa                	jne    80001e61 <FS_Parse+0x151>
80001e67:	8b 5d 08             	mov    0x8(%ebp),%ebx
80001e6a:	89 f9                	mov    %edi,%ecx
80001e6c:	01 f3                	add    %esi,%ebx
80001e6e:	29 f1                	sub    %esi,%ecx
80001e70:	0f 84 09 ff ff ff    	je     80001d7f <FS_Parse+0x6f>
80001e76:	8b 75 10             	mov    0x10(%ebp),%esi
80001e79:	8a 03                	mov    (%ebx),%al
80001e7b:	43                   	inc    %ebx
80001e7c:	88 06                	mov    %al,(%esi)
80001e7e:	46                   	inc    %esi
80001e7f:	49                   	dec    %ecx
80001e80:	74 0a                	je     80001e8c <FS_Parse+0x17c>
80001e82:	84 c0                	test   %al,%al
80001e84:	75 f3                	jne    80001e79 <FS_Parse+0x169>
80001e86:	88 06                	mov    %al,(%esi)
80001e88:	46                   	inc    %esi
80001e89:	49                   	dec    %ecx
80001e8a:	75 fa                	jne    80001e86 <FS_Parse+0x176>
80001e8c:	e9 ee fe ff ff       	jmp    80001d7f <FS_Parse+0x6f>
80001e91:	eb 0d                	jmp    80001ea0 <FS_Open>
80001e93:	90                   	nop    
80001e94:	90                   	nop    
80001e95:	90                   	nop    
80001e96:	90                   	nop    
80001e97:	90                   	nop    
80001e98:	90                   	nop    
80001e99:	90                   	nop    
80001e9a:	90                   	nop    
80001e9b:	90                   	nop    
80001e9c:	90                   	nop    
80001e9d:	90                   	nop    
80001e9e:	90                   	nop    
80001e9f:	90                   	nop    

80001ea0 <FS_Open>:
80001ea0:	55                   	push   %ebp
80001ea1:	89 e5                	mov    %esp,%ebp
80001ea3:	83 ec 48             	sub    $0x48,%esp
80001ea6:	89 5d f4             	mov    %ebx,0xfffffff4(%ebp)
80001ea9:	ba 00 20 00 00       	mov    $0x2000,%edx
80001eae:	8b 4d 08             	mov    0x8(%ebp),%ecx
80001eb1:	89 75 f8             	mov    %esi,0xfffffff8(%ebp)
80001eb4:	89 7d fc             	mov    %edi,0xfffffffc(%ebp)
80001eb7:	89 c8                	mov    %ecx,%eax
80001eb9:	eb 06                	jmp    80001ec1 <FS_Open+0x21>
80001ebb:	80 38 00             	cmpb   $0x0,(%eax)
80001ebe:	74 07                	je     80001ec7 <FS_Open+0x27>
80001ec0:	40                   	inc    %eax
80001ec1:	4a                   	dec    %edx
80001ec2:	83 fa ff             	cmp    $0xffffffff,%edx
80001ec5:	75 f4                	jne    80001ebb <FS_Open+0x1b>
80001ec7:	29 c8                	sub    %ecx,%eax
80001ec9:	ba ff ff ff ff       	mov    $0xffffffff,%edx
80001ece:	3d ff 1f 00 00       	cmp    $0x1fff,%eax
80001ed3:	76 1b                	jbe    80001ef0 <FS_Open+0x50>
80001ed5:	8b 5d f4             	mov    0xfffffff4(%ebp),%ebx
80001ed8:	89 d0                	mov    %edx,%eax
80001eda:	8b 75 f8             	mov    0xfffffff8(%ebp),%esi
80001edd:	8b 7d fc             	mov    0xfffffffc(%ebp),%edi
80001ee0:	89 ec                	mov    %ebp,%esp
80001ee2:	5d                   	pop    %ebp
80001ee3:	c3                   	ret    
80001ee4:	8d b6 00 00 00 00    	lea    0x0(%esi),%esi
80001eea:	8d bf 00 00 00 00    	lea    0x0(%edi),%edi
80001ef0:	a1 28 a4 00 80       	mov    0x8000a428,%eax
80001ef5:	89 44 24 0c          	mov    %eax,0xc(%esp,1)
80001ef9:	89 44 24 08          	mov    %eax,0x8(%esp,1)
80001efd:	a1 24 a4 00 80       	mov    0x8000a424,%eax
80001f02:	89 44 24 04          	mov    %eax,0x4(%esp,1)
80001f06:	8b 45 08             	mov    0x8(%ebp),%eax
80001f09:	89 04 24             	mov    %eax,(%esp,1)
80001f0c:	e8 ff fd ff ff       	call   80001d10 <FS_Parse>
80001f11:	85 c0                	test   %eax,%eax
80001f13:	74 2b                	je     80001f40 <FS_Open+0xa0>
80001f15:	c7 44 24 08 08 8e 00 	movl   $0x80008e08,0x8(%esp,1)
80001f1c:	80 
80001f1d:	8b 45 08             	mov    0x8(%ebp),%eax
80001f20:	c7 44 24 04 ab 8d 00 	movl   $0x80008dab,0x4(%esp,1)
80001f27:	80 
80001f28:	c7 04 24 00 00 00 00 	movl   $0x0,(%esp,1)
80001f2f:	89 44 24 0c          	mov    %eax,0xc(%esp,1)
80001f33:	e8 68 4f 00 00       	call   80006ea0 <KPrint>
80001f38:	ba fe ff ff ff       	mov    $0xfffffffe,%edx
80001f3d:	eb 96                	jmp    80001ed5 <FS_Open+0x35>
80001f3f:	90                   	nop    
80001f40:	e8 8b 16 00 00       	call   800035d0 <ObjectManager_Lock>
80001f45:	c7 04 24 00 00 00 00 	movl   $0x0,(%esp,1)
80001f4c:	a1 24 a4 00 80       	mov    0x8000a424,%eax
80001f51:	c7 44 24 04 0c 00 00 	movl   $0xc,0x4(%esp,1)
80001f58:	00 
80001f59:	89 44 24 08          	mov    %eax,0x8(%esp,1)
80001f5d:	e8 2e 1a 00 00       	call   80003990 <ObjectManager_SearchNameInClass>
80001f62:	85 c0                	test   %eax,%eax
80001f64:	0f 84 c6 00 00 00    	je     80002030 <FS_Open+0x190>
80001f6a:	8b 70 4c             	mov    0x4c(%eax),%esi
80001f6d:	c7 04 24 0d 00 00 00 	movl   $0xd,(%esp,1)
80001f74:	c7 44 24 08 00 8d 00 	movl   $0x80008d00,0x8(%esp,1)
80001f7b:	80 
80001f7c:	c7 44 24 04 08 00 00 	movl   $0x8,0x4(%esp,1)
80001f83:	00 
80001f84:	e8 57 15 00 00       	call   800034e0 <ObjectManager_CreateObject>
80001f89:	ff 40 48             	incl   0x48(%eax)
80001f8c:	89 c7                	mov    %eax,%edi
80001f8e:	8b 5f 4c             	mov    0x4c(%edi),%ebx
80001f91:	a1 b8 a5 00 80       	mov    0x8000a5b8,%eax
80001f96:	89 33                	mov    %esi,(%ebx)
80001f98:	89 47 34             	mov    %eax,0x34(%edi)
80001f9b:	ff 05 b8 a5 00 80    	incl   0x8000a5b8
80001fa1:	c7 43 04 00 00 00 00 	movl   $0x0,0x4(%ebx)
80001fa8:	e8 43 16 00 00       	call   800035f0 <ObjectManager_Unlock>
80001fad:	8d 55 c8             	lea    0xffffffc8(%ebp),%edx
80001fb0:	8b 4e 0c             	mov    0xc(%esi),%ecx
80001fb3:	89 5d d8             	mov    %ebx,0xffffffd8(%ebp)
80001fb6:	a1 24 a4 00 80       	mov    0x8000a424,%eax
80001fbb:	89 75 c8             	mov    %esi,0xffffffc8(%ebp)
80001fbe:	89 54 24 04          	mov    %edx,0x4(%esp,1)
80001fc2:	89 45 cc             	mov    %eax,0xffffffcc(%ebp)
80001fc5:	a1 28 a4 00 80       	mov    0x8000a428,%eax
80001fca:	c7 04 24 00 00 00 00 	movl   $0x0,(%esp,1)
80001fd1:	89 45 d0             	mov    %eax,0xffffffd0(%ebp)
80001fd4:	a1 20 a4 00 80       	mov    0x8000a420,%eax
80001fd9:	89 45 d4             	mov    %eax,0xffffffd4(%ebp)
80001fdc:	ff 11                	call   *(%ecx)
80001fde:	85 c0                	test   %eax,%eax
80001fe0:	75 0f                	jne    80001ff1 <FS_Open+0x151>
80001fe2:	8b 5f 34             	mov    0x34(%edi),%ebx
80001fe5:	31 d2                	xor    %edx,%edx
80001fe7:	8b 45 10             	mov    0x10(%ebp),%eax
80001fea:	89 18                	mov    %ebx,(%eax)
80001fec:	e9 e4 fe ff ff       	jmp    80001ed5 <FS_Open+0x35>
80001ff1:	c7 44 24 08 20 8e 00 	movl   $0x80008e20,0x8(%esp,1)
80001ff8:	80 
80001ff9:	8b 45 08             	mov    0x8(%ebp),%eax
80001ffc:	c7 44 24 04 ab 8d 00 	movl   $0x80008dab,0x4(%esp,1)
80002003:	80 
80002004:	c7 04 24 00 00 00 00 	movl   $0x0,(%esp,1)
8000200b:	89 44 24 0c          	mov    %eax,0xc(%esp,1)
8000200f:	e8 8c 4e 00 00       	call   80006ea0 <KPrint>
80002014:	e8 b7 15 00 00       	call   800035d0 <ObjectManager_Lock>
80002019:	89 3c 24             	mov    %edi,(%esp,1)
8000201c:	e8 cf 18 00 00       	call   800038f0 <ObjectManager_DeleteObject>
80002021:	e8 ca 15 00 00       	call   800035f0 <ObjectManager_Unlock>
80002026:	ba f9 ff ff ff       	mov    $0xfffffff9,%edx
8000202b:	e9 a5 fe ff ff       	jmp    80001ed5 <FS_Open+0x35>
80002030:	e8 bb 15 00 00       	call   800035f0 <ObjectManager_Unlock>
80002035:	c7 04 24 00 00 00 00 	movl   $0x0,(%esp,1)
8000203c:	a1 24 a4 00 80       	mov    0x8000a424,%eax
80002041:	c7 44 24 08 3a 8e 00 	movl   $0x80008e3a,0x8(%esp,1)
80002048:	80 
80002049:	c7 44 24 04 ab 8d 00 	movl   $0x80008dab,0x4(%esp,1)
80002050:	80 
80002051:	89 44 24 0c          	mov    %eax,0xc(%esp,1)
80002055:	e8 46 4e 00 00       	call   80006ea0 <KPrint>
8000205a:	ba fa ff ff ff       	mov    $0xfffffffa,%edx
8000205f:	e9 71 fe ff ff       	jmp    80001ed5 <FS_Open+0x35>
80002064:	8d b6 00 00 00 00    	lea    0x0(%esi),%esi
8000206a:	8d bf 00 00 00 00    	lea    0x0(%edi),%edi

80002070 <FS_LoadElf>:
80002070:	55                   	push   %ebp
80002071:	89 e5                	mov    %esp,%ebp
80002073:	81 ec 88 00 00 00    	sub    $0x88,%esp
80002079:	89 7d fc             	mov    %edi,0xfffffffc(%ebp)
8000207c:	8d 55 94             	lea    0xffffff94(%ebp),%edx
8000207f:	8b 7d 08             	mov    0x8(%ebp),%edi
80002082:	89 5d f4             	mov    %ebx,0xfffffff4(%ebp)
80002085:	89 75 f8             	mov    %esi,0xfffffff8(%ebp)
80002088:	89 54 24 08          	mov    %edx,0x8(%esp,1)
8000208c:	c7 44 24 04 01 00 00 	movl   $0x1,0x4(%esp,1)
80002093:	00 
80002094:	89 3c 24             	mov    %edi,(%esp,1)
80002097:	e8 04 fe ff ff       	call   80001ea0 <FS_Open>
8000209c:	85 c0                	test   %eax,%eax
8000209e:	74 40                	je     800020e0 <FS_LoadElf+0x70>
800020a0:	89 7c 24 0c          	mov    %edi,0xc(%esp,1)
800020a4:	c7 44 24 08 51 8e 00 	movl   $0x80008e51,0x8(%esp,1)
800020ab:	80 
800020ac:	c7 44 24 04 ab 8d 00 	movl   $0x80008dab,0x4(%esp,1)
800020b3:	80 
800020b4:	c7 04 24 00 00 00 00 	movl   $0x0,(%esp,1)
800020bb:	e8 e0 4d 00 00       	call   80006ea0 <KPrint>
800020c0:	b8 f9 ff ff ff       	mov    $0xfffffff9,%eax
800020c5:	8b 5d f4             	mov    0xfffffff4(%ebp),%ebx
800020c8:	8b 75 f8             	mov    0xfffffff8(%ebp),%esi
800020cb:	8b 7d fc             	mov    0xfffffffc(%ebp),%edi
800020ce:	89 ec                	mov    %ebp,%esp
800020d0:	5d                   	pop    %ebp
800020d1:	c3                   	ret    
800020d2:	8d b4 26 00 00 00 00 	lea    0x0(%esi,1),%esi
800020d9:	8d bc 27 00 00 00 00 	lea    0x0(%edi,1),%edi
800020e0:	c7 45 90 00 00 00 00 	movl   $0x0,0xffffff90(%ebp)
800020e7:	8b 5d 94             	mov    0xffffff94(%ebp),%ebx
800020ea:	8d 75 a8             	lea    0xffffffa8(%ebp),%esi
800020ed:	e8 de 14 00 00       	call   800035d0 <ObjectManager_Lock>
800020f2:	c7 04 24 00 00 00 00 	movl   $0x0,(%esp,1)
800020f9:	89 5c 24 08          	mov    %ebx,0x8(%esp,1)
800020fd:	c7 44 24 04 0d 00 00 	movl   $0xd,0x4(%esp,1)
80002104:	00 
80002105:	e8 d6 19 00 00       	call   80003ae0 <ObjectManager_SearchInClassTypeIndex>
8000210a:	89 c3                	mov    %eax,%ebx
8000210c:	e8 df 14 00 00       	call   800035f0 <ObjectManager_Unlock>
80002111:	85 db                	test   %ebx,%ebx
80002113:	b8 f7 ff ff ff       	mov    $0xfffffff7,%eax
80002118:	74 2b                	je     80002145 <FS_LoadElf+0xd5>
8000211a:	c7 45 a0 34 00 00 00 	movl   $0x34,0xffffffa0(%ebp)
80002121:	8b 53 4c             	mov    0x4c(%ebx),%edx
80002124:	8d 5d 90             	lea    0xffffff90(%ebp),%ebx
80002127:	89 75 9c             	mov    %esi,0xffffff9c(%ebp)
8000212a:	89 5d a4             	mov    %ebx,0xffffffa4(%ebp)
8000212d:	8b 0a                	mov    (%edx),%ecx
8000212f:	89 55 98             	mov    %edx,0xffffff98(%ebp)
80002132:	8d 55 98             	lea    0xffffff98(%ebp),%edx
80002135:	8b 59 0c             	mov    0xc(%ecx),%ebx
80002138:	c7 04 24 01 00 00 00 	movl   $0x1,(%esp,1)
8000213f:	89 54 24 04          	mov    %edx,0x4(%esp,1)
80002143:	ff 13                	call   *(%ebx)
80002145:	85 c0                	test   %eax,%eax
80002147:	0f 85 b3 00 00 00    	jne    80002200 <FS_LoadElf+0x190>
8000214d:	b9 a0 a2 00 80       	mov    $0x8000a2a0,%ecx
80002152:	b8 04 00 00 00       	mov    $0x4,%eax
80002157:	48                   	dec    %eax
80002158:	78 0c                	js     80002166 <FS_LoadElf+0xf6>
8000215a:	8a 1e                	mov    (%esi),%bl
8000215c:	46                   	inc    %esi
8000215d:	38 19                	cmp    %bl,(%ecx)
8000215f:	75 09                	jne    8000216a <FS_LoadElf+0xfa>
80002161:	41                   	inc    %ecx
80002162:	84 db                	test   %bl,%bl
80002164:	75 f1                	jne    80002157 <FS_LoadElf+0xe7>
80002166:	31 db                	xor    %ebx,%ebx
80002168:	eb 09                	jmp    80002173 <FS_LoadElf+0x103>
8000216a:	bb 01 00 00 00       	mov    $0x1,%ebx
8000216f:	72 02                	jb     80002173 <FS_LoadElf+0x103>
80002171:	f7 db                	neg    %ebx
80002173:	85 db                	test   %ebx,%ebx
80002175:	75 07                	jne    8000217e <FS_LoadElf+0x10e>
80002177:	66 83 7d b8 01       	cmpw   $0x1,0xffffffb8(%ebp)
8000217c:	74 2a                	je     800021a8 <FS_LoadElf+0x138>
8000217e:	89 7c 24 0c          	mov    %edi,0xc(%esp,1)
80002182:	c7 44 24 08 6a 8e 00 	movl   $0x80008e6a,0x8(%esp,1)
80002189:	80 
8000218a:	c7 44 24 04 ab 8d 00 	movl   $0x80008dab,0x4(%esp,1)
80002191:	80 
80002192:	c7 04 24 00 00 00 00 	movl   $0x0,(%esp,1)
80002199:	e8 02 4d 00 00       	call   80006ea0 <KPrint>
8000219e:	b8 f5 ff ff ff       	mov    $0xfffffff5,%eax
800021a3:	e9 1d ff ff ff       	jmp    800020c5 <FS_LoadElf+0x55>
800021a8:	c7 44 24 0c 01 00 00 	movl   $0x1,0xc(%esp,1)
800021af:	00 
800021b0:	c7 44 24 08 78 91 00 	movl   $0x80009178,0x8(%esp,1)
800021b7:	80 
800021b8:	c7 44 24 04 ab 8d 00 	movl   $0x80008dab,0x4(%esp,1)
800021bf:	80 
800021c0:	c7 04 24 00 00 00 00 	movl   $0x0,(%esp,1)
800021c7:	e8 d4 4c 00 00       	call   80006ea0 <KPrint>
800021cc:	0f b7 75 ba          	movzwl 0xffffffba(%ebp),%esi
800021d0:	c7 44 24 08 78 91 00 	movl   $0x80009178,0x8(%esp,1)
800021d7:	80 
800021d8:	c7 44 24 04 ab 8d 00 	movl   $0x80008dab,0x4(%esp,1)
800021df:	80 
800021e0:	c7 04 24 00 00 00 00 	movl   $0x0,(%esp,1)
800021e7:	89 74 24 0c          	mov    %esi,0xc(%esp,1)
800021eb:	e8 b0 4c 00 00       	call   80006ea0 <KPrint>
800021f0:	31 c0                	xor    %eax,%eax
800021f2:	e9 ce fe ff ff       	jmp    800020c5 <FS_LoadElf+0x55>
800021f7:	89 f6                	mov    %esi,%esi
800021f9:	8d bc 27 00 00 00 00 	lea    0x0(%edi,1),%edi
80002200:	89 7c 24 0c          	mov    %edi,0xc(%esp,1)
80002204:	c7 44 24 08 88 8e 00 	movl   $0x80008e88,0x8(%esp,1)
8000220b:	80 
8000220c:	c7 44 24 04 ab 8d 00 	movl   $0x80008dab,0x4(%esp,1)
80002213:	80 
80002214:	c7 04 24 00 00 00 00 	movl   $0x0,(%esp,1)
8000221b:	e8 80 4c 00 00       	call   80006ea0 <KPrint>
80002220:	b8 f6 ff ff ff       	mov    $0xfffffff6,%eax
80002225:	e9 9b fe ff ff       	jmp    800020c5 <FS_LoadElf+0x55>
8000222a:	8d b6 00 00 00 00    	lea    0x0(%esi),%esi

80002230 <FS_Init>:
80002230:	55                   	push   %ebp
80002231:	89 e5                	mov    %esp,%ebp
80002233:	31 d2                	xor    %edx,%edx
80002235:	83 ec 18             	sub    $0x18,%esp
80002238:	89 15 b8 a5 00 80    	mov    %edx,0x8000a5b8
8000223e:	c7 44 24 04 80 24 00 	movl   $0x80002480,0x4(%esp,1)
80002245:	80 
80002246:	c7 04 24 ab 8d 00 80 	movl   $0x80008dab,(%esp,1)
8000224d:	e8 9e 42 00 00       	call   800064f0 <ModuleManager_CreateModule>
80002252:	c7 44 24 08 00 00 00 	movl   $0x0,0x8(%esp,1)
80002259:	00 
8000225a:	c7 44 24 04 a6 8e 00 	movl   $0x80008ea6,0x4(%esp,1)
80002261:	80 
80002262:	c7 04 24 ab 8d 00 80 	movl   $0x80008dab,(%esp,1)
80002269:	e8 92 43 00 00       	call   80006600 <ModuleManager_CreateModuleCall>
8000226e:	c7 44 24 08 01 00 00 	movl   $0x1,0x8(%esp,1)
80002275:	00 
80002276:	c7 44 24 04 b9 8e 00 	movl   $0x80008eb9,0x4(%esp,1)
8000227d:	80 
8000227e:	c7 04 24 ab 8d 00 80 	movl   $0x80008dab,(%esp,1)
80002285:	e8 76 43 00 00       	call   80006600 <ModuleManager_CreateModuleCall>
8000228a:	c7 44 24 08 02 00 00 	movl   $0x2,0x8(%esp,1)
80002291:	00 
80002292:	c7 44 24 04 bf 8e 00 	movl   $0x80008ebf,0x4(%esp,1)
80002299:	80 
8000229a:	c7 04 24 ab 8d 00 80 	movl   $0x80008dab,(%esp,1)
800022a1:	e8 5a 43 00 00       	call   80006600 <ModuleManager_CreateModuleCall>
800022a6:	c7 04 24 00 20 00 00 	movl   $0x2000,(%esp,1)
800022ad:	e8 de 35 00 00       	call   80005890 <MemoryManager_KAlloc>
800022b2:	a3 24 a4 00 80       	mov    %eax,0x8000a424
800022b7:	c7 04 24 00 20 00 00 	movl   $0x2000,(%esp,1)
800022be:	e8 cd 35 00 00       	call   80005890 <MemoryManager_KAlloc>
800022c3:	a3 28 a4 00 80       	mov    %eax,0x8000a428
800022c8:	c7 04 24 00 20 00 00 	movl   $0x2000,(%esp,1)
800022cf:	e8 bc 35 00 00       	call   80005890 <MemoryManager_KAlloc>
800022d4:	a3 20 a4 00 80       	mov    %eax,0x8000a420
800022d9:	c7 44 24 08 c4 8e 00 	movl   $0x80008ec4,0x8(%esp,1)
800022e0:	80 
800022e1:	c7 44 24 04 ab 8d 00 	movl   $0x80008dab,0x4(%esp,1)
800022e8:	80 
800022e9:	c7 04 24 01 00 00 00 	movl   $0x1,(%esp,1)
800022f0:	e8 ab 4b 00 00       	call   80006ea0 <KPrint>
800022f5:	89 ec                	mov    %ebp,%esp
800022f7:	5d                   	pop    %ebp
800022f8:	c3                   	ret    
800022f9:	8d b4 26 00 00 00 00 	lea    0x0(%esi,1),%esi

80002300 <FS_RegisterFilesystem>:
80002300:	55                   	push   %ebp
80002301:	89 e5                	mov    %esp,%ebp
80002303:	83 ec 18             	sub    $0x18,%esp
80002306:	89 5d fc             	mov    %ebx,0xfffffffc(%ebp)
80002309:	8b 5d 08             	mov    0x8(%ebp),%ebx
8000230c:	e8 bf 12 00 00       	call   800035d0 <ObjectManager_Lock>
80002311:	c7 44 24 04 04 00 00 	movl   $0x4,0x4(%esp,1)
80002318:	00 
80002319:	c7 04 24 0b 00 00 00 	movl   $0xb,(%esp,1)
80002320:	89 5c 24 08          	mov    %ebx,0x8(%esp,1)
80002324:	e8 b7 11 00 00       	call   800034e0 <ObjectManager_CreateObject>
80002329:	8b 48 4c             	mov    0x4c(%eax),%ecx
8000232c:	8b 45 0c             	mov    0xc(%ebp),%eax
8000232f:	89 01                	mov    %eax,(%ecx)
80002331:	e8 ba 12 00 00       	call   800035f0 <ObjectManager_Unlock>
80002336:	c7 04 24 00 00 00 00 	movl   $0x0,(%esp,1)
8000233d:	89 5c 24 0c          	mov    %ebx,0xc(%esp,1)
80002341:	c7 44 24 08 dd 8e 00 	movl   $0x80008edd,0x8(%esp,1)
80002348:	80 
80002349:	c7 44 24 04 ab 8d 00 	movl   $0x80008dab,0x4(%esp,1)
80002350:	80 
80002351:	e8 4a 4b 00 00       	call   80006ea0 <KPrint>
80002356:	8b 5d fc             	mov    0xfffffffc(%ebp),%ebx
80002359:	31 c0                	xor    %eax,%eax
8000235b:	89 ec                	mov    %ebp,%esp
8000235d:	5d                   	pop    %ebp
8000235e:	c3                   	ret    
8000235f:	90                   	nop    

80002360 <FS_RegisterFilesystemCall>:
80002360:	55                   	push   %ebp
80002361:	89 e5                	mov    %esp,%ebp
80002363:	83 ec 18             	sub    $0x18,%esp
80002366:	89 5d f8             	mov    %ebx,0xfffffff8(%ebp)
80002369:	8b 45 08             	mov    0x8(%ebp),%eax
8000236c:	89 75 fc             	mov    %esi,0xfffffffc(%ebp)
8000236f:	8b 18                	mov    (%eax),%ebx
80002371:	8b 70 04             	mov    0x4(%eax),%esi
80002374:	e8 57 12 00 00       	call   800035d0 <ObjectManager_Lock>
80002379:	c7 04 24 0b 00 00 00 	movl   $0xb,(%esp,1)
80002380:	c7 44 24 04 04 00 00 	movl   $0x4,0x4(%esp,1)
80002387:	00 
80002388:	89 5c 24 08          	mov    %ebx,0x8(%esp,1)
8000238c:	e8 4f 11 00 00       	call   800034e0 <ObjectManager_CreateObject>
80002391:	8b 40 4c             	mov    0x4c(%eax),%eax
80002394:	89 30                	mov    %esi,(%eax)
80002396:	e8 55 12 00 00       	call   800035f0 <ObjectManager_Unlock>
8000239b:	c7 04 24 00 00 00 00 	movl   $0x0,(%esp,1)
800023a2:	89 5c 24 0c          	mov    %ebx,0xc(%esp,1)
800023a6:	c7 44 24 08 dd 8e 00 	movl   $0x80008edd,0x8(%esp,1)
800023ad:	80 
800023ae:	c7 44 24 04 ab 8d 00 	movl   $0x80008dab,0x4(%esp,1)
800023b5:	80 
800023b6:	e8 e5 4a 00 00       	call   80006ea0 <KPrint>
800023bb:	8b 75 fc             	mov    0xfffffffc(%ebp),%esi
800023be:	31 c0                	xor    %eax,%eax
800023c0:	8b 5d f8             	mov    0xfffffff8(%ebp),%ebx
800023c3:	89 ec                	mov    %ebp,%esp
800023c5:	5d                   	pop    %ebp
800023c6:	c3                   	ret    
800023c7:	89 f6                	mov    %esi,%esi
800023c9:	8d bc 27 00 00 00 00 	lea    0x0(%edi,1),%edi

800023d0 <FS_MountCall>:
800023d0:	55                   	push   %ebp
800023d1:	89 e5                	mov    %esp,%ebp
800023d3:	83 ec 18             	sub    $0x18,%esp
800023d6:	8b 4d 08             	mov    0x8(%ebp),%ecx
800023d9:	8b 41 10             	mov    0x10(%ecx),%eax
800023dc:	89 44 24 0c          	mov    %eax,0xc(%esp,1)
800023e0:	8b 41 08             	mov    0x8(%ecx),%eax
800023e3:	89 44 24 08          	mov    %eax,0x8(%esp,1)
800023e7:	8b 41 04             	mov    0x4(%ecx),%eax
800023ea:	89 44 24 04          	mov    %eax,0x4(%esp,1)
800023ee:	8b 01                	mov    (%ecx),%eax
800023f0:	89 04 24             	mov    %eax,(%esp,1)
800023f3:	e8 f8 f6 ff ff       	call   80001af0 <FS_Mount>
800023f8:	89 ec                	mov    %ebp,%esp
800023fa:	5d                   	pop    %ebp
800023fb:	c3                   	ret    
800023fc:	8d 74 26 00          	lea    0x0(%esi,1),%esi

80002400 <FS_Read>:
80002400:	55                   	push   %ebp
80002401:	89 e5                	mov    %esp,%ebp
80002403:	83 ec 28             	sub    $0x28,%esp
80002406:	89 75 fc             	mov    %esi,0xfffffffc(%ebp)
80002409:	8b 75 14             	mov    0x14(%ebp),%esi
8000240c:	89 5d f8             	mov    %ebx,0xfffffff8(%ebp)
8000240f:	c7 06 00 00 00 00    	movl   $0x0,(%esi)
80002415:	e8 b6 11 00 00       	call   800035d0 <ObjectManager_Lock>
8000241a:	c7 04 24 00 00 00 00 	movl   $0x0,(%esp,1)
80002421:	8b 45 08             	mov    0x8(%ebp),%eax
80002424:	c7 44 24 04 0d 00 00 	movl   $0xd,0x4(%esp,1)
8000242b:	00 
8000242c:	89 44 24 08          	mov    %eax,0x8(%esp,1)
80002430:	e8 ab 16 00 00       	call   80003ae0 <ObjectManager_SearchInClassTypeIndex>
80002435:	89 c3                	mov    %eax,%ebx
80002437:	e8 b4 11 00 00       	call   800035f0 <ObjectManager_Unlock>
8000243c:	85 db                	test   %ebx,%ebx
8000243e:	b8 f7 ff ff ff       	mov    $0xfffffff7,%eax
80002443:	74 2a                	je     8000246f <FS_Read+0x6f>
80002445:	89 75 f4             	mov    %esi,0xfffffff4(%ebp)
80002448:	8b 53 4c             	mov    0x4c(%ebx),%edx
8000244b:	8b 45 0c             	mov    0xc(%ebp),%eax
8000244e:	89 55 e8             	mov    %edx,0xffffffe8(%ebp)
80002451:	8b 0a                	mov    (%edx),%ecx
80002453:	8d 55 e8             	lea    0xffffffe8(%ebp),%edx
80002456:	89 45 ec             	mov    %eax,0xffffffec(%ebp)
80002459:	8b 45 10             	mov    0x10(%ebp),%eax
8000245c:	8b 59 0c             	mov    0xc(%ecx),%ebx
8000245f:	c7 04 24 01 00 00 00 	movl   $0x1,(%esp,1)
80002466:	89 54 24 04          	mov    %edx,0x4(%esp,1)
8000246a:	89 45 f0             	mov    %eax,0xfffffff0(%ebp)
8000246d:	ff 13                	call   *(%ebx)
8000246f:	8b 5d f8             	mov    0xfffffff8(%ebp),%ebx
80002472:	8b 75 fc             	mov    0xfffffffc(%ebp),%esi
80002475:	89 ec                	mov    %ebp,%esp
80002477:	5d                   	pop    %ebp
80002478:	c3                   	ret    
80002479:	8d b4 26 00 00 00 00 	lea    0x0(%esi,1),%esi

80002480 <FS_Handler>:
80002480:	55                   	push   %ebp
80002481:	89 e5                	mov    %esp,%ebp
80002483:	83 ec 18             	sub    $0x18,%esp
80002486:	89 5d f8             	mov    %ebx,0xfffffff8(%ebp)
80002489:	8b 45 08             	mov    0x8(%ebp),%eax
8000248c:	8b 55 0c             	mov    0xc(%ebp),%edx
8000248f:	89 75 fc             	mov    %esi,0xfffffffc(%ebp)
80002492:	85 c0                	test   %eax,%eax
80002494:	74 4a                	je     800024e0 <FS_Handler+0x60>
80002496:	48                   	dec    %eax
80002497:	74 17                	je     800024b0 <FS_Handler+0x30>
80002499:	b8 fc ff ff ff       	mov    $0xfffffffc,%eax
8000249e:	8b 5d f8             	mov    0xfffffff8(%ebp),%ebx
800024a1:	8b 75 fc             	mov    0xfffffffc(%ebp),%esi
800024a4:	89 ec                	mov    %ebp,%esp
800024a6:	5d                   	pop    %ebp
800024a7:	c3                   	ret    
800024a8:	90                   	nop    
800024a9:	8d b4 26 00 00 00 00 	lea    0x0(%esi,1),%esi
800024b0:	8b 42 10             	mov    0x10(%edx),%eax
800024b3:	89 44 24 0c          	mov    %eax,0xc(%esp,1)
800024b7:	8b 42 08             	mov    0x8(%edx),%eax
800024ba:	89 44 24 08          	mov    %eax,0x8(%esp,1)
800024be:	8b 42 04             	mov    0x4(%edx),%eax
800024c1:	89 44 24 04          	mov    %eax,0x4(%esp,1)
800024c5:	8b 02                	mov    (%edx),%eax
800024c7:	89 04 24             	mov    %eax,(%esp,1)
800024ca:	e8 21 f6 ff ff       	call   80001af0 <FS_Mount>
800024cf:	eb cd                	jmp    8000249e <FS_Handler+0x1e>
800024d1:	eb 0d                	jmp    800024e0 <FS_Handler+0x60>
800024d3:	90                   	nop    
800024d4:	90                   	nop    
800024d5:	90                   	nop    
800024d6:	90                   	nop    
800024d7:	90                   	nop    
800024d8:	90                   	nop    
800024d9:	90                   	nop    
800024da:	90                   	nop    
800024db:	90                   	nop    
800024dc:	90                   	nop    
800024dd:	90                   	nop    
800024de:	90                   	nop    
800024df:	90                   	nop    
800024e0:	8b 1a                	mov    (%edx),%ebx
800024e2:	8b 72 04             	mov    0x4(%edx),%esi
800024e5:	e8 e6 10 00 00       	call   800035d0 <ObjectManager_Lock>
800024ea:	c7 04 24 0b 00 00 00 	movl   $0xb,(%esp,1)
800024f1:	c7 44 24 04 04 00 00 	movl   $0x4,0x4(%esp,1)
800024f8:	00 
800024f9:	89 5c 24 08          	mov    %ebx,0x8(%esp,1)
800024fd:	e8 de 0f 00 00       	call   800034e0 <ObjectManager_CreateObject>
80002502:	8b 40 4c             	mov    0x4c(%eax),%eax
80002505:	89 30                	mov    %esi,(%eax)
80002507:	e8 e4 10 00 00       	call   800035f0 <ObjectManager_Unlock>
8000250c:	c7 04 24 00 00 00 00 	movl   $0x0,(%esp,1)
80002513:	89 5c 24 0c          	mov    %ebx,0xc(%esp,1)
80002517:	c7 44 24 08 dd 8e 00 	movl   $0x80008edd,0x8(%esp,1)
8000251e:	80 
8000251f:	c7 44 24 04 ab 8d 00 	movl   $0x80008dab,0x4(%esp,1)
80002526:	80 
80002527:	e8 74 49 00 00       	call   80006ea0 <KPrint>
8000252c:	31 c0                	xor    %eax,%eax
8000252e:	e9 6b ff ff ff       	jmp    8000249e <FS_Handler+0x1e>
	...

80002540 <Kernel_Main>:
80002540:	55                   	push   %ebp
80002541:	89 e5                	mov    %esp,%ebp
80002543:	53                   	push   %ebx
80002544:	83 ec 14             	sub    $0x14,%esp
80002547:	a1 52 08 00 80       	mov    0x80000852,%eax
8000254c:	8b 5d 08             	mov    0x8(%ebp),%ebx
8000254f:	a3 4c a4 00 80       	mov    %eax,0x8000a44c
80002554:	c1 e0 0c             	shl    $0xc,%eax
80002557:	2d 00 a0 ff 7f       	sub    $0x7fffa000,%eax
8000255c:	a3 50 a4 00 80       	mov    %eax,0x8000a450
80002561:	a1 56 08 00 80       	mov    0x80000856,%eax
80002566:	a3 54 a4 00 80       	mov    %eax,0x8000a454
8000256b:	b8 00 00 c0 8f       	mov    $0x8fc00000,%eax
80002570:	a3 58 a4 00 80       	mov    %eax,0x8000a458
80002575:	a1 62 08 00 80       	mov    0x80000862,%eax
8000257a:	a3 5c a4 00 80       	mov    %eax,0x8000a45c
8000257f:	b8 4c 00 00 80       	mov    $0x8000004c,%eax
80002584:	a3 40 a4 00 80       	mov    %eax,0x8000a440
80002589:	b8 14 00 00 80       	mov    $0x80000014,%eax
8000258e:	a3 44 a4 00 80       	mov    %eax,0x8000a444
80002593:	31 c0                	xor    %eax,%eax
80002595:	a3 bc a5 00 80       	mov    %eax,0x8000a5bc
8000259a:	31 c0                	xor    %eax,%eax
8000259c:	a3 c0 a5 00 80       	mov    %eax,0x8000a5c0
800025a1:	8b 43 10             	mov    0x10(%ebx),%eax
800025a4:	89 04 24             	mov    %eax,(%esp,1)
800025a7:	e8 84 00 00 00       	call   80002630 <Kernel_ParseParameters>
800025ac:	e8 bf 4e 00 00       	call   80007470 <Console_Init>
800025b1:	89 1c 24             	mov    %ebx,(%esp,1)
800025b4:	e8 07 02 00 00       	call   800027c0 <Kernel_ParseBootModules>
800025b9:	e8 02 04 00 00       	call   800029c0 <InterruptManager_Init>
800025be:	89 1c 24             	mov    %ebx,(%esp,1)
800025c1:	e8 5a 24 00 00       	call   80004a20 <MemoryManager_Init>
800025c6:	e8 75 3e 00 00       	call   80006440 <ModuleManager_Init>
800025cb:	e8 40 10 00 00       	call   80003610 <ObjectManager_Init>
800025d0:	e8 bb 06 00 00       	call   80002c90 <InterruptManager_CreateModuleInterface>
800025d5:	e8 26 2e 00 00       	call   80005400 <MemoryManager_CreateModuleInterface>
800025da:	e8 71 4f 00 00       	call   80007550 <Console_CreateModuleInterface>
800025df:	e8 bc f0 ff ff       	call   800016a0 <DeviceManager_Init>
800025e4:	e8 f7 45 00 00       	call   80006be0 <PIC_Init>
800025e9:	e8 b2 47 00 00       	call   80006da0 <PIT_Init>
800025ee:	e8 4d 44 00 00       	call   80006a40 <TimerManager_Init>
800025f3:	e8 48 1b 00 00       	call   80004140 <ProcessManager_Init>
800025f8:	e8 c3 34 00 00       	call   80005ac0 <MessageManager_Init>
800025fd:	e8 0e 0b 00 00       	call   80003110 <IOManager_Init>
80002602:	e8 29 fc ff ff       	call   80002230 <FS_Init>
80002607:	e8 44 f2 ff ff       	call   80001850 <DMMFileIO_Init>
8000260c:	e8 bf 02 00 00       	call   800028d0 <Kernel_LoadBootModules>
80002611:	b8 01 00 00 00       	mov    $0x1,%eax
80002616:	a3 a8 a2 00 80       	mov    %eax,0x8000a2a8
8000261b:	fb                   	sti    
8000261c:	8d 74 26 00          	lea    0x0(%esi,1),%esi
80002620:	90                   	nop    
80002621:	eb fd                	jmp    80002620 <Kernel_Main+0xe0>
80002623:	8d b6 00 00 00 00    	lea    0x0(%esi),%esi
80002629:	8d bc 27 00 00 00 00 	lea    0x0(%edi,1),%edi

80002630 <Kernel_ParseParameters>:
80002630:	55                   	push   %ebp
80002631:	89 e5                	mov    %esp,%ebp
80002633:	31 c9                	xor    %ecx,%ecx
80002635:	57                   	push   %edi
80002636:	56                   	push   %esi
80002637:	53                   	push   %ebx
80002638:	83 ec 04             	sub    $0x4,%esp
8000263b:	8b 7d 08             	mov    0x8(%ebp),%edi
8000263e:	0f b6 17             	movzbl (%edi),%edx
80002641:	84 d2                	test   %dl,%dl
80002643:	0f 84 60 01 00 00    	je     800027a9 <Kernel_ParseParameters+0x179>
80002649:	0f b6 f2             	movzbl %dl,%esi
8000264c:	0f b6 9e e0 a2 00 80 	movzbl 0x8000a2e0(%esi),%ebx
80002653:	80 e3 20             	and    $0x20,%bl
80002656:	84 db                	test   %bl,%bl
80002658:	75 24                	jne    8000267e <Kernel_ParseParameters+0x4e>
8000265a:	8d b6 00 00 00 00    	lea    0x0(%esi),%esi
80002660:	41                   	inc    %ecx
80002661:	0f b6 14 39          	movzbl (%ecx,%edi,1),%edx
80002665:	84 d2                	test   %dl,%dl
80002667:	0f 84 eb 00 00 00    	je     80002758 <Kernel_ParseParameters+0x128>
8000266d:	0f b6 f2             	movzbl %dl,%esi
80002670:	0f b6 9e e0 a2 00 80 	movzbl 0x8000a2e0(%esi),%ebx
80002677:	80 e3 20             	and    $0x20,%bl
8000267a:	84 db                	test   %bl,%bl
8000267c:	74 e2                	je     80002660 <Kernel_ParseParameters+0x30>
8000267e:	c7 45 f0 00 00 00 00 	movl   $0x0,0xfffffff0(%ebp)
80002685:	84 d2                	test   %dl,%dl
80002687:	0f 84 cb 00 00 00    	je     80002758 <Kernel_ParseParameters+0x128>
8000268d:	8d 76 00             	lea    0x0(%esi),%esi
80002690:	0f b6 f2             	movzbl %dl,%esi
80002693:	0f b6 9e e0 a2 00 80 	movzbl 0x8000a2e0(%esi),%ebx
8000269a:	80 e3 20             	and    $0x20,%bl
8000269d:	84 db                	test   %bl,%bl
8000269f:	74 25                	je     800026c6 <Kernel_ParseParameters+0x96>
800026a1:	eb 0d                	jmp    800026b0 <Kernel_ParseParameters+0x80>
800026a3:	90                   	nop    
800026a4:	90                   	nop    
800026a5:	90                   	nop    
800026a6:	90                   	nop    
800026a7:	90                   	nop    
800026a8:	90                   	nop    
800026a9:	90                   	nop    
800026aa:	90                   	nop    
800026ab:	90                   	nop    
800026ac:	90                   	nop    
800026ad:	90                   	nop    
800026ae:	90                   	nop    
800026af:	90                   	nop    
800026b0:	41                   	inc    %ecx
800026b1:	0f b6 14 39          	movzbl (%ecx,%edi,1),%edx
800026b5:	0f b6 f2             	movzbl %dl,%esi
800026b8:	0f b6 9e e0 a2 00 80 	movzbl 0x8000a2e0(%esi),%ebx
800026bf:	80 e3 20             	and    $0x20,%bl
800026c2:	84 db                	test   %bl,%bl
800026c4:	75 ea                	jne    800026b0 <Kernel_ParseParameters+0x80>
800026c6:	84 d2                	test   %dl,%dl
800026c8:	89 ce                	mov    %ecx,%esi
800026ca:	0f 84 d0 00 00 00    	je     800027a0 <Kernel_ParseParameters+0x170>
800026d0:	0f b6 da             	movzbl %dl,%ebx
800026d3:	0f b6 93 e0 a2 00 80 	movzbl 0x8000a2e0(%ebx),%edx
800026da:	80 e2 20             	and    $0x20,%dl
800026dd:	84 d2                	test   %dl,%dl
800026df:	0f 85 bb 00 00 00    	jne    800027a0 <Kernel_ParseParameters+0x170>
800026e5:	8d 74 26 00          	lea    0x0(%esi,1),%esi
800026e9:	8d bc 27 00 00 00 00 	lea    0x0(%edi,1),%edi
800026f0:	46                   	inc    %esi
800026f1:	0f b6 14 3e          	movzbl (%esi,%edi,1),%edx
800026f5:	84 d2                	test   %dl,%dl
800026f7:	74 15                	je     8000270e <Kernel_ParseParameters+0xde>
800026f9:	0f b6 c2             	movzbl %dl,%eax
800026fc:	0f b6 98 e0 a2 00 80 	movzbl 0x8000a2e0(%eax),%ebx
80002703:	80 e3 20             	and    $0x20,%bl
80002706:	84 db                	test   %bl,%bl
80002708:	74 e6                	je     800026f0 <Kernel_ParseParameters+0xc0>
8000270a:	84 d2                	test   %dl,%dl
8000270c:	75 07                	jne    80002715 <Kernel_ParseParameters+0xe5>
8000270e:	c7 45 f0 01 00 00 00 	movl   $0x1,0xfffffff0(%ebp)
80002715:	8d 1c 39             	lea    (%ecx,%edi,1),%ebx
80002718:	b8 7f 8f 00 80       	mov    $0x80008f7f,%eax
8000271d:	89 d9                	mov    %ebx,%ecx
8000271f:	8a 10                	mov    (%eax),%dl
80002721:	40                   	inc    %eax
80002722:	38 11                	cmp    %dl,(%ecx)
80002724:	75 09                	jne    8000272f <Kernel_ParseParameters+0xff>
80002726:	41                   	inc    %ecx
80002727:	84 d2                	test   %dl,%dl
80002729:	75 f4                	jne    8000271f <Kernel_ParseParameters+0xef>
8000272b:	31 d2                	xor    %edx,%edx
8000272d:	eb 09                	jmp    80002738 <Kernel_ParseParameters+0x108>
8000272f:	ba 01 00 00 00       	mov    $0x1,%edx
80002734:	72 02                	jb     80002738 <Kernel_ParseParameters+0x108>
80002736:	f7 da                	neg    %edx
80002738:	85 d2                	test   %edx,%edx
8000273a:	75 22                	jne    8000275e <Kernel_ParseParameters+0x12e>
8000273c:	b8 01 00 00 00       	mov    $0x1,%eax
80002741:	a3 bc a5 00 80       	mov    %eax,0x8000a5bc
80002746:	8b 45 f0             	mov    0xfffffff0(%ebp),%eax
80002749:	89 f1                	mov    %esi,%ecx
8000274b:	85 c0                	test   %eax,%eax
8000274d:	75 09                	jne    80002758 <Kernel_ParseParameters+0x128>
8000274f:	0f b6 14 3e          	movzbl (%esi,%edi,1),%edx
80002753:	e9 38 ff ff ff       	jmp    80002690 <Kernel_ParseParameters+0x60>
80002758:	58                   	pop    %eax
80002759:	5b                   	pop    %ebx
8000275a:	5e                   	pop    %esi
8000275b:	5f                   	pop    %edi
8000275c:	5d                   	pop    %ebp
8000275d:	c3                   	ret    
8000275e:	b8 85 8f 00 80       	mov    $0x80008f85,%eax
80002763:	8a 08                	mov    (%eax),%cl
80002765:	40                   	inc    %eax
80002766:	38 0b                	cmp    %cl,(%ebx)
80002768:	75 09                	jne    80002773 <Kernel_ParseParameters+0x143>
8000276a:	43                   	inc    %ebx
8000276b:	84 c9                	test   %cl,%cl
8000276d:	75 f4                	jne    80002763 <Kernel_ParseParameters+0x133>
8000276f:	31 c9                	xor    %ecx,%ecx
80002771:	eb 09                	jmp    8000277c <Kernel_ParseParameters+0x14c>
80002773:	b9 01 00 00 00       	mov    $0x1,%ecx
80002778:	72 02                	jb     8000277c <Kernel_ParseParameters+0x14c>
8000277a:	f7 d9                	neg    %ecx
8000277c:	85 c9                	test   %ecx,%ecx
8000277e:	75 c6                	jne    80002746 <Kernel_ParseParameters+0x116>
80002780:	bb 01 00 00 00       	mov    $0x1,%ebx
80002785:	b8 01 00 00 00       	mov    $0x1,%eax
8000278a:	89 1d bc a5 00 80    	mov    %ebx,0x8000a5bc
80002790:	a3 c0 a5 00 80       	mov    %eax,0x8000a5c0
80002795:	eb af                	jmp    80002746 <Kernel_ParseParameters+0x116>
80002797:	89 f6                	mov    %esi,%esi
80002799:	8d bc 27 00 00 00 00 	lea    0x0(%edi,1),%edi
800027a0:	0f b6 14 39          	movzbl (%ecx,%edi,1),%edx
800027a4:	e9 61 ff ff ff       	jmp    8000270a <Kernel_ParseParameters+0xda>
800027a9:	0f b6 17             	movzbl (%edi),%edx
800027ac:	e9 cd fe ff ff       	jmp    8000267e <Kernel_ParseParameters+0x4e>
800027b1:	eb 0d                	jmp    800027c0 <Kernel_ParseBootModules>
800027b3:	90                   	nop    
800027b4:	90                   	nop    
800027b5:	90                   	nop    
800027b6:	90                   	nop    
800027b7:	90                   	nop    
800027b8:	90                   	nop    
800027b9:	90                   	nop    
800027ba:	90                   	nop    
800027bb:	90                   	nop    
800027bc:	90                   	nop    
800027bd:	90                   	nop    
800027be:	90                   	nop    
800027bf:	90                   	nop    

800027c0 <Kernel_ParseBootModules>:
800027c0:	55                   	push   %ebp
800027c1:	89 e5                	mov    %esp,%ebp
800027c3:	31 d2                	xor    %edx,%edx
800027c5:	57                   	push   %edi
800027c6:	56                   	push   %esi
800027c7:	53                   	push   %ebx
800027c8:	83 ec 2c             	sub    $0x2c,%esp
800027cb:	89 15 2c a5 00 80    	mov    %edx,0x8000a52c
800027d1:	8b 5d 08             	mov    0x8(%ebp),%ebx
800027d4:	8b 43 14             	mov    0x14(%ebx),%eax
800027d7:	a3 28 a5 00 80       	mov    %eax,0x8000a528
800027dc:	83 f8 08             	cmp    $0x8,%eax
800027df:	0f 87 bb 00 00 00    	ja     800028a0 <Kernel_ParseBootModules+0xe0>
800027e5:	c7 44 24 08 8d 8f 00 	movl   $0x80008f8d,0x8(%esp,1)
800027ec:	80 
800027ed:	a1 28 a5 00 80       	mov    0x8000a528,%eax
800027f2:	31 ff                	xor    %edi,%edi
800027f4:	c7 44 24 04 a9 8f 00 	movl   $0x80008fa9,0x4(%esp,1)
800027fb:	80 
800027fc:	c7 04 24 00 00 00 00 	movl   $0x0,(%esp,1)
80002803:	89 44 24 0c          	mov    %eax,0xc(%esp,1)
80002807:	e8 94 46 00 00       	call   80006ea0 <KPrint>
8000280c:	3b 3d 28 a5 00 80    	cmp    0x8000a528,%edi
80002812:	8b 73 18             	mov    0x18(%ebx),%esi
80002815:	72 09                	jb     80002820 <Kernel_ParseBootModules+0x60>
80002817:	83 c4 2c             	add    $0x2c,%esp
8000281a:	5b                   	pop    %ebx
8000281b:	5e                   	pop    %esi
8000281c:	5f                   	pop    %edi
8000281d:	5d                   	pop    %ebp
8000281e:	c3                   	ret    
8000281f:	90                   	nop    
80002820:	89 fb                	mov    %edi,%ebx
80002822:	c1 e3 04             	shl    $0x4,%ebx
80002825:	8b 46 04             	mov    0x4(%esi),%eax
80002828:	8d 93 30 a5 00 80    	lea    0x8000a530(%ebx),%edx
8000282e:	47                   	inc    %edi
8000282f:	89 55 f0             	mov    %edx,0xfffffff0(%ebp)
80002832:	8b 16                	mov    (%esi),%edx
80002834:	83 c6 10             	add    $0x10,%esi
80002837:	8b 4d f0             	mov    0xfffffff0(%ebp),%ecx
8000283a:	89 93 30 a5 00 80    	mov    %edx,0x8000a530(%ebx)
80002840:	89 41 04             	mov    %eax,0x4(%ecx)
80002843:	89 c1                	mov    %eax,%ecx
80002845:	25 00 f0 ff ff       	and    $0xfffff000,%eax
8000284a:	29 d1                	sub    %edx,%ecx
8000284c:	89 ca                	mov    %ecx,%edx
8000284e:	8b 4d f0             	mov    0xfffffff0(%ebp),%ecx
80002851:	05 00 10 00 00       	add    $0x1000,%eax
80002856:	a3 2c a5 00 80       	mov    %eax,0x8000a52c
8000285b:	89 51 08             	mov    %edx,0x8(%ecx)
8000285e:	89 44 24 18          	mov    %eax,0x18(%esp,1)
80002862:	89 54 24 14          	mov    %edx,0x14(%esp,1)
80002866:	8b 41 04             	mov    0x4(%ecx),%eax
80002869:	c7 04 24 00 00 00 00 	movl   $0x0,(%esp,1)
80002870:	c7 44 24 08 e0 8f 00 	movl   $0x80008fe0,0x8(%esp,1)
80002877:	80 
80002878:	c7 44 24 04 a9 8f 00 	movl   $0x80008fa9,0x4(%esp,1)
8000287f:	80 
80002880:	89 44 24 10          	mov    %eax,0x10(%esp,1)
80002884:	8b 83 30 a5 00 80    	mov    0x8000a530(%ebx),%eax
8000288a:	89 44 24 0c          	mov    %eax,0xc(%esp,1)
8000288e:	e8 0d 46 00 00       	call   80006ea0 <KPrint>
80002893:	3b 3d 28 a5 00 80    	cmp    0x8000a528,%edi
80002899:	72 85                	jb     80002820 <Kernel_ParseBootModules+0x60>
8000289b:	e9 77 ff ff ff       	jmp    80002817 <Kernel_ParseBootModules+0x57>
800028a0:	c7 44 24 08 20 90 00 	movl   $0x80009020,0x8(%esp,1)
800028a7:	80 
800028a8:	c7 44 24 04 a9 8f 00 	movl   $0x80008fa9,0x4(%esp,1)
800028af:	80 
800028b0:	c7 04 24 02 00 00 00 	movl   $0x2,(%esp,1)
800028b7:	e8 e4 45 00 00       	call   80006ea0 <KPrint>
800028bc:	e8 22 e1 ff ff       	call   800009e3 <halt>
800028c1:	e9 1f ff ff ff       	jmp    800027e5 <Kernel_ParseBootModules+0x25>
800028c6:	8d 76 00             	lea    0x0(%esi),%esi
800028c9:	8d bc 27 00 00 00 00 	lea    0x0(%edi,1),%edi

800028d0 <Kernel_LoadBootModules>:
800028d0:	55                   	push   %ebp
800028d1:	89 e5                	mov    %esp,%ebp
800028d3:	83 ec 68             	sub    $0x68,%esp
800028d6:	89 5d f8             	mov    %ebx,0xfffffff8(%ebp)
800028d9:	a1 30 a5 00 80       	mov    0x8000a530,%eax
800028de:	8b 1d 38 a5 00 80    	mov    0x8000a538,%ebx
800028e4:	89 75 fc             	mov    %esi,0xfffffffc(%ebp)
800028e7:	8d 75 b8             	lea    0xffffffb8(%ebp),%esi
800028ea:	81 c3 ff 0f 00 00    	add    $0xfff,%ebx
800028f0:	89 34 24             	mov    %esi,(%esp,1)
800028f3:	c1 eb 0c             	shr    $0xc,%ebx
800028f6:	89 5c 24 10          	mov    %ebx,0x10(%esp,1)
800028fa:	89 44 24 0c          	mov    %eax,0xc(%esp,1)
800028fe:	c7 44 24 08 b0 8f 00 	movl   $0x80008fb0,0x8(%esp,1)
80002905:	80 
80002906:	c7 44 24 04 40 00 00 	movl   $0x40,0x4(%esp,1)
8000290d:	00 
8000290e:	e8 bd 56 00 00       	call   80007fd0 <snprintf>
80002913:	89 74 24 0c          	mov    %esi,0xc(%esp,1)
80002917:	c7 44 24 08 a8 8d 00 	movl   $0x80008da8,0x8(%esp,1)
8000291e:	80 
8000291f:	c7 44 24 04 9d 8d 00 	movl   $0x80008d9d,0x4(%esp,1)
80002926:	80 
80002927:	c7 04 24 ba 8f 00 80 	movl   $0x80008fba,(%esp,1)
8000292e:	e8 bd f1 ff ff       	call   80001af0 <FS_Mount>
80002933:	c7 04 24 bf 8f 00 80 	movl   $0x80008fbf,(%esp,1)
8000293a:	e8 f1 40 00 00       	call   80006a30 <ModuleManager_Load>
8000293f:	a1 30 a5 00 80       	mov    0x8000a530,%eax
80002944:	89 5c 24 14          	mov    %ebx,0x14(%esp,1)
80002948:	c7 44 24 08 60 90 00 	movl   $0x80009060,0x8(%esp,1)
8000294f:	80 
80002950:	89 44 24 10          	mov    %eax,0x10(%esp,1)
80002954:	a1 6c a4 00 80       	mov    0x8000a46c,%eax
80002959:	c7 44 24 04 a9 8f 00 	movl   $0x80008fa9,0x4(%esp,1)
80002960:	80 
80002961:	c7 04 24 00 00 00 00 	movl   $0x0,(%esp,1)
80002968:	89 44 24 0c          	mov    %eax,0xc(%esp,1)
8000296c:	e8 2f 45 00 00       	call   80006ea0 <KPrint>
80002971:	8b 75 fc             	mov    0xfffffffc(%ebp),%esi
80002974:	8b 5d f8             	mov    0xfffffff8(%ebp),%ebx
80002977:	89 ec                	mov    %ebp,%esp
80002979:	5d                   	pop    %ebp
8000297a:	c3                   	ret    
8000297b:	90                   	nop    
8000297c:	8d 74 26 00          	lea    0x0(%esi,1),%esi

80002980 <Kernel_ExecuteBootModules>:
80002980:	55                   	push   %ebp
80002981:	89 e5                	mov    %esp,%ebp
80002983:	56                   	push   %esi
80002984:	31 f6                	xor    %esi,%esi
80002986:	3b 35 28 a5 00 80    	cmp    0x8000a528,%esi
8000298c:	53                   	push   %ebx
8000298d:	73 1f                	jae    800029ae <Kernel_ExecuteBootModules+0x2e>
8000298f:	bb 3c a5 00 80       	mov    $0x8000a53c,%ebx
80002994:	8d b6 00 00 00 00    	lea    0x0(%esi),%esi
8000299a:	8d bf 00 00 00 00    	lea    0x0(%edi),%edi
800029a0:	46                   	inc    %esi
800029a1:	ff 13                	call   *(%ebx)
800029a3:	83 c3 10             	add    $0x10,%ebx
800029a6:	3b 35 28 a5 00 80    	cmp    0x8000a528,%esi
800029ac:	72 f2                	jb     800029a0 <Kernel_ExecuteBootModules+0x20>
800029ae:	5b                   	pop    %ebx
800029af:	5e                   	pop    %esi
800029b0:	5d                   	pop    %ebp
800029b1:	c3                   	ret    
	...

800029c0 <InterruptManager_Init>:
800029c0:	55                   	push   %ebp
800029c1:	89 e5                	mov    %esp,%ebp
800029c3:	b8 e0 a3 00 80       	mov    $0x8000a3e0,%eax
800029c8:	53                   	push   %ebx
800029c9:	31 db                	xor    %ebx,%ebx
800029cb:	83 ec 14             	sub    $0x14,%esp
800029ce:	c7 04 98 00 00 00 00 	movl   $0x0,(%eax,%ebx,4)
800029d5:	43                   	inc    %ebx
800029d6:	83 fb 0f             	cmp    $0xf,%ebx
800029d9:	76 f3                	jbe    800029ce <InterruptManager_Init+0xe>
800029db:	31 db                	xor    %ebx,%ebx
800029dd:	8d 76 00             	lea    0x0(%esi),%esi
800029e0:	89 1c 24             	mov    %ebx,(%esp,1)
800029e3:	43                   	inc    %ebx
800029e4:	c7 44 24 04 2c 0a 00 	movl   $0x80000a2c,0x4(%esp,1)
800029eb:	80 
800029ec:	e8 ff 4d 00 00       	call   800077f0 <Descriptor_SetInterruptGate>
800029f1:	81 fb ff 00 00 00    	cmp    $0xff,%ebx
800029f7:	76 e7                	jbe    800029e0 <InterruptManager_Init+0x20>
800029f9:	c7 44 24 04 42 0a 00 	movl   $0x80000a42,0x4(%esp,1)
80002a00:	80 
80002a01:	c7 04 24 00 00 00 00 	movl   $0x0,(%esp,1)
80002a08:	e8 e3 4d 00 00       	call   800077f0 <Descriptor_SetInterruptGate>
80002a0d:	c7 44 24 04 7b 0a 00 	movl   $0x80000a7b,0x4(%esp,1)
80002a14:	80 
80002a15:	c7 04 24 01 00 00 00 	movl   $0x1,(%esp,1)
80002a1c:	e8 cf 4d 00 00       	call   800077f0 <Descriptor_SetInterruptGate>
80002a21:	c7 44 24 04 a6 0a 00 	movl   $0x80000aa6,0x4(%esp,1)
80002a28:	80 
80002a29:	c7 04 24 02 00 00 00 	movl   $0x2,(%esp,1)
80002a30:	e8 bb 4d 00 00       	call   800077f0 <Descriptor_SetInterruptGate>
80002a35:	c7 44 24 04 d1 0a 00 	movl   $0x80000ad1,0x4(%esp,1)
80002a3c:	80 
80002a3d:	c7 04 24 03 00 00 00 	movl   $0x3,(%esp,1)
80002a44:	e8 a7 4d 00 00       	call   800077f0 <Descriptor_SetInterruptGate>
80002a49:	c7 44 24 04 fc 0a 00 	movl   $0x80000afc,0x4(%esp,1)
80002a50:	80 
80002a51:	c7 04 24 04 00 00 00 	movl   $0x4,(%esp,1)
80002a58:	e8 93 4d 00 00       	call   800077f0 <Descriptor_SetInterruptGate>
80002a5d:	c7 44 24 04 27 0b 00 	movl   $0x80000b27,0x4(%esp,1)
80002a64:	80 
80002a65:	c7 04 24 05 00 00 00 	movl   $0x5,(%esp,1)
80002a6c:	e8 7f 4d 00 00       	call   800077f0 <Descriptor_SetInterruptGate>
80002a71:	c7 44 24 04 60 0b 00 	movl   $0x80000b60,0x4(%esp,1)
80002a78:	80 
80002a79:	c7 04 24 06 00 00 00 	movl   $0x6,(%esp,1)
80002a80:	e8 6b 4d 00 00       	call   800077f0 <Descriptor_SetInterruptGate>
80002a85:	c7 44 24 04 8b 0b 00 	movl   $0x80000b8b,0x4(%esp,1)
80002a8c:	80 
80002a8d:	c7 04 24 07 00 00 00 	movl   $0x7,(%esp,1)
80002a94:	e8 57 4d 00 00       	call   800077f0 <Descriptor_SetInterruptGate>
80002a99:	c7 44 24 04 c4 0b 00 	movl   $0x80000bc4,0x4(%esp,1)
80002aa0:	80 
80002aa1:	c7 04 24 08 00 00 00 	movl   $0x8,(%esp,1)
80002aa8:	e8 43 4d 00 00       	call   800077f0 <Descriptor_SetInterruptGate>
80002aad:	c7 44 24 04 f2 0b 00 	movl   $0x80000bf2,0x4(%esp,1)
80002ab4:	80 
80002ab5:	c7 04 24 09 00 00 00 	movl   $0x9,(%esp,1)
80002abc:	e8 2f 4d 00 00       	call   800077f0 <Descriptor_SetInterruptGate>
80002ac1:	c7 44 24 04 2b 0c 00 	movl   $0x80000c2b,0x4(%esp,1)
80002ac8:	80 
80002ac9:	c7 04 24 0a 00 00 00 	movl   $0xa,(%esp,1)
80002ad0:	e8 1b 4d 00 00       	call   800077f0 <Descriptor_SetInterruptGate>
80002ad5:	c7 44 24 04 67 0c 00 	movl   $0x80000c67,0x4(%esp,1)
80002adc:	80 
80002add:	c7 04 24 0b 00 00 00 	movl   $0xb,(%esp,1)
80002ae4:	e8 07 4d 00 00       	call   800077f0 <Descriptor_SetInterruptGate>
80002ae9:	c7 44 24 04 a3 0c 00 	movl   $0x80000ca3,0x4(%esp,1)
80002af0:	80 
80002af1:	c7 04 24 0c 00 00 00 	movl   $0xc,(%esp,1)
80002af8:	e8 f3 4c 00 00       	call   800077f0 <Descriptor_SetInterruptGate>
80002afd:	c7 44 24 04 d1 0c 00 	movl   $0x80000cd1,0x4(%esp,1)
80002b04:	80 
80002b05:	c7 04 24 0d 00 00 00 	movl   $0xd,(%esp,1)
80002b0c:	e8 df 4c 00 00       	call   800077f0 <Descriptor_SetInterruptGate>
80002b11:	c7 44 24 04 ff 0c 00 	movl   $0x80000cff,0x4(%esp,1)
80002b18:	80 
80002b19:	c7 04 24 0e 00 00 00 	movl   $0xe,(%esp,1)
80002b20:	e8 cb 4c 00 00       	call   800077f0 <Descriptor_SetInterruptGate>
80002b25:	c7 44 24 04 2f 0d 00 	movl   $0x80000d2f,0x4(%esp,1)
80002b2c:	80 
80002b2d:	c7 04 24 20 00 00 00 	movl   $0x20,(%esp,1)
80002b34:	e8 b7 4c 00 00       	call   800077f0 <Descriptor_SetInterruptGate>
80002b39:	c7 44 24 04 91 0d 00 	movl   $0x80000d91,0x4(%esp,1)
80002b40:	80 
80002b41:	c7 04 24 21 00 00 00 	movl   $0x21,(%esp,1)
80002b48:	e8 a3 4c 00 00       	call   800077f0 <Descriptor_SetInterruptGate>
80002b4d:	c7 44 24 04 f3 0d 00 	movl   $0x80000df3,0x4(%esp,1)
80002b54:	80 
80002b55:	c7 04 24 22 00 00 00 	movl   $0x22,(%esp,1)
80002b5c:	e8 8f 4c 00 00       	call   800077f0 <Descriptor_SetInterruptGate>
80002b61:	c7 44 24 04 55 0e 00 	movl   $0x80000e55,0x4(%esp,1)
80002b68:	80 
80002b69:	c7 04 24 23 00 00 00 	movl   $0x23,(%esp,1)
80002b70:	e8 7b 4c 00 00       	call   800077f0 <Descriptor_SetInterruptGate>
80002b75:	c7 44 24 04 b7 0e 00 	movl   $0x80000eb7,0x4(%esp,1)
80002b7c:	80 
80002b7d:	c7 04 24 24 00 00 00 	movl   $0x24,(%esp,1)
80002b84:	e8 67 4c 00 00       	call   800077f0 <Descriptor_SetInterruptGate>
80002b89:	c7 44 24 04 19 0f 00 	movl   $0x80000f19,0x4(%esp,1)
80002b90:	80 
80002b91:	c7 04 24 25 00 00 00 	movl   $0x25,(%esp,1)
80002b98:	e8 53 4c 00 00       	call   800077f0 <Descriptor_SetInterruptGate>
80002b9d:	c7 44 24 04 7b 0f 00 	movl   $0x80000f7b,0x4(%esp,1)
80002ba4:	80 
80002ba5:	c7 04 24 26 00 00 00 	movl   $0x26,(%esp,1)
80002bac:	e8 3f 4c 00 00       	call   800077f0 <Descriptor_SetInterruptGate>
80002bb1:	c7 44 24 04 dd 0f 00 	movl   $0x80000fdd,0x4(%esp,1)
80002bb8:	80 
80002bb9:	c7 04 24 27 00 00 00 	movl   $0x27,(%esp,1)
80002bc0:	e8 2b 4c 00 00       	call   800077f0 <Descriptor_SetInterruptGate>
80002bc5:	c7 44 24 04 3f 10 00 	movl   $0x8000103f,0x4(%esp,1)
80002bcc:	80 
80002bcd:	c7 04 24 28 00 00 00 	movl   $0x28,(%esp,1)
80002bd4:	e8 17 4c 00 00       	call   800077f0 <Descriptor_SetInterruptGate>
80002bd9:	c7 44 24 04 a1 10 00 	movl   $0x800010a1,0x4(%esp,1)
80002be0:	80 
80002be1:	c7 04 24 29 00 00 00 	movl   $0x29,(%esp,1)
80002be8:	e8 03 4c 00 00       	call   800077f0 <Descriptor_SetInterruptGate>
80002bed:	c7 44 24 04 03 11 00 	movl   $0x80001103,0x4(%esp,1)
80002bf4:	80 
80002bf5:	c7 04 24 2a 00 00 00 	movl   $0x2a,(%esp,1)
80002bfc:	e8 ef 4b 00 00       	call   800077f0 <Descriptor_SetInterruptGate>
80002c01:	c7 44 24 04 65 11 00 	movl   $0x80001165,0x4(%esp,1)
80002c08:	80 
80002c09:	c7 04 24 2b 00 00 00 	movl   $0x2b,(%esp,1)
80002c10:	e8 db 4b 00 00       	call   800077f0 <Descriptor_SetInterruptGate>
80002c15:	c7 44 24 04 c7 11 00 	movl   $0x800011c7,0x4(%esp,1)
80002c1c:	80 
80002c1d:	c7 04 24 2c 00 00 00 	movl   $0x2c,(%esp,1)
80002c24:	e8 c7 4b 00 00       	call   800077f0 <Descriptor_SetInterruptGate>
80002c29:	c7 44 24 04 29 12 00 	movl   $0x80001229,0x4(%esp,1)
80002c30:	80 
80002c31:	c7 04 24 2d 00 00 00 	movl   $0x2d,(%esp,1)
80002c38:	e8 b3 4b 00 00       	call   800077f0 <Descriptor_SetInterruptGate>
80002c3d:	c7 44 24 04 8b 12 00 	movl   $0x8000128b,0x4(%esp,1)
80002c44:	80 
80002c45:	c7 04 24 2e 00 00 00 	movl   $0x2e,(%esp,1)
80002c4c:	e8 9f 4b 00 00       	call   800077f0 <Descriptor_SetInterruptGate>
80002c51:	c7 44 24 04 ed 12 00 	movl   $0x800012ed,0x4(%esp,1)
80002c58:	80 
80002c59:	c7 04 24 2f 00 00 00 	movl   $0x2f,(%esp,1)
80002c60:	e8 8b 4b 00 00       	call   800077f0 <Descriptor_SetInterruptGate>
80002c65:	0f 01 1d 4c 08 00 80 	lidtl  0x8000084c
80002c6c:	c7 44 24 08 96 90 00 	movl   $0x80009096,0x8(%esp,1)
80002c73:	80 
80002c74:	c7 44 24 04 a9 90 00 	movl   $0x800090a9,0x4(%esp,1)
80002c7b:	80 
80002c7c:	c7 04 24 01 00 00 00 	movl   $0x1,(%esp,1)
80002c83:	e8 18 42 00 00       	call   80006ea0 <KPrint>
80002c88:	83 c4 14             	add    $0x14,%esp
80002c8b:	5b                   	pop    %ebx
80002c8c:	5d                   	pop    %ebp
80002c8d:	c3                   	ret    
80002c8e:	89 f6                	mov    %esi,%esi

80002c90 <InterruptManager_CreateModuleInterface>:
80002c90:	55                   	push   %ebp
80002c91:	89 e5                	mov    %esp,%ebp
80002c93:	83 ec 18             	sub    $0x18,%esp
80002c96:	c7 44 24 04 20 2f 00 	movl   $0x80002f20,0x4(%esp,1)
80002c9d:	80 
80002c9e:	c7 04 24 b3 90 00 80 	movl   $0x800090b3,(%esp,1)
80002ca5:	e8 46 38 00 00       	call   800064f0 <ModuleManager_CreateModule>
80002caa:	c7 44 24 08 00 00 00 	movl   $0x0,0x8(%esp,1)
80002cb1:	00 
80002cb2:	c7 44 24 04 c4 90 00 	movl   $0x800090c4,0x4(%esp,1)
80002cb9:	80 
80002cba:	c7 04 24 b3 90 00 80 	movl   $0x800090b3,(%esp,1)
80002cc1:	e8 3a 39 00 00       	call   80006600 <ModuleManager_CreateModuleCall>
80002cc6:	c7 44 24 08 01 00 00 	movl   $0x1,0x8(%esp,1)
80002ccd:	00 
80002cce:	c7 44 24 04 d2 90 00 	movl   $0x800090d2,0x4(%esp,1)
80002cd5:	80 
80002cd6:	c7 04 24 b3 90 00 80 	movl   $0x800090b3,(%esp,1)
80002cdd:	e8 1e 39 00 00       	call   80006600 <ModuleManager_CreateModuleCall>
80002ce2:	89 ec                	mov    %ebp,%esp
80002ce4:	5d                   	pop    %ebp
80002ce5:	c3                   	ret    
80002ce6:	8d 76 00             	lea    0x0(%esi),%esi
80002ce9:	8d bc 27 00 00 00 00 	lea    0x0(%edi,1),%edi

80002cf0 <InterruptManager_Handle>:
80002cf0:	55                   	push   %ebp
80002cf1:	89 e5                	mov    %esp,%ebp
80002cf3:	83 ec 28             	sub    $0x28,%esp
80002cf6:	89 75 f8             	mov    %esi,0xfffffff8(%ebp)
80002cf9:	8b 75 08             	mov    0x8(%ebp),%esi
80002cfc:	89 5d f4             	mov    %ebx,0xfffffff4(%ebp)
80002cff:	89 7d fc             	mov    %edi,0xfffffffc(%ebp)
80002d02:	8b 04 b5 e0 a3 00 80 	mov    0x8000a3e0(,%esi,4),%eax
80002d09:	85 c0                	test   %eax,%eax
80002d0b:	74 73                	je     80002d80 <InterruptManager_Handle+0x90>
80002d0d:	0f b7 fe             	movzwl %si,%edi
80002d10:	89 3c 24             	mov    %edi,(%esp,1)
80002d13:	e8 28 40 00 00       	call   80006d40 <PIC_MaskAndAcknowledge>
80002d18:	31 c0                	xor    %eax,%eax
80002d1a:	8b 1c b5 e0 a3 00 80 	mov    0x8000a3e0(,%esi,4),%ebx
80002d21:	85 db                	test   %ebx,%ebx
80002d23:	74 1a                	je     80002d3f <InterruptManager_Handle+0x4f>
80002d25:	8d 74 26 00          	lea    0x0(%esi,1),%esi
80002d29:	8d bc 27 00 00 00 00 	lea    0x0(%edi,1),%edi
80002d30:	ff 53 30             	call   *0x30(%ebx)
80002d33:	83 f8 01             	cmp    $0x1,%eax
80002d36:	74 07                	je     80002d3f <InterruptManager_Handle+0x4f>
80002d38:	8b 5b 34             	mov    0x34(%ebx),%ebx
80002d3b:	85 db                	test   %ebx,%ebx
80002d3d:	75 f1                	jne    80002d30 <InterruptManager_Handle+0x40>
80002d3f:	85 c0                	test   %eax,%eax
80002d41:	74 14                	je     80002d57 <InterruptManager_Handle+0x67>
80002d43:	89 7d 08             	mov    %edi,0x8(%ebp)
80002d46:	8b 5d f4             	mov    0xfffffff4(%ebp),%ebx
80002d49:	8b 75 f8             	mov    0xfffffff8(%ebp),%esi
80002d4c:	8b 7d fc             	mov    0xfffffffc(%ebp),%edi
80002d4f:	89 ec                	mov    %ebp,%esp
80002d51:	5d                   	pop    %ebp
80002d52:	e9 69 3f 00 00       	jmp    80006cc0 <PIC_EnableIRQ>
80002d57:	89 74 24 0c          	mov    %esi,0xc(%esp,1)
80002d5b:	c7 44 24 08 e2 90 00 	movl   $0x800090e2,0x8(%esp,1)
80002d62:	80 
80002d63:	c7 44 24 04 a9 90 00 	movl   $0x800090a9,0x4(%esp,1)
80002d6a:	80 
80002d6b:	c7 04 24 02 00 00 00 	movl   $0x2,(%esp,1)
80002d72:	e8 29 41 00 00       	call   80006ea0 <KPrint>
80002d77:	eb ca                	jmp    80002d43 <InterruptManager_Handle+0x53>
80002d79:	8d b4 26 00 00 00 00 	lea    0x0(%esi,1),%esi
80002d80:	89 74 24 0c          	mov    %esi,0xc(%esp,1)
80002d84:	c7 44 24 08 fa 90 00 	movl   $0x800090fa,0x8(%esp,1)
80002d8b:	80 
80002d8c:	c7 44 24 04 a9 90 00 	movl   $0x800090a9,0x4(%esp,1)
80002d93:	80 
80002d94:	c7 04 24 02 00 00 00 	movl   $0x2,(%esp,1)
80002d9b:	e8 00 41 00 00       	call   80006ea0 <KPrint>
80002da0:	0f b7 d6             	movzwl %si,%edx
80002da3:	89 55 08             	mov    %edx,0x8(%ebp)
80002da6:	eb 9e                	jmp    80002d46 <InterruptManager_Handle+0x56>
80002da8:	90                   	nop    
80002da9:	8d b4 26 00 00 00 00 	lea    0x0(%esi,1),%esi

80002db0 <InterruptManager_AttachHandler>:
80002db0:	55                   	push   %ebp
80002db1:	89 e5                	mov    %esp,%ebp
80002db3:	31 c0                	xor    %eax,%eax
80002db5:	57                   	push   %edi
80002db6:	56                   	push   %esi
80002db7:	53                   	push   %ebx
80002db8:	83 ec 1c             	sub    $0x1c,%esp
80002dbb:	8b 1d a8 a2 00 80    	mov    0x8000a2a8,%ebx
80002dc1:	0f b7 55 0c          	movzwl 0xc(%ebp),%edx
80002dc5:	a3 a8 a2 00 80       	mov    %eax,0x8000a2a8
80002dca:	8b 75 08             	mov    0x8(%ebp),%esi
80002dcd:	89 5d ec             	mov    %ebx,0xffffffec(%ebp)
80002dd0:	89 55 f0             	mov    %edx,0xfffffff0(%ebp)
80002dd3:	fa                   	cli    
80002dd4:	c7 04 24 38 00 00 00 	movl   $0x38,(%esp,1)
80002ddb:	89 f7                	mov    %esi,%edi
80002ddd:	e8 ae 2a 00 00       	call   80005890 <MemoryManager_KAlloc>
80002de2:	ba 30 00 00 00       	mov    $0x30,%edx
80002de7:	89 c3                	mov    %eax,%ebx
80002de9:	8a 0f                	mov    (%edi),%cl
80002deb:	47                   	inc    %edi
80002dec:	88 0b                	mov    %cl,(%ebx)
80002dee:	43                   	inc    %ebx
80002def:	4a                   	dec    %edx
80002df0:	74 0a                	je     80002dfc <InterruptManager_AttachHandler+0x4c>
80002df2:	84 c9                	test   %cl,%cl
80002df4:	75 f3                	jne    80002de9 <InterruptManager_AttachHandler+0x39>
80002df6:	88 0b                	mov    %cl,(%ebx)
80002df8:	43                   	inc    %ebx
80002df9:	4a                   	dec    %edx
80002dfa:	75 fa                	jne    80002df6 <InterruptManager_AttachHandler+0x46>
80002dfc:	8b 7d 10             	mov    0x10(%ebp),%edi
80002dff:	8b 4d f0             	mov    0xfffffff0(%ebp),%ecx
80002e02:	89 78 30             	mov    %edi,0x30(%eax)
80002e05:	bf e0 a3 00 80       	mov    $0x8000a3e0,%edi
80002e0a:	8b 1c 8f             	mov    (%edi,%ecx,4),%ebx
80002e0d:	31 c9                	xor    %ecx,%ecx
80002e0f:	85 db                	test   %ebx,%ebx
80002e11:	0f 94 c1             	sete   %cl
80002e14:	49                   	dec    %ecx
80002e15:	21 cb                	and    %ecx,%ebx
80002e17:	83 7d ec 01          	cmpl   $0x1,0xffffffec(%ebp)
80002e1b:	8b 4d f0             	mov    0xfffffff0(%ebp),%ecx
80002e1e:	89 58 34             	mov    %ebx,0x34(%eax)
80002e21:	89 04 8f             	mov    %eax,(%edi,%ecx,4)
80002e24:	74 3a                	je     80002e60 <InterruptManager_AttachHandler+0xb0>
80002e26:	89 74 24 0c          	mov    %esi,0xc(%esp,1)
80002e2a:	8b 45 f0             	mov    0xfffffff0(%ebp),%eax
80002e2d:	c7 44 24 08 40 91 00 	movl   $0x80009140,0x8(%esp,1)
80002e34:	80 
80002e35:	c7 44 24 04 a9 90 00 	movl   $0x800090a9,0x4(%esp,1)
80002e3c:	80 
80002e3d:	89 44 24 10          	mov    %eax,0x10(%esp,1)
80002e41:	c7 04 24 00 00 00 00 	movl   $0x0,(%esp,1)
80002e48:	e8 53 40 00 00       	call   80006ea0 <KPrint>
80002e4d:	83 c4 1c             	add    $0x1c,%esp
80002e50:	31 c0                	xor    %eax,%eax
80002e52:	5b                   	pop    %ebx
80002e53:	5e                   	pop    %esi
80002e54:	5f                   	pop    %edi
80002e55:	5d                   	pop    %ebp
80002e56:	c3                   	ret    
80002e57:	89 f6                	mov    %esi,%esi
80002e59:	8d bc 27 00 00 00 00 	lea    0x0(%edi,1),%edi
80002e60:	b9 01 00 00 00       	mov    $0x1,%ecx
80002e65:	89 0d a8 a2 00 80    	mov    %ecx,0x8000a2a8
80002e6b:	fb                   	sti    
80002e6c:	eb b8                	jmp    80002e26 <InterruptManager_AttachHandler+0x76>
80002e6e:	89 f6                	mov    %esi,%esi

80002e70 <InterruptManager_AttachHandlerCall>:
80002e70:	55                   	push   %ebp
80002e71:	89 e5                	mov    %esp,%ebp
80002e73:	83 ec 18             	sub    $0x18,%esp
80002e76:	8b 4d 08             	mov    0x8(%ebp),%ecx
80002e79:	8b 41 08             	mov    0x8(%ecx),%eax
80002e7c:	89 44 24 08          	mov    %eax,0x8(%esp,1)
80002e80:	0f b7 51 04          	movzwl 0x4(%ecx),%edx
80002e84:	89 54 24 04          	mov    %edx,0x4(%esp,1)
80002e88:	8b 01                	mov    (%ecx),%eax
80002e8a:	89 04 24             	mov    %eax,(%esp,1)
80002e8d:	e8 1e ff ff ff       	call   80002db0 <InterruptManager_AttachHandler>
80002e92:	89 ec                	mov    %ebp,%esp
80002e94:	5d                   	pop    %ebp
80002e95:	c3                   	ret    
80002e96:	8d 76 00             	lea    0x0(%esi),%esi
80002e99:	8d bc 27 00 00 00 00 	lea    0x0(%edi,1),%edi

80002ea0 <InterruptManager_EnableIRQ>:
80002ea0:	55                   	push   %ebp
80002ea1:	89 e5                	mov    %esp,%ebp
80002ea3:	83 ec 18             	sub    $0x18,%esp
80002ea6:	89 5d fc             	mov    %ebx,0xfffffffc(%ebp)
80002ea9:	0f b7 5d 08          	movzwl 0x8(%ebp),%ebx
80002ead:	89 1c 24             	mov    %ebx,(%esp,1)
80002eb0:	e8 0b 3e 00 00       	call   80006cc0 <PIC_EnableIRQ>
80002eb5:	89 5c 24 0c          	mov    %ebx,0xc(%esp,1)
80002eb9:	c7 44 24 08 17 91 00 	movl   $0x80009117,0x8(%esp,1)
80002ec0:	80 
80002ec1:	c7 44 24 04 a9 90 00 	movl   $0x800090a9,0x4(%esp,1)
80002ec8:	80 
80002ec9:	c7 04 24 00 00 00 00 	movl   $0x0,(%esp,1)
80002ed0:	e8 cb 3f 00 00       	call   80006ea0 <KPrint>
80002ed5:	8b 5d fc             	mov    0xfffffffc(%ebp),%ebx
80002ed8:	31 c0                	xor    %eax,%eax
80002eda:	89 ec                	mov    %ebp,%esp
80002edc:	5d                   	pop    %ebp
80002edd:	c3                   	ret    
80002ede:	89 f6                	mov    %esi,%esi

80002ee0 <InterruptManager_EnableIRQCall>:
80002ee0:	55                   	push   %ebp
80002ee1:	89 e5                	mov    %esp,%ebp
80002ee3:	83 ec 18             	sub    $0x18,%esp
80002ee6:	89 5d fc             	mov    %ebx,0xfffffffc(%ebp)
80002ee9:	8b 45 08             	mov    0x8(%ebp),%eax
80002eec:	0f b7 18             	movzwl (%eax),%ebx
80002eef:	89 1c 24             	mov    %ebx,(%esp,1)
80002ef2:	e8 c9 3d 00 00       	call   80006cc0 <PIC_EnableIRQ>
80002ef7:	89 5c 24 0c          	mov    %ebx,0xc(%esp,1)
80002efb:	c7 44 24 08 17 91 00 	movl   $0x80009117,0x8(%esp,1)
80002f02:	80 
80002f03:	c7 44 24 04 a9 90 00 	movl   $0x800090a9,0x4(%esp,1)
80002f0a:	80 
80002f0b:	c7 04 24 00 00 00 00 	movl   $0x0,(%esp,1)
80002f12:	e8 89 3f 00 00       	call   80006ea0 <KPrint>
80002f17:	8b 5d fc             	mov    0xfffffffc(%ebp),%ebx
80002f1a:	31 c0                	xor    %eax,%eax
80002f1c:	89 ec                	mov    %ebp,%esp
80002f1e:	5d                   	pop    %ebp
80002f1f:	c3                   	ret    

80002f20 <InterruptManager_Handler>:
80002f20:	55                   	push   %ebp
80002f21:	89 e5                	mov    %esp,%ebp
80002f23:	83 ec 18             	sub    $0x18,%esp
80002f26:	89 5d fc             	mov    %ebx,0xfffffffc(%ebp)
80002f29:	8b 45 08             	mov    0x8(%ebp),%eax
80002f2c:	8b 55 0c             	mov    0xc(%ebp),%edx
80002f2f:	85 c0                	test   %eax,%eax
80002f31:	74 4d                	je     80002f80 <InterruptManager_Handler+0x60>
80002f33:	48                   	dec    %eax
80002f34:	74 1a                	je     80002f50 <InterruptManager_Handler+0x30>
80002f36:	b8 fc ff ff ff       	mov    $0xfffffffc,%eax
80002f3b:	8b 5d fc             	mov    0xfffffffc(%ebp),%ebx
80002f3e:	89 ec                	mov    %ebp,%esp
80002f40:	5d                   	pop    %ebp
80002f41:	c3                   	ret    
80002f42:	8d b4 26 00 00 00 00 	lea    0x0(%esi,1),%esi
80002f49:	8d bc 27 00 00 00 00 	lea    0x0(%edi,1),%edi
80002f50:	0f b7 1a             	movzwl (%edx),%ebx
80002f53:	89 1c 24             	mov    %ebx,(%esp,1)
80002f56:	e8 65 3d 00 00       	call   80006cc0 <PIC_EnableIRQ>
80002f5b:	89 5c 24 0c          	mov    %ebx,0xc(%esp,1)
80002f5f:	c7 44 24 08 17 91 00 	movl   $0x80009117,0x8(%esp,1)
80002f66:	80 
80002f67:	c7 44 24 04 a9 90 00 	movl   $0x800090a9,0x4(%esp,1)
80002f6e:	80 
80002f6f:	c7 04 24 00 00 00 00 	movl   $0x0,(%esp,1)
80002f76:	e8 25 3f 00 00       	call   80006ea0 <KPrint>
80002f7b:	31 c0                	xor    %eax,%eax
80002f7d:	eb bc                	jmp    80002f3b <InterruptManager_Handler+0x1b>
80002f7f:	90                   	nop    
80002f80:	8b 42 08             	mov    0x8(%edx),%eax
80002f83:	89 44 24 08          	mov    %eax,0x8(%esp,1)
80002f87:	0f b7 4a 04          	movzwl 0x4(%edx),%ecx
80002f8b:	89 4c 24 04          	mov    %ecx,0x4(%esp,1)
80002f8f:	8b 02                	mov    (%edx),%eax
80002f91:	89 04 24             	mov    %eax,(%esp,1)
80002f94:	e8 17 fe ff ff       	call   80002db0 <InterruptManager_AttachHandler>
80002f99:	eb a0                	jmp    80002f3b <InterruptManager_Handler+0x1b>
80002f9b:	00 00                	add    %al,(%eax)
80002f9d:	00 00                	add    %al,(%eax)
	...

80002fa0 <IOManager_Read>:
80002fa0:	55                   	push   %ebp
80002fa1:	89 e5                	mov    %esp,%ebp
80002fa3:	57                   	push   %edi
80002fa4:	56                   	push   %esi
80002fa5:	53                   	push   %ebx
80002fa6:	83 ec 2c             	sub    $0x2c,%esp
80002fa9:	8b 45 08             	mov    0x8(%ebp),%eax
80002fac:	8b 00                	mov    (%eax),%eax
80002fae:	89 45 f0             	mov    %eax,0xfffffff0(%ebp)
80002fb1:	8b 00                	mov    (%eax),%eax
80002fb3:	8b 4d f0             	mov    0xfffffff0(%ebp),%ecx
80002fb6:	8b 40 08             	mov    0x8(%eax),%eax
80002fb9:	89 45 ec             	mov    %eax,0xffffffec(%ebp)
80002fbc:	8b 41 04             	mov    0x4(%ecx),%eax
80002fbf:	8b 55 ec             	mov    0xffffffec(%ebp),%edx
80002fc2:	8b 5a 08             	mov    0x8(%edx),%ebx
80002fc5:	31 d2                	xor    %edx,%edx
80002fc7:	f7 f3                	div    %ebx
80002fc9:	89 d7                	mov    %edx,%edi
80002fcb:	89 45 e8             	mov    %eax,0xffffffe8(%ebp)
80002fce:	8b 45 08             	mov    0x8(%ebp),%eax
80002fd1:	8b 70 08             	mov    0x8(%eax),%esi
80002fd4:	85 f6                	test   %esi,%esi
80002fd6:	74 68                	je     80003040 <IOManager_Read+0xa0>
80002fd8:	90                   	nop    
80002fd9:	8d b4 26 00 00 00 00 	lea    0x0(%esi,1),%esi
80002fe0:	29 fb                	sub    %edi,%ebx
80002fe2:	39 f3                	cmp    %esi,%ebx
80002fe4:	76 02                	jbe    80002fe8 <IOManager_Read+0x48>
80002fe6:	89 f3                	mov    %esi,%ebx
80002fe8:	8b 4d 08             	mov    0x8(%ebp),%ecx
80002feb:	8b 41 04             	mov    0x4(%ecx),%eax
80002fee:	89 7c 24 08          	mov    %edi,0x8(%esp,1)
80002ff2:	89 5c 24 0c          	mov    %ebx,0xc(%esp,1)
80002ff6:	89 44 24 10          	mov    %eax,0x10(%esp,1)
80002ffa:	8b 45 e8             	mov    0xffffffe8(%ebp),%eax
80002ffd:	89 44 24 04          	mov    %eax,0x4(%esp,1)
80003001:	8b 45 ec             	mov    0xffffffec(%ebp),%eax
80003004:	89 04 24             	mov    %eax,(%esp,1)
80003007:	e8 44 00 00 00       	call   80003050 <IOManager_ReadFromBlock>
8000300c:	ba fe ff ff ff       	mov    $0xfffffffe,%edx
80003011:	85 c0                	test   %eax,%eax
80003013:	75 2d                	jne    80003042 <IOManager_Read+0xa2>
80003015:	8b 45 ec             	mov    0xffffffec(%ebp),%eax
80003018:	31 c9                	xor    %ecx,%ecx
8000301a:	8b 55 f0             	mov    0xfffffff0(%ebp),%edx
8000301d:	3b 58 08             	cmp    0x8(%eax),%ebx
80003020:	0f 95 c1             	setne  %cl
80003023:	01 5a 04             	add    %ebx,0x4(%edx)
80003026:	49                   	dec    %ecx
80003027:	21 cf                	and    %ecx,%edi
80003029:	29 de                	sub    %ebx,%esi
8000302b:	74 13                	je     80003040 <IOManager_Read+0xa0>
8000302d:	8b 45 ec             	mov    0xffffffec(%ebp),%eax
80003030:	8b 58 08             	mov    0x8(%eax),%ebx
80003033:	eb ab                	jmp    80002fe0 <IOManager_Read+0x40>
80003035:	8d 74 26 00          	lea    0x0(%esi,1),%esi
80003039:	8d bc 27 00 00 00 00 	lea    0x0(%edi,1),%edi
80003040:	31 d2                	xor    %edx,%edx
80003042:	83 c4 2c             	add    $0x2c,%esp
80003045:	89 d0                	mov    %edx,%eax
80003047:	5b                   	pop    %ebx
80003048:	5e                   	pop    %esi
80003049:	5f                   	pop    %edi
8000304a:	5d                   	pop    %ebp
8000304b:	c3                   	ret    
8000304c:	8d 74 26 00          	lea    0x0(%esi,1),%esi

80003050 <IOManager_ReadFromBlock>:
80003050:	55                   	push   %ebp
80003051:	89 e5                	mov    %esp,%ebp
80003053:	31 d2                	xor    %edx,%edx
80003055:	57                   	push   %edi
80003056:	56                   	push   %esi
80003057:	31 f6                	xor    %esi,%esi
80003059:	53                   	push   %ebx
8000305a:	83 ec 1c             	sub    $0x1c,%esp
8000305d:	8b 7d 08             	mov    0x8(%ebp),%edi
80003060:	8b 45 0c             	mov    0xc(%ebp),%eax
80003063:	f7 77 10             	divl   0x10(%edi)
80003066:	8b 15 b0 a5 00 80    	mov    0x8000a5b0,%edx
8000306c:	39 d6                	cmp    %edx,%esi
8000306e:	89 45 f0             	mov    %eax,0xfffffff0(%ebp)
80003071:	73 1b                	jae    8000308e <IOManager_ReadFromBlock+0x3e>
80003073:	8b 1d b4 a5 00 80    	mov    0x8000a5b4,%ebx
80003079:	8d b4 26 00 00 00 00 	lea    0x0(%esi,1),%esi
80003080:	8b 0b                	mov    (%ebx),%ecx
80003082:	39 f9                	cmp    %edi,%ecx
80003084:	74 4a                	je     800030d0 <IOManager_ReadFromBlock+0x80>
80003086:	46                   	inc    %esi
80003087:	83 c3 10             	add    $0x10,%ebx
8000308a:	39 d6                	cmp    %edx,%esi
8000308c:	72 f2                	jb     80003080 <IOManager_ReadFromBlock+0x30>
8000308e:	c7 44 24 08 65 91 00 	movl   $0x80009165,0x8(%esp,1)
80003095:	80 
80003096:	8b 45 f0             	mov    0xfffffff0(%ebp),%eax
80003099:	c7 44 24 04 7e 91 00 	movl   $0x8000917e,0x4(%esp,1)
800030a0:	80 
800030a1:	c7 04 24 02 00 00 00 	movl   $0x2,(%esp,1)
800030a8:	89 44 24 0c          	mov    %eax,0xc(%esp,1)
800030ac:	e8 ef 3d 00 00       	call   80006ea0 <KPrint>
800030b1:	e8 2d d9 ff ff       	call   800009e3 <halt>
800030b6:	b8 fe ff ff ff       	mov    $0xfffffffe,%eax
800030bb:	83 c4 1c             	add    $0x1c,%esp
800030be:	5b                   	pop    %ebx
800030bf:	5e                   	pop    %esi
800030c0:	5f                   	pop    %edi
800030c1:	5d                   	pop    %ebp
800030c2:	c3                   	ret    
800030c3:	8d b6 00 00 00 00    	lea    0x0(%esi),%esi
800030c9:	8d bc 27 00 00 00 00 	lea    0x0(%edi,1),%edi
800030d0:	8b 45 f0             	mov    0xfffffff0(%ebp),%eax
800030d3:	39 43 04             	cmp    %eax,0x4(%ebx)
800030d6:	75 ae                	jne    80003086 <IOManager_ReadFromBlock+0x36>
800030d8:	8b 45 0c             	mov    0xc(%ebp),%eax
800030db:	31 d2                	xor    %edx,%edx
800030dd:	c1 e6 0c             	shl    $0xc,%esi
800030e0:	f7 71 10             	divl   0x10(%ecx)
800030e3:	8b 41 08             	mov    0x8(%ecx),%eax
800030e6:	8b 7d 18             	mov    0x18(%ebp),%edi
800030e9:	8b 4d 14             	mov    0x14(%ebp),%ecx
800030ec:	0f af d0             	imul   %eax,%edx
800030ef:	8b 45 10             	mov    0x10(%ebp),%eax
800030f2:	8d b4 32 00 00 00 b0 	lea    0xb0000000(%edx,%esi,1),%esi
800030f9:	01 c6                	add    %eax,%esi
800030fb:	d1 e9                	shr    %ecx
800030fd:	73 01                	jae    80003100 <IOManager_ReadFromBlock+0xb0>
800030ff:	a4                   	movsb  %ds:(%esi),%es:(%edi)
80003100:	d1 e9                	shr    %ecx
80003102:	73 02                	jae    80003106 <IOManager_ReadFromBlock+0xb6>
80003104:	66 a5                	movsw  %ds:(%esi),%es:(%edi)
80003106:	f3 a5                	repz movsl %ds:(%esi),%es:(%edi)
80003108:	31 c0                	xor    %eax,%eax
8000310a:	83 63 0c fb          	andl   $0xfffffffb,0xc(%ebx)
8000310e:	eb ab                	jmp    800030bb <IOManager_ReadFromBlock+0x6b>

80003110 <IOManager_Init>:
80003110:	55                   	push   %ebp
80003111:	89 e5                	mov    %esp,%ebp
80003113:	83 ec 18             	sub    $0x18,%esp
80003116:	c7 44 24 04 80 33 00 	movl   $0x80003380,0x4(%esp,1)
8000311d:	80 
8000311e:	c7 04 24 86 91 00 80 	movl   $0x80009186,(%esp,1)
80003125:	e8 c6 33 00 00       	call   800064f0 <ModuleManager_CreateModule>
8000312a:	c7 44 24 08 00 00 00 	movl   $0x0,0x8(%esp,1)
80003131:	00 
80003132:	c7 44 24 04 90 91 00 	movl   $0x80009190,0x4(%esp,1)
80003139:	80 
8000313a:	c7 04 24 86 91 00 80 	movl   $0x80009186,(%esp,1)
80003141:	e8 ba 34 00 00       	call   80006600 <ModuleManager_CreateModuleCall>
80003146:	a1 48 a4 00 80       	mov    0x8000a448,%eax
8000314b:	ba 00 00 03 00       	mov    $0x30000,%edx
80003150:	39 c2                	cmp    %eax,%edx
80003152:	76 02                	jbe    80003156 <IOManager_Init+0x46>
80003154:	89 c2                	mov    %eax,%edx
80003156:	81 fa 00 00 03 00    	cmp    $0x30000,%edx
8000315c:	76 05                	jbe    80003163 <IOManager_Init+0x53>
8000315e:	ba 00 00 03 00       	mov    $0x30000,%edx
80003163:	89 15 b0 a5 00 80    	mov    %edx,0x8000a5b0
80003169:	89 54 24 04          	mov    %edx,0x4(%esp,1)
8000316d:	c7 44 24 08 0a 00 00 	movl   $0xa,0x8(%esp,1)
80003174:	00 
80003175:	c7 04 24 00 00 00 b0 	movl   $0xb0000000,(%esp,1)
8000317c:	e8 bf 24 00 00       	call   80005640 <MemoryManager_Page_MapZeroFill>
80003181:	a1 b0 a5 00 80       	mov    0x8000a5b0,%eax
80003186:	c1 e0 04             	shl    $0x4,%eax
80003189:	89 04 24             	mov    %eax,(%esp,1)
8000318c:	e8 ff 26 00 00       	call   80005890 <MemoryManager_KAlloc>
80003191:	31 d2                	xor    %edx,%edx
80003193:	3b 15 b0 a5 00 80    	cmp    0x8000a5b0,%edx
80003199:	a3 b4 a5 00 80       	mov    %eax,0x8000a5b4
8000319e:	73 22                	jae    800031c2 <IOManager_Init+0xb2>
800031a0:	83 c0 0c             	add    $0xc,%eax
800031a3:	8d b6 00 00 00 00    	lea    0x0(%esi),%esi
800031a9:	8d bc 27 00 00 00 00 	lea    0x0(%edi,1),%edi
800031b0:	c7 00 00 00 00 00    	movl   $0x0,(%eax)
800031b6:	42                   	inc    %edx
800031b7:	83 c0 10             	add    $0x10,%eax
800031ba:	3b 15 b0 a5 00 80    	cmp    0x8000a5b0,%edx
800031c0:	72 ee                	jb     800031b0 <IOManager_Init+0xa0>
800031c2:	c7 44 24 0c 00 10 00 	movl   $0x1000,0xc(%esp,1)
800031c9:	00 
800031ca:	c7 44 24 08 a1 91 00 	movl   $0x800091a1,0x8(%esp,1)
800031d1:	80 
800031d2:	c7 44 24 04 7e 91 00 	movl   $0x8000917e,0x4(%esp,1)
800031d9:	80 
800031da:	c7 04 24 00 00 00 00 	movl   $0x0,(%esp,1)
800031e1:	e8 ba 3c 00 00       	call   80006ea0 <KPrint>
800031e6:	a1 b0 a5 00 80       	mov    0x8000a5b0,%eax
800031eb:	c7 44 24 08 00 92 00 	movl   $0x80009200,0x8(%esp,1)
800031f2:	80 
800031f3:	c7 44 24 04 7e 91 00 	movl   $0x8000917e,0x4(%esp,1)
800031fa:	80 
800031fb:	c1 e0 04             	shl    $0x4,%eax
800031fe:	c1 e8 0a             	shr    $0xa,%eax
80003201:	89 44 24 0c          	mov    %eax,0xc(%esp,1)
80003205:	c7 04 24 00 00 00 00 	movl   $0x0,(%esp,1)
8000320c:	e8 8f 3c 00 00       	call   80006ea0 <KPrint>
80003211:	8b 0d b0 a5 00 80    	mov    0x8000a5b0,%ecx
80003217:	c7 44 24 08 40 92 00 	movl   $0x80009240,0x8(%esp,1)
8000321e:	80 
8000321f:	c7 44 24 04 7e 91 00 	movl   $0x8000917e,0x4(%esp,1)
80003226:	80 
80003227:	89 ca                	mov    %ecx,%edx
80003229:	c1 e2 0c             	shl    $0xc,%edx
8000322c:	89 4c 24 0c          	mov    %ecx,0xc(%esp,1)
80003230:	c1 ea 0a             	shr    $0xa,%edx
80003233:	89 54 24 10          	mov    %edx,0x10(%esp,1)
80003237:	c7 04 24 01 00 00 00 	movl   $0x1,(%esp,1)
8000323e:	e8 5d 3c 00 00       	call   80006ea0 <KPrint>
80003243:	c7 44 24 08 bc 91 00 	movl   $0x800091bc,0x8(%esp,1)
8000324a:	80 
8000324b:	c7 44 24 04 d5 91 00 	movl   $0x800091d5,0x4(%esp,1)
80003252:	80 
80003253:	c7 04 24 01 00 00 00 	movl   $0x1,(%esp,1)
8000325a:	e8 41 3c 00 00       	call   80006ea0 <KPrint>
8000325f:	c9                   	leave  
80003260:	c3                   	ret    
80003261:	eb 0d                	jmp    80003270 <IOManager_RegisterIODevice>
80003263:	90                   	nop    
80003264:	90                   	nop    
80003265:	90                   	nop    
80003266:	90                   	nop    
80003267:	90                   	nop    
80003268:	90                   	nop    
80003269:	90                   	nop    
8000326a:	90                   	nop    
8000326b:	90                   	nop    
8000326c:	90                   	nop    
8000326d:	90                   	nop    
8000326e:	90                   	nop    
8000326f:	90                   	nop    

80003270 <IOManager_RegisterIODevice>:
80003270:	55                   	push   %ebp
80003271:	89 e5                	mov    %esp,%ebp
80003273:	83 ec 18             	sub    $0x18,%esp
80003276:	89 5d fc             	mov    %ebx,0xfffffffc(%ebp)
80003279:	8b 5d 08             	mov    0x8(%ebp),%ebx
8000327c:	e8 4f 03 00 00       	call   800035d0 <ObjectManager_Lock>
80003281:	c7 44 24 04 20 00 00 	movl   $0x20,0x4(%esp,1)
80003288:	00 
80003289:	c7 04 24 0a 00 00 00 	movl   $0xa,(%esp,1)
80003290:	89 5c 24 08          	mov    %ebx,0x8(%esp,1)
80003294:	e8 47 02 00 00       	call   800034e0 <ObjectManager_CreateObject>
80003299:	8b 4d 0c             	mov    0xc(%ebp),%ecx
8000329c:	8b 40 4c             	mov    0x4c(%eax),%eax
8000329f:	c7 00 00 00 00 00    	movl   $0x0,(%eax)
800032a5:	c7 40 0c 00 00 00 00 	movl   $0x0,0xc(%eax)
800032ac:	89 48 14             	mov    %ecx,0x14(%eax)
800032af:	e8 3c 03 00 00       	call   800035f0 <ObjectManager_Unlock>
800032b4:	c7 04 24 00 00 00 00 	movl   $0x0,(%esp,1)
800032bb:	89 5c 24 0c          	mov    %ebx,0xc(%esp,1)
800032bf:	c7 44 24 08 df 91 00 	movl   $0x800091df,0x8(%esp,1)
800032c6:	80 
800032c7:	c7 44 24 04 d5 91 00 	movl   $0x800091d5,0x4(%esp,1)
800032ce:	80 
800032cf:	e8 cc 3b 00 00       	call   80006ea0 <KPrint>
800032d4:	8b 5d fc             	mov    0xfffffffc(%ebp),%ebx
800032d7:	31 c0                	xor    %eax,%eax
800032d9:	89 ec                	mov    %ebp,%esp
800032db:	5d                   	pop    %ebp
800032dc:	c3                   	ret    
800032dd:	8d 76 00             	lea    0x0(%esi),%esi

800032e0 <IOManager_RegisterIODeviceCall>:
800032e0:	55                   	push   %ebp
800032e1:	89 e5                	mov    %esp,%ebp
800032e3:	83 ec 18             	sub    $0x18,%esp
800032e6:	89 5d f8             	mov    %ebx,0xfffffff8(%ebp)
800032e9:	8b 45 08             	mov    0x8(%ebp),%eax
800032ec:	89 75 fc             	mov    %esi,0xfffffffc(%ebp)
800032ef:	8b 18                	mov    (%eax),%ebx
800032f1:	8b 70 04             	mov    0x4(%eax),%esi
800032f4:	e8 d7 02 00 00       	call   800035d0 <ObjectManager_Lock>
800032f9:	c7 04 24 0a 00 00 00 	movl   $0xa,(%esp,1)
80003300:	c7 44 24 04 20 00 00 	movl   $0x20,0x4(%esp,1)
80003307:	00 
80003308:	89 5c 24 08          	mov    %ebx,0x8(%esp,1)
8000330c:	e8 cf 01 00 00       	call   800034e0 <ObjectManager_CreateObject>
80003311:	8b 40 4c             	mov    0x4c(%eax),%eax
80003314:	89 70 14             	mov    %esi,0x14(%eax)
80003317:	c7 00 00 00 00 00    	movl   $0x0,(%eax)
8000331d:	c7 40 0c 00 00 00 00 	movl   $0x0,0xc(%eax)
80003324:	e8 c7 02 00 00       	call   800035f0 <ObjectManager_Unlock>
80003329:	c7 04 24 00 00 00 00 	movl   $0x0,(%esp,1)
80003330:	89 5c 24 0c          	mov    %ebx,0xc(%esp,1)
80003334:	c7 44 24 08 df 91 00 	movl   $0x800091df,0x8(%esp,1)
8000333b:	80 
8000333c:	c7 44 24 04 d5 91 00 	movl   $0x800091d5,0x4(%esp,1)
80003343:	80 
80003344:	e8 57 3b 00 00       	call   80006ea0 <KPrint>
80003349:	8b 75 fc             	mov    0xfffffffc(%ebp),%esi
8000334c:	31 c0                	xor    %eax,%eax
8000334e:	8b 5d f8             	mov    0xfffffff8(%ebp),%ebx
80003351:	89 ec                	mov    %ebp,%esp
80003353:	5d                   	pop    %ebp
80003354:	c3                   	ret    
80003355:	8d 74 26 00          	lea    0x0(%esi,1),%esi
80003359:	8d bc 27 00 00 00 00 	lea    0x0(%edi,1),%edi

80003360 <IOManager_RecalculateDevice>:
80003360:	55                   	push   %ebp
80003361:	b8 00 10 00 00       	mov    $0x1000,%eax
80003366:	89 e5                	mov    %esp,%ebp
80003368:	8b 4d 08             	mov    0x8(%ebp),%ecx
8000336b:	31 d2                	xor    %edx,%edx
8000336d:	f7 71 08             	divl   0x8(%ecx)
80003370:	c7 41 0c 00 00 00 00 	movl   $0x0,0xc(%ecx)
80003377:	89 41 10             	mov    %eax,0x10(%ecx)
8000337a:	31 c0                	xor    %eax,%eax
8000337c:	5d                   	pop    %ebp
8000337d:	c3                   	ret    
8000337e:	89 f6                	mov    %esi,%esi

80003380 <IOManager_Handler>:
80003380:	55                   	push   %ebp
80003381:	89 e5                	mov    %esp,%ebp
80003383:	83 ec 18             	sub    $0x18,%esp
80003386:	89 5d f8             	mov    %ebx,0xfffffff8(%ebp)
80003389:	8b 4d 08             	mov    0x8(%ebp),%ecx
8000338c:	8b 45 0c             	mov    0xc(%ebp),%eax
8000338f:	89 75 fc             	mov    %esi,0xfffffffc(%ebp)
80003392:	85 c9                	test   %ecx,%ecx
80003394:	74 1a                	je     800033b0 <IOManager_Handler+0x30>
80003396:	b8 fc ff ff ff       	mov    $0xfffffffc,%eax
8000339b:	8b 5d f8             	mov    0xfffffff8(%ebp),%ebx
8000339e:	8b 75 fc             	mov    0xfffffffc(%ebp),%esi
800033a1:	89 ec                	mov    %ebp,%esp
800033a3:	5d                   	pop    %ebp
800033a4:	c3                   	ret    
800033a5:	8d 74 26 00          	lea    0x0(%esi,1),%esi
800033a9:	8d bc 27 00 00 00 00 	lea    0x0(%edi,1),%edi
800033b0:	8b 18                	mov    (%eax),%ebx
800033b2:	8b 70 04             	mov    0x4(%eax),%esi
800033b5:	e8 16 02 00 00       	call   800035d0 <ObjectManager_Lock>
800033ba:	c7 04 24 0a 00 00 00 	movl   $0xa,(%esp,1)
800033c1:	c7 44 24 04 20 00 00 	movl   $0x20,0x4(%esp,1)
800033c8:	00 
800033c9:	89 5c 24 08          	mov    %ebx,0x8(%esp,1)
800033cd:	e8 0e 01 00 00       	call   800034e0 <ObjectManager_CreateObject>
800033d2:	8b 40 4c             	mov    0x4c(%eax),%eax
800033d5:	c7 00 00 00 00 00    	movl   $0x0,(%eax)
800033db:	c7 40 0c 00 00 00 00 	movl   $0x0,0xc(%eax)
800033e2:	89 70 14             	mov    %esi,0x14(%eax)
800033e5:	e8 06 02 00 00       	call   800035f0 <ObjectManager_Unlock>
800033ea:	c7 04 24 00 00 00 00 	movl   $0x0,(%esp,1)
800033f1:	89 5c 24 0c          	mov    %ebx,0xc(%esp,1)
800033f5:	c7 44 24 08 df 91 00 	movl   $0x800091df,0x8(%esp,1)
800033fc:	80 
800033fd:	c7 44 24 04 d5 91 00 	movl   $0x800091d5,0x4(%esp,1)
80003404:	80 
80003405:	e8 96 3a 00 00       	call   80006ea0 <KPrint>
8000340a:	31 c0                	xor    %eax,%eax
8000340c:	eb 8d                	jmp    8000339b <IOManager_Handler+0x1b>
8000340e:	89 f6                	mov    %esi,%esi

80003410 <IOManager_MapCacheDirectPage>:
80003410:	55                   	push   %ebp
80003411:	89 e5                	mov    %esp,%ebp
80003413:	57                   	push   %edi
80003414:	56                   	push   %esi
80003415:	31 f6                	xor    %esi,%esi
80003417:	53                   	push   %ebx
80003418:	83 ec 1c             	sub    $0x1c,%esp
8000341b:	a1 b0 a5 00 80       	mov    0x8000a5b0,%eax
80003420:	39 c6                	cmp    %eax,%esi
80003422:	73 24                	jae    80003448 <IOManager_MapCacheDirectPage+0x38>
80003424:	8d b6 00 00 00 00    	lea    0x0(%esi),%esi
8000342a:	8d bf 00 00 00 00    	lea    0x0(%edi),%edi
80003430:	8b 15 b4 a5 00 80    	mov    0x8000a5b4,%edx
80003436:	89 f3                	mov    %esi,%ebx
80003438:	c1 e3 04             	shl    $0x4,%ebx
8000343b:	01 d3                	add    %edx,%ebx
8000343d:	f6 43 0c 01          	testb  $0x1,0xc(%ebx)
80003441:	74 3d                	je     80003480 <IOManager_MapCacheDirectPage+0x70>
80003443:	46                   	inc    %esi
80003444:	39 c6                	cmp    %eax,%esi
80003446:	72 e8                	jb     80003430 <IOManager_MapCacheDirectPage+0x20>
80003448:	c7 44 24 08 80 92 00 	movl   $0x80009280,0x8(%esp,1)
8000344f:	80 
80003450:	8b 45 0c             	mov    0xc(%ebp),%eax
80003453:	c7 44 24 04 7e 91 00 	movl   $0x8000917e,0x4(%esp,1)
8000345a:	80 
8000345b:	c7 04 24 02 00 00 00 	movl   $0x2,(%esp,1)
80003462:	89 44 24 0c          	mov    %eax,0xc(%esp,1)
80003466:	e8 35 3a 00 00       	call   80006ea0 <KPrint>
8000346b:	31 c0                	xor    %eax,%eax
8000346d:	83 c4 1c             	add    $0x1c,%esp
80003470:	5b                   	pop    %ebx
80003471:	5e                   	pop    %esi
80003472:	5f                   	pop    %edi
80003473:	5d                   	pop    %ebp
80003474:	c3                   	ret    
80003475:	8d 74 26 00          	lea    0x0(%esi,1),%esi
80003479:	8d bc 27 00 00 00 00 	lea    0x0(%edi,1),%edi
80003480:	89 f2                	mov    %esi,%edx
80003482:	c1 e2 0c             	shl    $0xc,%edx
80003485:	8d ba 00 00 00 b0    	lea    0xb0000000(%edx),%edi
8000348b:	89 3c 24             	mov    %edi,(%esp,1)
8000348e:	e8 ad 1f 00 00       	call   80005440 <MemoryManager_GetPTValue>
80003493:	83 e0 01             	and    $0x1,%eax
80003496:	74 07                	je     8000349f <IOManager_MapCacheDirectPage+0x8f>
80003498:	a1 b0 a5 00 80       	mov    0x8000a5b0,%eax
8000349d:	eb a4                	jmp    80003443 <IOManager_MapCacheDirectPage+0x33>
8000349f:	c7 44 24 0c 0a 00 00 	movl   $0xa,0xc(%esp,1)
800034a6:	00 
800034a7:	8b 45 0c             	mov    0xc(%ebp),%eax
800034aa:	c7 44 24 08 01 00 00 	movl   $0x1,0x8(%esp,1)
800034b1:	00 
800034b2:	89 7c 24 04          	mov    %edi,0x4(%esp,1)
800034b6:	89 04 24             	mov    %eax,(%esp,1)
800034b9:	e8 b2 19 00 00       	call   80004e70 <MemoryManager_Page_Map>
800034be:	8b 45 08             	mov    0x8(%ebp),%eax
800034c1:	89 03                	mov    %eax,(%ebx)
800034c3:	8b 45 10             	mov    0x10(%ebp),%eax
800034c6:	c7 43 08 00 00 00 00 	movl   $0x0,0x8(%ebx)
800034cd:	c7 43 0c 0b 00 00 00 	movl   $0xb,0xc(%ebx)
800034d4:	89 43 04             	mov    %eax,0x4(%ebx)
800034d7:	89 f8                	mov    %edi,%eax
800034d9:	eb 92                	jmp    8000346d <IOManager_MapCacheDirectPage+0x5d>
800034db:	00 00                	add    %al,(%eax)
800034dd:	00 00                	add    %al,(%eax)
	...

800034e0 <ObjectManager_CreateObject>:
800034e0:	55                   	push   %ebp
800034e1:	89 e5                	mov    %esp,%ebp
800034e3:	57                   	push   %edi
800034e4:	56                   	push   %esi
800034e5:	53                   	push   %ebx
800034e6:	83 ec 0c             	sub    $0xc,%esp
800034e9:	8b 7d 0c             	mov    0xc(%ebp),%edi
800034ec:	8b 5d 10             	mov    0x10(%ebp),%ebx
800034ef:	e8 cc 1e 00 00       	call   800053c0 <MemoryManager_Lock>
800034f4:	c7 04 24 58 00 00 00 	movl   $0x58,(%esp,1)
800034fb:	e8 90 23 00 00       	call   80005890 <MemoryManager_KAlloc>
80003500:	89 c6                	mov    %eax,%esi
80003502:	85 ff                	test   %edi,%edi
80003504:	0f 85 a6 00 00 00    	jne    800035b0 <ObjectManager_CreateObject+0xd0>
8000350a:	c7 40 4c 00 00 00 00 	movl   $0x0,0x4c(%eax)
80003511:	e8 ca 1e 00 00       	call   800053e0 <MemoryManager_Unlock>
80003516:	a1 84 a4 00 80       	mov    0x8000a484,%eax
8000351b:	85 c0                	test   %eax,%eax
8000351d:	0f 85 7d 00 00 00    	jne    800035a0 <ObjectManager_CreateObject+0xc0>
80003523:	c7 46 50 00 00 00 00 	movl   $0x0,0x50(%esi)
8000352a:	89 35 84 a4 00 80    	mov    %esi,0x8000a484
80003530:	c7 46 54 00 00 00 00 	movl   $0x0,0x54(%esi)
80003537:	b8 30 00 00 00       	mov    $0x30,%eax
8000353c:	89 f7                	mov    %esi,%edi
8000353e:	89 35 88 a4 00 80    	mov    %esi,0x8000a488
80003544:	8a 13                	mov    (%ebx),%dl
80003546:	43                   	inc    %ebx
80003547:	88 17                	mov    %dl,(%edi)
80003549:	47                   	inc    %edi
8000354a:	48                   	dec    %eax
8000354b:	74 0a                	je     80003557 <ObjectManager_CreateObject+0x77>
8000354d:	84 d2                	test   %dl,%dl
8000354f:	75 f3                	jne    80003544 <ObjectManager_CreateObject+0x64>
80003551:	88 17                	mov    %dl,(%edi)
80003553:	47                   	inc    %edi
80003554:	48                   	dec    %eax
80003555:	75 fa                	jne    80003551 <ObjectManager_CreateObject+0x71>
80003557:	a1 8c a4 00 80       	mov    0x8000a48c,%eax
8000355c:	89 46 30             	mov    %eax,0x30(%esi)
8000355f:	a1 00 a5 00 80       	mov    0x8000a500,%eax
80003564:	ff 05 8c a4 00 80    	incl   0x8000a48c
8000356a:	89 46 3c             	mov    %eax,0x3c(%esi)
8000356d:	a1 04 a5 00 80       	mov    0x8000a504,%eax
80003572:	c7 46 48 00 00 00 00 	movl   $0x0,0x48(%esi)
80003579:	89 46 40             	mov    %eax,0x40(%esi)
8000357c:	8b 45 08             	mov    0x8(%ebp),%eax
8000357f:	c7 46 34 00 00 00 00 	movl   $0x0,0x34(%esi)
80003586:	c7 46 38 00 00 00 00 	movl   $0x0,0x38(%esi)
8000358d:	89 46 44             	mov    %eax,0x44(%esi)
80003590:	83 c4 0c             	add    $0xc,%esp
80003593:	89 f0                	mov    %esi,%eax
80003595:	5b                   	pop    %ebx
80003596:	5e                   	pop    %esi
80003597:	5f                   	pop    %edi
80003598:	5d                   	pop    %ebp
80003599:	c3                   	ret    
8000359a:	8d b6 00 00 00 00    	lea    0x0(%esi),%esi
800035a0:	a1 88 a4 00 80       	mov    0x8000a488,%eax
800035a5:	89 70 54             	mov    %esi,0x54(%eax)
800035a8:	89 46 50             	mov    %eax,0x50(%esi)
800035ab:	eb 83                	jmp    80003530 <ObjectManager_CreateObject+0x50>
800035ad:	8d 76 00             	lea    0x0(%esi),%esi
800035b0:	89 3c 24             	mov    %edi,(%esp,1)
800035b3:	e8 d8 22 00 00       	call   80005890 <MemoryManager_KAlloc>
800035b8:	89 46 4c             	mov    %eax,0x4c(%esi)
800035bb:	e9 51 ff ff ff       	jmp    80003511 <ObjectManager_CreateObject+0x31>

800035c0 <ObjectManager_LockInit>:
800035c0:	55                   	push   %ebp
800035c1:	89 e5                	mov    %esp,%ebp
800035c3:	31 c0                	xor    %eax,%eax
800035c5:	5d                   	pop    %ebp
800035c6:	a3 c4 a5 00 80       	mov    %eax,0x8000a5c4
800035cb:	c3                   	ret    
800035cc:	8d 74 26 00          	lea    0x0(%esi,1),%esi

800035d0 <ObjectManager_Lock>:
800035d0:	55                   	push   %ebp
800035d1:	89 e5                	mov    %esp,%ebp
800035d3:	83 ec 08             	sub    $0x8,%esp
800035d6:	c7 04 24 c4 a5 00 80 	movl   $0x8000a5c4,(%esp,1)
800035dd:	e8 7e 0a 00 00       	call   80004060 <Lock_Lock>
800035e2:	89 ec                	mov    %ebp,%esp
800035e4:	5d                   	pop    %ebp
800035e5:	c3                   	ret    
800035e6:	8d 76 00             	lea    0x0(%esi),%esi
800035e9:	8d bc 27 00 00 00 00 	lea    0x0(%edi,1),%edi

800035f0 <ObjectManager_Unlock>:
800035f0:	55                   	push   %ebp
800035f1:	89 e5                	mov    %esp,%ebp
800035f3:	83 ec 08             	sub    $0x8,%esp
800035f6:	c7 04 24 c4 a5 00 80 	movl   $0x8000a5c4,(%esp,1)
800035fd:	e8 be 0a 00 00       	call   800040c0 <Lock_Unlock>
80003602:	89 ec                	mov    %ebp,%esp
80003604:	5d                   	pop    %ebp
80003605:	c3                   	ret    
80003606:	8d 76 00             	lea    0x0(%esi),%esi
80003609:	8d bc 27 00 00 00 00 	lea    0x0(%edi,1),%edi

80003610 <ObjectManager_Init>:
80003610:	55                   	push   %ebp
80003611:	31 c9                	xor    %ecx,%ecx
80003613:	89 e5                	mov    %esp,%ebp
80003615:	57                   	push   %edi
80003616:	31 c0                	xor    %eax,%eax
80003618:	31 ff                	xor    %edi,%edi
8000361a:	56                   	push   %esi
8000361b:	be ad 92 00 80       	mov    $0x800092ad,%esi
80003620:	53                   	push   %ebx
80003621:	31 db                	xor    %ebx,%ebx
80003623:	83 ec 0c             	sub    $0xc,%esp
80003626:	89 0d c4 a5 00 80    	mov    %ecx,0x8000a5c4
8000362c:	89 1d 88 a4 00 80    	mov    %ebx,0x8000a488
80003632:	89 3d 8c a4 00 80    	mov    %edi,0x8000a48c
80003638:	c7 44 24 04 d0 3f 00 	movl   $0x80003fd0,0x4(%esp,1)
8000363f:	80 
80003640:	c7 04 24 c3 92 00 80 	movl   $0x800092c3,(%esp,1)
80003647:	a3 84 a4 00 80       	mov    %eax,0x8000a484
8000364c:	e8 9f 2e 00 00       	call   800064f0 <ModuleManager_CreateModule>
80003651:	c7 44 24 08 00 00 00 	movl   $0x0,0x8(%esp,1)
80003658:	00 
80003659:	c7 44 24 04 d1 92 00 	movl   $0x800092d1,0x4(%esp,1)
80003660:	80 
80003661:	c7 04 24 c3 92 00 80 	movl   $0x800092c3,(%esp,1)
80003668:	e8 93 2f 00 00       	call   80006600 <ModuleManager_CreateModuleCall>
8000366d:	c7 44 24 08 01 00 00 	movl   $0x1,0x8(%esp,1)
80003674:	00 
80003675:	c7 44 24 04 dc 92 00 	movl   $0x800092dc,0x4(%esp,1)
8000367c:	80 
8000367d:	c7 04 24 c3 92 00 80 	movl   $0x800092c3,(%esp,1)
80003684:	e8 77 2f 00 00       	call   80006600 <ModuleManager_CreateModuleCall>
80003689:	c7 44 24 08 02 00 00 	movl   $0x2,0x8(%esp,1)
80003690:	00 
80003691:	c7 44 24 04 ef 92 00 	movl   $0x800092ef,0x4(%esp,1)
80003698:	80 
80003699:	c7 04 24 c3 92 00 80 	movl   $0x800092c3,(%esp,1)
800036a0:	e8 5b 2f 00 00       	call   80006600 <ModuleManager_CreateModuleCall>
800036a5:	c7 44 24 08 03 00 00 	movl   $0x3,0x8(%esp,1)
800036ac:	00 
800036ad:	c7 44 24 04 fc 92 00 	movl   $0x800092fc,0x4(%esp,1)
800036b4:	80 
800036b5:	c7 04 24 c3 92 00 80 	movl   $0x800092c3,(%esp,1)
800036bc:	e8 3f 2f 00 00       	call   80006600 <ModuleManager_CreateModuleCall>
800036c1:	c7 44 24 08 04 00 00 	movl   $0x4,0x8(%esp,1)
800036c8:	00 
800036c9:	c7 44 24 04 0a 93 00 	movl   $0x8000930a,0x4(%esp,1)
800036d0:	80 
800036d1:	c7 04 24 c3 92 00 80 	movl   $0x800092c3,(%esp,1)
800036d8:	e8 23 2f 00 00       	call   80006600 <ModuleManager_CreateModuleCall>
800036dd:	c7 04 24 c4 a5 00 80 	movl   $0x8000a5c4,(%esp,1)
800036e4:	e8 77 09 00 00       	call   80004060 <Lock_Lock>
800036e9:	c7 44 24 08 1a 93 00 	movl   $0x8000931a,0x8(%esp,1)
800036f0:	80 
800036f1:	c7 44 24 04 0c 01 00 	movl   $0x10c,0x4(%esp,1)
800036f8:	00 
800036f9:	c7 04 24 00 00 00 00 	movl   $0x0,(%esp,1)
80003700:	e8 db fd ff ff       	call   800034e0 <ObjectManager_CreateObject>
80003705:	8b 78 4c             	mov    0x4c(%eax),%edi
80003708:	b8 00 01 00 00       	mov    $0x100,%eax
8000370d:	89 fa                	mov    %edi,%edx
8000370f:	8a 0e                	mov    (%esi),%cl
80003711:	46                   	inc    %esi
80003712:	88 0a                	mov    %cl,(%edx)
80003714:	42                   	inc    %edx
80003715:	48                   	dec    %eax
80003716:	74 0a                	je     80003722 <ObjectManager_Init+0x112>
80003718:	84 c9                	test   %cl,%cl
8000371a:	75 f3                	jne    8000370f <ObjectManager_Init+0xff>
8000371c:	88 0a                	mov    %cl,(%edx)
8000371e:	42                   	inc    %edx
8000371f:	48                   	dec    %eax
80003720:	75 fa                	jne    8000371c <ObjectManager_Init+0x10c>
80003722:	be 26 93 00 80       	mov    $0x80009326,%esi
80003727:	31 d2                	xor    %edx,%edx
80003729:	31 db                	xor    %ebx,%ebx
8000372b:	89 97 00 01 00 00    	mov    %edx,0x100(%edi)
80003731:	89 9f 04 01 00 00    	mov    %ebx,0x104(%edi)
80003737:	c7 04 24 c4 a5 00 80 	movl   $0x8000a5c4,(%esp,1)
8000373e:	e8 7d 09 00 00       	call   800040c0 <Lock_Unlock>
80003743:	c7 04 24 c4 a5 00 80 	movl   $0x8000a5c4,(%esp,1)
8000374a:	e8 11 09 00 00       	call   80004060 <Lock_Lock>
8000374f:	c7 44 24 08 1a 93 00 	movl   $0x8000931a,0x8(%esp,1)
80003756:	80 
80003757:	c7 44 24 04 0c 01 00 	movl   $0x10c,0x4(%esp,1)
8000375e:	00 
8000375f:	c7 04 24 00 00 00 00 	movl   $0x0,(%esp,1)
80003766:	e8 75 fd ff ff       	call   800034e0 <ObjectManager_CreateObject>
8000376b:	8b 50 4c             	mov    0x4c(%eax),%edx
8000376e:	b8 00 01 00 00       	mov    $0x100,%eax
80003773:	89 d7                	mov    %edx,%edi
80003775:	8a 0e                	mov    (%esi),%cl
80003777:	46                   	inc    %esi
80003778:	88 0f                	mov    %cl,(%edi)
8000377a:	47                   	inc    %edi
8000377b:	48                   	dec    %eax
8000377c:	74 0a                	je     80003788 <ObjectManager_Init+0x178>
8000377e:	84 c9                	test   %cl,%cl
80003780:	75 f3                	jne    80003775 <ObjectManager_Init+0x165>
80003782:	88 0f                	mov    %cl,(%edi)
80003784:	47                   	inc    %edi
80003785:	48                   	dec    %eax
80003786:	75 fa                	jne    80003782 <ObjectManager_Init+0x172>
80003788:	be 3c 93 00 80       	mov    $0x8000933c,%esi
8000378d:	31 c9                	xor    %ecx,%ecx
8000378f:	31 ff                	xor    %edi,%edi
80003791:	89 ba 00 01 00 00    	mov    %edi,0x100(%edx)
80003797:	89 8a 04 01 00 00    	mov    %ecx,0x104(%edx)
8000379d:	c7 04 24 c4 a5 00 80 	movl   $0x8000a5c4,(%esp,1)
800037a4:	e8 17 09 00 00       	call   800040c0 <Lock_Unlock>
800037a9:	c7 04 24 c4 a5 00 80 	movl   $0x8000a5c4,(%esp,1)
800037b0:	e8 ab 08 00 00       	call   80004060 <Lock_Lock>
800037b5:	c7 44 24 08 1a 93 00 	movl   $0x8000931a,0x8(%esp,1)
800037bc:	80 
800037bd:	c7 44 24 04 0c 01 00 	movl   $0x10c,0x4(%esp,1)
800037c4:	00 
800037c5:	c7 04 24 00 00 00 00 	movl   $0x0,(%esp,1)
800037cc:	e8 0f fd ff ff       	call   800034e0 <ObjectManager_CreateObject>
800037d1:	8b 78 4c             	mov    0x4c(%eax),%edi
800037d4:	b8 00 01 00 00       	mov    $0x100,%eax
800037d9:	89 fa                	mov    %edi,%edx
800037db:	8a 0e                	mov    (%esi),%cl
800037dd:	46                   	inc    %esi
800037de:	88 0a                	mov    %cl,(%edx)
800037e0:	42                   	inc    %edx
800037e1:	48                   	dec    %eax
800037e2:	74 0a                	je     800037ee <ObjectManager_Init+0x1de>
800037e4:	84 c9                	test   %cl,%cl
800037e6:	75 f3                	jne    800037db <ObjectManager_Init+0x1cb>
800037e8:	88 0a                	mov    %cl,(%edx)
800037ea:	42                   	inc    %edx
800037eb:	48                   	dec    %eax
800037ec:	75 fa                	jne    800037e8 <ObjectManager_Init+0x1d8>
800037ee:	be 55 93 00 80       	mov    $0x80009355,%esi
800037f3:	ba 01 00 00 00       	mov    $0x1,%edx
800037f8:	31 db                	xor    %ebx,%ebx
800037fa:	89 97 04 01 00 00    	mov    %edx,0x104(%edi)
80003800:	89 9f 00 01 00 00    	mov    %ebx,0x100(%edi)
80003806:	bf 6e 93 00 80       	mov    $0x8000936e,%edi
8000380b:	c7 04 24 c4 a5 00 80 	movl   $0x8000a5c4,(%esp,1)
80003812:	e8 a9 08 00 00       	call   800040c0 <Lock_Unlock>
80003817:	c7 04 24 c4 a5 00 80 	movl   $0x8000a5c4,(%esp,1)
8000381e:	e8 3d 08 00 00       	call   80004060 <Lock_Lock>
80003823:	c7 44 24 08 74 93 00 	movl   $0x80009374,0x8(%esp,1)
8000382a:	80 
8000382b:	c7 44 24 04 0c 01 00 	movl   $0x10c,0x4(%esp,1)
80003832:	00 
80003833:	c7 04 24 00 00 00 00 	movl   $0x0,(%esp,1)
8000383a:	e8 a1 fc ff ff       	call   800034e0 <ObjectManager_CreateObject>
8000383f:	8b 58 4c             	mov    0x4c(%eax),%ebx
80003842:	b8 00 01 00 00       	mov    $0x100,%eax
80003847:	89 d9                	mov    %ebx,%ecx
80003849:	8a 16                	mov    (%esi),%dl
8000384b:	46                   	inc    %esi
8000384c:	88 11                	mov    %dl,(%ecx)
8000384e:	41                   	inc    %ecx
8000384f:	48                   	dec    %eax
80003850:	74 0a                	je     8000385c <ObjectManager_Init+0x24c>
80003852:	84 d2                	test   %dl,%dl
80003854:	75 f3                	jne    80003849 <ObjectManager_Init+0x239>
80003856:	88 11                	mov    %dl,(%ecx)
80003858:	41                   	inc    %ecx
80003859:	48                   	dec    %eax
8000385a:	75 fa                	jne    80003856 <ObjectManager_Init+0x246>
8000385c:	b8 01 00 00 00       	mov    $0x1,%eax
80003861:	89 83 00 01 00 00    	mov    %eax,0x100(%ebx)
80003867:	e8 54 1b 00 00       	call   800053c0 <MemoryManager_Lock>
8000386c:	89 f9                	mov    %edi,%ecx
8000386e:	8a 11                	mov    (%ecx),%dl
80003870:	41                   	inc    %ecx
80003871:	84 d2                	test   %dl,%dl
80003873:	75 f9                	jne    8000386e <ObjectManager_Init+0x25e>
80003875:	29 f9                	sub    %edi,%ecx
80003877:	49                   	dec    %ecx
80003878:	89 0c 24             	mov    %ecx,(%esp,1)
8000387b:	e8 10 20 00 00       	call   80005890 <MemoryManager_KAlloc>
80003880:	89 83 08 01 00 00    	mov    %eax,0x108(%ebx)
80003886:	e8 55 1b 00 00       	call   800053e0 <MemoryManager_Unlock>
8000388b:	8b 83 08 01 00 00    	mov    0x108(%ebx),%eax
80003891:	89 c1                	mov    %eax,%ecx
80003893:	8a 07                	mov    (%edi),%al
80003895:	47                   	inc    %edi
80003896:	88 01                	mov    %al,(%ecx)
80003898:	41                   	inc    %ecx
80003899:	84 c0                	test   %al,%al
8000389b:	75 f6                	jne    80003893 <ObjectManager_Init+0x283>
8000389d:	c7 04 24 c4 a5 00 80 	movl   $0x8000a5c4,(%esp,1)
800038a4:	e8 17 08 00 00       	call   800040c0 <Lock_Unlock>
800038a9:	c7 44 24 08 82 93 00 	movl   $0x80009382,0x8(%esp,1)
800038b0:	80 
800038b1:	c7 44 24 04 9e 93 00 	movl   $0x8000939e,0x4(%esp,1)
800038b8:	80 
800038b9:	c7 04 24 01 00 00 00 	movl   $0x1,(%esp,1)
800038c0:	e8 db 35 00 00       	call   80006ea0 <KPrint>
800038c5:	83 c4 0c             	add    $0xc,%esp
800038c8:	5b                   	pop    %ebx
800038c9:	5e                   	pop    %esi
800038ca:	5f                   	pop    %edi
800038cb:	5d                   	pop    %ebp
800038cc:	c3                   	ret    
800038cd:	8d 76 00             	lea    0x0(%esi),%esi

800038d0 <ObjectManager_GetStart>:
800038d0:	55                   	push   %ebp
800038d1:	89 e5                	mov    %esp,%ebp
800038d3:	8b 45 08             	mov    0x8(%ebp),%eax
800038d6:	85 c0                	test   %eax,%eax
800038d8:	74 06                	je     800038e0 <ObjectManager_GetStart+0x10>
800038da:	8b 40 54             	mov    0x54(%eax),%eax
800038dd:	5d                   	pop    %ebp
800038de:	c3                   	ret    
800038df:	90                   	nop    
800038e0:	a1 84 a4 00 80       	mov    0x8000a484,%eax
800038e5:	eb f6                	jmp    800038dd <ObjectManager_GetStart+0xd>
800038e7:	89 f6                	mov    %esi,%esi
800038e9:	8d bc 27 00 00 00 00 	lea    0x0(%edi,1),%edi

800038f0 <ObjectManager_DeleteObject>:
800038f0:	55                   	push   %ebp
800038f1:	89 e5                	mov    %esp,%ebp
800038f3:	83 ec 18             	sub    $0x18,%esp
800038f6:	89 5d fc             	mov    %ebx,0xfffffffc(%ebp)
800038f9:	8b 5d 08             	mov    0x8(%ebp),%ebx
800038fc:	8b 43 48             	mov    0x48(%ebx),%eax
800038ff:	85 c0                	test   %eax,%eax
80003901:	75 5d                	jne    80003960 <ObjectManager_DeleteObject+0x70>
80003903:	8b 43 4c             	mov    0x4c(%ebx),%eax
80003906:	85 c0                	test   %eax,%eax
80003908:	75 46                	jne    80003950 <ObjectManager_DeleteObject+0x60>
8000390a:	8b 53 54             	mov    0x54(%ebx),%edx
8000390d:	85 d2                	test   %edx,%edx
8000390f:	75 2f                	jne    80003940 <ObjectManager_DeleteObject+0x50>
80003911:	8b 43 50             	mov    0x50(%ebx),%eax
80003914:	a3 88 a4 00 80       	mov    %eax,0x8000a488
80003919:	8b 43 50             	mov    0x50(%ebx),%eax
8000391c:	c7 40 54 00 00 00 00 	movl   $0x0,0x54(%eax)
80003923:	89 5d 08             	mov    %ebx,0x8(%ebp)
80003926:	8b 5d fc             	mov    0xfffffffc(%ebp),%ebx
80003929:	89 ec                	mov    %ebp,%esp
8000392b:	5d                   	pop    %ebp
8000392c:	e9 7f 1f 00 00       	jmp    800058b0 <MemoryManager_KFree>
80003931:	eb 0d                	jmp    80003940 <ObjectManager_DeleteObject+0x50>
80003933:	90                   	nop    
80003934:	90                   	nop    
80003935:	90                   	nop    
80003936:	90                   	nop    
80003937:	90                   	nop    
80003938:	90                   	nop    
80003939:	90                   	nop    
8000393a:	90                   	nop    
8000393b:	90                   	nop    
8000393c:	90                   	nop    
8000393d:	90                   	nop    
8000393e:	90                   	nop    
8000393f:	90                   	nop    
80003940:	8b 43 50             	mov    0x50(%ebx),%eax
80003943:	89 42 50             	mov    %eax,0x50(%edx)
80003946:	8b 43 50             	mov    0x50(%ebx),%eax
80003949:	89 50 54             	mov    %edx,0x54(%eax)
8000394c:	eb d5                	jmp    80003923 <ObjectManager_DeleteObject+0x33>
8000394e:	89 f6                	mov    %esi,%esi
80003950:	89 04 24             	mov    %eax,(%esp,1)
80003953:	e8 58 1f 00 00       	call   800058b0 <MemoryManager_KFree>
80003958:	eb b0                	jmp    8000390a <ObjectManager_DeleteObject+0x1a>
8000395a:	8d b6 00 00 00 00    	lea    0x0(%esi),%esi
80003960:	89 5c 24 0c          	mov    %ebx,0xc(%esp,1)
80003964:	c7 44 24 08 c0 93 00 	movl   $0x800093c0,0x8(%esp,1)
8000396b:	80 
8000396c:	c7 44 24 04 9e 93 00 	movl   $0x8000939e,0x4(%esp,1)
80003973:	80 
80003974:	c7 04 24 00 00 00 00 	movl   $0x0,(%esp,1)
8000397b:	e8 20 35 00 00       	call   80006ea0 <KPrint>
80003980:	8b 5d fc             	mov    0xfffffffc(%ebp),%ebx
80003983:	89 ec                	mov    %ebp,%esp
80003985:	5d                   	pop    %ebp
80003986:	c3                   	ret    
80003987:	89 f6                	mov    %esi,%esi
80003989:	8d bc 27 00 00 00 00 	lea    0x0(%edi,1),%edi

80003990 <ObjectManager_SearchNameInClass>:
80003990:	55                   	push   %ebp
80003991:	89 e5                	mov    %esp,%ebp
80003993:	57                   	push   %edi
80003994:	8b 45 08             	mov    0x8(%ebp),%eax
80003997:	56                   	push   %esi
80003998:	8b 7d 10             	mov    0x10(%ebp),%edi
8000399b:	53                   	push   %ebx
8000399c:	85 c0                	test   %eax,%eax
8000399e:	74 61                	je     80003a01 <ObjectManager_SearchNameInClass+0x71>
800039a0:	8b 40 54             	mov    0x54(%eax),%eax
800039a3:	85 c0                	test   %eax,%eax
800039a5:	89 c6                	mov    %eax,%esi
800039a7:	74 16                	je     800039bf <ObjectManager_SearchNameInClass+0x2f>
800039a9:	8d b4 26 00 00 00 00 	lea    0x0(%esi,1),%esi
800039b0:	8b 45 0c             	mov    0xc(%ebp),%eax
800039b3:	39 46 44             	cmp    %eax,0x44(%esi)
800039b6:	74 18                	je     800039d0 <ObjectManager_SearchNameInClass+0x40>
800039b8:	8b 76 54             	mov    0x54(%esi),%esi
800039bb:	85 f6                	test   %esi,%esi
800039bd:	75 f1                	jne    800039b0 <ObjectManager_SearchNameInClass+0x20>
800039bf:	31 c0                	xor    %eax,%eax
800039c1:	5b                   	pop    %ebx
800039c2:	5e                   	pop    %esi
800039c3:	5f                   	pop    %edi
800039c4:	5d                   	pop    %ebp
800039c5:	c3                   	ret    
800039c6:	8d 76 00             	lea    0x0(%esi),%esi
800039c9:	8d bc 27 00 00 00 00 	lea    0x0(%edi,1),%edi
800039d0:	b8 30 00 00 00       	mov    $0x30,%eax
800039d5:	89 fb                	mov    %edi,%ebx
800039d7:	89 f1                	mov    %esi,%ecx
800039d9:	48                   	dec    %eax
800039da:	78 0c                	js     800039e8 <ObjectManager_SearchNameInClass+0x58>
800039dc:	8a 13                	mov    (%ebx),%dl
800039de:	43                   	inc    %ebx
800039df:	38 11                	cmp    %dl,(%ecx)
800039e1:	75 09                	jne    800039ec <ObjectManager_SearchNameInClass+0x5c>
800039e3:	41                   	inc    %ecx
800039e4:	84 d2                	test   %dl,%dl
800039e6:	75 f1                	jne    800039d9 <ObjectManager_SearchNameInClass+0x49>
800039e8:	31 d2                	xor    %edx,%edx
800039ea:	eb 09                	jmp    800039f5 <ObjectManager_SearchNameInClass+0x65>
800039ec:	ba 01 00 00 00       	mov    $0x1,%edx
800039f1:	72 02                	jb     800039f5 <ObjectManager_SearchNameInClass+0x65>
800039f3:	f7 da                	neg    %edx
800039f5:	85 d2                	test   %edx,%edx
800039f7:	75 bf                	jne    800039b8 <ObjectManager_SearchNameInClass+0x28>
800039f9:	85 f6                	test   %esi,%esi
800039fb:	89 f0                	mov    %esi,%eax
800039fd:	75 c2                	jne    800039c1 <ObjectManager_SearchNameInClass+0x31>
800039ff:	eb be                	jmp    800039bf <ObjectManager_SearchNameInClass+0x2f>
80003a01:	a1 84 a4 00 80       	mov    0x8000a484,%eax
80003a06:	eb 9b                	jmp    800039a3 <ObjectManager_SearchNameInClass+0x13>
80003a08:	90                   	nop    
80003a09:	8d b4 26 00 00 00 00 	lea    0x0(%esi,1),%esi

80003a10 <ObjectManager_SearchNameInClassTypeIndex>:
80003a10:	55                   	push   %ebp
80003a11:	89 e5                	mov    %esp,%ebp
80003a13:	57                   	push   %edi
80003a14:	8b 45 08             	mov    0x8(%ebp),%eax
80003a17:	56                   	push   %esi
80003a18:	8b 7d 10             	mov    0x10(%ebp),%edi
80003a1b:	53                   	push   %ebx
80003a1c:	85 c0                	test   %eax,%eax
80003a1e:	74 70                	je     80003a90 <ObjectManager_SearchNameInClassTypeIndex+0x80>
80003a20:	8b 40 54             	mov    0x54(%eax),%eax
80003a23:	85 c0                	test   %eax,%eax
80003a25:	89 c6                	mov    %eax,%esi
80003a27:	74 16                	je     80003a3f <ObjectManager_SearchNameInClassTypeIndex+0x2f>
80003a29:	8d b4 26 00 00 00 00 	lea    0x0(%esi,1),%esi
80003a30:	8b 45 0c             	mov    0xc(%ebp),%eax
80003a33:	39 46 44             	cmp    %eax,0x44(%esi)
80003a36:	74 18                	je     80003a50 <ObjectManager_SearchNameInClassTypeIndex+0x40>
80003a38:	8b 76 54             	mov    0x54(%esi),%esi
80003a3b:	85 f6                	test   %esi,%esi
80003a3d:	75 f1                	jne    80003a30 <ObjectManager_SearchNameInClassTypeIndex+0x20>
80003a3f:	31 c0                	xor    %eax,%eax
80003a41:	5b                   	pop    %ebx
80003a42:	5e                   	pop    %esi
80003a43:	5f                   	pop    %edi
80003a44:	5d                   	pop    %ebp
80003a45:	c3                   	ret    
80003a46:	8d 76 00             	lea    0x0(%esi),%esi
80003a49:	8d bc 27 00 00 00 00 	lea    0x0(%edi,1),%edi
80003a50:	8b 45 14             	mov    0x14(%ebp),%eax
80003a53:	39 46 34             	cmp    %eax,0x34(%esi)
80003a56:	75 e0                	jne    80003a38 <ObjectManager_SearchNameInClassTypeIndex+0x28>
80003a58:	b8 30 00 00 00       	mov    $0x30,%eax
80003a5d:	89 fb                	mov    %edi,%ebx
80003a5f:	89 f1                	mov    %esi,%ecx
80003a61:	48                   	dec    %eax
80003a62:	78 0c                	js     80003a70 <ObjectManager_SearchNameInClassTypeIndex+0x60>
80003a64:	8a 13                	mov    (%ebx),%dl
80003a66:	43                   	inc    %ebx
80003a67:	38 11                	cmp    %dl,(%ecx)
80003a69:	75 09                	jne    80003a74 <ObjectManager_SearchNameInClassTypeIndex+0x64>
80003a6b:	41                   	inc    %ecx
80003a6c:	84 d2                	test   %dl,%dl
80003a6e:	75 f1                	jne    80003a61 <ObjectManager_SearchNameInClassTypeIndex+0x51>
80003a70:	31 d2                	xor    %edx,%edx
80003a72:	eb 09                	jmp    80003a7d <ObjectManager_SearchNameInClassTypeIndex+0x6d>
80003a74:	ba 01 00 00 00       	mov    $0x1,%edx
80003a79:	72 02                	jb     80003a7d <ObjectManager_SearchNameInClassTypeIndex+0x6d>
80003a7b:	f7 da                	neg    %edx
80003a7d:	85 d2                	test   %edx,%edx
80003a7f:	75 b7                	jne    80003a38 <ObjectManager_SearchNameInClassTypeIndex+0x28>
80003a81:	85 f6                	test   %esi,%esi
80003a83:	89 f0                	mov    %esi,%eax
80003a85:	75 ba                	jne    80003a41 <ObjectManager_SearchNameInClassTypeIndex+0x31>
80003a87:	eb b6                	jmp    80003a3f <ObjectManager_SearchNameInClassTypeIndex+0x2f>
80003a89:	8d b4 26 00 00 00 00 	lea    0x0(%esi,1),%esi
80003a90:	a1 84 a4 00 80       	mov    0x8000a484,%eax
80003a95:	eb 8c                	jmp    80003a23 <ObjectManager_SearchNameInClassTypeIndex+0x13>
80003a97:	89 f6                	mov    %esi,%esi
80003a99:	8d bc 27 00 00 00 00 	lea    0x0(%edi,1),%edi

80003aa0 <ObjectManager_SearchInClass>:
80003aa0:	55                   	push   %ebp
80003aa1:	89 e5                	mov    %esp,%ebp
80003aa3:	8b 45 08             	mov    0x8(%ebp),%eax
80003aa6:	8b 55 0c             	mov    0xc(%ebp),%edx
80003aa9:	85 c0                	test   %eax,%eax
80003aab:	74 29                	je     80003ad6 <ObjectManager_SearchInClass+0x36>
80003aad:	8b 40 54             	mov    0x54(%eax),%eax
80003ab0:	85 c0                	test   %eax,%eax
80003ab2:	74 18                	je     80003acc <ObjectManager_SearchInClass+0x2c>
80003ab4:	8d b6 00 00 00 00    	lea    0x0(%esi),%esi
80003aba:	8d bf 00 00 00 00    	lea    0x0(%edi),%edi
80003ac0:	39 50 44             	cmp    %edx,0x44(%eax)
80003ac3:	74 0b                	je     80003ad0 <ObjectManager_SearchInClass+0x30>
80003ac5:	8b 40 54             	mov    0x54(%eax),%eax
80003ac8:	85 c0                	test   %eax,%eax
80003aca:	75 f4                	jne    80003ac0 <ObjectManager_SearchInClass+0x20>
80003acc:	31 c0                	xor    %eax,%eax
80003ace:	5d                   	pop    %ebp
80003acf:	c3                   	ret    
80003ad0:	85 c0                	test   %eax,%eax
80003ad2:	75 fa                	jne    80003ace <ObjectManager_SearchInClass+0x2e>
80003ad4:	eb f6                	jmp    80003acc <ObjectManager_SearchInClass+0x2c>
80003ad6:	a1 84 a4 00 80       	mov    0x8000a484,%eax
80003adb:	eb d3                	jmp    80003ab0 <ObjectManager_SearchInClass+0x10>
80003add:	8d 76 00             	lea    0x0(%esi),%esi

80003ae0 <ObjectManager_SearchInClassTypeIndex>:
80003ae0:	55                   	push   %ebp
80003ae1:	89 e5                	mov    %esp,%ebp
80003ae3:	8b 45 08             	mov    0x8(%ebp),%eax
80003ae6:	8b 55 0c             	mov    0xc(%ebp),%edx
80003ae9:	8b 4d 10             	mov    0x10(%ebp),%ecx
80003aec:	85 c0                	test   %eax,%eax
80003aee:	74 2b                	je     80003b1b <ObjectManager_SearchInClassTypeIndex+0x3b>
80003af0:	8b 40 54             	mov    0x54(%eax),%eax
80003af3:	85 c0                	test   %eax,%eax
80003af5:	74 15                	je     80003b0c <ObjectManager_SearchInClassTypeIndex+0x2c>
80003af7:	89 f6                	mov    %esi,%esi
80003af9:	8d bc 27 00 00 00 00 	lea    0x0(%edi,1),%edi
80003b00:	39 50 44             	cmp    %edx,0x44(%eax)
80003b03:	74 0b                	je     80003b10 <ObjectManager_SearchInClassTypeIndex+0x30>
80003b05:	8b 40 54             	mov    0x54(%eax),%eax
80003b08:	85 c0                	test   %eax,%eax
80003b0a:	75 f4                	jne    80003b00 <ObjectManager_SearchInClassTypeIndex+0x20>
80003b0c:	31 c0                	xor    %eax,%eax
80003b0e:	5d                   	pop    %ebp
80003b0f:	c3                   	ret    
80003b10:	39 48 34             	cmp    %ecx,0x34(%eax)
80003b13:	75 f0                	jne    80003b05 <ObjectManager_SearchInClassTypeIndex+0x25>
80003b15:	85 c0                	test   %eax,%eax
80003b17:	75 f5                	jne    80003b0e <ObjectManager_SearchInClassTypeIndex+0x2e>
80003b19:	eb f1                	jmp    80003b0c <ObjectManager_SearchInClassTypeIndex+0x2c>
80003b1b:	a1 84 a4 00 80       	mov    0x8000a484,%eax
80003b20:	eb d1                	jmp    80003af3 <ObjectManager_SearchInClassTypeIndex+0x13>
80003b22:	8d b4 26 00 00 00 00 	lea    0x0(%esi,1),%esi
80003b29:	8d bc 27 00 00 00 00 	lea    0x0(%edi,1),%edi

80003b30 <ObjectManager_CreateEntityWord>:
80003b30:	55                   	push   %ebp
80003b31:	89 e5                	mov    %esp,%ebp
80003b33:	83 ec 18             	sub    $0x18,%esp
80003b36:	c7 04 24 c4 a5 00 80 	movl   $0x8000a5c4,(%esp,1)
80003b3d:	89 5d f8             	mov    %ebx,0xfffffff8(%ebp)
80003b40:	8b 5d 08             	mov    0x8(%ebp),%ebx
80003b43:	89 75 fc             	mov    %esi,0xfffffffc(%ebp)
80003b46:	e8 15 05 00 00       	call   80004060 <Lock_Lock>
80003b4b:	c7 44 24 08 1a 93 00 	movl   $0x8000931a,0x8(%esp,1)
80003b52:	80 
80003b53:	c7 44 24 04 0c 01 00 	movl   $0x10c,0x4(%esp,1)
80003b5a:	00 
80003b5b:	c7 04 24 00 00 00 00 	movl   $0x0,(%esp,1)
80003b62:	e8 79 f9 ff ff       	call   800034e0 <ObjectManager_CreateObject>
80003b67:	8b 50 4c             	mov    0x4c(%eax),%edx
80003b6a:	b8 00 01 00 00       	mov    $0x100,%eax
80003b6f:	89 d6                	mov    %edx,%esi
80003b71:	8a 0b                	mov    (%ebx),%cl
80003b73:	43                   	inc    %ebx
80003b74:	88 0e                	mov    %cl,(%esi)
80003b76:	46                   	inc    %esi
80003b77:	48                   	dec    %eax
80003b78:	74 0a                	je     80003b84 <ObjectManager_CreateEntityWord+0x54>
80003b7a:	84 c9                	test   %cl,%cl
80003b7c:	75 f3                	jne    80003b71 <ObjectManager_CreateEntityWord+0x41>
80003b7e:	88 0e                	mov    %cl,(%esi)
80003b80:	46                   	inc    %esi
80003b81:	48                   	dec    %eax
80003b82:	75 fa                	jne    80003b7e <ObjectManager_CreateEntityWord+0x4e>
80003b84:	31 c0                	xor    %eax,%eax
80003b86:	89 82 00 01 00 00    	mov    %eax,0x100(%edx)
80003b8c:	8b 45 0c             	mov    0xc(%ebp),%eax
80003b8f:	89 82 04 01 00 00    	mov    %eax,0x104(%edx)
80003b95:	c7 04 24 c4 a5 00 80 	movl   $0x8000a5c4,(%esp,1)
80003b9c:	e8 1f 05 00 00       	call   800040c0 <Lock_Unlock>
80003ba1:	8b 75 fc             	mov    0xfffffffc(%ebp),%esi
80003ba4:	31 c0                	xor    %eax,%eax
80003ba6:	8b 5d f8             	mov    0xfffffff8(%ebp),%ebx
80003ba9:	89 ec                	mov    %ebp,%esp
80003bab:	5d                   	pop    %ebp
80003bac:	c3                   	ret    
80003bad:	8d 76 00             	lea    0x0(%esi),%esi

80003bb0 <ObjectManager_CreateEntityWordCall>:
80003bb0:	55                   	push   %ebp
80003bb1:	89 e5                	mov    %esp,%ebp
80003bb3:	83 ec 18             	sub    $0x18,%esp
80003bb6:	89 7d fc             	mov    %edi,0xfffffffc(%ebp)
80003bb9:	8b 45 08             	mov    0x8(%ebp),%eax
80003bbc:	89 5d f4             	mov    %ebx,0xfffffff4(%ebp)
80003bbf:	89 75 f8             	mov    %esi,0xfffffff8(%ebp)
80003bc2:	8b 18                	mov    (%eax),%ebx
80003bc4:	8b 70 04             	mov    0x4(%eax),%esi
80003bc7:	c7 04 24 c4 a5 00 80 	movl   $0x8000a5c4,(%esp,1)
80003bce:	e8 8d 04 00 00       	call   80004060 <Lock_Lock>
80003bd3:	c7 44 24 08 1a 93 00 	movl   $0x8000931a,0x8(%esp,1)
80003bda:	80 
80003bdb:	c7 44 24 04 0c 01 00 	movl   $0x10c,0x4(%esp,1)
80003be2:	00 
80003be3:	c7 04 24 00 00 00 00 	movl   $0x0,(%esp,1)
80003bea:	e8 f1 f8 ff ff       	call   800034e0 <ObjectManager_CreateObject>
80003bef:	8b 50 4c             	mov    0x4c(%eax),%edx
80003bf2:	b8 00 01 00 00       	mov    $0x100,%eax
80003bf7:	89 d7                	mov    %edx,%edi
80003bf9:	8a 0b                	mov    (%ebx),%cl
80003bfb:	43                   	inc    %ebx
80003bfc:	88 0f                	mov    %cl,(%edi)
80003bfe:	47                   	inc    %edi
80003bff:	48                   	dec    %eax
80003c00:	74 0a                	je     80003c0c <ObjectManager_CreateEntityWordCall+0x5c>
80003c02:	84 c9                	test   %cl,%cl
80003c04:	75 f3                	jne    80003bf9 <ObjectManager_CreateEntityWordCall+0x49>
80003c06:	88 0f                	mov    %cl,(%edi)
80003c08:	47                   	inc    %edi
80003c09:	48                   	dec    %eax
80003c0a:	75 fa                	jne    80003c06 <ObjectManager_CreateEntityWordCall+0x56>
80003c0c:	31 c0                	xor    %eax,%eax
80003c0e:	89 82 00 01 00 00    	mov    %eax,0x100(%edx)
80003c14:	89 b2 04 01 00 00    	mov    %esi,0x104(%edx)
80003c1a:	c7 04 24 c4 a5 00 80 	movl   $0x8000a5c4,(%esp,1)
80003c21:	e8 9a 04 00 00       	call   800040c0 <Lock_Unlock>
80003c26:	8b 7d fc             	mov    0xfffffffc(%ebp),%edi
80003c29:	31 c0                	xor    %eax,%eax
80003c2b:	8b 5d f4             	mov    0xfffffff4(%ebp),%ebx
80003c2e:	8b 75 f8             	mov    0xfffffff8(%ebp),%esi
80003c31:	89 ec                	mov    %ebp,%esp
80003c33:	5d                   	pop    %ebp
80003c34:	c3                   	ret    
80003c35:	8d 74 26 00          	lea    0x0(%esi,1),%esi
80003c39:	8d bc 27 00 00 00 00 	lea    0x0(%edi,1),%edi

80003c40 <ObjectManager_CreateEntityString>:
80003c40:	55                   	push   %ebp
80003c41:	89 e5                	mov    %esp,%ebp
80003c43:	83 ec 18             	sub    $0x18,%esp
80003c46:	c7 04 24 c4 a5 00 80 	movl   $0x8000a5c4,(%esp,1)
80003c4d:	89 5d f4             	mov    %ebx,0xfffffff4(%ebp)
80003c50:	89 75 f8             	mov    %esi,0xfffffff8(%ebp)
80003c53:	8b 75 08             	mov    0x8(%ebp),%esi
80003c56:	89 7d fc             	mov    %edi,0xfffffffc(%ebp)
80003c59:	8b 7d 0c             	mov    0xc(%ebp),%edi
80003c5c:	e8 ff 03 00 00       	call   80004060 <Lock_Lock>
80003c61:	c7 44 24 08 74 93 00 	movl   $0x80009374,0x8(%esp,1)
80003c68:	80 
80003c69:	c7 44 24 04 0c 01 00 	movl   $0x10c,0x4(%esp,1)
80003c70:	00 
80003c71:	c7 04 24 00 00 00 00 	movl   $0x0,(%esp,1)
80003c78:	e8 63 f8 ff ff       	call   800034e0 <ObjectManager_CreateObject>
80003c7d:	8b 58 4c             	mov    0x4c(%eax),%ebx
80003c80:	b8 00 01 00 00       	mov    $0x100,%eax
80003c85:	89 d9                	mov    %ebx,%ecx
80003c87:	8a 16                	mov    (%esi),%dl
80003c89:	46                   	inc    %esi
80003c8a:	88 11                	mov    %dl,(%ecx)
80003c8c:	41                   	inc    %ecx
80003c8d:	48                   	dec    %eax
80003c8e:	74 0a                	je     80003c9a <ObjectManager_CreateEntityString+0x5a>
80003c90:	84 d2                	test   %dl,%dl
80003c92:	75 f3                	jne    80003c87 <ObjectManager_CreateEntityString+0x47>
80003c94:	88 11                	mov    %dl,(%ecx)
80003c96:	41                   	inc    %ecx
80003c97:	48                   	dec    %eax
80003c98:	75 fa                	jne    80003c94 <ObjectManager_CreateEntityString+0x54>
80003c9a:	b8 01 00 00 00       	mov    $0x1,%eax
80003c9f:	89 83 00 01 00 00    	mov    %eax,0x100(%ebx)
80003ca5:	e8 16 17 00 00       	call   800053c0 <MemoryManager_Lock>
80003caa:	89 f9                	mov    %edi,%ecx
80003cac:	8a 11                	mov    (%ecx),%dl
80003cae:	41                   	inc    %ecx
80003caf:	84 d2                	test   %dl,%dl
80003cb1:	75 f9                	jne    80003cac <ObjectManager_CreateEntityString+0x6c>
80003cb3:	29 f9                	sub    %edi,%ecx
80003cb5:	49                   	dec    %ecx
80003cb6:	89 0c 24             	mov    %ecx,(%esp,1)
80003cb9:	e8 d2 1b 00 00       	call   80005890 <MemoryManager_KAlloc>
80003cbe:	89 83 08 01 00 00    	mov    %eax,0x108(%ebx)
80003cc4:	e8 17 17 00 00       	call   800053e0 <MemoryManager_Unlock>
80003cc9:	8b 83 08 01 00 00    	mov    0x108(%ebx),%eax
80003ccf:	89 c1                	mov    %eax,%ecx
80003cd1:	8a 07                	mov    (%edi),%al
80003cd3:	47                   	inc    %edi
80003cd4:	88 01                	mov    %al,(%ecx)
80003cd6:	41                   	inc    %ecx
80003cd7:	84 c0                	test   %al,%al
80003cd9:	75 f6                	jne    80003cd1 <ObjectManager_CreateEntityString+0x91>
80003cdb:	c7 04 24 c4 a5 00 80 	movl   $0x8000a5c4,(%esp,1)
80003ce2:	e8 d9 03 00 00       	call   800040c0 <Lock_Unlock>
80003ce7:	8b 7d fc             	mov    0xfffffffc(%ebp),%edi
80003cea:	31 c0                	xor    %eax,%eax
80003cec:	8b 5d f4             	mov    0xfffffff4(%ebp),%ebx
80003cef:	8b 75 f8             	mov    0xfffffff8(%ebp),%esi
80003cf2:	89 ec                	mov    %ebp,%esp
80003cf4:	5d                   	pop    %ebp
80003cf5:	c3                   	ret    
80003cf6:	8d 76 00             	lea    0x0(%esi),%esi
80003cf9:	8d bc 27 00 00 00 00 	lea    0x0(%edi,1),%edi

80003d00 <ObjectManager_CreateEntityStringCall>:
80003d00:	55                   	push   %ebp
80003d01:	89 e5                	mov    %esp,%ebp
80003d03:	83 ec 08             	sub    $0x8,%esp
80003d06:	8b 4d 08             	mov    0x8(%ebp),%ecx
80003d09:	8b 41 04             	mov    0x4(%ecx),%eax
80003d0c:	89 44 24 04          	mov    %eax,0x4(%esp,1)
80003d10:	8b 01                	mov    (%ecx),%eax
80003d12:	89 04 24             	mov    %eax,(%esp,1)
80003d15:	e8 26 ff ff ff       	call   80003c40 <ObjectManager_CreateEntityString>
80003d1a:	89 ec                	mov    %ebp,%esp
80003d1c:	5d                   	pop    %ebp
80003d1d:	c3                   	ret    
80003d1e:	89 f6                	mov    %esi,%esi

80003d20 <ObjectManager_GetEntityWord>:
80003d20:	55                   	push   %ebp
80003d21:	89 e5                	mov    %esp,%ebp
80003d23:	57                   	push   %edi
80003d24:	31 ff                	xor    %edi,%edi
80003d26:	56                   	push   %esi
80003d27:	53                   	push   %ebx
80003d28:	83 ec 1c             	sub    $0x1c,%esp
80003d2b:	c7 04 24 c4 a5 00 80 	movl   $0x8000a5c4,(%esp,1)
80003d32:	e8 29 03 00 00       	call   80004060 <Lock_Lock>
80003d37:	8b 35 84 a4 00 80    	mov    0x8000a484,%esi
80003d3d:	85 f6                	test   %esi,%esi
80003d3f:	74 56                	je     80003d97 <ObjectManager_GetEntityWord+0x77>
80003d41:	eb 0d                	jmp    80003d50 <ObjectManager_GetEntityWord+0x30>
80003d43:	90                   	nop    
80003d44:	90                   	nop    
80003d45:	90                   	nop    
80003d46:	90                   	nop    
80003d47:	90                   	nop    
80003d48:	90                   	nop    
80003d49:	90                   	nop    
80003d4a:	90                   	nop    
80003d4b:	90                   	nop    
80003d4c:	90                   	nop    
80003d4d:	90                   	nop    
80003d4e:	90                   	nop    
80003d4f:	90                   	nop    
80003d50:	8b 46 44             	mov    0x44(%esi),%eax
80003d53:	85 c0                	test   %eax,%eax
80003d55:	75 39                	jne    80003d90 <ObjectManager_GetEntityWord+0x70>
80003d57:	8b 7e 4c             	mov    0x4c(%esi),%edi
80003d5a:	8b 87 00 01 00 00    	mov    0x100(%edi),%eax
80003d60:	85 c0                	test   %eax,%eax
80003d62:	75 2c                	jne    80003d90 <ObjectManager_GetEntityWord+0x70>
80003d64:	8b 45 08             	mov    0x8(%ebp),%eax
80003d67:	89 fb                	mov    %edi,%ebx
80003d69:	8b 10                	mov    (%eax),%edx
80003d6b:	b8 00 01 00 00       	mov    $0x100,%eax
80003d70:	48                   	dec    %eax
80003d71:	78 0c                	js     80003d7f <ObjectManager_GetEntityWord+0x5f>
80003d73:	8a 0b                	mov    (%ebx),%cl
80003d75:	43                   	inc    %ebx
80003d76:	38 0a                	cmp    %cl,(%edx)
80003d78:	75 09                	jne    80003d83 <ObjectManager_GetEntityWord+0x63>
80003d7a:	42                   	inc    %edx
80003d7b:	84 c9                	test   %cl,%cl
80003d7d:	75 f1                	jne    80003d70 <ObjectManager_GetEntityWord+0x50>
80003d7f:	31 c9                	xor    %ecx,%ecx
80003d81:	eb 09                	jmp    80003d8c <ObjectManager_GetEntityWord+0x6c>
80003d83:	b9 01 00 00 00       	mov    $0x1,%ecx
80003d88:	72 02                	jb     80003d8c <ObjectManager_GetEntityWord+0x6c>
80003d8a:	f7 d9                	neg    %ecx
80003d8c:	85 c9                	test   %ecx,%ecx
80003d8e:	74 40                	je     80003dd0 <ObjectManager_GetEntityWord+0xb0>
80003d90:	8b 76 54             	mov    0x54(%esi),%esi
80003d93:	85 f6                	test   %esi,%esi
80003d95:	75 b9                	jne    80003d50 <ObjectManager_GetEntityWord+0x30>
80003d97:	89 7c 24 0c          	mov    %edi,0xc(%esp,1)
80003d9b:	c7 44 24 08 a6 93 00 	movl   $0x800093a6,0x8(%esp,1)
80003da2:	80 
80003da3:	c7 44 24 04 9e 93 00 	movl   $0x8000939e,0x4(%esp,1)
80003daa:	80 
80003dab:	c7 04 24 00 00 00 00 	movl   $0x0,(%esp,1)
80003db2:	e8 e9 30 00 00       	call   80006ea0 <KPrint>
80003db7:	c7 04 24 c4 a5 00 80 	movl   $0x8000a5c4,(%esp,1)
80003dbe:	e8 fd 02 00 00       	call   800040c0 <Lock_Unlock>
80003dc3:	b8 ff ff ff ff       	mov    $0xffffffff,%eax
80003dc8:	83 c4 1c             	add    $0x1c,%esp
80003dcb:	5b                   	pop    %ebx
80003dcc:	5e                   	pop    %esi
80003dcd:	5f                   	pop    %edi
80003dce:	5d                   	pop    %ebp
80003dcf:	c3                   	ret    
80003dd0:	85 f6                	test   %esi,%esi
80003dd2:	74 c3                	je     80003d97 <ObjectManager_GetEntityWord+0x77>
80003dd4:	8b 87 04 01 00 00    	mov    0x104(%edi),%eax
80003dda:	8b 4d 08             	mov    0x8(%ebp),%ecx
80003ddd:	89 41 04             	mov    %eax,0x4(%ecx)
80003de0:	c7 04 24 c4 a5 00 80 	movl   $0x8000a5c4,(%esp,1)
80003de7:	e8 d4 02 00 00       	call   800040c0 <Lock_Unlock>
80003dec:	31 c0                	xor    %eax,%eax
80003dee:	eb d8                	jmp    80003dc8 <ObjectManager_GetEntityWord+0xa8>

80003df0 <ObjectManager_GetEntityStringLength>:
80003df0:	55                   	push   %ebp
80003df1:	89 e5                	mov    %esp,%ebp
80003df3:	57                   	push   %edi
80003df4:	31 ff                	xor    %edi,%edi
80003df6:	56                   	push   %esi
80003df7:	53                   	push   %ebx
80003df8:	83 ec 1c             	sub    $0x1c,%esp
80003dfb:	c7 04 24 c4 a5 00 80 	movl   $0x8000a5c4,(%esp,1)
80003e02:	e8 59 02 00 00       	call   80004060 <Lock_Lock>
80003e07:	8b 35 84 a4 00 80    	mov    0x8000a484,%esi
80003e0d:	85 f6                	test   %esi,%esi
80003e0f:	74 29                	je     80003e3a <ObjectManager_GetEntityStringLength+0x4a>
80003e11:	eb 0d                	jmp    80003e20 <ObjectManager_GetEntityStringLength+0x30>
80003e13:	90                   	nop    
80003e14:	90                   	nop    
80003e15:	90                   	nop    
80003e16:	90                   	nop    
80003e17:	90                   	nop    
80003e18:	90                   	nop    
80003e19:	90                   	nop    
80003e1a:	90                   	nop    
80003e1b:	90                   	nop    
80003e1c:	90                   	nop    
80003e1d:	90                   	nop    
80003e1e:	90                   	nop    
80003e1f:	90                   	nop    
80003e20:	8b 46 44             	mov    0x44(%esi),%eax
80003e23:	85 c0                	test   %eax,%eax
80003e25:	75 0c                	jne    80003e33 <ObjectManager_GetEntityStringLength+0x43>
80003e27:	8b 7e 4c             	mov    0x4c(%esi),%edi
80003e2a:	83 bf 00 01 00 00 01 	cmpl   $0x1,0x100(%edi)
80003e31:	74 4d                	je     80003e80 <ObjectManager_GetEntityStringLength+0x90>
80003e33:	8b 76 54             	mov    0x54(%esi),%esi
80003e36:	85 f6                	test   %esi,%esi
80003e38:	75 e6                	jne    80003e20 <ObjectManager_GetEntityStringLength+0x30>
80003e3a:	89 7c 24 0c          	mov    %edi,0xc(%esp,1)
80003e3e:	c7 44 24 08 a6 93 00 	movl   $0x800093a6,0x8(%esp,1)
80003e45:	80 
80003e46:	c7 44 24 04 9e 93 00 	movl   $0x8000939e,0x4(%esp,1)
80003e4d:	80 
80003e4e:	c7 04 24 00 00 00 00 	movl   $0x0,(%esp,1)
80003e55:	e8 46 30 00 00       	call   80006ea0 <KPrint>
80003e5a:	c7 04 24 c4 a5 00 80 	movl   $0x8000a5c4,(%esp,1)
80003e61:	e8 5a 02 00 00       	call   800040c0 <Lock_Unlock>
80003e66:	b8 ff ff ff ff       	mov    $0xffffffff,%eax
80003e6b:	83 c4 1c             	add    $0x1c,%esp
80003e6e:	5b                   	pop    %ebx
80003e6f:	5e                   	pop    %esi
80003e70:	5f                   	pop    %edi
80003e71:	5d                   	pop    %ebp
80003e72:	c3                   	ret    
80003e73:	8d b6 00 00 00 00    	lea    0x0(%esi),%esi
80003e79:	8d bc 27 00 00 00 00 	lea    0x0(%edi,1),%edi
80003e80:	8b 45 08             	mov    0x8(%ebp),%eax
80003e83:	89 fb                	mov    %edi,%ebx
80003e85:	8b 10                	mov    (%eax),%edx
80003e87:	b8 00 01 00 00       	mov    $0x100,%eax
80003e8c:	48                   	dec    %eax
80003e8d:	78 0c                	js     80003e9b <ObjectManager_GetEntityStringLength+0xab>
80003e8f:	8a 0b                	mov    (%ebx),%cl
80003e91:	43                   	inc    %ebx
80003e92:	38 0a                	cmp    %cl,(%edx)
80003e94:	75 09                	jne    80003e9f <ObjectManager_GetEntityStringLength+0xaf>
80003e96:	42                   	inc    %edx
80003e97:	84 c9                	test   %cl,%cl
80003e99:	75 f1                	jne    80003e8c <ObjectManager_GetEntityStringLength+0x9c>
80003e9b:	31 c9                	xor    %ecx,%ecx
80003e9d:	eb 09                	jmp    80003ea8 <ObjectManager_GetEntityStringLength+0xb8>
80003e9f:	b9 01 00 00 00       	mov    $0x1,%ecx
80003ea4:	72 02                	jb     80003ea8 <ObjectManager_GetEntityStringLength+0xb8>
80003ea6:	f7 d9                	neg    %ecx
80003ea8:	85 c9                	test   %ecx,%ecx
80003eaa:	75 87                	jne    80003e33 <ObjectManager_GetEntityStringLength+0x43>
80003eac:	85 f6                	test   %esi,%esi
80003eae:	74 8a                	je     80003e3a <ObjectManager_GetEntityStringLength+0x4a>
80003eb0:	89 fb                	mov    %edi,%ebx
80003eb2:	8a 13                	mov    (%ebx),%dl
80003eb4:	43                   	inc    %ebx
80003eb5:	84 d2                	test   %dl,%dl
80003eb7:	75 f9                	jne    80003eb2 <ObjectManager_GetEntityStringLength+0xc2>
80003eb9:	8b 4d 08             	mov    0x8(%ebp),%ecx
80003ebc:	29 fb                	sub    %edi,%ebx
80003ebe:	4b                   	dec    %ebx
80003ebf:	89 59 04             	mov    %ebx,0x4(%ecx)
80003ec2:	c7 04 24 c4 a5 00 80 	movl   $0x8000a5c4,(%esp,1)
80003ec9:	e8 f2 01 00 00       	call   800040c0 <Lock_Unlock>
80003ece:	31 c0                	xor    %eax,%eax
80003ed0:	eb 99                	jmp    80003e6b <ObjectManager_GetEntityStringLength+0x7b>
80003ed2:	8d b4 26 00 00 00 00 	lea    0x0(%esi,1),%esi
80003ed9:	8d bc 27 00 00 00 00 	lea    0x0(%edi,1),%edi

80003ee0 <ObjectManager_GetEntityString>:
80003ee0:	55                   	push   %ebp
80003ee1:	89 e5                	mov    %esp,%ebp
80003ee3:	57                   	push   %edi
80003ee4:	31 ff                	xor    %edi,%edi
80003ee6:	56                   	push   %esi
80003ee7:	53                   	push   %ebx
80003ee8:	83 ec 1c             	sub    $0x1c,%esp
80003eeb:	c7 04 24 c4 a5 00 80 	movl   $0x8000a5c4,(%esp,1)
80003ef2:	e8 69 01 00 00       	call   80004060 <Lock_Lock>
80003ef7:	8b 35 84 a4 00 80    	mov    0x8000a484,%esi
80003efd:	85 f6                	test   %esi,%esi
80003eff:	74 29                	je     80003f2a <ObjectManager_GetEntityString+0x4a>
80003f01:	eb 0d                	jmp    80003f10 <ObjectManager_GetEntityString+0x30>
80003f03:	90                   	nop    
80003f04:	90                   	nop    
80003f05:	90                   	nop    
80003f06:	90                   	nop    
80003f07:	90                   	nop    
80003f08:	90                   	nop    
80003f09:	90                   	nop    
80003f0a:	90                   	nop    
80003f0b:	90                   	nop    
80003f0c:	90                   	nop    
80003f0d:	90                   	nop    
80003f0e:	90                   	nop    
80003f0f:	90                   	nop    
80003f10:	8b 46 44             	mov    0x44(%esi),%eax
80003f13:	85 c0                	test   %eax,%eax
80003f15:	75 0c                	jne    80003f23 <ObjectManager_GetEntityString+0x43>
80003f17:	8b 7e 4c             	mov    0x4c(%esi),%edi
80003f1a:	83 bf 00 01 00 00 01 	cmpl   $0x1,0x100(%edi)
80003f21:	74 4d                	je     80003f70 <ObjectManager_GetEntityString+0x90>
80003f23:	8b 76 54             	mov    0x54(%esi),%esi
80003f26:	85 f6                	test   %esi,%esi
80003f28:	75 e6                	jne    80003f10 <ObjectManager_GetEntityString+0x30>
80003f2a:	89 7c 24 0c          	mov    %edi,0xc(%esp,1)
80003f2e:	c7 44 24 08 a6 93 00 	movl   $0x800093a6,0x8(%esp,1)
80003f35:	80 
80003f36:	c7 44 24 04 9e 93 00 	movl   $0x8000939e,0x4(%esp,1)
80003f3d:	80 
80003f3e:	c7 04 24 00 00 00 00 	movl   $0x0,(%esp,1)
80003f45:	e8 56 2f 00 00       	call   80006ea0 <KPrint>
80003f4a:	c7 04 24 c4 a5 00 80 	movl   $0x8000a5c4,(%esp,1)
80003f51:	e8 6a 01 00 00       	call   800040c0 <Lock_Unlock>
80003f56:	b8 ff ff ff ff       	mov    $0xffffffff,%eax
80003f5b:	83 c4 1c             	add    $0x1c,%esp
80003f5e:	5b                   	pop    %ebx
80003f5f:	5e                   	pop    %esi
80003f60:	5f                   	pop    %edi
80003f61:	5d                   	pop    %ebp
80003f62:	c3                   	ret    
80003f63:	8d b6 00 00 00 00    	lea    0x0(%esi),%esi
80003f69:	8d bc 27 00 00 00 00 	lea    0x0(%edi,1),%edi
80003f70:	8b 45 08             	mov    0x8(%ebp),%eax
80003f73:	89 fb                	mov    %edi,%ebx
80003f75:	8b 10                	mov    (%eax),%edx
80003f77:	b8 00 01 00 00       	mov    $0x100,%eax
80003f7c:	48                   	dec    %eax
80003f7d:	78 0c                	js     80003f8b <ObjectManager_GetEntityString+0xab>
80003f7f:	8a 0b                	mov    (%ebx),%cl
80003f81:	43                   	inc    %ebx
80003f82:	38 0a                	cmp    %cl,(%edx)
80003f84:	75 09                	jne    80003f8f <ObjectManager_GetEntityString+0xaf>
80003f86:	42                   	inc    %edx
80003f87:	84 c9                	test   %cl,%cl
80003f89:	75 f1                	jne    80003f7c <ObjectManager_GetEntityString+0x9c>
80003f8b:	31 c9                	xor    %ecx,%ecx
80003f8d:	eb 09                	jmp    80003f98 <ObjectManager_GetEntityString+0xb8>
80003f8f:	b9 01 00 00 00       	mov    $0x1,%ecx
80003f94:	72 02                	jb     80003f98 <ObjectManager_GetEntityString+0xb8>
80003f96:	f7 d9                	neg    %ecx
80003f98:	85 c9                	test   %ecx,%ecx
80003f9a:	75 87                	jne    80003f23 <ObjectManager_GetEntityString+0x43>
80003f9c:	85 f6                	test   %esi,%esi
80003f9e:	74 8a                	je     80003f2a <ObjectManager_GetEntityString+0x4a>
80003fa0:	8b 4d 08             	mov    0x8(%ebp),%ecx
80003fa3:	8b 41 04             	mov    0x4(%ecx),%eax
80003fa6:	89 c1                	mov    %eax,%ecx
80003fa8:	8a 07                	mov    (%edi),%al
80003faa:	47                   	inc    %edi
80003fab:	88 01                	mov    %al,(%ecx)
80003fad:	41                   	inc    %ecx
80003fae:	84 c0                	test   %al,%al
80003fb0:	75 f6                	jne    80003fa8 <ObjectManager_GetEntityString+0xc8>
80003fb2:	c7 04 24 c4 a5 00 80 	movl   $0x8000a5c4,(%esp,1)
80003fb9:	e8 02 01 00 00       	call   800040c0 <Lock_Unlock>
80003fbe:	31 c0                	xor    %eax,%eax
80003fc0:	eb 99                	jmp    80003f5b <ObjectManager_GetEntityString+0x7b>
80003fc2:	8d b4 26 00 00 00 00 	lea    0x0(%esi,1),%esi
80003fc9:	8d bc 27 00 00 00 00 	lea    0x0(%edi,1),%edi

80003fd0 <ObjectManager_Handler>:
80003fd0:	55                   	push   %ebp
80003fd1:	89 e5                	mov    %esp,%ebp
80003fd3:	8b 45 08             	mov    0x8(%ebp),%eax
80003fd6:	8b 55 0c             	mov    0xc(%ebp),%edx
80003fd9:	83 f8 04             	cmp    $0x4,%eax
80003fdc:	77 72                	ja     80004050 <ObjectManager_Handler+0x80>
80003fde:	ff 24 85 00 94 00 80 	jmp    *0x80009400(,%eax,4)
80003fe5:	8d 74 26 00          	lea    0x0(%esi,1),%esi
80003fe9:	8d bc 27 00 00 00 00 	lea    0x0(%edi,1),%edi
80003ff0:	89 55 08             	mov    %edx,0x8(%ebp)
80003ff3:	5d                   	pop    %ebp
80003ff4:	e9 27 fd ff ff       	jmp    80003d20 <ObjectManager_GetEntityWord>
80003ff9:	8d b4 26 00 00 00 00 	lea    0x0(%esi,1),%esi
80004000:	89 55 08             	mov    %edx,0x8(%ebp)
80004003:	5d                   	pop    %ebp
80004004:	e9 e7 fd ff ff       	jmp    80003df0 <ObjectManager_GetEntityStringLength>
80004009:	8d b4 26 00 00 00 00 	lea    0x0(%esi,1),%esi
80004010:	89 55 08             	mov    %edx,0x8(%ebp)
80004013:	5d                   	pop    %ebp
80004014:	e9 c7 fe ff ff       	jmp    80003ee0 <ObjectManager_GetEntityString>
80004019:	8d b4 26 00 00 00 00 	lea    0x0(%esi,1),%esi
80004020:	89 55 08             	mov    %edx,0x8(%ebp)
80004023:	5d                   	pop    %ebp
80004024:	e9 87 fb ff ff       	jmp    80003bb0 <ObjectManager_CreateEntityWordCall>
80004029:	8d b4 26 00 00 00 00 	lea    0x0(%esi,1),%esi
80004030:	8b 42 04             	mov    0x4(%edx),%eax
80004033:	89 45 0c             	mov    %eax,0xc(%ebp)
80004036:	8b 02                	mov    (%edx),%eax
80004038:	89 45 08             	mov    %eax,0x8(%ebp)
8000403b:	5d                   	pop    %ebp
8000403c:	e9 ff fb ff ff       	jmp    80003c40 <ObjectManager_CreateEntityString>
80004041:	eb 0d                	jmp    80004050 <ObjectManager_Handler+0x80>
80004043:	90                   	nop    
80004044:	90                   	nop    
80004045:	90                   	nop    
80004046:	90                   	nop    
80004047:	90                   	nop    
80004048:	90                   	nop    
80004049:	90                   	nop    
8000404a:	90                   	nop    
8000404b:	90                   	nop    
8000404c:	90                   	nop    
8000404d:	90                   	nop    
8000404e:	90                   	nop    
8000404f:	90                   	nop    
80004050:	5d                   	pop    %ebp
80004051:	b8 fc ff ff ff       	mov    $0xfffffffc,%eax
80004056:	c3                   	ret    
80004057:	89 f6                	mov    %esi,%esi
80004059:	8d bc 27 00 00 00 00 	lea    0x0(%edi,1),%edi

80004060 <Lock_Lock>:
80004060:	55                   	push   %ebp
80004061:	8b 0d a8 a2 00 80    	mov    0x8000a2a8,%ecx
80004067:	a1 ac a2 00 80       	mov    0x8000a2ac,%eax
8000406c:	89 e5                	mov    %esp,%ebp
8000406e:	8b 55 08             	mov    0x8(%ebp),%edx
80004071:	85 c0                	test   %eax,%eax
80004073:	75 08                	jne    8000407d <Lock_Lock+0x1d>
80004075:	31 c0                	xor    %eax,%eax
80004077:	a3 a8 a2 00 80       	mov    %eax,0x8000a2a8
8000407c:	fa                   	cli    
8000407d:	b8 01 00 00 00       	mov    $0x1,%eax
80004082:	f0 01 05 a4 a2 00 80 	lock add %eax,0x8000a2a4
80004089:	8d b4 26 00 00 00 00 	lea    0x0(%esi,1),%esi
80004090:	b8 01 00 00 00       	mov    $0x1,%eax
80004095:	87 02                	xchg   %eax,(%edx)
80004097:	85 c0                	test   %eax,%eax
80004099:	75 f5                	jne    80004090 <Lock_Lock+0x30>
8000409b:	a1 ac a2 00 80       	mov    0x8000a2ac,%eax
800040a0:	85 c0                	test   %eax,%eax
800040a2:	75 03                	jne    800040a7 <Lock_Lock+0x47>
800040a4:	49                   	dec    %ecx
800040a5:	74 02                	je     800040a9 <Lock_Lock+0x49>
800040a7:	5d                   	pop    %ebp
800040a8:	c3                   	ret    
800040a9:	b8 01 00 00 00       	mov    $0x1,%eax
800040ae:	a3 a8 a2 00 80       	mov    %eax,0x8000a2a8
800040b3:	fb                   	sti    
800040b4:	eb f1                	jmp    800040a7 <Lock_Lock+0x47>
800040b6:	8d 76 00             	lea    0x0(%esi),%esi
800040b9:	8d bc 27 00 00 00 00 	lea    0x0(%edi,1),%edi

800040c0 <Lock_Unlock>:
800040c0:	55                   	push   %ebp
800040c1:	89 e5                	mov    %esp,%ebp
800040c3:	83 ec 08             	sub    $0x8,%esp
800040c6:	89 5d fc             	mov    %ebx,0xfffffffc(%ebp)
800040c9:	8b 1d a8 a2 00 80    	mov    0x8000a2a8,%ebx
800040cf:	a1 ac a2 00 80       	mov    0x8000a2ac,%eax
800040d4:	85 c0                	test   %eax,%eax
800040d6:	75 09                	jne    800040e1 <Lock_Unlock+0x21>
800040d8:	31 d2                	xor    %edx,%edx
800040da:	89 15 a8 a2 00 80    	mov    %edx,0x8000a2a8
800040e0:	fa                   	cli    
800040e1:	8b 45 08             	mov    0x8(%ebp),%eax
800040e4:	c7 00 00 00 00 00    	movl   $0x0,(%eax)
800040ea:	b8 01 00 00 00       	mov    $0x1,%eax
800040ef:	f0 29 05 a4 a2 00 80 	lock sub %eax,0x8000a2a4
800040f6:	a1 a4 a2 00 80       	mov    0x8000a2a4,%eax
800040fb:	85 c0                	test   %eax,%eax
800040fd:	75 08                	jne    80004107 <Lock_Unlock+0x47>
800040ff:	a1 b4 a2 00 80       	mov    0x8000a2b4,%eax
80004104:	48                   	dec    %eax
80004105:	74 26                	je     8000412d <Lock_Unlock+0x6d>
80004107:	a1 ac a2 00 80       	mov    0x8000a2ac,%eax
8000410c:	85 c0                	test   %eax,%eax
8000410e:	75 03                	jne    80004113 <Lock_Unlock+0x53>
80004110:	4b                   	dec    %ebx
80004111:	74 0d                	je     80004120 <Lock_Unlock+0x60>
80004113:	8b 5d fc             	mov    0xfffffffc(%ebp),%ebx
80004116:	89 ec                	mov    %ebp,%esp
80004118:	5d                   	pop    %ebp
80004119:	c3                   	ret    
8000411a:	8d b6 00 00 00 00    	lea    0x0(%esi),%esi
80004120:	b8 01 00 00 00       	mov    $0x1,%eax
80004125:	a3 a8 a2 00 80       	mov    %eax,0x8000a2a8
8000412a:	fb                   	sti    
8000412b:	eb e6                	jmp    80004113 <Lock_Unlock+0x53>
8000412d:	e8 ce 04 00 00       	call   80004600 <ProcessManager_NextThread>
80004132:	eb d3                	jmp    80004107 <Lock_Unlock+0x47>
	...

80004140 <ProcessManager_Init>:
80004140:	55                   	push   %ebp
80004141:	31 d2                	xor    %edx,%edx
80004143:	89 e5                	mov    %esp,%ebp
80004145:	31 c0                	xor    %eax,%eax
80004147:	83 ec 18             	sub    $0x18,%esp
8000414a:	a3 0c a5 00 80       	mov    %eax,0x8000a50c
8000414f:	89 15 08 a5 00 80    	mov    %edx,0x8000a508
80004155:	c7 04 24 14 94 00 80 	movl   $0x80009414,(%esp,1)
8000415c:	e8 1f 02 00 00       	call   80004380 <ProcessManager_CreateProcess>
80004161:	c7 44 24 04 01 00 00 	movl   $0x1,0x4(%esp,1)
80004168:	00 
80004169:	c7 04 24 00 00 00 00 	movl   $0x0,(%esp,1)
80004170:	e8 2b f9 ff ff       	call   80003aa0 <ObjectManager_SearchInClass>
80004175:	31 c9                	xor    %ecx,%ecx
80004177:	89 0d 00 a5 00 80    	mov    %ecx,0x8000a500
8000417d:	8b 48 4c             	mov    0x4c(%eax),%ecx
80004180:	a3 f8 a4 00 80       	mov    %eax,0x8000a4f8
80004185:	c7 41 04 70 a4 00 80 	movl   $0x8000a470,0x4(%ecx)
8000418c:	66 c7 41 08 08 00    	movw   $0x8,0x8(%ecx)
80004192:	66 c7 41 0a 10 00    	movw   $0x10,0xa(%ecx)
80004198:	66 c7 41 0c 10 00    	movw   $0x10,0xc(%ecx)
8000419e:	66 c7 41 0e 10 00    	movw   $0x10,0xe(%ecx)
800041a4:	66 c7 41 10 10 00    	movw   $0x10,0x10(%ecx)
800041aa:	c7 41 14 10 00 00 00 	movl   $0x10,0x14(%ecx)
800041b1:	c7 44 24 04 00 00 00 	movl   $0x0,0x4(%esp,1)
800041b8:	00 
800041b9:	89 04 24             	mov    %eax,(%esp,1)
800041bc:	e8 2f 02 00 00       	call   800043f0 <ProcessManager_CreateThread>
800041c1:	c7 44 24 04 02 00 00 	movl   $0x2,0x4(%esp,1)
800041c8:	00 
800041c9:	c7 04 24 00 00 00 00 	movl   $0x0,(%esp,1)
800041d0:	e8 cb f8 ff ff       	call   80003aa0 <ObjectManager_SearchInClass>
800041d5:	b9 01 00 00 00       	mov    $0x1,%ecx
800041da:	31 d2                	xor    %edx,%edx
800041dc:	a3 fc a4 00 80       	mov    %eax,0x8000a4fc
800041e1:	8b 40 4c             	mov    0x4c(%eax),%eax
800041e4:	89 15 04 a5 00 80    	mov    %edx,0x8000a504
800041ea:	ba 10 00 00 00       	mov    $0x10,%edx
800041ef:	66 89 15 98 a4 00 80 	mov    %dx,0x8000a498
800041f6:	31 d2                	xor    %edx,%edx
800041f8:	c7 40 50 01 00 00 00 	movl   $0x1,0x50(%eax)
800041ff:	b8 08 00 00 00       	mov    $0x8,%eax
80004204:	66 a3 dc a4 00 80    	mov    %ax,0x8000a4dc
8000420a:	b8 10 00 00 00       	mov    $0x10,%eax
8000420f:	66 a3 e4 a4 00 80    	mov    %ax,0x8000a4e4
80004215:	b8 10 00 00 00       	mov    $0x10,%eax
8000421a:	66 a3 d8 a4 00 80    	mov    %ax,0x8000a4d8
80004220:	b8 10 00 00 00       	mov    $0x10,%eax
80004225:	66 a3 e8 a4 00 80    	mov    %ax,0x8000a4e8
8000422b:	b8 10 00 00 00       	mov    $0x10,%eax
80004230:	66 a3 ec a4 00 80    	mov    %ax,0x8000a4ec
80004236:	b8 10 00 00 00       	mov    $0x10,%eax
8000423b:	66 a3 e0 a4 00 80    	mov    %ax,0x8000a4e0
80004241:	31 c0                	xor    %eax,%eax
80004243:	66 a3 a0 a4 00 80    	mov    %ax,0x8000a4a0
80004249:	a1 54 a4 00 80       	mov    0x8000a454,%eax
8000424e:	89 0d b0 a2 00 80    	mov    %ecx,0x8000a2b0
80004254:	66 89 15 a8 a4 00 80 	mov    %dx,0x8000a4a8
8000425b:	a3 ac a4 00 80       	mov    %eax,0x8000a4ac
80004260:	c7 44 24 04 90 a4 00 	movl   $0x8000a490,0x4(%esp,1)
80004267:	80 
80004268:	c7 04 24 28 00 00 00 	movl   $0x28,(%esp,1)
8000426f:	e8 0c 36 00 00       	call   80007880 <Descriptor_SetBase>
80004274:	c7 44 24 04 68 00 00 	movl   $0x68,0x4(%esp,1)
8000427b:	00 
8000427c:	c7 04 24 28 00 00 00 	movl   $0x28,(%esp,1)
80004283:	e8 28 36 00 00       	call   800078b0 <Descriptor_SetLimit>
80004288:	c7 44 24 04 89 00 00 	movl   $0x89,0x4(%esp,1)
8000428f:	00 
80004290:	c7 04 24 28 00 00 00 	movl   $0x28,(%esp,1)
80004297:	e8 64 36 00 00       	call   80007900 <Descriptor_SetAccess>
8000429c:	b8 28 00 00 00       	mov    $0x28,%eax
800042a1:	0f 00 d8             	ltr    %ax
800042a4:	c7 44 24 08 c0 46 00 	movl   $0x800046c0,0x8(%esp,1)
800042ab:	80 
800042ac:	c7 44 24 04 00 00 00 	movl   $0x0,0x4(%esp,1)
800042b3:	00 
800042b4:	c7 04 24 1b 94 00 80 	movl   $0x8000941b,(%esp,1)
800042bb:	e8 f0 27 00 00       	call   80006ab0 <TimerManager_AttachTimerHandler>
800042c0:	c7 44 24 04 60 49 00 	movl   $0x80004960,0x4(%esp,1)
800042c7:	80 
800042c8:	c7 04 24 25 94 00 80 	movl   $0x80009425,(%esp,1)
800042cf:	e8 1c 22 00 00       	call   800064f0 <ModuleManager_CreateModule>
800042d4:	c7 44 24 08 00 00 00 	movl   $0x0,0x8(%esp,1)
800042db:	00 
800042dc:	c7 44 24 04 34 94 00 	movl   $0x80009434,0x4(%esp,1)
800042e3:	80 
800042e4:	c7 04 24 25 94 00 80 	movl   $0x80009425,(%esp,1)
800042eb:	e8 10 23 00 00       	call   80006600 <ModuleManager_CreateModuleCall>
800042f0:	c7 44 24 08 01 00 00 	movl   $0x1,0x8(%esp,1)
800042f7:	00 
800042f8:	c7 44 24 04 42 94 00 	movl   $0x80009442,0x4(%esp,1)
800042ff:	80 
80004300:	c7 04 24 25 94 00 80 	movl   $0x80009425,(%esp,1)
80004307:	e8 f4 22 00 00       	call   80006600 <ModuleManager_CreateModuleCall>
8000430c:	c7 44 24 08 02 00 00 	movl   $0x2,0x8(%esp,1)
80004313:	00 
80004314:	c7 44 24 04 4f 94 00 	movl   $0x8000944f,0x4(%esp,1)
8000431b:	80 
8000431c:	c7 04 24 25 94 00 80 	movl   $0x80009425,(%esp,1)
80004323:	e8 d8 22 00 00       	call   80006600 <ModuleManager_CreateModuleCall>
80004328:	c7 44 24 08 03 00 00 	movl   $0x3,0x8(%esp,1)
8000432f:	00 
80004330:	c7 44 24 04 55 94 00 	movl   $0x80009455,0x4(%esp,1)
80004337:	80 
80004338:	c7 04 24 25 94 00 80 	movl   $0x80009425,(%esp,1)
8000433f:	e8 bc 22 00 00       	call   80006600 <ModuleManager_CreateModuleCall>
80004344:	c7 44 24 08 04 00 00 	movl   $0x4,0x8(%esp,1)
8000434b:	00 
8000434c:	c7 44 24 04 5c 94 00 	movl   $0x8000945c,0x4(%esp,1)
80004353:	80 
80004354:	c7 04 24 25 94 00 80 	movl   $0x80009425,(%esp,1)
8000435b:	e8 a0 22 00 00       	call   80006600 <ModuleManager_CreateModuleCall>
80004360:	c7 44 24 08 67 94 00 	movl   $0x80009467,0x8(%esp,1)
80004367:	80 
80004368:	c7 44 24 04 7e 94 00 	movl   $0x8000947e,0x4(%esp,1)
8000436f:	80 
80004370:	c7 04 24 01 00 00 00 	movl   $0x1,(%esp,1)
80004377:	e8 24 2b 00 00       	call   80006ea0 <KPrint>
8000437c:	c9                   	leave  
8000437d:	c3                   	ret    
8000437e:	89 f6                	mov    %esi,%esi

80004380 <ProcessManager_CreateProcess>:
80004380:	55                   	push   %ebp
80004381:	89 e5                	mov    %esp,%ebp
80004383:	83 ec 18             	sub    $0x18,%esp
80004386:	89 5d fc             	mov    %ebx,0xfffffffc(%ebp)
80004389:	e8 42 f2 ff ff       	call   800035d0 <ObjectManager_Lock>
8000438e:	8b 45 08             	mov    0x8(%ebp),%eax
80004391:	c7 44 24 04 20 00 00 	movl   $0x20,0x4(%esp,1)
80004398:	00 
80004399:	c7 04 24 01 00 00 00 	movl   $0x1,(%esp,1)
800043a0:	89 44 24 08          	mov    %eax,0x8(%esp,1)
800043a4:	e8 37 f1 ff ff       	call   800034e0 <ObjectManager_CreateObject>
800043a9:	89 c3                	mov    %eax,%ebx
800043ab:	a1 08 a5 00 80       	mov    0x8000a508,%eax
800043b0:	89 43 34             	mov    %eax,0x34(%ebx)
800043b3:	e8 38 f2 ff ff       	call   800035f0 <ObjectManager_Unlock>
800043b8:	8b 4b 4c             	mov    0x4c(%ebx),%ecx
800043bb:	c7 41 1c 10 00 00 00 	movl   $0x10,0x1c(%ecx)
800043c2:	a1 08 a5 00 80       	mov    0x8000a508,%eax
800043c7:	c7 41 04 00 00 00 00 	movl   $0x0,0x4(%ecx)
800043ce:	89 01                	mov    %eax,(%ecx)
800043d0:	31 c0                	xor    %eax,%eax
800043d2:	ff 05 08 a5 00 80    	incl   0x8000a508
800043d8:	c7 41 18 00 00 00 00 	movl   $0x0,0x18(%ecx)
800043df:	8b 5d fc             	mov    0xfffffffc(%ebp),%ebx
800043e2:	89 ec                	mov    %ebp,%esp
800043e4:	5d                   	pop    %ebp
800043e5:	c3                   	ret    
800043e6:	8d 76 00             	lea    0x0(%esi),%esi
800043e9:	8d bc 27 00 00 00 00 	lea    0x0(%edi,1),%edi

800043f0 <ProcessManager_CreateThread>:
800043f0:	55                   	push   %ebp
800043f1:	89 e5                	mov    %esp,%ebp
800043f3:	57                   	push   %edi
800043f4:	56                   	push   %esi
800043f5:	53                   	push   %ebx
800043f6:	83 ec 1c             	sub    $0x1c,%esp
800043f9:	8b 75 08             	mov    0x8(%ebp),%esi
800043fc:	e8 cf f1 ff ff       	call   800035d0 <ObjectManager_Lock>
80004401:	c7 04 24 02 00 00 00 	movl   $0x2,(%esp,1)
80004408:	c7 44 24 08 00 8d 00 	movl   $0x80008d00,0x8(%esp,1)
8000440f:	80 
80004410:	c7 44 24 04 70 00 00 	movl   $0x70,0x4(%esp,1)
80004417:	00 
80004418:	e8 c3 f0 ff ff       	call   800034e0 <ObjectManager_CreateObject>
8000441d:	89 c3                	mov    %eax,%ebx
8000441f:	a1 0c a5 00 80       	mov    0x8000a50c,%eax
80004424:	89 43 34             	mov    %eax,0x34(%ebx)
80004427:	e8 c4 f1 ff ff       	call   800035f0 <ObjectManager_Unlock>
8000442c:	8b 7b 4c             	mov    0x4c(%ebx),%edi
8000442f:	89 37                	mov    %esi,(%edi)
80004431:	8b 76 4c             	mov    0x4c(%esi),%esi
80004434:	c7 47 64 00 00 00 00 	movl   $0x0,0x64(%edi)
8000443b:	c7 47 68 00 00 00 00 	movl   $0x0,0x68(%edi)
80004442:	8b 46 1c             	mov    0x1c(%esi),%eax
80004445:	c7 47 6c 00 00 00 00 	movl   $0x0,0x6c(%edi)
8000444c:	89 47 54             	mov    %eax,0x54(%edi)
8000444f:	8b 46 1c             	mov    0x1c(%esi),%eax
80004452:	c7 47 50 00 00 00 00 	movl   $0x0,0x50(%edi)
80004459:	89 47 58             	mov    %eax,0x58(%edi)
8000445c:	a1 0c a5 00 80       	mov    0x8000a50c,%eax
80004461:	89 47 04             	mov    %eax,0x4(%edi)
80004464:	ff 05 0c a5 00 80    	incl   0x8000a50c
8000446a:	c7 47 4c 01 00 00 00 	movl   $0x1,0x4c(%edi)
80004471:	8b 47 04             	mov    0x4(%edi),%eax
80004474:	89 1c 24             	mov    %ebx,(%esp,1)
80004477:	c7 44 24 08 88 94 00 	movl   $0x80009488,0x8(%esp,1)
8000447e:	80 
8000447f:	c7 44 24 04 30 00 00 	movl   $0x30,0x4(%esp,1)
80004486:	00 
80004487:	89 44 24 0c          	mov    %eax,0xc(%esp,1)
8000448b:	e8 40 3b 00 00       	call   80007fd0 <snprintf>
80004490:	83 3d b0 a2 00 80 01 	cmpl   $0x1,0x8000a2b0
80004497:	74 17                	je     800044b0 <ProcessManager_CreateThread+0xc0>
80004499:	ff 46 18             	incl   0x18(%esi)
8000449c:	83 c4 1c             	add    $0x1c,%esp
8000449f:	31 c0                	xor    %eax,%eax
800044a1:	5b                   	pop    %ebx
800044a2:	5e                   	pop    %esi
800044a3:	5f                   	pop    %edi
800044a4:	5d                   	pop    %ebp
800044a5:	c3                   	ret    
800044a6:	8d 76 00             	lea    0x0(%esi),%esi
800044a9:	8d bc 27 00 00 00 00 	lea    0x0(%edi,1),%edi
800044b0:	c7 04 24 00 00 01 00 	movl   $0x10000,(%esp,1)
800044b7:	e8 d4 13 00 00       	call   80005890 <MemoryManager_KAlloc>
800044bc:	8d 98 c0 ff 00 00    	lea    0xffc0(%eax),%ebx
800044c2:	89 5f 0c             	mov    %ebx,0xc(%edi)
800044c5:	8b 4e 14             	mov    0x14(%esi),%ecx
800044c8:	89 4f 08             	mov    %ecx,0x8(%edi)
800044cb:	0f b7 7e 08          	movzwl 0x8(%esi),%edi
800044cf:	8b 4d 0c             	mov    0xc(%ebp),%ecx
800044d2:	c7 43 34 46 32 20 00 	movl   $0x203246,0x34(%ebx)
800044d9:	66 89 7b 30          	mov    %di,0x30(%ebx)
800044dd:	89 4b 2c             	mov    %ecx,0x2c(%ebx)
800044e0:	0f b7 4e 0a          	movzwl 0xa(%esi),%ecx
800044e4:	66 89 4b 28          	mov    %cx,0x28(%ebx)
800044e8:	0f b7 7e 0c          	movzwl 0xc(%esi),%edi
800044ec:	66 89 7b 24          	mov    %di,0x24(%ebx)
800044f0:	0f b7 4e 0e          	movzwl 0xe(%esi),%ecx
800044f4:	66 89 4b 20          	mov    %cx,0x20(%ebx)
800044f8:	0f b7 4e 14          	movzwl 0x14(%esi),%ecx
800044fc:	0f b7 7e 10          	movzwl 0x10(%esi),%edi
80004500:	c7 43 18 00 00 00 00 	movl   $0x0,0x18(%ebx)
80004507:	c7 43 14 00 00 00 00 	movl   $0x0,0x14(%ebx)
8000450e:	66 89 4b 3c          	mov    %cx,0x3c(%ebx)
80004512:	31 c9                	xor    %ecx,%ecx
80004514:	66 89 7b 1c          	mov    %di,0x1c(%ebx)
80004518:	c7 43 10 00 00 00 00 	movl   $0x0,0x10(%ebx)
8000451f:	c7 43 0c 00 00 00 00 	movl   $0x0,0xc(%ebx)
80004526:	c7 43 08 00 00 00 00 	movl   $0x0,0x8(%ebx)
8000452d:	c7 43 04 00 00 00 00 	movl   $0x0,0x4(%ebx)
80004534:	89 88 c0 ff 00 00    	mov    %ecx,0xffc0(%eax)
8000453a:	e9 5a ff ff ff       	jmp    80004499 <ProcessManager_CreateThread+0xa9>
8000453f:	90                   	nop    

80004540 <ProcessManager_UpdateThreads>:
80004540:	55                   	push   %ebp
80004541:	89 e5                	mov    %esp,%ebp
80004543:	31 c9                	xor    %ecx,%ecx
80004545:	83 ec 08             	sub    $0x8,%esp
80004548:	90                   	nop    
80004549:	8d b4 26 00 00 00 00 	lea    0x0(%esi,1),%esi
80004550:	89 0c 24             	mov    %ecx,(%esp,1)
80004553:	c7 44 24 04 02 00 00 	movl   $0x2,0x4(%esp,1)
8000455a:	00 
8000455b:	e8 40 f5 ff ff       	call   80003aa0 <ObjectManager_SearchInClass>
80004560:	85 c0                	test   %eax,%eax
80004562:	89 c1                	mov    %eax,%ecx
80004564:	74 37                	je     8000459d <ProcessManager_UpdateThreads+0x5d>
80004566:	8b 50 4c             	mov    0x4c(%eax),%edx
80004569:	8b 42 50             	mov    0x50(%edx),%eax
8000456c:	85 c0                	test   %eax,%eax
8000456e:	74 24                	je     80004594 <ProcessManager_UpdateThreads+0x54>
80004570:	83 f8 03             	cmp    $0x3,%eax
80004573:	74 0d                	je     80004582 <ProcessManager_UpdateThreads+0x42>
80004575:	48                   	dec    %eax
80004576:	75 d8                	jne    80004550 <ProcessManager_UpdateThreads+0x10>
80004578:	83 42 64 01          	addl   $0x1,0x64(%edx)
8000457c:	83 52 68 00          	adcl   $0x0,0x68(%edx)
80004580:	eb ce                	jmp    80004550 <ProcessManager_UpdateThreads+0x10>
80004582:	8b 42 60             	mov    0x60(%edx),%eax
80004585:	85 c0                	test   %eax,%eax
80004587:	74 c7                	je     80004550 <ProcessManager_UpdateThreads+0x10>
80004589:	8b 42 5c             	mov    0x5c(%edx),%eax
8000458c:	48                   	dec    %eax
8000458d:	85 c0                	test   %eax,%eax
8000458f:	89 42 5c             	mov    %eax,0x5c(%edx)
80004592:	75 bc                	jne    80004550 <ProcessManager_UpdateThreads+0x10>
80004594:	c7 42 50 02 00 00 00 	movl   $0x2,0x50(%edx)
8000459b:	eb b3                	jmp    80004550 <ProcessManager_UpdateThreads+0x10>
8000459d:	c9                   	leave  
8000459e:	c3                   	ret    
8000459f:	90                   	nop    

800045a0 <ProcessManager_GetNextThread>:
800045a0:	55                   	push   %ebp
800045a1:	89 e5                	mov    %esp,%ebp
800045a3:	53                   	push   %ebx
800045a4:	83 ec 14             	sub    $0x14,%esp
800045a7:	8b 5d 08             	mov    0x8(%ebp),%ebx
800045aa:	89 da                	mov    %ebx,%edx
800045ac:	8d 74 26 00          	lea    0x0(%esi,1),%esi
800045b0:	89 14 24             	mov    %edx,(%esp,1)
800045b3:	c7 44 24 04 02 00 00 	movl   $0x2,0x4(%esp,1)
800045ba:	00 
800045bb:	e8 e0 f4 ff ff       	call   80003aa0 <ObjectManager_SearchInClass>
800045c0:	85 c0                	test   %eax,%eax
800045c2:	89 c2                	mov    %eax,%edx
800045c4:	74 15                	je     800045db <ProcessManager_GetNextThread+0x3b>
800045c6:	39 da                	cmp    %ebx,%edx
800045c8:	74 09                	je     800045d3 <ProcessManager_GetNextThread+0x33>
800045ca:	8b 42 4c             	mov    0x4c(%edx),%eax
800045cd:	83 78 50 02          	cmpl   $0x2,0x50(%eax)
800045d1:	75 dd                	jne    800045b0 <ProcessManager_GetNextThread+0x10>
800045d3:	83 c4 14             	add    $0x14,%esp
800045d6:	89 d0                	mov    %edx,%eax
800045d8:	5b                   	pop    %ebx
800045d9:	5d                   	pop    %ebp
800045da:	c3                   	ret    
800045db:	c7 44 24 04 02 00 00 	movl   $0x2,0x4(%esp,1)
800045e2:	00 
800045e3:	c7 04 24 00 00 00 00 	movl   $0x0,(%esp,1)
800045ea:	e8 b1 f4 ff ff       	call   80003aa0 <ObjectManager_SearchInClass>
800045ef:	89 c2                	mov    %eax,%edx
800045f1:	eb d3                	jmp    800045c6 <ProcessManager_GetNextThread+0x26>
800045f3:	8d b6 00 00 00 00    	lea    0x0(%esi),%esi
800045f9:	8d bc 27 00 00 00 00 	lea    0x0(%edi,1),%edi

80004600 <ProcessManager_NextThread>:
80004600:	55                   	push   %ebp
80004601:	89 e5                	mov    %esp,%ebp
80004603:	56                   	push   %esi
80004604:	53                   	push   %ebx
80004605:	83 ec 10             	sub    $0x10,%esp
80004608:	e8 c3 ef ff ff       	call   800035d0 <ObjectManager_Lock>
8000460d:	31 d2                	xor    %edx,%edx
8000460f:	89 15 b4 a2 00 80    	mov    %edx,0x8000a2b4
80004615:	e8 26 ff ff ff       	call   80004540 <ProcessManager_UpdateThreads>
8000461a:	8b 1d fc a4 00 80    	mov    0x8000a4fc,%ebx
80004620:	8b 73 4c             	mov    0x4c(%ebx),%esi
80004623:	89 da                	mov    %ebx,%edx
80004625:	8d 74 26 00          	lea    0x0(%esi,1),%esi
80004629:	8d bc 27 00 00 00 00 	lea    0x0(%edi,1),%edi
80004630:	89 14 24             	mov    %edx,(%esp,1)
80004633:	c7 44 24 04 02 00 00 	movl   $0x2,0x4(%esp,1)
8000463a:	00 
8000463b:	e8 60 f4 ff ff       	call   80003aa0 <ObjectManager_SearchInClass>
80004640:	85 c0                	test   %eax,%eax
80004642:	89 c2                	mov    %eax,%edx
80004644:	74 61                	je     800046a7 <ProcessManager_NextThread+0xa7>
80004646:	39 da                	cmp    %ebx,%edx
80004648:	74 09                	je     80004653 <ProcessManager_NextThread+0x53>
8000464a:	8b 42 4c             	mov    0x4c(%edx),%eax
8000464d:	83 78 50 02          	cmpl   $0x2,0x50(%eax)
80004651:	75 dd                	jne    80004630 <ProcessManager_NextThread+0x30>
80004653:	39 d3                	cmp    %edx,%ebx
80004655:	8b 4a 4c             	mov    0x4c(%edx),%ecx
80004658:	74 36                	je     80004690 <ProcessManager_NextThread+0x90>
8000465a:	83 7e 50 01          	cmpl   $0x1,0x50(%esi)
8000465e:	74 3e                	je     8000469e <ProcessManager_NextThread+0x9e>
80004660:	c7 41 50 01 00 00 00 	movl   $0x1,0x50(%ecx)
80004667:	8b 41 04             	mov    0x4(%ecx),%eax
8000466a:	89 15 fc a4 00 80    	mov    %edx,0x8000a4fc
80004670:	a3 04 a5 00 80       	mov    %eax,0x8000a504
80004675:	0f b7 41 08          	movzwl 0x8(%ecx),%eax
80004679:	66 a3 cc a5 00 80    	mov    %ax,0x8000a5cc
8000467f:	8b 41 4c             	mov    0x4c(%ecx),%eax
80004682:	8b 44 81 08          	mov    0x8(%ecx,%eax,4),%eax
80004686:	a3 c8 a5 00 80       	mov    %eax,0x8000a5c8
8000468b:	a3 10 a5 00 80       	mov    %eax,0x8000a510
80004690:	e8 5b ef ff ff       	call   800035f0 <ObjectManager_Unlock>
80004695:	83 c4 10             	add    $0x10,%esp
80004698:	31 c0                	xor    %eax,%eax
8000469a:	5b                   	pop    %ebx
8000469b:	5e                   	pop    %esi
8000469c:	5d                   	pop    %ebp
8000469d:	c3                   	ret    
8000469e:	c7 46 50 02 00 00 00 	movl   $0x2,0x50(%esi)
800046a5:	eb b9                	jmp    80004660 <ProcessManager_NextThread+0x60>
800046a7:	c7 44 24 04 02 00 00 	movl   $0x2,0x4(%esp,1)
800046ae:	00 
800046af:	c7 04 24 00 00 00 00 	movl   $0x0,(%esp,1)
800046b6:	e8 e5 f3 ff ff       	call   80003aa0 <ObjectManager_SearchInClass>
800046bb:	89 c2                	mov    %eax,%edx
800046bd:	eb 87                	jmp    80004646 <ProcessManager_NextThread+0x46>
800046bf:	90                   	nop    

800046c0 <ProcessManager_Preempt>:
800046c0:	55                   	push   %ebp
800046c1:	89 e5                	mov    %esp,%ebp
800046c3:	83 ec 18             	sub    $0x18,%esp
800046c6:	0f b6 0d 04 a5 00 80 	movzbl 0x8000a504,%ecx
800046cd:	a1 dc a5 00 80       	mov    0x8000a5dc,%eax
800046d2:	80 c1 30             	add    $0x30,%cl
800046d5:	88 88 9e 00 00 00    	mov    %cl,0x9e(%eax)
800046db:	a1 dc a5 00 80       	mov    0x8000a5dc,%eax
800046e0:	c6 80 9f 00 00 00 0f 	movb   $0xf,0x9f(%eax)
800046e7:	a1 b8 a2 00 80       	mov    0x8000a2b8,%eax
800046ec:	40                   	inc    %eax
800046ed:	a3 b8 a2 00 80       	mov    %eax,0x8000a2b8
800046f2:	3d e8 03 00 00       	cmp    $0x3e8,%eax
800046f7:	74 17                	je     80004710 <ProcessManager_Preempt+0x50>
800046f9:	89 ec                	mov    %ebp,%esp
800046fb:	b8 01 00 00 00       	mov    $0x1,%eax
80004700:	5d                   	pop    %ebp
80004701:	c3                   	ret    
80004702:	8d b4 26 00 00 00 00 	lea    0x0(%esi,1),%esi
80004709:	8d bc 27 00 00 00 00 	lea    0x0(%edi,1),%edi
80004710:	a1 a4 a2 00 80       	mov    0x8000a2a4,%eax
80004715:	31 d2                	xor    %edx,%edx
80004717:	89 15 b8 a2 00 80    	mov    %edx,0x8000a2b8
8000471d:	85 c0                	test   %eax,%eax
8000471f:	75 0f                	jne    80004730 <ProcessManager_Preempt+0x70>
80004721:	e8 da fe ff ff       	call   80004600 <ProcessManager_NextThread>
80004726:	eb d1                	jmp    800046f9 <ProcessManager_Preempt+0x39>
80004728:	90                   	nop    
80004729:	8d b4 26 00 00 00 00 	lea    0x0(%esi,1),%esi
80004730:	c7 44 24 08 a0 94 00 	movl   $0x800094a0,0x8(%esp,1)
80004737:	80 
80004738:	b8 01 00 00 00       	mov    $0x1,%eax
8000473d:	a3 b4 a2 00 80       	mov    %eax,0x8000a2b4
80004742:	a1 c4 a5 00 80       	mov    0x8000a5c4,%eax
80004747:	c7 44 24 04 92 94 00 	movl   $0x80009492,0x4(%esp,1)
8000474e:	80 
8000474f:	c7 04 24 01 00 00 00 	movl   $0x1,(%esp,1)
80004756:	89 44 24 14          	mov    %eax,0x14(%esp,1)
8000475a:	a1 d0 a5 00 80       	mov    0x8000a5d0,%eax
8000475f:	89 44 24 10          	mov    %eax,0x10(%esp,1)
80004763:	a1 a4 a2 00 80       	mov    0x8000a2a4,%eax
80004768:	89 44 24 0c          	mov    %eax,0xc(%esp,1)
8000476c:	e8 2f 27 00 00       	call   80006ea0 <KPrint>
80004771:	e8 6d c2 ff ff       	call   800009e3 <halt>
80004776:	eb 81                	jmp    800046f9 <ProcessManager_Preempt+0x39>
80004778:	90                   	nop    
80004779:	8d b4 26 00 00 00 00 	lea    0x0(%esi,1),%esi

80004780 <ProcessManager_SaveContext>:
80004780:	55                   	push   %ebp
80004781:	89 e5                	mov    %esp,%ebp
80004783:	83 ec 18             	sub    $0x18,%esp
80004786:	83 3d b0 a2 00 80 01 	cmpl   $0x1,0x8000a2b0
8000478d:	89 5d fc             	mov    %ebx,0xfffffffc(%ebp)
80004790:	74 1e                	je     800047b0 <ProcessManager_SaveContext+0x30>
80004792:	a1 c8 a5 00 80       	mov    0x8000a5c8,%eax
80004797:	8b 5d fc             	mov    0xfffffffc(%ebp),%ebx
8000479a:	a3 10 a5 00 80       	mov    %eax,0x8000a510
8000479f:	89 ec                	mov    %ebp,%esp
800047a1:	5d                   	pop    %ebp
800047a2:	c3                   	ret    
800047a3:	8d b6 00 00 00 00    	lea    0x0(%esi),%esi
800047a9:	8d bc 27 00 00 00 00 	lea    0x0(%edi,1),%edi
800047b0:	a1 fc a4 00 80       	mov    0x8000a4fc,%eax
800047b5:	8b 58 4c             	mov    0x4c(%eax),%ebx
800047b8:	8b 53 4c             	mov    0x4c(%ebx),%edx
800047bb:	83 fa 10             	cmp    $0x10,%edx
800047be:	74 1b                	je     800047db <ProcessManager_SaveContext+0x5b>
800047c0:	0f b7 0d cc a5 00 80 	movzwl 0x8000a5cc,%ecx
800047c7:	a1 c8 a5 00 80       	mov    0x8000a5c8,%eax
800047cc:	89 4b 08             	mov    %ecx,0x8(%ebx)
800047cf:	8d 4a 01             	lea    0x1(%edx),%ecx
800047d2:	89 44 93 0c          	mov    %eax,0xc(%ebx,%edx,4)
800047d6:	89 4b 4c             	mov    %ecx,0x4c(%ebx)
800047d9:	eb b7                	jmp    80004792 <ProcessManager_SaveContext+0x12>
800047db:	c7 44 24 08 c0 94 00 	movl   $0x800094c0,0x8(%esp,1)
800047e2:	80 
800047e3:	c7 44 24 04 7e 94 00 	movl   $0x8000947e,0x4(%esp,1)
800047ea:	80 
800047eb:	c7 04 24 02 00 00 00 	movl   $0x2,(%esp,1)
800047f2:	e8 a9 26 00 00       	call   80006ea0 <KPrint>
800047f7:	e8 e7 c1 ff ff       	call   800009e3 <halt>
800047fc:	8b 53 4c             	mov    0x4c(%ebx),%edx
800047ff:	eb bf                	jmp    800047c0 <ProcessManager_SaveContext+0x40>
80004801:	eb 0d                	jmp    80004810 <ProcessManager_RestoreContext>
80004803:	90                   	nop    
80004804:	90                   	nop    
80004805:	90                   	nop    
80004806:	90                   	nop    
80004807:	90                   	nop    
80004808:	90                   	nop    
80004809:	90                   	nop    
8000480a:	90                   	nop    
8000480b:	90                   	nop    
8000480c:	90                   	nop    
8000480d:	90                   	nop    
8000480e:	90                   	nop    
8000480f:	90                   	nop    

80004810 <ProcessManager_RestoreContext>:
80004810:	83 3d b0 a2 00 80 01 	cmpl   $0x1,0x8000a2b0
80004817:	55                   	push   %ebp
80004818:	89 e5                	mov    %esp,%ebp
8000481a:	74 04                	je     80004820 <ProcessManager_RestoreContext+0x10>
8000481c:	5d                   	pop    %ebp
8000481d:	c3                   	ret    
8000481e:	89 f6                	mov    %esi,%esi
80004820:	a1 fc a4 00 80       	mov    0x8000a4fc,%eax
80004825:	8b 40 4c             	mov    0x4c(%eax),%eax
80004828:	8b 48 4c             	mov    0x4c(%eax),%ecx
8000482b:	0f b7 50 08          	movzwl 0x8(%eax),%edx
8000482f:	49                   	dec    %ecx
80004830:	89 48 4c             	mov    %ecx,0x4c(%eax)
80004833:	8b 44 88 0c          	mov    0xc(%eax,%ecx,4),%eax
80004837:	66 89 15 cc a5 00 80 	mov    %dx,0x8000a5cc
8000483e:	a3 c8 a5 00 80       	mov    %eax,0x8000a5c8
80004843:	eb d7                	jmp    8000481c <ProcessManager_RestoreContext+0xc>
80004845:	8d 74 26 00          	lea    0x0(%esi,1),%esi
80004849:	8d bc 27 00 00 00 00 	lea    0x0(%edi,1),%edi

80004850 <ProcessManager_CreateThreadCall>:
80004850:	55                   	push   %ebp
80004851:	89 e5                	mov    %esp,%ebp
80004853:	83 ec 08             	sub    $0x8,%esp
80004856:	8b 45 08             	mov    0x8(%ebp),%eax
80004859:	8b 00                	mov    (%eax),%eax
8000485b:	89 44 24 04          	mov    %eax,0x4(%esp,1)
8000485f:	a1 f8 a4 00 80       	mov    0x8000a4f8,%eax
80004864:	89 04 24             	mov    %eax,(%esp,1)
80004867:	e8 84 fb ff ff       	call   800043f0 <ProcessManager_CreateThread>
8000486c:	89 ec                	mov    %ebp,%esp
8000486e:	5d                   	pop    %ebp
8000486f:	c3                   	ret    

80004870 <ProcessManager_Sleep>:
80004870:	55                   	push   %ebp
80004871:	89 e5                	mov    %esp,%ebp
80004873:	83 ec 08             	sub    $0x8,%esp
80004876:	89 5d fc             	mov    %ebx,0xfffffffc(%ebp)
80004879:	8b 5d 08             	mov    0x8(%ebp),%ebx
8000487c:	e8 4f ed ff ff       	call   800035d0 <ObjectManager_Lock>
80004881:	a1 fc a4 00 80       	mov    0x8000a4fc,%eax
80004886:	8b 48 4c             	mov    0x4c(%eax),%ecx
80004889:	8b 03                	mov    (%ebx),%eax
8000488b:	89 41 5c             	mov    %eax,0x5c(%ecx)
8000488e:	8b 03                	mov    (%ebx),%eax
80004890:	c7 41 50 03 00 00 00 	movl   $0x3,0x50(%ecx)
80004897:	89 41 60             	mov    %eax,0x60(%ecx)
8000489a:	e8 51 ed ff ff       	call   800035f0 <ObjectManager_Unlock>
8000489f:	e8 5c fd ff ff       	call   80004600 <ProcessManager_NextThread>
800048a4:	8b 5d fc             	mov    0xfffffffc(%ebp),%ebx
800048a7:	89 ec                	mov    %ebp,%esp
800048a9:	31 c0                	xor    %eax,%eax
800048ab:	5d                   	pop    %ebp
800048ac:	c3                   	ret    
800048ad:	8d 76 00             	lea    0x0(%esi),%esi

800048b0 <ProcessManager_Awaken>:
800048b0:	55                   	push   %ebp
800048b1:	89 e5                	mov    %esp,%ebp
800048b3:	83 ec 18             	sub    $0x18,%esp
800048b6:	e8 15 ed ff ff       	call   800035d0 <ObjectManager_Lock>
800048bb:	c7 04 24 00 00 00 00 	movl   $0x0,(%esp,1)
800048c2:	8b 45 08             	mov    0x8(%ebp),%eax
800048c5:	c7 44 24 04 02 00 00 	movl   $0x2,0x4(%esp,1)
800048cc:	00 
800048cd:	89 44 24 08          	mov    %eax,0x8(%esp,1)
800048d1:	e8 0a f2 ff ff       	call   80003ae0 <ObjectManager_SearchInClassTypeIndex>
800048d6:	8b 40 4c             	mov    0x4c(%eax),%eax
800048d9:	83 78 50 03          	cmpl   $0x3,0x50(%eax)
800048dd:	74 11                	je     800048f0 <ProcessManager_Awaken+0x40>
800048df:	e8 0c ed ff ff       	call   800035f0 <ObjectManager_Unlock>
800048e4:	89 ec                	mov    %ebp,%esp
800048e6:	31 c0                	xor    %eax,%eax
800048e8:	5d                   	pop    %ebp
800048e9:	c3                   	ret    
800048ea:	8d b6 00 00 00 00    	lea    0x0(%esi),%esi
800048f0:	c7 40 50 02 00 00 00 	movl   $0x2,0x50(%eax)
800048f7:	eb e6                	jmp    800048df <ProcessManager_Awaken+0x2f>
800048f9:	8d b4 26 00 00 00 00 	lea    0x0(%esi,1),%esi

80004900 <ProcessManager_AwakenCall>:
80004900:	55                   	push   %ebp
80004901:	89 e5                	mov    %esp,%ebp
80004903:	83 ec 18             	sub    $0x18,%esp
80004906:	89 5d fc             	mov    %ebx,0xfffffffc(%ebp)
80004909:	8b 45 08             	mov    0x8(%ebp),%eax
8000490c:	8b 18                	mov    (%eax),%ebx
8000490e:	e8 bd ec ff ff       	call   800035d0 <ObjectManager_Lock>
80004913:	c7 04 24 00 00 00 00 	movl   $0x0,(%esp,1)
8000491a:	c7 44 24 04 02 00 00 	movl   $0x2,0x4(%esp,1)
80004921:	00 
80004922:	89 5c 24 08          	mov    %ebx,0x8(%esp,1)
80004926:	e8 b5 f1 ff ff       	call   80003ae0 <ObjectManager_SearchInClassTypeIndex>
8000492b:	8b 40 4c             	mov    0x4c(%eax),%eax
8000492e:	83 78 50 03          	cmpl   $0x3,0x50(%eax)
80004932:	74 1c                	je     80004950 <ProcessManager_AwakenCall+0x50>
80004934:	e8 b7 ec ff ff       	call   800035f0 <ObjectManager_Unlock>
80004939:	8b 5d fc             	mov    0xfffffffc(%ebp),%ebx
8000493c:	31 c0                	xor    %eax,%eax
8000493e:	89 ec                	mov    %ebp,%esp
80004940:	5d                   	pop    %ebp
80004941:	c3                   	ret    
80004942:	8d b4 26 00 00 00 00 	lea    0x0(%esi,1),%esi
80004949:	8d bc 27 00 00 00 00 	lea    0x0(%edi,1),%edi
80004950:	c7 40 50 02 00 00 00 	movl   $0x2,0x50(%eax)
80004957:	eb db                	jmp    80004934 <ProcessManager_AwakenCall+0x34>
80004959:	8d b4 26 00 00 00 00 	lea    0x0(%esi,1),%esi

80004960 <ProcessManager_Handler>:
80004960:	55                   	push   %ebp
80004961:	89 e5                	mov    %esp,%ebp
80004963:	83 ec 18             	sub    $0x18,%esp
80004966:	89 5d fc             	mov    %ebx,0xfffffffc(%ebp)
80004969:	8b 45 08             	mov    0x8(%ebp),%eax
8000496c:	8b 5d 0c             	mov    0xc(%ebp),%ebx
8000496f:	83 f8 04             	cmp    $0x4,%eax
80004972:	77 2c                	ja     800049a0 <ProcessManager_Handler+0x40>
80004974:	ff 24 85 ec 94 00 80 	jmp    *0x800094ec(,%eax,4)
8000497b:	8b 03                	mov    (%ebx),%eax
8000497d:	8b 5d fc             	mov    0xfffffffc(%ebp),%ebx
80004980:	89 45 0c             	mov    %eax,0xc(%ebp)
80004983:	a1 f8 a4 00 80       	mov    0x8000a4f8,%eax
80004988:	89 45 08             	mov    %eax,0x8(%ebp)
8000498b:	89 ec                	mov    %ebp,%esp
8000498d:	5d                   	pop    %ebp
8000498e:	e9 5d fa ff ff       	jmp    800043f0 <ProcessManager_CreateThread>
80004993:	8d b6 00 00 00 00    	lea    0x0(%esi),%esi
80004999:	8d bc 27 00 00 00 00 	lea    0x0(%edi,1),%edi
800049a0:	b8 fc ff ff ff       	mov    $0xfffffffc,%eax
800049a5:	8b 5d fc             	mov    0xfffffffc(%ebp),%ebx
800049a8:	89 ec                	mov    %ebp,%esp
800049aa:	5d                   	pop    %ebp
800049ab:	c3                   	ret    
800049ac:	e8 1f ec ff ff       	call   800035d0 <ObjectManager_Lock>
800049b1:	a1 fc a4 00 80       	mov    0x8000a4fc,%eax
800049b6:	8b 48 4c             	mov    0x4c(%eax),%ecx
800049b9:	8b 03                	mov    (%ebx),%eax
800049bb:	89 41 5c             	mov    %eax,0x5c(%ecx)
800049be:	8b 03                	mov    (%ebx),%eax
800049c0:	c7 41 50 03 00 00 00 	movl   $0x3,0x50(%ecx)
800049c7:	89 41 60             	mov    %eax,0x60(%ecx)
800049ca:	e8 21 ec ff ff       	call   800035f0 <ObjectManager_Unlock>
800049cf:	e8 2c fc ff ff       	call   80004600 <ProcessManager_NextThread>
800049d4:	31 c0                	xor    %eax,%eax
800049d6:	eb cd                	jmp    800049a5 <ProcessManager_Handler+0x45>
800049d8:	8b 1b                	mov    (%ebx),%ebx
800049da:	e8 f1 eb ff ff       	call   800035d0 <ObjectManager_Lock>
800049df:	c7 04 24 00 00 00 00 	movl   $0x0,(%esp,1)
800049e6:	c7 44 24 04 02 00 00 	movl   $0x2,0x4(%esp,1)
800049ed:	00 
800049ee:	89 5c 24 08          	mov    %ebx,0x8(%esp,1)
800049f2:	e8 e9 f0 ff ff       	call   80003ae0 <ObjectManager_SearchInClassTypeIndex>
800049f7:	8b 40 4c             	mov    0x4c(%eax),%eax
800049fa:	83 78 50 03          	cmpl   $0x3,0x50(%eax)
800049fe:	74 07                	je     80004a07 <ProcessManager_Handler+0xa7>
80004a00:	e8 eb eb ff ff       	call   800035f0 <ObjectManager_Unlock>
80004a05:	eb cd                	jmp    800049d4 <ProcessManager_Handler+0x74>
80004a07:	c7 40 50 02 00 00 00 	movl   $0x2,0x50(%eax)
80004a0e:	eb f0                	jmp    80004a00 <ProcessManager_Handler+0xa0>
80004a10:	8b 5d fc             	mov    0xfffffffc(%ebp),%ebx
80004a13:	89 ec                	mov    %ebp,%esp
80004a15:	5d                   	pop    %ebp
80004a16:	e9 e5 fb ff ff       	jmp    80004600 <ProcessManager_NextThread>
80004a1b:	00 00                	add    %al,(%eax)
80004a1d:	00 00                	add    %al,(%eax)
	...

80004a20 <MemoryManager_Init>:
80004a20:	55                   	push   %ebp
80004a21:	89 e5                	mov    %esp,%ebp
80004a23:	57                   	push   %edi
80004a24:	56                   	push   %esi
80004a25:	53                   	push   %ebx
80004a26:	83 ec 3c             	sub    $0x3c,%esp
80004a29:	8b 45 08             	mov    0x8(%ebp),%eax
80004a2c:	f6 00 40             	testb  $0x40,(%eax)
80004a2f:	0f 84 10 04 00 00    	je     80004e45 <MemoryManager_Init+0x425>
80004a35:	a1 5a 08 00 80       	mov    0x8000085a,%eax
80004a3a:	31 f6                	xor    %esi,%esi
80004a3c:	ba 00 00 00 f0       	mov    $0xf0000000,%edx
80004a41:	89 35 d0 a5 00 80    	mov    %esi,0x8000a5d0
80004a47:	8b 1d 5c a4 00 80    	mov    0x8000a45c,%ebx
80004a4d:	31 ff                	xor    %edi,%edi
80004a4f:	89 15 68 a4 00 80    	mov    %edx,0x8000a468
80004a55:	8b 4d 08             	mov    0x8(%ebp),%ecx
80004a58:	83 c8 03             	or     $0x3,%eax
80004a5b:	89 83 00 08 00 00    	mov    %eax,0x800(%ebx)
80004a61:	a1 62 08 00 80       	mov    0x80000862,%eax
80004a66:	31 f6                	xor    %esi,%esi
80004a68:	83 c8 03             	or     $0x3,%eax
80004a6b:	89 83 fc 08 00 00    	mov    %eax,0x8fc(%ebx)
80004a71:	b8 00 00 00 e0       	mov    $0xe0000000,%eax
80004a76:	a3 6c a4 00 80       	mov    %eax,0x8000a46c
80004a7b:	b8 ab aa aa aa       	mov    $0xaaaaaaab,%eax
80004a80:	f7 61 2c             	mull   0x2c(%ecx)
80004a83:	8b 45 08             	mov    0x8(%ebp),%eax
80004a86:	8b 48 30             	mov    0x30(%eax),%ecx
80004a89:	c1 ea 04             	shr    $0x4,%edx
80004a8c:	39 d7                	cmp    %edx,%edi
80004a8e:	89 55 f0             	mov    %edx,0xfffffff0(%ebp)
80004a91:	73 26                	jae    80004ab9 <MemoryManager_Init+0x99>
80004a93:	8d b6 00 00 00 00    	lea    0x0(%esi),%esi
80004a99:	8d bc 27 00 00 00 00 	lea    0x0(%edi,1),%edi
80004aa0:	83 79 14 01          	cmpl   $0x1,0x14(%ecx)
80004aa4:	0f 84 86 03 00 00    	je     80004e30 <MemoryManager_Init+0x410>
80004aaa:	8b 01                	mov    (%ecx),%eax
80004aac:	89 cb                	mov    %ecx,%ebx
80004aae:	47                   	inc    %edi
80004aaf:	01 c3                	add    %eax,%ebx
80004ab1:	3b 7d f0             	cmp    0xfffffff0(%ebp),%edi
80004ab4:	8d 4b 04             	lea    0x4(%ebx),%ecx
80004ab7:	72 e7                	jb     80004aa0 <MemoryManager_Init+0x80>
80004ab9:	c7 44 24 08 00 95 00 	movl   $0x80009500,0x8(%esp,1)
80004ac0:	80 
80004ac1:	a1 4c a4 00 80       	mov    0x8000a44c,%eax
80004ac6:	c7 44 24 04 e2 96 00 	movl   $0x800096e2,0x4(%esp,1)
80004acd:	80 
80004ace:	c7 04 24 00 00 00 00 	movl   $0x0,(%esp,1)
80004ad5:	29 c6                	sub    %eax,%esi
80004ad7:	89 f1                	mov    %esi,%ecx
80004ad9:	c1 e9 0a             	shr    $0xa,%ecx
80004adc:	29 ce                	sub    %ecx,%esi
80004ade:	8d 3c b5 00 00 00 00 	lea    0x0(,%esi,4),%edi
80004ae5:	89 35 48 a4 00 80    	mov    %esi,0x8000a448
80004aeb:	89 74 24 0c          	mov    %esi,0xc(%esp,1)
80004aef:	8d b7 ff 0f 00 00    	lea    0xfff(%edi),%esi
80004af5:	c1 ee 0c             	shr    $0xc,%esi
80004af8:	89 7c 24 10          	mov    %edi,0x10(%esp,1)
80004afc:	89 f7                	mov    %esi,%edi
80004afe:	e8 9d 23 00 00       	call   80006ea0 <KPrint>
80004b03:	89 74 24 0c          	mov    %esi,0xc(%esp,1)
80004b07:	c1 e7 0c             	shl    $0xc,%edi
80004b0a:	81 c7 00 80 20 00    	add    $0x208000,%edi
80004b10:	c7 44 24 08 40 95 00 	movl   $0x80009540,0x8(%esp,1)
80004b17:	80 
80004b18:	c7 44 24 04 e2 96 00 	movl   $0x800096e2,0x4(%esp,1)
80004b1f:	80 
80004b20:	c7 04 24 00 00 00 00 	movl   $0x0,(%esp,1)
80004b27:	e8 74 23 00 00       	call   80006ea0 <KPrint>
80004b2c:	8b 15 a8 a2 00 80    	mov    0x8000a2a8,%edx
80004b32:	a1 50 a4 00 80       	mov    0x8000a450,%eax
80004b37:	89 7d ec             	mov    %edi,0xffffffec(%ebp)
80004b3a:	a3 60 a4 00 80       	mov    %eax,0x8000a460
80004b3f:	a1 ac a2 00 80       	mov    0x8000a2ac,%eax
80004b44:	85 c0                	test   %eax,%eax
80004b46:	75 09                	jne    80004b51 <MemoryManager_Init+0x131>
80004b48:	31 db                	xor    %ebx,%ebx
80004b4a:	89 1d a8 a2 00 80    	mov    %ebx,0x8000a2a8
80004b50:	fa                   	cli    
80004b51:	b8 01 00 00 00       	mov    $0x1,%eax
80004b56:	f0 01 05 a4 a2 00 80 	lock add %eax,0x8000a2a4
80004b5d:	8d 76 00             	lea    0x0(%esi),%esi
80004b60:	b8 01 00 00 00       	mov    $0x1,%eax
80004b65:	87 05 d0 a5 00 80    	xchg   %eax,0x8000a5d0
80004b6b:	85 c0                	test   %eax,%eax
80004b6d:	75 f1                	jne    80004b60 <MemoryManager_Init+0x140>
80004b6f:	a1 ac a2 00 80       	mov    0x8000a2ac,%eax
80004b74:	85 c0                	test   %eax,%eax
80004b76:	75 07                	jne    80004b7f <MemoryManager_Init+0x15f>
80004b78:	4a                   	dec    %edx
80004b79:	0f 84 97 02 00 00    	je     80004e16 <MemoryManager_Init+0x3f6>
80004b7f:	c7 44 24 0c 0a 00 00 	movl   $0xa,0xc(%esp,1)
80004b86:	00 
80004b87:	a1 60 a4 00 80       	mov    0x8000a460,%eax
80004b8c:	89 74 24 08          	mov    %esi,0x8(%esp,1)
80004b90:	c7 04 24 00 80 20 00 	movl   $0x208000,(%esp,1)
80004b97:	89 44 24 04          	mov    %eax,0x4(%esp,1)
80004b9b:	e8 d0 02 00 00       	call   80004e70 <MemoryManager_Page_Map>
80004ba0:	8b 1d a8 a2 00 80    	mov    0x8000a2a8,%ebx
80004ba6:	a1 ac a2 00 80       	mov    0x8000a2ac,%eax
80004bab:	85 c0                	test   %eax,%eax
80004bad:	75 09                	jne    80004bb8 <MemoryManager_Init+0x198>
80004baf:	31 d2                	xor    %edx,%edx
80004bb1:	89 15 a8 a2 00 80    	mov    %edx,0x8000a2a8
80004bb7:	fa                   	cli    
80004bb8:	31 ff                	xor    %edi,%edi
80004bba:	b8 01 00 00 00       	mov    $0x1,%eax
80004bbf:	89 3d d0 a5 00 80    	mov    %edi,0x8000a5d0
80004bc5:	f0 29 05 a4 a2 00 80 	lock sub %eax,0x8000a2a4
80004bcc:	a1 a4 a2 00 80       	mov    0x8000a2a4,%eax
80004bd1:	85 c0                	test   %eax,%eax
80004bd3:	75 0c                	jne    80004be1 <MemoryManager_Init+0x1c1>
80004bd5:	a1 b4 a2 00 80       	mov    0x8000a2b4,%eax
80004bda:	48                   	dec    %eax
80004bdb:	0f 84 2b 02 00 00    	je     80004e0c <MemoryManager_Init+0x3ec>
80004be1:	a1 ac a2 00 80       	mov    0x8000a2ac,%eax
80004be6:	85 c0                	test   %eax,%eax
80004be8:	75 07                	jne    80004bf1 <MemoryManager_Init+0x1d1>
80004bea:	4b                   	dec    %ebx
80004beb:	0f 84 0b 02 00 00    	je     80004dfc <MemoryManager_Init+0x3dc>
80004bf1:	c1 e6 0c             	shl    $0xc,%esi
80004bf4:	31 ff                	xor    %edi,%edi
80004bf6:	8b 45 08             	mov    0x8(%ebp),%eax
80004bf9:	01 35 50 a4 00 80    	add    %esi,0x8000a450
80004bff:	31 c9                	xor    %ecx,%ecx
80004c01:	3b 7d f0             	cmp    0xfffffff0(%ebp),%edi
80004c04:	89 0d 64 a4 00 80    	mov    %ecx,0x8000a464
80004c0a:	8b 48 30             	mov    0x30(%eax),%ecx
80004c0d:	73 3a                	jae    80004c49 <MemoryManager_Init+0x229>
80004c0f:	8b 1d 2c a5 00 80    	mov    0x8000a52c,%ebx
80004c15:	8b 35 60 a4 00 80    	mov    0x8000a460,%esi
80004c1b:	89 5d e0             	mov    %ebx,0xffffffe0(%ebp)
80004c1e:	89 75 dc             	mov    %esi,0xffffffdc(%ebp)
80004c21:	eb 0d                	jmp    80004c30 <MemoryManager_Init+0x210>
80004c23:	90                   	nop    
80004c24:	90                   	nop    
80004c25:	90                   	nop    
80004c26:	90                   	nop    
80004c27:	90                   	nop    
80004c28:	90                   	nop    
80004c29:	90                   	nop    
80004c2a:	90                   	nop    
80004c2b:	90                   	nop    
80004c2c:	90                   	nop    
80004c2d:	90                   	nop    
80004c2e:	90                   	nop    
80004c2f:	90                   	nop    
80004c30:	83 79 14 01          	cmpl   $0x1,0x14(%ecx)
80004c34:	0f 84 46 01 00 00    	je     80004d80 <MemoryManager_Init+0x360>
80004c3a:	8b 31                	mov    (%ecx),%esi
80004c3c:	89 cb                	mov    %ecx,%ebx
80004c3e:	47                   	inc    %edi
80004c3f:	01 f3                	add    %esi,%ebx
80004c41:	3b 7d f0             	cmp    0xfffffff0(%ebp),%edi
80004c44:	8d 4b 04             	lea    0x4(%ebx),%ecx
80004c47:	72 e7                	jb     80004c30 <MemoryManager_Init+0x210>
80004c49:	ff 0d 64 a4 00 80    	decl   0x8000a464
80004c4f:	8b 15 a8 a2 00 80    	mov    0x8000a2a8,%edx
80004c55:	a1 ac a2 00 80       	mov    0x8000a2ac,%eax
80004c5a:	85 c0                	test   %eax,%eax
80004c5c:	75 09                	jne    80004c67 <MemoryManager_Init+0x247>
80004c5e:	31 ff                	xor    %edi,%edi
80004c60:	89 3d a8 a2 00 80    	mov    %edi,0x8000a2a8
80004c66:	fa                   	cli    
80004c67:	b8 01 00 00 00       	mov    $0x1,%eax
80004c6c:	f0 01 05 a4 a2 00 80 	lock add %eax,0x8000a2a4
80004c73:	8d b6 00 00 00 00    	lea    0x0(%esi),%esi
80004c79:	8d bc 27 00 00 00 00 	lea    0x0(%edi,1),%edi
80004c80:	b8 01 00 00 00       	mov    $0x1,%eax
80004c85:	87 05 d0 a5 00 80    	xchg   %eax,0x8000a5d0
80004c8b:	85 c0                	test   %eax,%eax
80004c8d:	75 f1                	jne    80004c80 <MemoryManager_Init+0x260>
80004c8f:	a1 ac a2 00 80       	mov    0x8000a2ac,%eax
80004c94:	85 c0                	test   %eax,%eax
80004c96:	75 07                	jne    80004c9f <MemoryManager_Init+0x27f>
80004c98:	4a                   	dec    %edx
80004c99:	0f 84 c5 00 00 00    	je     80004d64 <MemoryManager_Init+0x344>
80004c9f:	c7 44 24 08 00 00 02 	movl   $0x20000,0x8(%esp,1)
80004ca6:	00 
80004ca7:	c7 44 24 04 00 00 00 	movl   $0x90000000,0x4(%esp,1)
80004cae:	90 
80004caf:	c7 04 24 70 a4 00 80 	movl   $0x8000a470,(%esp,1)
80004cb6:	e8 65 03 00 00       	call   80005020 <MemoryManager_AllocInit>
80004cbb:	8b 1d a8 a2 00 80    	mov    0x8000a2a8,%ebx
80004cc1:	a1 ac a2 00 80       	mov    0x8000a2ac,%eax
80004cc6:	85 c0                	test   %eax,%eax
80004cc8:	75 08                	jne    80004cd2 <MemoryManager_Init+0x2b2>
80004cca:	31 c0                	xor    %eax,%eax
80004ccc:	a3 a8 a2 00 80       	mov    %eax,0x8000a2a8
80004cd1:	fa                   	cli    
80004cd2:	31 c9                	xor    %ecx,%ecx
80004cd4:	b8 01 00 00 00       	mov    $0x1,%eax
80004cd9:	89 0d d0 a5 00 80    	mov    %ecx,0x8000a5d0
80004cdf:	f0 29 05 a4 a2 00 80 	lock sub %eax,0x8000a2a4
80004ce6:	a1 a4 a2 00 80       	mov    0x8000a2a4,%eax
80004ceb:	85 c0                	test   %eax,%eax
80004ced:	75 08                	jne    80004cf7 <MemoryManager_Init+0x2d7>
80004cef:	a1 b4 a2 00 80       	mov    0x8000a2b4,%eax
80004cf4:	48                   	dec    %eax
80004cf5:	74 66                	je     80004d5d <MemoryManager_Init+0x33d>
80004cf7:	a1 ac a2 00 80       	mov    0x8000a2ac,%eax
80004cfc:	85 c0                	test   %eax,%eax
80004cfe:	75 03                	jne    80004d03 <MemoryManager_Init+0x2e3>
80004d00:	4b                   	dec    %ebx
80004d01:	74 4d                	je     80004d50 <MemoryManager_Init+0x330>
80004d03:	c7 44 24 0c 00 00 08 	movl   $0x80000,0xc(%esp,1)
80004d0a:	00 
80004d0b:	c7 44 24 08 80 95 00 	movl   $0x80009580,0x8(%esp,1)
80004d12:	80 
80004d13:	c7 44 24 04 e2 96 00 	movl   $0x800096e2,0x4(%esp,1)
80004d1a:	80 
80004d1b:	c7 04 24 01 00 00 00 	movl   $0x1,(%esp,1)
80004d22:	e8 79 21 00 00       	call   80006ea0 <KPrint>
80004d27:	e8 d4 27 00 00       	call   80007500 <Console_Remap>
80004d2c:	c7 44 24 08 e6 96 00 	movl   $0x800096e6,0x8(%esp,1)
80004d33:	80 
80004d34:	c7 44 24 04 e2 96 00 	movl   $0x800096e2,0x4(%esp,1)
80004d3b:	80 
80004d3c:	c7 04 24 01 00 00 00 	movl   $0x1,(%esp,1)
80004d43:	e8 58 21 00 00       	call   80006ea0 <KPrint>
80004d48:	83 c4 3c             	add    $0x3c,%esp
80004d4b:	5b                   	pop    %ebx
80004d4c:	5e                   	pop    %esi
80004d4d:	5f                   	pop    %edi
80004d4e:	5d                   	pop    %ebp
80004d4f:	c3                   	ret    
80004d50:	b8 01 00 00 00       	mov    $0x1,%eax
80004d55:	a3 a8 a2 00 80       	mov    %eax,0x8000a2a8
80004d5a:	fb                   	sti    
80004d5b:	eb a6                	jmp    80004d03 <MemoryManager_Init+0x2e3>
80004d5d:	e8 9e f8 ff ff       	call   80004600 <ProcessManager_NextThread>
80004d62:	eb 93                	jmp    80004cf7 <MemoryManager_Init+0x2d7>
80004d64:	ba 01 00 00 00       	mov    $0x1,%edx
80004d69:	89 15 a8 a2 00 80    	mov    %edx,0x8000a2a8
80004d6f:	fb                   	sti    
80004d70:	e9 2a ff ff ff       	jmp    80004c9f <MemoryManager_Init+0x27f>
80004d75:	8d 74 26 00          	lea    0x0(%esi,1),%esi
80004d79:	8d bc 27 00 00 00 00 	lea    0x0(%edi,1),%edi
80004d80:	8b 51 08             	mov    0x8(%ecx),%edx
80004d83:	8b 41 04             	mov    0x4(%ecx),%eax
80004d86:	8b 71 0c             	mov    0xc(%ecx),%esi
80004d89:	c1 e2 08             	shl    $0x8,%edx
80004d8c:	01 c2                	add    %eax,%edx
80004d8e:	8b 41 10             	mov    0x10(%ecx),%eax
80004d91:	c1 e0 08             	shl    $0x8,%eax
80004d94:	01 f0                	add    %esi,%eax
80004d96:	31 f6                	xor    %esi,%esi
80004d98:	c1 e8 0c             	shr    $0xc,%eax
80004d9b:	39 c6                	cmp    %eax,%esi
80004d9d:	89 45 d8             	mov    %eax,0xffffffd8(%ebp)
80004da0:	0f 83 94 fe ff ff    	jae    80004c3a <MemoryManager_Init+0x21a>
80004da6:	8b 45 e0             	mov    0xffffffe0(%ebp),%eax
80004da9:	89 45 e8             	mov    %eax,0xffffffe8(%ebp)
80004dac:	8b 45 dc             	mov    0xffffffdc(%ebp),%eax
80004daf:	89 45 e4             	mov    %eax,0xffffffe4(%ebp)
80004db2:	8d b4 26 00 00 00 00 	lea    0x0(%esi,1),%esi
80004db9:	8d bc 27 00 00 00 00 	lea    0x0(%edi,1),%edi
80004dc0:	81 fa ff ff 0f 00    	cmp    $0xfffff,%edx
80004dc6:	76 05                	jbe    80004dcd <MemoryManager_Init+0x3ad>
80004dc8:	3b 55 e8             	cmp    0xffffffe8(%ebp),%edx
80004dcb:	72 1e                	jb     80004deb <MemoryManager_Init+0x3cb>
80004dcd:	81 fa ff ff 1f 00    	cmp    $0x1fffff,%edx
80004dd3:	76 05                	jbe    80004dda <MemoryManager_Init+0x3ba>
80004dd5:	3b 55 ec             	cmp    0xffffffec(%ebp),%edx
80004dd8:	72 11                	jb     80004deb <MemoryManager_Init+0x3cb>
80004dda:	a1 64 a4 00 80       	mov    0x8000a464,%eax
80004ddf:	8b 5d e4             	mov    0xffffffe4(%ebp),%ebx
80004de2:	89 14 83             	mov    %edx,(%ebx,%eax,4)
80004de5:	ff 05 64 a4 00 80    	incl   0x8000a464
80004deb:	46                   	inc    %esi
80004dec:	81 c2 00 10 00 00    	add    $0x1000,%edx
80004df2:	3b 75 d8             	cmp    0xffffffd8(%ebp),%esi
80004df5:	72 c9                	jb     80004dc0 <MemoryManager_Init+0x3a0>
80004df7:	e9 3e fe ff ff       	jmp    80004c3a <MemoryManager_Init+0x21a>
80004dfc:	b8 01 00 00 00       	mov    $0x1,%eax
80004e01:	a3 a8 a2 00 80       	mov    %eax,0x8000a2a8
80004e06:	fb                   	sti    
80004e07:	e9 e5 fd ff ff       	jmp    80004bf1 <MemoryManager_Init+0x1d1>
80004e0c:	e8 ef f7 ff ff       	call   80004600 <ProcessManager_NextThread>
80004e11:	e9 cb fd ff ff       	jmp    80004be1 <MemoryManager_Init+0x1c1>
80004e16:	b8 01 00 00 00       	mov    $0x1,%eax
80004e1b:	a3 a8 a2 00 80       	mov    %eax,0x8000a2a8
80004e20:	fb                   	sti    
80004e21:	e9 59 fd ff ff       	jmp    80004b7f <MemoryManager_Init+0x15f>
80004e26:	8d 76 00             	lea    0x0(%esi),%esi
80004e29:	8d bc 27 00 00 00 00 	lea    0x0(%edi,1),%edi
80004e30:	8b 41 10             	mov    0x10(%ecx),%eax
80004e33:	8b 51 0c             	mov    0xc(%ecx),%edx
80004e36:	c1 e0 08             	shl    $0x8,%eax
80004e39:	01 d0                	add    %edx,%eax
80004e3b:	c1 e8 0c             	shr    $0xc,%eax
80004e3e:	01 c6                	add    %eax,%esi
80004e40:	e9 65 fc ff ff       	jmp    80004aaa <MemoryManager_Init+0x8a>
80004e45:	c7 44 24 08 c0 95 00 	movl   $0x800095c0,0x8(%esp,1)
80004e4c:	80 
80004e4d:	c7 44 24 04 e2 96 00 	movl   $0x800096e2,0x4(%esp,1)
80004e54:	80 
80004e55:	c7 04 24 02 00 00 00 	movl   $0x2,(%esp,1)
80004e5c:	e8 3f 20 00 00       	call   80006ea0 <KPrint>
80004e61:	e8 7d bb ff ff       	call   800009e3 <halt>
80004e66:	e9 ca fb ff ff       	jmp    80004a35 <MemoryManager_Init+0x15>
80004e6b:	90                   	nop    
80004e6c:	8d 74 26 00          	lea    0x0(%esi,1),%esi

80004e70 <MemoryManager_Page_Map>:
80004e70:	55                   	push   %ebp
80004e71:	89 e5                	mov    %esp,%ebp
80004e73:	57                   	push   %edi
80004e74:	56                   	push   %esi
80004e75:	53                   	push   %ebx
80004e76:	83 ec 1c             	sub    $0x1c,%esp
80004e79:	8b 7d 0c             	mov    0xc(%ebp),%edi
80004e7c:	a1 54 a4 00 80       	mov    0x8000a454,%eax
80004e81:	c1 ef 16             	shr    $0x16,%edi
80004e84:	8b 1c b8             	mov    (%eax,%edi,4),%ebx
80004e87:	89 45 e8             	mov    %eax,0xffffffe8(%ebp)
80004e8a:	85 db                	test   %ebx,%ebx
80004e8c:	75 4d                	jne    80004edb <MemoryManager_Page_Map+0x6b>
80004e8e:	8b 35 64 a4 00 80    	mov    0x8000a464,%esi
80004e94:	83 fe ff             	cmp    $0xffffffff,%esi
80004e97:	0f 84 48 01 00 00    	je     80004fe5 <MemoryManager_Page_Map+0x175>
80004e9d:	a1 60 a4 00 80       	mov    0x8000a460,%eax
80004ea2:	89 fa                	mov    %edi,%edx
80004ea4:	c1 e2 0c             	shl    $0xc,%edx
80004ea7:	8b 0c b0             	mov    (%eax,%esi,4),%ecx
80004eaa:	4e                   	dec    %esi
80004eab:	a1 5c a4 00 80       	mov    0x8000a45c,%eax
80004eb0:	89 35 64 a4 00 80    	mov    %esi,0x8000a464
80004eb6:	83 c9 03             	or     $0x3,%ecx
80004eb9:	89 0c b8             	mov    %ecx,(%eax,%edi,4)
80004ebc:	a1 58 a4 00 80       	mov    0x8000a458,%eax
80004ec1:	01 c2                	add    %eax,%edx
80004ec3:	b8 00 04 00 00       	mov    $0x400,%eax
80004ec8:	89 1a                	mov    %ebx,(%edx)
80004eca:	83 c2 04             	add    $0x4,%edx
80004ecd:	48                   	dec    %eax
80004ece:	75 f8                	jne    80004ec8 <MemoryManager_Page_Map+0x58>
80004ed0:	a1 54 a4 00 80       	mov    0x8000a454,%eax
80004ed5:	89 45 e8             	mov    %eax,0xffffffe8(%ebp)
80004ed8:	89 0c b8             	mov    %ecx,(%eax,%edi,4)
80004edb:	c7 45 f0 00 00 00 00 	movl   $0x0,0xfffffff0(%ebp)
80004ee2:	8b 5d 0c             	mov    0xc(%ebp),%ebx
80004ee5:	89 fe                	mov    %edi,%esi
80004ee7:	c1 e6 16             	shl    $0x16,%esi
80004eea:	8b 55 10             	mov    0x10(%ebp),%edx
80004eed:	29 f3                	sub    %esi,%ebx
80004eef:	c1 ee 0c             	shr    $0xc,%esi
80004ef2:	c1 eb 0c             	shr    $0xc,%ebx
80004ef5:	39 55 f0             	cmp    %edx,0xfffffff0(%ebp)
80004ef8:	73 39                	jae    80004f33 <MemoryManager_Page_Map+0xc3>
80004efa:	8d b6 00 00 00 00    	lea    0x0(%esi),%esi
80004f00:	81 fb 00 04 00 00    	cmp    $0x400,%ebx
80004f06:	74 48                	je     80004f50 <MemoryManager_Page_Map+0xe0>
80004f08:	ff 45 f0             	incl   0xfffffff0(%ebp)
80004f0b:	8d 3c 33             	lea    (%ebx,%esi,1),%edi
80004f0e:	8b 4d 08             	mov    0x8(%ebp),%ecx
80004f11:	a1 58 a4 00 80       	mov    0x8000a458,%eax
80004f16:	43                   	inc    %ebx
80004f17:	83 c9 03             	or     $0x3,%ecx
80004f1a:	89 0c b8             	mov    %ecx,(%eax,%edi,4)
80004f1d:	8b 45 10             	mov    0x10(%ebp),%eax
80004f20:	81 45 0c 00 10 00 00 	addl   $0x1000,0xc(%ebp)
80004f27:	81 45 08 00 10 00 00 	addl   $0x1000,0x8(%ebp)
80004f2e:	39 45 f0             	cmp    %eax,0xfffffff0(%ebp)
80004f31:	72 cd                	jb     80004f00 <MemoryManager_Page_Map+0x90>
80004f33:	0f 20 d8             	mov    %cr3,%eax
80004f36:	0f 22 d8             	mov    %eax,%cr3
80004f39:	83 c4 1c             	add    $0x1c,%esp
80004f3c:	5b                   	pop    %ebx
80004f3d:	5e                   	pop    %esi
80004f3e:	5f                   	pop    %edi
80004f3f:	5d                   	pop    %ebp
80004f40:	c3                   	ret    
80004f41:	eb 0d                	jmp    80004f50 <MemoryManager_Page_Map+0xe0>
80004f43:	90                   	nop    
80004f44:	90                   	nop    
80004f45:	90                   	nop    
80004f46:	90                   	nop    
80004f47:	90                   	nop    
80004f48:	90                   	nop    
80004f49:	90                   	nop    
80004f4a:	90                   	nop    
80004f4b:	90                   	nop    
80004f4c:	90                   	nop    
80004f4d:	90                   	nop    
80004f4e:	90                   	nop    
80004f4f:	90                   	nop    
80004f50:	8b 45 0c             	mov    0xc(%ebp),%eax
80004f53:	8b 4d e8             	mov    0xffffffe8(%ebp),%ecx
80004f56:	c1 e8 16             	shr    $0x16,%eax
80004f59:	89 45 ec             	mov    %eax,0xffffffec(%ebp)
80004f5c:	8b 3c 81             	mov    (%ecx,%eax,4),%edi
80004f5f:	85 ff                	test   %edi,%edi
80004f61:	75 4c                	jne    80004faf <MemoryManager_Page_Map+0x13f>
80004f63:	8b 35 64 a4 00 80    	mov    0x8000a464,%esi
80004f69:	83 fe ff             	cmp    $0xffffffff,%esi
80004f6c:	74 4e                	je     80004fbc <MemoryManager_Page_Map+0x14c>
80004f6e:	a1 60 a4 00 80       	mov    0x8000a460,%eax
80004f73:	8b 4d ec             	mov    0xffffffec(%ebp),%ecx
80004f76:	8b 14 b0             	mov    (%eax,%esi,4),%edx
80004f79:	4e                   	dec    %esi
80004f7a:	a1 5c a4 00 80       	mov    0x8000a45c,%eax
80004f7f:	89 35 64 a4 00 80    	mov    %esi,0x8000a464
80004f85:	89 ce                	mov    %ecx,%esi
80004f87:	83 ca 03             	or     $0x3,%edx
80004f8a:	89 14 88             	mov    %edx,(%eax,%ecx,4)
80004f8d:	a1 58 a4 00 80       	mov    0x8000a458,%eax
80004f92:	c1 e6 0c             	shl    $0xc,%esi
80004f95:	89 f9                	mov    %edi,%ecx
80004f97:	01 c6                	add    %eax,%esi
80004f99:	89 0e                	mov    %ecx,(%esi)
80004f9b:	83 c6 04             	add    $0x4,%esi
80004f9e:	4b                   	dec    %ebx
80004f9f:	75 f8                	jne    80004f99 <MemoryManager_Page_Map+0x129>
80004fa1:	a1 54 a4 00 80       	mov    0x8000a454,%eax
80004fa6:	8b 5d ec             	mov    0xffffffec(%ebp),%ebx
80004fa9:	89 45 e8             	mov    %eax,0xffffffe8(%ebp)
80004fac:	89 14 98             	mov    %edx,(%eax,%ebx,4)
80004faf:	8b 75 ec             	mov    0xffffffec(%ebp),%esi
80004fb2:	31 db                	xor    %ebx,%ebx
80004fb4:	c1 e6 0a             	shl    $0xa,%esi
80004fb7:	e9 4c ff ff ff       	jmp    80004f08 <MemoryManager_Page_Map+0x98>
80004fbc:	c7 44 24 08 00 96 00 	movl   $0x80009600,0x8(%esp,1)
80004fc3:	80 
80004fc4:	c7 44 24 04 e2 96 00 	movl   $0x800096e2,0x4(%esp,1)
80004fcb:	80 
80004fcc:	c7 04 24 02 00 00 00 	movl   $0x2,(%esp,1)
80004fd3:	e8 c8 1e 00 00       	call   80006ea0 <KPrint>
80004fd8:	e8 06 ba ff ff       	call   800009e3 <halt>
80004fdd:	8b 35 64 a4 00 80    	mov    0x8000a464,%esi
80004fe3:	eb 89                	jmp    80004f6e <MemoryManager_Page_Map+0xfe>
80004fe5:	c7 44 24 08 00 96 00 	movl   $0x80009600,0x8(%esp,1)
80004fec:	80 
80004fed:	c7 44 24 04 e2 96 00 	movl   $0x800096e2,0x4(%esp,1)
80004ff4:	80 
80004ff5:	c7 04 24 02 00 00 00 	movl   $0x2,(%esp,1)
80004ffc:	e8 9f 1e 00 00       	call   80006ea0 <KPrint>
80005001:	e8 dd b9 ff ff       	call   800009e3 <halt>
80005006:	8b 35 64 a4 00 80    	mov    0x8000a464,%esi
8000500c:	e9 8c fe ff ff       	jmp    80004e9d <MemoryManager_Page_Map+0x2d>
80005011:	eb 0d                	jmp    80005020 <MemoryManager_AllocInit>
80005013:	90                   	nop    
80005014:	90                   	nop    
80005015:	90                   	nop    
80005016:	90                   	nop    
80005017:	90                   	nop    
80005018:	90                   	nop    
80005019:	90                   	nop    
8000501a:	90                   	nop    
8000501b:	90                   	nop    
8000501c:	90                   	nop    
8000501d:	90                   	nop    
8000501e:	90                   	nop    
8000501f:	90                   	nop    

80005020 <MemoryManager_AllocInit>:
80005020:	55                   	push   %ebp
80005021:	89 e5                	mov    %esp,%ebp
80005023:	57                   	push   %edi
80005024:	56                   	push   %esi
80005025:	53                   	push   %ebx
80005026:	83 ec 1c             	sub    $0x1c,%esp
80005029:	8b 45 08             	mov    0x8(%ebp),%eax
8000502c:	8b 55 10             	mov    0x10(%ebp),%edx
8000502f:	8b 7d 0c             	mov    0xc(%ebp),%edi
80005032:	8b 5d 0c             	mov    0xc(%ebp),%ebx
80005035:	89 50 04             	mov    %edx,0x4(%eax)
80005038:	8b 35 54 a4 00 80    	mov    0x8000a454,%esi
8000503e:	c1 ef 16             	shr    $0x16,%edi
80005041:	c7 40 08 00 00 00 00 	movl   $0x0,0x8(%eax)
80005048:	89 18                	mov    %ebx,(%eax)
8000504a:	89 5d f0             	mov    %ebx,0xfffffff0(%ebp)
8000504d:	8b 1c be             	mov    (%esi,%edi,4),%ebx
80005050:	85 db                	test   %ebx,%ebx
80005052:	75 4b                	jne    8000509f <MemoryManager_AllocInit+0x7f>
80005054:	8b 35 64 a4 00 80    	mov    0x8000a464,%esi
8000505a:	83 fe ff             	cmp    $0xffffffff,%esi
8000505d:	0f 84 5d 01 00 00    	je     800051c0 <MemoryManager_AllocInit+0x1a0>
80005063:	a1 60 a4 00 80       	mov    0x8000a460,%eax
80005068:	89 fa                	mov    %edi,%edx
8000506a:	c1 e2 0c             	shl    $0xc,%edx
8000506d:	8b 0c b0             	mov    (%eax,%esi,4),%ecx
80005070:	4e                   	dec    %esi
80005071:	a1 5c a4 00 80       	mov    0x8000a45c,%eax
80005076:	89 35 64 a4 00 80    	mov    %esi,0x8000a464
8000507c:	83 c9 03             	or     $0x3,%ecx
8000507f:	89 0c b8             	mov    %ecx,(%eax,%edi,4)
80005082:	a1 58 a4 00 80       	mov    0x8000a458,%eax
80005087:	01 c2                	add    %eax,%edx
80005089:	b8 00 04 00 00       	mov    $0x400,%eax
8000508e:	89 1a                	mov    %ebx,(%edx)
80005090:	83 c2 04             	add    $0x4,%edx
80005093:	48                   	dec    %eax
80005094:	75 f8                	jne    8000508e <MemoryManager_AllocInit+0x6e>
80005096:	8b 35 54 a4 00 80    	mov    0x8000a454,%esi
8000509c:	89 0c be             	mov    %ecx,(%esi,%edi,4)
8000509f:	c7 45 ec 00 00 00 00 	movl   $0x0,0xffffffec(%ebp)
800050a6:	8b 5d 0c             	mov    0xc(%ebp),%ebx
800050a9:	89 f9                	mov    %edi,%ecx
800050ab:	c1 e1 16             	shl    $0x16,%ecx
800050ae:	8b 45 10             	mov    0x10(%ebp),%eax
800050b1:	29 cb                	sub    %ecx,%ebx
800050b3:	c1 e9 0c             	shr    $0xc,%ecx
800050b6:	c1 eb 0c             	shr    $0xc,%ebx
800050b9:	39 45 ec             	cmp    %eax,0xffffffec(%ebp)
800050bc:	73 2c                	jae    800050ea <MemoryManager_AllocInit+0xca>
800050be:	89 f6                	mov    %esi,%esi
800050c0:	81 fb 00 04 00 00    	cmp    $0x400,%ebx
800050c6:	74 68                	je     80005130 <MemoryManager_AllocInit+0x110>
800050c8:	ff 45 ec             	incl   0xffffffec(%ebp)
800050cb:	8d 3c 0b             	lea    (%ebx,%ecx,1),%edi
800050ce:	a1 58 a4 00 80       	mov    0x8000a458,%eax
800050d3:	81 45 f0 00 10 00 00 	addl   $0x1000,0xfffffff0(%ebp)
800050da:	43                   	inc    %ebx
800050db:	c7 04 b8 02 02 00 00 	movl   $0x202,(%eax,%edi,4)
800050e2:	8b 7d 10             	mov    0x10(%ebp),%edi
800050e5:	39 7d ec             	cmp    %edi,0xffffffec(%ebp)
800050e8:	72 d6                	jb     800050c0 <MemoryManager_AllocInit+0xa0>
800050ea:	0f 20 d8             	mov    %cr3,%eax
800050ed:	0f 22 d8             	mov    %eax,%cr3
800050f0:	8b 45 0c             	mov    0xc(%ebp),%eax
800050f3:	8b 75 08             	mov    0x8(%ebp),%esi
800050f6:	8b 55 0c             	mov    0xc(%ebp),%edx
800050f9:	c7 00 00 00 00 00    	movl   $0x0,(%eax)
800050ff:	89 c3                	mov    %eax,%ebx
80005101:	83 c3 08             	add    $0x8,%ebx
80005104:	c1 65 10 0c          	shll   $0xc,0x10(%ebp)
80005108:	89 46 0c             	mov    %eax,0xc(%esi)
8000510b:	c7 40 04 00 00 00 00 	movl   $0x0,0x4(%eax)
80005112:	8b 45 10             	mov    0x10(%ebp),%eax
80005115:	89 5e 10             	mov    %ebx,0x10(%esi)
80005118:	c7 43 04 00 00 00 00 	movl   $0x0,0x4(%ebx)
8000511f:	83 e8 10             	sub    $0x10,%eax
80005122:	89 42 08             	mov    %eax,0x8(%edx)
80005125:	83 c4 1c             	add    $0x1c,%esp
80005128:	5b                   	pop    %ebx
80005129:	5e                   	pop    %esi
8000512a:	5f                   	pop    %edi
8000512b:	5d                   	pop    %ebp
8000512c:	c3                   	ret    
8000512d:	8d 76 00             	lea    0x0(%esi),%esi
80005130:	8b 4d f0             	mov    0xfffffff0(%ebp),%ecx
80005133:	c1 e9 16             	shr    $0x16,%ecx
80005136:	8b 3c 8e             	mov    (%esi,%ecx,4),%edi
80005139:	89 4d e8             	mov    %ecx,0xffffffe8(%ebp)
8000513c:	85 ff                	test   %edi,%edi
8000513e:	75 4a                	jne    8000518a <MemoryManager_AllocInit+0x16a>
80005140:	8b 35 64 a4 00 80    	mov    0x8000a464,%esi
80005146:	83 fe ff             	cmp    $0xffffffff,%esi
80005149:	74 4c                	je     80005197 <MemoryManager_AllocInit+0x177>
8000514b:	a1 60 a4 00 80       	mov    0x8000a460,%eax
80005150:	8b 4d e8             	mov    0xffffffe8(%ebp),%ecx
80005153:	8b 14 b0             	mov    (%eax,%esi,4),%edx
80005156:	4e                   	dec    %esi
80005157:	a1 5c a4 00 80       	mov    0x8000a45c,%eax
8000515c:	89 35 64 a4 00 80    	mov    %esi,0x8000a464
80005162:	89 ce                	mov    %ecx,%esi
80005164:	83 ca 03             	or     $0x3,%edx
80005167:	89 14 88             	mov    %edx,(%eax,%ecx,4)
8000516a:	a1 58 a4 00 80       	mov    0x8000a458,%eax
8000516f:	c1 e6 0c             	shl    $0xc,%esi
80005172:	89 f9                	mov    %edi,%ecx
80005174:	01 c6                	add    %eax,%esi
80005176:	89 0e                	mov    %ecx,(%esi)
80005178:	83 c6 04             	add    $0x4,%esi
8000517b:	4b                   	dec    %ebx
8000517c:	75 f8                	jne    80005176 <MemoryManager_AllocInit+0x156>
8000517e:	8b 35 54 a4 00 80    	mov    0x8000a454,%esi
80005184:	8b 45 e8             	mov    0xffffffe8(%ebp),%eax
80005187:	89 14 86             	mov    %edx,(%esi,%eax,4)
8000518a:	8b 4d e8             	mov    0xffffffe8(%ebp),%ecx
8000518d:	31 db                	xor    %ebx,%ebx
8000518f:	c1 e1 0a             	shl    $0xa,%ecx
80005192:	e9 31 ff ff ff       	jmp    800050c8 <MemoryManager_AllocInit+0xa8>
80005197:	c7 44 24 08 00 96 00 	movl   $0x80009600,0x8(%esp,1)
8000519e:	80 
8000519f:	c7 44 24 04 e2 96 00 	movl   $0x800096e2,0x4(%esp,1)
800051a6:	80 
800051a7:	c7 04 24 02 00 00 00 	movl   $0x2,(%esp,1)
800051ae:	e8 ed 1c 00 00       	call   80006ea0 <KPrint>
800051b3:	e8 2b b8 ff ff       	call   800009e3 <halt>
800051b8:	8b 35 64 a4 00 80    	mov    0x8000a464,%esi
800051be:	eb 8b                	jmp    8000514b <MemoryManager_AllocInit+0x12b>
800051c0:	c7 44 24 08 00 96 00 	movl   $0x80009600,0x8(%esp,1)
800051c7:	80 
800051c8:	c7 44 24 04 e2 96 00 	movl   $0x800096e2,0x4(%esp,1)
800051cf:	80 
800051d0:	c7 04 24 02 00 00 00 	movl   $0x2,(%esp,1)
800051d7:	e8 c4 1c 00 00       	call   80006ea0 <KPrint>
800051dc:	e8 02 b8 ff ff       	call   800009e3 <halt>
800051e1:	8b 35 64 a4 00 80    	mov    0x8000a464,%esi
800051e7:	e9 77 fe ff ff       	jmp    80005063 <MemoryManager_AllocInit+0x43>
800051ec:	8d 74 26 00          	lea    0x0(%esi,1),%esi

800051f0 <MemoryManager_Alloc>:
800051f0:	55                   	push   %ebp
800051f1:	89 e5                	mov    %esp,%ebp
800051f3:	57                   	push   %edi
800051f4:	56                   	push   %esi
800051f5:	31 f6                	xor    %esi,%esi
800051f7:	53                   	push   %ebx
800051f8:	83 ec 1c             	sub    $0x1c,%esp
800051fb:	8b 7d 0c             	mov    0xc(%ebp),%edi
800051fe:	8b 4d 08             	mov    0x8(%ebp),%ecx
80005201:	8b 57 10             	mov    0x10(%edi),%edx
80005204:	83 c1 0b             	add    $0xb,%ecx
80005207:	83 e1 fc             	and    $0xfffffffc,%ecx
8000520a:	85 d2                	test   %edx,%edx
8000520c:	89 55 f0             	mov    %edx,0xfffffff0(%ebp)
8000520f:	74 1e                	je     8000522f <MemoryManager_Alloc+0x3f>
80005211:	eb 0d                	jmp    80005220 <MemoryManager_Alloc+0x30>
80005213:	90                   	nop    
80005214:	90                   	nop    
80005215:	90                   	nop    
80005216:	90                   	nop    
80005217:	90                   	nop    
80005218:	90                   	nop    
80005219:	90                   	nop    
8000521a:	90                   	nop    
8000521b:	90                   	nop    
8000521c:	90                   	nop    
8000521d:	90                   	nop    
8000521e:	90                   	nop    
8000521f:	90                   	nop    
80005220:	8b 02                	mov    (%edx),%eax
80005222:	39 c8                	cmp    %ecx,%eax
80005224:	73 38                	jae    8000525e <MemoryManager_Alloc+0x6e>
80005226:	89 d6                	mov    %edx,%esi
80005228:	8b 52 04             	mov    0x4(%edx),%edx
8000522b:	85 d2                	test   %edx,%edx
8000522d:	75 f1                	jne    80005220 <MemoryManager_Alloc+0x30>
8000522f:	89 4c 24 0c          	mov    %ecx,0xc(%esp,1)
80005233:	c7 44 24 08 40 96 00 	movl   $0x80009640,0x8(%esp,1)
8000523a:	80 
8000523b:	c7 44 24 04 e2 96 00 	movl   $0x800096e2,0x4(%esp,1)
80005242:	80 
80005243:	c7 04 24 02 00 00 00 	movl   $0x2,(%esp,1)
8000524a:	e8 51 1c 00 00       	call   80006ea0 <KPrint>
8000524f:	e8 8f b7 ff ff       	call   800009e3 <halt>
80005254:	31 c0                	xor    %eax,%eax
80005256:	83 c4 1c             	add    $0x1c,%esp
80005259:	5b                   	pop    %ebx
8000525a:	5e                   	pop    %esi
8000525b:	5f                   	pop    %edi
8000525c:	5d                   	pop    %ebp
8000525d:	c3                   	ret    
8000525e:	29 c8                	sub    %ecx,%eax
80005260:	8d 1c 11             	lea    (%ecx,%edx,1),%ebx
80005263:	39 55 f0             	cmp    %edx,0xfffffff0(%ebp)
80005266:	89 03                	mov    %eax,(%ebx)
80005268:	74 19                	je     80005283 <MemoryManager_Alloc+0x93>
8000526a:	89 5e 04             	mov    %ebx,0x4(%esi)
8000526d:	89 0a                	mov    %ecx,(%edx)
8000526f:	8b 42 04             	mov    0x4(%edx),%eax
80005272:	89 43 04             	mov    %eax,0x4(%ebx)
80005275:	8b 47 0c             	mov    0xc(%edi),%eax
80005278:	89 42 04             	mov    %eax,0x4(%edx)
8000527b:	8d 42 08             	lea    0x8(%edx),%eax
8000527e:	89 57 0c             	mov    %edx,0xc(%edi)
80005281:	eb d3                	jmp    80005256 <MemoryManager_Alloc+0x66>
80005283:	89 5f 10             	mov    %ebx,0x10(%edi)
80005286:	eb e5                	jmp    8000526d <MemoryManager_Alloc+0x7d>
80005288:	90                   	nop    
80005289:	8d b4 26 00 00 00 00 	lea    0x0(%esi,1),%esi

80005290 <MemoryManager_Coalesce>:
80005290:	55                   	push   %ebp
80005291:	89 e5                	mov    %esp,%ebp
80005293:	57                   	push   %edi
80005294:	8b 7d 08             	mov    0x8(%ebp),%edi
80005297:	56                   	push   %esi
80005298:	31 f6                	xor    %esi,%esi
8000529a:	53                   	push   %ebx
8000529b:	8b 57 10             	mov    0x10(%edi),%edx
8000529e:	8b 5a 04             	mov    0x4(%edx),%ebx
800052a1:	85 db                	test   %ebx,%ebx
800052a3:	74 20                	je     800052c5 <MemoryManager_Coalesce+0x35>
800052a5:	8d 74 26 00          	lea    0x0(%esi,1),%esi
800052a9:	8d bc 27 00 00 00 00 	lea    0x0(%edi,1),%edi
800052b0:	8b 0b                	mov    (%ebx),%ecx
800052b2:	8d 04 19             	lea    (%ecx,%ebx,1),%eax
800052b5:	39 c2                	cmp    %eax,%edx
800052b7:	74 17                	je     800052d0 <MemoryManager_Coalesce+0x40>
800052b9:	89 d6                	mov    %edx,%esi
800052bb:	8b 52 04             	mov    0x4(%edx),%edx
800052be:	8b 5a 04             	mov    0x4(%edx),%ebx
800052c1:	85 db                	test   %ebx,%ebx
800052c3:	75 eb                	jne    800052b0 <MemoryManager_Coalesce+0x20>
800052c5:	5b                   	pop    %ebx
800052c6:	5e                   	pop    %esi
800052c7:	5f                   	pop    %edi
800052c8:	5d                   	pop    %ebp
800052c9:	c3                   	ret    
800052ca:	8d b6 00 00 00 00    	lea    0x0(%esi),%esi
800052d0:	8b 02                	mov    (%edx),%eax
800052d2:	01 c1                	add    %eax,%ecx
800052d4:	3b 57 10             	cmp    0x10(%edi),%edx
800052d7:	89 0b                	mov    %ecx,(%ebx)
800052d9:	74 0e                	je     800052e9 <MemoryManager_Coalesce+0x59>
800052db:	85 f6                	test   %esi,%esi
800052dd:	74 03                	je     800052e2 <MemoryManager_Coalesce+0x52>
800052df:	89 5e 04             	mov    %ebx,0x4(%esi)
800052e2:	89 da                	mov    %ebx,%edx
800052e4:	8b 5b 04             	mov    0x4(%ebx),%ebx
800052e7:	eb d8                	jmp    800052c1 <MemoryManager_Coalesce+0x31>
800052e9:	89 5f 10             	mov    %ebx,0x10(%edi)
800052ec:	eb ed                	jmp    800052db <MemoryManager_Coalesce+0x4b>
800052ee:	89 f6                	mov    %esi,%esi

800052f0 <MemoryManager_Free>:
800052f0:	55                   	push   %ebp
800052f1:	89 e5                	mov    %esp,%ebp
800052f3:	57                   	push   %edi
800052f4:	56                   	push   %esi
800052f5:	53                   	push   %ebx
800052f6:	31 db                	xor    %ebx,%ebx
800052f8:	83 ec 1c             	sub    $0x1c,%esp
800052fb:	8b 75 0c             	mov    0xc(%ebp),%esi
800052fe:	8b 7d 08             	mov    0x8(%ebp),%edi
80005301:	8b 56 0c             	mov    0xc(%esi),%edx
80005304:	8d 4f f8             	lea    0xfffffff8(%edi),%ecx
80005307:	39 ca                	cmp    %ecx,%edx
80005309:	74 14                	je     8000531f <MemoryManager_Free+0x2f>
8000530b:	90                   	nop    
8000530c:	8d 74 26 00          	lea    0x0(%esi,1),%esi
80005310:	8b 42 04             	mov    0x4(%edx),%eax
80005313:	85 c0                	test   %eax,%eax
80005315:	74 0f                	je     80005326 <MemoryManager_Free+0x36>
80005317:	39 c8                	cmp    %ecx,%eax
80005319:	89 d3                	mov    %edx,%ebx
8000531b:	89 c2                	mov    %eax,%edx
8000531d:	75 f1                	jne    80005310 <MemoryManager_Free+0x20>
8000531f:	8b 42 04             	mov    0x4(%edx),%eax
80005322:	85 c0                	test   %eax,%eax
80005324:	75 28                	jne    8000534e <MemoryManager_Free+0x5e>
80005326:	89 7c 24 0c          	mov    %edi,0xc(%esp,1)
8000532a:	c7 44 24 08 80 96 00 	movl   $0x80009680,0x8(%esp,1)
80005331:	80 
80005332:	c7 44 24 04 e2 96 00 	movl   $0x800096e2,0x4(%esp,1)
80005339:	80 
8000533a:	c7 04 24 00 00 00 00 	movl   $0x0,(%esp,1)
80005341:	e8 5a 1b 00 00       	call   80006ea0 <KPrint>
80005346:	83 c4 1c             	add    $0x1c,%esp
80005349:	5b                   	pop    %ebx
8000534a:	5e                   	pop    %esi
8000534b:	5f                   	pop    %edi
8000534c:	5d                   	pop    %ebp
8000534d:	c3                   	ret    
8000534e:	85 db                	test   %ebx,%ebx
80005350:	74 4f                	je     800053a1 <MemoryManager_Free+0xb1>
80005352:	89 43 04             	mov    %eax,0x4(%ebx)
80005355:	8b 46 10             	mov    0x10(%esi),%eax
80005358:	31 c9                	xor    %ecx,%ecx
8000535a:	39 d0                	cmp    %edx,%eax
8000535c:	76 0b                	jbe    80005369 <MemoryManager_Free+0x79>
8000535e:	89 f6                	mov    %esi,%esi
80005360:	89 c1                	mov    %eax,%ecx
80005362:	8b 40 04             	mov    0x4(%eax),%eax
80005365:	39 d0                	cmp    %edx,%eax
80005367:	77 f7                	ja     80005360 <MemoryManager_Free+0x70>
80005369:	85 c0                	test   %eax,%eax
8000536b:	74 2b                	je     80005398 <MemoryManager_Free+0xa8>
8000536d:	8b 41 04             	mov    0x4(%ecx),%eax
80005370:	89 42 04             	mov    %eax,0x4(%edx)
80005373:	89 51 04             	mov    %edx,0x4(%ecx)
80005376:	8b 46 08             	mov    0x8(%esi),%eax
80005379:	40                   	inc    %eax
8000537a:	89 46 08             	mov    %eax,0x8(%esi)
8000537d:	83 f8 0a             	cmp    $0xa,%eax
80005380:	76 c4                	jbe    80005346 <MemoryManager_Free+0x56>
80005382:	c7 46 08 00 00 00 00 	movl   $0x0,0x8(%esi)
80005389:	89 75 08             	mov    %esi,0x8(%ebp)
8000538c:	83 c4 1c             	add    $0x1c,%esp
8000538f:	5b                   	pop    %ebx
80005390:	5e                   	pop    %esi
80005391:	5f                   	pop    %edi
80005392:	5d                   	pop    %ebp
80005393:	e9 f8 fe ff ff       	jmp    80005290 <MemoryManager_Coalesce>
80005398:	c7 42 04 00 00 00 00 	movl   $0x0,0x4(%edx)
8000539f:	eb d2                	jmp    80005373 <MemoryManager_Free+0x83>
800053a1:	89 46 0c             	mov    %eax,0xc(%esi)
800053a4:	eb af                	jmp    80005355 <MemoryManager_Free+0x65>
800053a6:	8d 76 00             	lea    0x0(%esi),%esi
800053a9:	8d bc 27 00 00 00 00 	lea    0x0(%edi,1),%edi

800053b0 <MemoryManager_LockInit>:
800053b0:	55                   	push   %ebp
800053b1:	89 e5                	mov    %esp,%ebp
800053b3:	31 d2                	xor    %edx,%edx
800053b5:	5d                   	pop    %ebp
800053b6:	89 15 d0 a5 00 80    	mov    %edx,0x8000a5d0
800053bc:	c3                   	ret    
800053bd:	8d 76 00             	lea    0x0(%esi),%esi

800053c0 <MemoryManager_Lock>:
800053c0:	55                   	push   %ebp
800053c1:	89 e5                	mov    %esp,%ebp
800053c3:	83 ec 08             	sub    $0x8,%esp
800053c6:	c7 04 24 d0 a5 00 80 	movl   $0x8000a5d0,(%esp,1)
800053cd:	e8 fe 04 00 00       	call   800058d0 <Lock_Lock>
800053d2:	89 ec                	mov    %ebp,%esp
800053d4:	5d                   	pop    %ebp
800053d5:	c3                   	ret    
800053d6:	8d 76 00             	lea    0x0(%esi),%esi
800053d9:	8d bc 27 00 00 00 00 	lea    0x0(%edi,1),%edi

800053e0 <MemoryManager_Unlock>:
800053e0:	55                   	push   %ebp
800053e1:	89 e5                	mov    %esp,%ebp
800053e3:	83 ec 08             	sub    $0x8,%esp
800053e6:	c7 04 24 d0 a5 00 80 	movl   $0x8000a5d0,(%esp,1)
800053ed:	e8 3e 05 00 00       	call   80005930 <Lock_Unlock>
800053f2:	89 ec                	mov    %ebp,%esp
800053f4:	5d                   	pop    %ebp
800053f5:	c3                   	ret    
800053f6:	8d 76 00             	lea    0x0(%esi),%esi
800053f9:	8d bc 27 00 00 00 00 	lea    0x0(%edi,1),%edi

80005400 <MemoryManager_CreateModuleInterface>:
80005400:	55                   	push   %ebp
80005401:	89 e5                	mov    %esp,%ebp
80005403:	83 ec 08             	sub    $0x8,%esp
80005406:	c7 04 24 c0 96 00 80 	movl   $0x800096c0,(%esp,1)
8000540d:	a1 48 a4 00 80       	mov    0x8000a448,%eax
80005412:	89 44 24 04          	mov    %eax,0x4(%esp,1)
80005416:	e8 15 e7 ff ff       	call   80003b30 <ObjectManager_CreateEntityWord>
8000541b:	89 ec                	mov    %ebp,%esp
8000541d:	5d                   	pop    %ebp
8000541e:	c3                   	ret    
8000541f:	90                   	nop    

80005420 <MemoryManager_Page_AddFree>:
80005420:	55                   	push   %ebp
80005421:	8b 15 64 a4 00 80    	mov    0x8000a464,%edx
80005427:	89 e5                	mov    %esp,%ebp
80005429:	8b 4d 08             	mov    0x8(%ebp),%ecx
8000542c:	a1 60 a4 00 80       	mov    0x8000a460,%eax
80005431:	89 0c 90             	mov    %ecx,(%eax,%edx,4)
80005434:	ff 05 64 a4 00 80    	incl   0x8000a464
8000543a:	5d                   	pop    %ebp
8000543b:	c3                   	ret    
8000543c:	8d 74 26 00          	lea    0x0(%esi,1),%esi

80005440 <MemoryManager_GetPTValue>:
80005440:	55                   	push   %ebp
80005441:	89 e5                	mov    %esp,%ebp
80005443:	83 ec 18             	sub    $0x18,%esp
80005446:	89 7d fc             	mov    %edi,0xfffffffc(%ebp)
80005449:	a1 54 a4 00 80       	mov    0x8000a454,%eax
8000544e:	8b 7d 08             	mov    0x8(%ebp),%edi
80005451:	89 75 f8             	mov    %esi,0xfffffff8(%ebp)
80005454:	89 5d f4             	mov    %ebx,0xfffffff4(%ebp)
80005457:	89 fe                	mov    %edi,%esi
80005459:	c1 ee 16             	shr    $0x16,%esi
8000545c:	8b 1c b0             	mov    (%eax,%esi,4),%ebx
8000545f:	85 db                	test   %ebx,%ebx
80005461:	75 46                	jne    800054a9 <MemoryManager_GetPTValue+0x69>
80005463:	8b 15 64 a4 00 80    	mov    0x8000a464,%edx
80005469:	83 fa ff             	cmp    $0xffffffff,%edx
8000546c:	74 60                	je     800054ce <MemoryManager_GetPTValue+0x8e>
8000546e:	a1 60 a4 00 80       	mov    0x8000a460,%eax
80005473:	8b 0c 90             	mov    (%eax,%edx,4),%ecx
80005476:	4a                   	dec    %edx
80005477:	89 15 64 a4 00 80    	mov    %edx,0x8000a464
8000547d:	a1 5c a4 00 80       	mov    0x8000a45c,%eax
80005482:	83 c9 03             	or     $0x3,%ecx
80005485:	89 f2                	mov    %esi,%edx
80005487:	c1 e2 0c             	shl    $0xc,%edx
8000548a:	89 0c b0             	mov    %ecx,(%eax,%esi,4)
8000548d:	a1 58 a4 00 80       	mov    0x8000a458,%eax
80005492:	01 c2                	add    %eax,%edx
80005494:	b8 00 04 00 00       	mov    $0x400,%eax
80005499:	89 1a                	mov    %ebx,(%edx)
8000549b:	83 c2 04             	add    $0x4,%edx
8000549e:	48                   	dec    %eax
8000549f:	75 f8                	jne    80005499 <MemoryManager_GetPTValue+0x59>
800054a1:	a1 54 a4 00 80       	mov    0x8000a454,%eax
800054a6:	89 0c b0             	mov    %ecx,(%eax,%esi,4)
800054a9:	89 f1                	mov    %esi,%ecx
800054ab:	c1 e1 16             	shl    $0x16,%ecx
800054ae:	8b 1d 58 a4 00 80    	mov    0x8000a458,%ebx
800054b4:	29 cf                	sub    %ecx,%edi
800054b6:	c1 ef 0c             	shr    $0xc,%edi
800054b9:	8b 75 f8             	mov    0xfffffff8(%ebp),%esi
800054bc:	c1 e9 0c             	shr    $0xc,%ecx
800054bf:	01 f9                	add    %edi,%ecx
800054c1:	8b 7d fc             	mov    0xfffffffc(%ebp),%edi
800054c4:	8b 04 8b             	mov    (%ebx,%ecx,4),%eax
800054c7:	8b 5d f4             	mov    0xfffffff4(%ebp),%ebx
800054ca:	89 ec                	mov    %ebp,%esp
800054cc:	5d                   	pop    %ebp
800054cd:	c3                   	ret    
800054ce:	c7 44 24 08 00 96 00 	movl   $0x80009600,0x8(%esp,1)
800054d5:	80 
800054d6:	c7 44 24 04 e2 96 00 	movl   $0x800096e2,0x4(%esp,1)
800054dd:	80 
800054de:	c7 04 24 02 00 00 00 	movl   $0x2,(%esp,1)
800054e5:	e8 b6 19 00 00       	call   80006ea0 <KPrint>
800054ea:	e8 f4 b4 ff ff       	call   800009e3 <halt>
800054ef:	8b 15 64 a4 00 80    	mov    0x8000a464,%edx
800054f5:	e9 74 ff ff ff       	jmp    8000546e <MemoryManager_GetPTValue+0x2e>
800054fa:	8d b6 00 00 00 00    	lea    0x0(%esi),%esi

80005500 <MemoryManager_GetPTAddress>:
80005500:	55                   	push   %ebp
80005501:	89 e5                	mov    %esp,%ebp
80005503:	83 ec 18             	sub    $0x18,%esp
80005506:	89 5d f4             	mov    %ebx,0xfffffff4(%ebp)
80005509:	a1 54 a4 00 80       	mov    0x8000a454,%eax
8000550e:	8b 5d 08             	mov    0x8(%ebp),%ebx
80005511:	89 75 f8             	mov    %esi,0xfffffff8(%ebp)
80005514:	89 7d fc             	mov    %edi,0xfffffffc(%ebp)
80005517:	c1 eb 16             	shr    $0x16,%ebx
8000551a:	8b 34 98             	mov    (%eax,%ebx,4),%esi
8000551d:	85 f6                	test   %esi,%esi
8000551f:	75 48                	jne    80005569 <MemoryManager_GetPTAddress+0x69>
80005521:	8b 15 64 a4 00 80    	mov    0x8000a464,%edx
80005527:	83 fa ff             	cmp    $0xffffffff,%edx
8000552a:	74 4f                	je     8000557b <MemoryManager_GetPTAddress+0x7b>
8000552c:	a1 60 a4 00 80       	mov    0x8000a460,%eax
80005531:	89 f1                	mov    %esi,%ecx
80005533:	8b 3c 90             	mov    (%eax,%edx,4),%edi
80005536:	4a                   	dec    %edx
80005537:	a1 5c a4 00 80       	mov    0x8000a45c,%eax
8000553c:	89 15 64 a4 00 80    	mov    %edx,0x8000a464
80005542:	89 da                	mov    %ebx,%edx
80005544:	83 cf 03             	or     $0x3,%edi
80005547:	89 3c 98             	mov    %edi,(%eax,%ebx,4)
8000554a:	a1 58 a4 00 80       	mov    0x8000a458,%eax
8000554f:	c1 e2 0c             	shl    $0xc,%edx
80005552:	01 c2                	add    %eax,%edx
80005554:	b8 00 04 00 00       	mov    $0x400,%eax
80005559:	89 0a                	mov    %ecx,(%edx)
8000555b:	83 c2 04             	add    $0x4,%edx
8000555e:	48                   	dec    %eax
8000555f:	75 f8                	jne    80005559 <MemoryManager_GetPTAddress+0x59>
80005561:	a1 54 a4 00 80       	mov    0x8000a454,%eax
80005566:	89 3c 98             	mov    %edi,(%eax,%ebx,4)
80005569:	c1 e3 16             	shl    $0x16,%ebx
8000556c:	8b 75 f8             	mov    0xfffffff8(%ebp),%esi
8000556f:	89 d8                	mov    %ebx,%eax
80005571:	8b 7d fc             	mov    0xfffffffc(%ebp),%edi
80005574:	8b 5d f4             	mov    0xfffffff4(%ebp),%ebx
80005577:	89 ec                	mov    %ebp,%esp
80005579:	5d                   	pop    %ebp
8000557a:	c3                   	ret    
8000557b:	c7 44 24 08 00 96 00 	movl   $0x80009600,0x8(%esp,1)
80005582:	80 
80005583:	c7 44 24 04 e2 96 00 	movl   $0x800096e2,0x4(%esp,1)
8000558a:	80 
8000558b:	c7 04 24 02 00 00 00 	movl   $0x2,(%esp,1)
80005592:	e8 09 19 00 00       	call   80006ea0 <KPrint>
80005597:	e8 47 b4 ff ff       	call   800009e3 <halt>
8000559c:	8b 15 64 a4 00 80    	mov    0x8000a464,%edx
800055a2:	eb 88                	jmp    8000552c <MemoryManager_GetPTAddress+0x2c>
800055a4:	8d b6 00 00 00 00    	lea    0x0(%esi),%esi
800055aa:	8d bf 00 00 00 00    	lea    0x0(%edi),%edi

800055b0 <MemoryManager_Page_Unmap>:
800055b0:	55                   	push   %ebp
800055b1:	89 e5                	mov    %esp,%ebp
800055b3:	57                   	push   %edi
800055b4:	31 ff                	xor    %edi,%edi
800055b6:	56                   	push   %esi
800055b7:	53                   	push   %ebx
800055b8:	83 ec 0c             	sub    $0xc,%esp
800055bb:	8b 75 08             	mov    0x8(%ebp),%esi
800055be:	89 34 24             	mov    %esi,(%esp,1)
800055c1:	e8 3a ff ff ff       	call   80005500 <MemoryManager_GetPTAddress>
800055c6:	89 f1                	mov    %esi,%ecx
800055c8:	29 c1                	sub    %eax,%ecx
800055ca:	89 c3                	mov    %eax,%ebx
800055cc:	c1 e9 0c             	shr    $0xc,%ecx
800055cf:	c1 eb 0c             	shr    $0xc,%ebx
800055d2:	3b 7d 0c             	cmp    0xc(%ebp),%edi
800055d5:	73 2d                	jae    80005604 <MemoryManager_Page_Unmap+0x54>
800055d7:	89 f6                	mov    %esi,%esi
800055d9:	8d bc 27 00 00 00 00 	lea    0x0(%edi,1),%edi
800055e0:	81 f9 00 04 00 00    	cmp    $0x400,%ecx
800055e6:	74 38                	je     80005620 <MemoryManager_Page_Unmap+0x70>
800055e8:	a1 58 a4 00 80       	mov    0x8000a458,%eax
800055ed:	8d 14 19             	lea    (%ecx,%ebx,1),%edx
800055f0:	47                   	inc    %edi
800055f1:	41                   	inc    %ecx
800055f2:	81 c6 00 10 00 00    	add    $0x1000,%esi
800055f8:	c7 04 90 00 00 00 00 	movl   $0x0,(%eax,%edx,4)
800055ff:	3b 7d 0c             	cmp    0xc(%ebp),%edi
80005602:	72 dc                	jb     800055e0 <MemoryManager_Page_Unmap+0x30>
80005604:	0f 20 d8             	mov    %cr3,%eax
80005607:	0f 22 d8             	mov    %eax,%cr3
8000560a:	83 c4 0c             	add    $0xc,%esp
8000560d:	5b                   	pop    %ebx
8000560e:	5e                   	pop    %esi
8000560f:	5f                   	pop    %edi
80005610:	5d                   	pop    %ebp
80005611:	c3                   	ret    
80005612:	8d b4 26 00 00 00 00 	lea    0x0(%esi,1),%esi
80005619:	8d bc 27 00 00 00 00 	lea    0x0(%edi,1),%edi
80005620:	89 34 24             	mov    %esi,(%esp,1)
80005623:	e8 d8 fe ff ff       	call   80005500 <MemoryManager_GetPTAddress>
80005628:	31 c9                	xor    %ecx,%ecx
8000562a:	89 c3                	mov    %eax,%ebx
8000562c:	c1 eb 0c             	shr    $0xc,%ebx
8000562f:	eb b7                	jmp    800055e8 <MemoryManager_Page_Unmap+0x38>
80005631:	eb 0d                	jmp    80005640 <MemoryManager_Page_MapZeroFill>
80005633:	90                   	nop    
80005634:	90                   	nop    
80005635:	90                   	nop    
80005636:	90                   	nop    
80005637:	90                   	nop    
80005638:	90                   	nop    
80005639:	90                   	nop    
8000563a:	90                   	nop    
8000563b:	90                   	nop    
8000563c:	90                   	nop    
8000563d:	90                   	nop    
8000563e:	90                   	nop    
8000563f:	90                   	nop    

80005640 <MemoryManager_Page_MapZeroFill>:
80005640:	55                   	push   %ebp
80005641:	89 e5                	mov    %esp,%ebp
80005643:	57                   	push   %edi
80005644:	31 ff                	xor    %edi,%edi
80005646:	56                   	push   %esi
80005647:	53                   	push   %ebx
80005648:	83 ec 0c             	sub    $0xc,%esp
8000564b:	8b 75 08             	mov    0x8(%ebp),%esi
8000564e:	89 34 24             	mov    %esi,(%esp,1)
80005651:	e8 aa fe ff ff       	call   80005500 <MemoryManager_GetPTAddress>
80005656:	89 f1                	mov    %esi,%ecx
80005658:	29 c1                	sub    %eax,%ecx
8000565a:	89 c3                	mov    %eax,%ebx
8000565c:	c1 e9 0c             	shr    $0xc,%ecx
8000565f:	c1 eb 0c             	shr    $0xc,%ebx
80005662:	3b 7d 0c             	cmp    0xc(%ebp),%edi
80005665:	73 2d                	jae    80005694 <MemoryManager_Page_MapZeroFill+0x54>
80005667:	89 f6                	mov    %esi,%esi
80005669:	8d bc 27 00 00 00 00 	lea    0x0(%edi,1),%edi
80005670:	81 f9 00 04 00 00    	cmp    $0x400,%ecx
80005676:	74 38                	je     800056b0 <MemoryManager_Page_MapZeroFill+0x70>
80005678:	a1 58 a4 00 80       	mov    0x8000a458,%eax
8000567d:	8d 14 19             	lea    (%ecx,%ebx,1),%edx
80005680:	47                   	inc    %edi
80005681:	41                   	inc    %ecx
80005682:	81 c6 00 10 00 00    	add    $0x1000,%esi
80005688:	c7 04 90 02 02 00 00 	movl   $0x202,(%eax,%edx,4)
8000568f:	3b 7d 0c             	cmp    0xc(%ebp),%edi
80005692:	72 dc                	jb     80005670 <MemoryManager_Page_MapZeroFill+0x30>
80005694:	0f 20 d8             	mov    %cr3,%eax
80005697:	0f 22 d8             	mov    %eax,%cr3
8000569a:	83 c4 0c             	add    $0xc,%esp
8000569d:	5b                   	pop    %ebx
8000569e:	5e                   	pop    %esi
8000569f:	5f                   	pop    %edi
800056a0:	5d                   	pop    %ebp
800056a1:	c3                   	ret    
800056a2:	8d b4 26 00 00 00 00 	lea    0x0(%esi,1),%esi
800056a9:	8d bc 27 00 00 00 00 	lea    0x0(%edi,1),%edi
800056b0:	89 34 24             	mov    %esi,(%esp,1)
800056b3:	e8 48 fe ff ff       	call   80005500 <MemoryManager_GetPTAddress>
800056b8:	31 c9                	xor    %ecx,%ecx
800056ba:	89 c3                	mov    %eax,%ebx
800056bc:	c1 eb 0c             	shr    $0xc,%ebx
800056bf:	eb b7                	jmp    80005678 <MemoryManager_Page_MapZeroFill+0x38>
800056c1:	eb 0d                	jmp    800056d0 <MemoryManager_Page_Allocate>
800056c3:	90                   	nop    
800056c4:	90                   	nop    
800056c5:	90                   	nop    
800056c6:	90                   	nop    
800056c7:	90                   	nop    
800056c8:	90                   	nop    
800056c9:	90                   	nop    
800056ca:	90                   	nop    
800056cb:	90                   	nop    
800056cc:	90                   	nop    
800056cd:	90                   	nop    
800056ce:	90                   	nop    
800056cf:	90                   	nop    

800056d0 <MemoryManager_Page_Allocate>:
800056d0:	55                   	push   %ebp
800056d1:	89 e5                	mov    %esp,%ebp
800056d3:	83 ec 28             	sub    $0x28,%esp
800056d6:	89 5d f4             	mov    %ebx,0xfffffff4(%ebp)
800056d9:	8b 5d 08             	mov    0x8(%ebp),%ebx
800056dc:	89 75 f8             	mov    %esi,0xfffffff8(%ebp)
800056df:	89 7d fc             	mov    %edi,0xfffffffc(%ebp)
800056e2:	89 1c 24             	mov    %ebx,(%esp,1)
800056e5:	e8 16 fe ff ff       	call   80005500 <MemoryManager_GetPTAddress>
800056ea:	8b 15 64 a4 00 80    	mov    0x8000a464,%edx
800056f0:	89 d9                	mov    %ebx,%ecx
800056f2:	29 c1                	sub    %eax,%ecx
800056f4:	c1 e9 0c             	shr    $0xc,%ecx
800056f7:	8b 35 58 a4 00 80    	mov    0x8000a458,%esi
800056fd:	c1 e8 0c             	shr    $0xc,%eax
80005700:	83 fa ff             	cmp    $0xffffffff,%edx
80005703:	8d 3c 01             	lea    (%ecx,%eax,1),%edi
80005706:	74 58                	je     80005760 <MemoryManager_Page_Allocate+0x90>
80005708:	a1 60 a4 00 80       	mov    0x8000a460,%eax
8000570d:	8b 04 90             	mov    (%eax,%edx,4),%eax
80005710:	4a                   	dec    %edx
80005711:	89 15 64 a4 00 80    	mov    %edx,0x8000a464
80005717:	83 c8 03             	or     $0x3,%eax
8000571a:	89 04 be             	mov    %eax,(%esi,%edi,4)
8000571d:	83 7d 0c 01          	cmpl   $0x1,0xc(%ebp)
80005721:	74 1d                	je     80005740 <MemoryManager_Page_Allocate+0x70>
80005723:	89 5d f0             	mov    %ebx,0xfffffff0(%ebp)
80005726:	0f 01 7d f0          	invlpg 0xfffffff0(%ebp)
8000572a:	8b 5d f4             	mov    0xfffffff4(%ebp),%ebx
8000572d:	8b 75 f8             	mov    0xfffffff8(%ebp),%esi
80005730:	8b 7d fc             	mov    0xfffffffc(%ebp),%edi
80005733:	89 ec                	mov    %ebp,%esp
80005735:	5d                   	pop    %ebp
80005736:	c3                   	ret    
80005737:	89 f6                	mov    %esi,%esi
80005739:	8d bc 27 00 00 00 00 	lea    0x0(%edi,1),%edi
80005740:	31 d2                	xor    %edx,%edx
80005742:	b8 00 04 00 00       	mov    $0x400,%eax
80005747:	89 d9                	mov    %ebx,%ecx
80005749:	89 11                	mov    %edx,(%ecx)
8000574b:	83 c1 04             	add    $0x4,%ecx
8000574e:	48                   	dec    %eax
8000574f:	75 f8                	jne    80005749 <MemoryManager_Page_Allocate+0x79>
80005751:	eb d0                	jmp    80005723 <MemoryManager_Page_Allocate+0x53>
80005753:	8d b6 00 00 00 00    	lea    0x0(%esi),%esi
80005759:	8d bc 27 00 00 00 00 	lea    0x0(%edi,1),%edi
80005760:	c7 44 24 08 00 96 00 	movl   $0x80009600,0x8(%esp,1)
80005767:	80 
80005768:	c7 44 24 04 e2 96 00 	movl   $0x800096e2,0x4(%esp,1)
8000576f:	80 
80005770:	c7 04 24 02 00 00 00 	movl   $0x2,(%esp,1)
80005777:	e8 24 17 00 00       	call   80006ea0 <KPrint>
8000577c:	e8 62 b2 ff ff       	call   800009e3 <halt>
80005781:	8b 15 64 a4 00 80    	mov    0x8000a464,%edx
80005787:	e9 7c ff ff ff       	jmp    80005708 <MemoryManager_Page_Allocate+0x38>
8000578c:	8d 74 26 00          	lea    0x0(%esi,1),%esi

80005790 <MemoryManager_DumpAllocation>:
80005790:	55                   	push   %ebp
80005791:	89 e5                	mov    %esp,%ebp
80005793:	53                   	push   %ebx
80005794:	83 ec 24             	sub    $0x24,%esp
80005797:	c7 44 24 08 02 97 00 	movl   $0x80009702,0x8(%esp,1)
8000579e:	80 
8000579f:	c7 44 24 04 e2 96 00 	movl   $0x800096e2,0x4(%esp,1)
800057a6:	80 
800057a7:	c7 04 24 00 00 00 00 	movl   $0x0,(%esp,1)
800057ae:	e8 ed 16 00 00       	call   80006ea0 <KPrint>
800057b3:	8b 45 08             	mov    0x8(%ebp),%eax
800057b6:	8b 58 0c             	mov    0xc(%eax),%ebx
800057b9:	85 db                	test   %ebx,%ebx
800057bb:	74 40                	je     800057fd <MemoryManager_DumpAllocation+0x6d>
800057bd:	8d 76 00             	lea    0x0(%esi),%esi
800057c0:	8b 03                	mov    (%ebx),%eax
800057c2:	89 d9                	mov    %ebx,%ecx
800057c4:	8d 53 08             	lea    0x8(%ebx),%edx
800057c7:	89 44 24 14          	mov    %eax,0x14(%esp,1)
800057cb:	8b 03                	mov    (%ebx),%eax
800057cd:	c7 04 24 00 00 00 00 	movl   $0x0,(%esp,1)
800057d4:	89 54 24 0c          	mov    %edx,0xc(%esp,1)
800057d8:	c7 44 24 08 20 97 00 	movl   $0x80009720,0x8(%esp,1)
800057df:	80 
800057e0:	01 c1                	add    %eax,%ecx
800057e2:	83 c1 08             	add    $0x8,%ecx
800057e5:	89 4c 24 10          	mov    %ecx,0x10(%esp,1)
800057e9:	c7 44 24 04 e2 96 00 	movl   $0x800096e2,0x4(%esp,1)
800057f0:	80 
800057f1:	e8 aa 16 00 00       	call   80006ea0 <KPrint>
800057f6:	8b 5b 04             	mov    0x4(%ebx),%ebx
800057f9:	85 db                	test   %ebx,%ebx
800057fb:	75 c3                	jne    800057c0 <MemoryManager_DumpAllocation+0x30>
800057fd:	83 c4 24             	add    $0x24,%esp
80005800:	5b                   	pop    %ebx
80005801:	5d                   	pop    %ebp
80005802:	c3                   	ret    
80005803:	8d b6 00 00 00 00    	lea    0x0(%esi),%esi
80005809:	8d bc 27 00 00 00 00 	lea    0x0(%edi,1),%edi

80005810 <MemoryManager_DumpFreeMap>:
80005810:	55                   	push   %ebp
80005811:	89 e5                	mov    %esp,%ebp
80005813:	53                   	push   %ebx
80005814:	83 ec 24             	sub    $0x24,%esp
80005817:	c7 44 24 08 3e 97 00 	movl   $0x8000973e,0x8(%esp,1)
8000581e:	80 
8000581f:	c7 44 24 04 e2 96 00 	movl   $0x800096e2,0x4(%esp,1)
80005826:	80 
80005827:	c7 04 24 00 00 00 00 	movl   $0x0,(%esp,1)
8000582e:	e8 6d 16 00 00       	call   80006ea0 <KPrint>
80005833:	8b 45 08             	mov    0x8(%ebp),%eax
80005836:	8b 58 10             	mov    0x10(%eax),%ebx
80005839:	85 db                	test   %ebx,%ebx
8000583b:	74 40                	je     8000587d <MemoryManager_DumpFreeMap+0x6d>
8000583d:	8d 76 00             	lea    0x0(%esi),%esi
80005840:	8b 03                	mov    (%ebx),%eax
80005842:	89 da                	mov    %ebx,%edx
80005844:	89 44 24 14          	mov    %eax,0x14(%esp,1)
80005848:	8b 03                	mov    (%ebx),%eax
8000584a:	c7 04 24 00 00 00 00 	movl   $0x0,(%esp,1)
80005851:	c7 44 24 08 5c 97 00 	movl   $0x8000975c,0x8(%esp,1)
80005858:	80 
80005859:	c7 44 24 04 e2 96 00 	movl   $0x800096e2,0x4(%esp,1)
80005860:	80 
80005861:	01 c2                	add    %eax,%edx
80005863:	83 c2 08             	add    $0x8,%edx
80005866:	89 54 24 10          	mov    %edx,0x10(%esp,1)
8000586a:	8d 53 08             	lea    0x8(%ebx),%edx
8000586d:	89 54 24 0c          	mov    %edx,0xc(%esp,1)
80005871:	e8 2a 16 00 00       	call   80006ea0 <KPrint>
80005876:	8b 5b 04             	mov    0x4(%ebx),%ebx
80005879:	85 db                	test   %ebx,%ebx
8000587b:	75 c3                	jne    80005840 <MemoryManager_DumpFreeMap+0x30>
8000587d:	83 c4 24             	add    $0x24,%esp
80005880:	5b                   	pop    %ebx
80005881:	5d                   	pop    %ebp
80005882:	c3                   	ret    
80005883:	8d b6 00 00 00 00    	lea    0x0(%esi),%esi
80005889:	8d bc 27 00 00 00 00 	lea    0x0(%edi,1),%edi

80005890 <MemoryManager_KAlloc>:
80005890:	55                   	push   %ebp
80005891:	89 e5                	mov    %esp,%ebp
80005893:	83 ec 08             	sub    $0x8,%esp
80005896:	c7 44 24 04 70 a4 00 	movl   $0x8000a470,0x4(%esp,1)
8000589d:	80 
8000589e:	8b 45 08             	mov    0x8(%ebp),%eax
800058a1:	89 04 24             	mov    %eax,(%esp,1)
800058a4:	e8 47 f9 ff ff       	call   800051f0 <MemoryManager_Alloc>
800058a9:	89 ec                	mov    %ebp,%esp
800058ab:	5d                   	pop    %ebp
800058ac:	c3                   	ret    
800058ad:	8d 76 00             	lea    0x0(%esi),%esi

800058b0 <MemoryManager_KFree>:
800058b0:	55                   	push   %ebp
800058b1:	89 e5                	mov    %esp,%ebp
800058b3:	83 ec 08             	sub    $0x8,%esp
800058b6:	c7 44 24 04 70 a4 00 	movl   $0x8000a470,0x4(%esp,1)
800058bd:	80 
800058be:	8b 45 08             	mov    0x8(%ebp),%eax
800058c1:	89 04 24             	mov    %eax,(%esp,1)
800058c4:	e8 27 fa ff ff       	call   800052f0 <MemoryManager_Free>
800058c9:	89 ec                	mov    %ebp,%esp
800058cb:	5d                   	pop    %ebp
800058cc:	c3                   	ret    
800058cd:	8d 76 00             	lea    0x0(%esi),%esi

800058d0 <Lock_Lock>:
800058d0:	55                   	push   %ebp
800058d1:	8b 0d a8 a2 00 80    	mov    0x8000a2a8,%ecx
800058d7:	a1 ac a2 00 80       	mov    0x8000a2ac,%eax
800058dc:	89 e5                	mov    %esp,%ebp
800058de:	8b 55 08             	mov    0x8(%ebp),%edx
800058e1:	85 c0                	test   %eax,%eax
800058e3:	75 08                	jne    800058ed <Lock_Lock+0x1d>
800058e5:	31 c0                	xor    %eax,%eax
800058e7:	a3 a8 a2 00 80       	mov    %eax,0x8000a2a8
800058ec:	fa                   	cli    
800058ed:	b8 01 00 00 00       	mov    $0x1,%eax
800058f2:	f0 01 05 a4 a2 00 80 	lock add %eax,0x8000a2a4
800058f9:	8d b4 26 00 00 00 00 	lea    0x0(%esi,1),%esi
80005900:	b8 01 00 00 00       	mov    $0x1,%eax
80005905:	87 02                	xchg   %eax,(%edx)
80005907:	85 c0                	test   %eax,%eax
80005909:	75 f5                	jne    80005900 <Lock_Lock+0x30>
8000590b:	a1 ac a2 00 80       	mov    0x8000a2ac,%eax
80005910:	85 c0                	test   %eax,%eax
80005912:	75 03                	jne    80005917 <Lock_Lock+0x47>
80005914:	49                   	dec    %ecx
80005915:	74 02                	je     80005919 <Lock_Lock+0x49>
80005917:	5d                   	pop    %ebp
80005918:	c3                   	ret    
80005919:	b8 01 00 00 00       	mov    $0x1,%eax
8000591e:	a3 a8 a2 00 80       	mov    %eax,0x8000a2a8
80005923:	fb                   	sti    
80005924:	eb f1                	jmp    80005917 <Lock_Lock+0x47>
80005926:	8d 76 00             	lea    0x0(%esi),%esi
80005929:	8d bc 27 00 00 00 00 	lea    0x0(%edi,1),%edi

80005930 <Lock_Unlock>:
80005930:	55                   	push   %ebp
80005931:	89 e5                	mov    %esp,%ebp
80005933:	83 ec 08             	sub    $0x8,%esp
80005936:	89 5d fc             	mov    %ebx,0xfffffffc(%ebp)
80005939:	8b 1d a8 a2 00 80    	mov    0x8000a2a8,%ebx
8000593f:	a1 ac a2 00 80       	mov    0x8000a2ac,%eax
80005944:	85 c0                	test   %eax,%eax
80005946:	75 09                	jne    80005951 <Lock_Unlock+0x21>
80005948:	31 d2                	xor    %edx,%edx
8000594a:	89 15 a8 a2 00 80    	mov    %edx,0x8000a2a8
80005950:	fa                   	cli    
80005951:	8b 45 08             	mov    0x8(%ebp),%eax
80005954:	c7 00 00 00 00 00    	movl   $0x0,(%eax)
8000595a:	b8 01 00 00 00       	mov    $0x1,%eax
8000595f:	f0 29 05 a4 a2 00 80 	lock sub %eax,0x8000a2a4
80005966:	a1 a4 a2 00 80       	mov    0x8000a2a4,%eax
8000596b:	85 c0                	test   %eax,%eax
8000596d:	75 08                	jne    80005977 <Lock_Unlock+0x47>
8000596f:	a1 b4 a2 00 80       	mov    0x8000a2b4,%eax
80005974:	48                   	dec    %eax
80005975:	74 26                	je     8000599d <Lock_Unlock+0x6d>
80005977:	a1 ac a2 00 80       	mov    0x8000a2ac,%eax
8000597c:	85 c0                	test   %eax,%eax
8000597e:	75 03                	jne    80005983 <Lock_Unlock+0x53>
80005980:	4b                   	dec    %ebx
80005981:	74 0d                	je     80005990 <Lock_Unlock+0x60>
80005983:	8b 5d fc             	mov    0xfffffffc(%ebp),%ebx
80005986:	89 ec                	mov    %ebp,%esp
80005988:	5d                   	pop    %ebp
80005989:	c3                   	ret    
8000598a:	8d b6 00 00 00 00    	lea    0x0(%esi),%esi
80005990:	b8 01 00 00 00       	mov    $0x1,%eax
80005995:	a3 a8 a2 00 80       	mov    %eax,0x8000a2a8
8000599a:	fb                   	sti    
8000599b:	eb e6                	jmp    80005983 <Lock_Unlock+0x53>
8000599d:	e8 5e ec ff ff       	call   80004600 <ProcessManager_NextThread>
800059a2:	eb d3                	jmp    80005977 <Lock_Unlock+0x47>
	...

800059b0 <MessageManager_SendMessage>:
800059b0:	55                   	push   %ebp
800059b1:	89 e5                	mov    %esp,%ebp
800059b3:	83 ec 28             	sub    $0x28,%esp
800059b6:	89 5d f4             	mov    %ebx,0xfffffff4(%ebp)
800059b9:	89 75 f8             	mov    %esi,0xfffffff8(%ebp)
800059bc:	89 7d fc             	mov    %edi,0xfffffffc(%ebp)
800059bf:	e8 0c dc ff ff       	call   800035d0 <ObjectManager_Lock>
800059c4:	a1 fc a4 00 80       	mov    0x8000a4fc,%eax
800059c9:	8b 40 4c             	mov    0x4c(%eax),%eax
800059cc:	8b 40 6c             	mov    0x6c(%eax),%eax
800059cf:	8b 58 4c             	mov    0x4c(%eax),%ebx
800059d2:	8b 4b 14             	mov    0x14(%ebx),%ecx
800059d5:	85 c9                	test   %ecx,%ecx
800059d7:	0f 84 a3 00 00 00    	je     80005a80 <MessageManager_SendMessage+0xd0>
800059dd:	8b 73 0c             	mov    0xc(%ebx),%esi
800059e0:	85 f6                	test   %esi,%esi
800059e2:	74 5c                	je     80005a40 <MessageManager_SendMessage+0x90>
800059e4:	8b 56 4c             	mov    0x4c(%esi),%edx
800059e7:	8b 79 4c             	mov    0x4c(%ecx),%edi
800059ea:	8b 42 04             	mov    0x4(%edx),%eax
800059ed:	85 c0                	test   %eax,%eax
800059ef:	75 3f                	jne    80005a30 <MessageManager_SendMessage+0x80>
800059f1:	89 4a 04             	mov    %ecx,0x4(%edx)
800059f4:	ff 02                	incl   (%edx)
800059f6:	c7 47 10 00 00 00 00 	movl   $0x0,0x10(%edi)
800059fd:	89 4a 08             	mov    %ecx,0x8(%edx)
80005a00:	c7 43 14 00 00 00 00 	movl   $0x0,0x14(%ebx)
80005a07:	e8 e4 db ff ff       	call   800035f0 <ObjectManager_Unlock>
80005a0c:	8b 46 40             	mov    0x40(%esi),%eax
80005a0f:	89 04 24             	mov    %eax,(%esp,1)
80005a12:	e8 99 ee ff ff       	call   800048b0 <ProcessManager_Awaken>
80005a17:	31 c0                	xor    %eax,%eax
80005a19:	8b 5d f4             	mov    0xfffffff4(%ebp),%ebx
80005a1c:	8b 75 f8             	mov    0xfffffff8(%ebp),%esi
80005a1f:	8b 7d fc             	mov    0xfffffffc(%ebp),%edi
80005a22:	89 ec                	mov    %ebp,%esp
80005a24:	5d                   	pop    %ebp
80005a25:	c3                   	ret    
80005a26:	8d 76 00             	lea    0x0(%esi),%esi
80005a29:	8d bc 27 00 00 00 00 	lea    0x0(%edi,1),%edi
80005a30:	8b 42 08             	mov    0x8(%edx),%eax
80005a33:	8b 40 4c             	mov    0x4c(%eax),%eax
80005a36:	89 48 10             	mov    %ecx,0x10(%eax)
80005a39:	eb b9                	jmp    800059f4 <MessageManager_SendMessage+0x44>
80005a3b:	90                   	nop    
80005a3c:	8d 74 26 00          	lea    0x0(%esi,1),%esi
80005a40:	c7 44 24 08 80 97 00 	movl   $0x80009780,0x8(%esp,1)
80005a47:	80 
80005a48:	a1 04 a5 00 80       	mov    0x8000a504,%eax
80005a4d:	c7 44 24 04 45 9a 00 	movl   $0x80009a45,0x4(%esp,1)
80005a54:	80 
80005a55:	c7 04 24 00 00 00 00 	movl   $0x0,(%esp,1)
80005a5c:	89 44 24 0c          	mov    %eax,0xc(%esp,1)
80005a60:	e8 3b 14 00 00       	call   80006ea0 <KPrint>
80005a65:	e8 86 db ff ff       	call   800035f0 <ObjectManager_Unlock>
80005a6a:	b8 fd ff ff ff       	mov    $0xfffffffd,%eax
80005a6f:	eb a8                	jmp    80005a19 <MessageManager_SendMessage+0x69>
80005a71:	eb 0d                	jmp    80005a80 <MessageManager_SendMessage+0xd0>
80005a73:	90                   	nop    
80005a74:	90                   	nop    
80005a75:	90                   	nop    
80005a76:	90                   	nop    
80005a77:	90                   	nop    
80005a78:	90                   	nop    
80005a79:	90                   	nop    
80005a7a:	90                   	nop    
80005a7b:	90                   	nop    
80005a7c:	90                   	nop    
80005a7d:	90                   	nop    
80005a7e:	90                   	nop    
80005a7f:	90                   	nop    
80005a80:	c7 44 24 08 e0 97 00 	movl   $0x800097e0,0x8(%esp,1)
80005a87:	80 
80005a88:	a1 04 a5 00 80       	mov    0x8000a504,%eax
80005a8d:	c7 44 24 04 45 9a 00 	movl   $0x80009a45,0x4(%esp,1)
80005a94:	80 
80005a95:	c7 04 24 00 00 00 00 	movl   $0x0,(%esp,1)
80005a9c:	89 44 24 0c          	mov    %eax,0xc(%esp,1)
80005aa0:	e8 fb 13 00 00       	call   80006ea0 <KPrint>
80005aa5:	e8 46 db ff ff       	call   800035f0 <ObjectManager_Unlock>
80005aaa:	b8 fb ff ff ff       	mov    $0xfffffffb,%eax
80005aaf:	e9 65 ff ff ff       	jmp    80005a19 <MessageManager_SendMessage+0x69>
80005ab4:	8d b6 00 00 00 00    	lea    0x0(%esi),%esi
80005aba:	8d bf 00 00 00 00    	lea    0x0(%edi),%edi

80005ac0 <MessageManager_Init>:
80005ac0:	55                   	push   %ebp
80005ac1:	89 e5                	mov    %esp,%ebp
80005ac3:	83 ec 18             	sub    $0x18,%esp
80005ac6:	c7 44 24 04 60 60 00 	movl   $0x80006060,0x4(%esp,1)
80005acd:	80 
80005ace:	c7 04 24 4e 9a 00 80 	movl   $0x80009a4e,(%esp,1)
80005ad5:	e8 16 0a 00 00       	call   800064f0 <ModuleManager_CreateModule>
80005ada:	c7 44 24 08 00 00 00 	movl   $0x0,0x8(%esp,1)
80005ae1:	00 
80005ae2:	c7 44 24 04 5d 9a 00 	movl   $0x80009a5d,0x4(%esp,1)
80005ae9:	80 
80005aea:	c7 04 24 4e 9a 00 80 	movl   $0x80009a4e,(%esp,1)
80005af1:	e8 0a 0b 00 00       	call   80006600 <ModuleManager_CreateModuleCall>
80005af6:	c7 44 24 08 01 00 00 	movl   $0x1,0x8(%esp,1)
80005afd:	00 
80005afe:	c7 44 24 04 6f 9a 00 	movl   $0x80009a6f,0x4(%esp,1)
80005b05:	80 
80005b06:	c7 04 24 4e 9a 00 80 	movl   $0x80009a4e,(%esp,1)
80005b0d:	e8 ee 0a 00 00       	call   80006600 <ModuleManager_CreateModuleCall>
80005b12:	c7 44 24 08 02 00 00 	movl   $0x2,0x8(%esp,1)
80005b19:	00 
80005b1a:	c7 44 24 04 85 9a 00 	movl   $0x80009a85,0x4(%esp,1)
80005b21:	80 
80005b22:	c7 04 24 4e 9a 00 80 	movl   $0x80009a4e,(%esp,1)
80005b29:	e8 d2 0a 00 00       	call   80006600 <ModuleManager_CreateModuleCall>
80005b2e:	c7 44 24 08 03 00 00 	movl   $0x3,0x8(%esp,1)
80005b35:	00 
80005b36:	c7 44 24 04 98 9a 00 	movl   $0x80009a98,0x4(%esp,1)
80005b3d:	80 
80005b3e:	c7 04 24 4e 9a 00 80 	movl   $0x80009a4e,(%esp,1)
80005b45:	e8 b6 0a 00 00       	call   80006600 <ModuleManager_CreateModuleCall>
80005b4a:	c7 44 24 08 04 00 00 	movl   $0x4,0x8(%esp,1)
80005b51:	00 
80005b52:	c7 44 24 04 a6 9a 00 	movl   $0x80009aa6,0x4(%esp,1)
80005b59:	80 
80005b5a:	c7 04 24 4e 9a 00 80 	movl   $0x80009a4e,(%esp,1)
80005b61:	e8 9a 0a 00 00       	call   80006600 <ModuleManager_CreateModuleCall>
80005b66:	c7 44 24 08 05 00 00 	movl   $0x5,0x8(%esp,1)
80005b6d:	00 
80005b6e:	c7 44 24 04 b2 9a 00 	movl   $0x80009ab2,0x4(%esp,1)
80005b75:	80 
80005b76:	c7 04 24 4e 9a 00 80 	movl   $0x80009a4e,(%esp,1)
80005b7d:	e8 7e 0a 00 00       	call   80006600 <ModuleManager_CreateModuleCall>
80005b82:	c7 44 24 08 06 00 00 	movl   $0x6,0x8(%esp,1)
80005b89:	00 
80005b8a:	c7 44 24 04 bd 9a 00 	movl   $0x80009abd,0x4(%esp,1)
80005b91:	80 
80005b92:	c7 04 24 4e 9a 00 80 	movl   $0x80009a4e,(%esp,1)
80005b99:	e8 62 0a 00 00       	call   80006600 <ModuleManager_CreateModuleCall>
80005b9e:	c7 44 24 08 ce 9a 00 	movl   $0x80009ace,0x8(%esp,1)
80005ba5:	80 
80005ba6:	c7 44 24 04 45 9a 00 	movl   $0x80009a45,0x4(%esp,1)
80005bad:	80 
80005bae:	c7 04 24 01 00 00 00 	movl   $0x1,(%esp,1)
80005bb5:	e8 e6 12 00 00       	call   80006ea0 <KPrint>
80005bba:	c9                   	leave  
80005bbb:	c3                   	ret    
80005bbc:	8d 74 26 00          	lea    0x0(%esi,1),%esi

80005bc0 <MessageManager_CreateMessagePort>:
80005bc0:	55                   	push   %ebp
80005bc1:	89 e5                	mov    %esp,%ebp
80005bc3:	83 ec 28             	sub    $0x28,%esp
80005bc6:	89 75 f8             	mov    %esi,0xfffffff8(%ebp)
80005bc9:	89 7d fc             	mov    %edi,0xfffffffc(%ebp)
80005bcc:	8b 7d 08             	mov    0x8(%ebp),%edi
80005bcf:	89 5d f4             	mov    %ebx,0xfffffff4(%ebp)
80005bd2:	e8 f9 d9 ff ff       	call   800035d0 <ObjectManager_Lock>
80005bd7:	a1 fc a4 00 80       	mov    0x8000a4fc,%eax
80005bdc:	8b 70 4c             	mov    0x4c(%eax),%esi
80005bdf:	8b 46 6c             	mov    0x6c(%esi),%eax
80005be2:	85 c0                	test   %eax,%eax
80005be4:	74 4a                	je     80005c30 <MessageManager_CreateMessagePort+0x70>
80005be6:	8b 07                	mov    (%edi),%eax
80005be8:	c7 04 24 00 00 00 00 	movl   $0x0,(%esp,1)
80005bef:	c7 44 24 08 20 98 00 	movl   $0x80009820,0x8(%esp,1)
80005bf6:	80 
80005bf7:	c7 44 24 04 45 9a 00 	movl   $0x80009a45,0x4(%esp,1)
80005bfe:	80 
80005bff:	89 44 24 10          	mov    %eax,0x10(%esp,1)
80005c03:	a1 04 a5 00 80       	mov    0x8000a504,%eax
80005c08:	89 44 24 0c          	mov    %eax,0xc(%esp,1)
80005c0c:	e8 8f 12 00 00       	call   80006ea0 <KPrint>
80005c11:	e8 da d9 ff ff       	call   800035f0 <ObjectManager_Unlock>
80005c16:	b8 ff ff ff ff       	mov    $0xffffffff,%eax
80005c1b:	8b 5d f4             	mov    0xfffffff4(%ebp),%ebx
80005c1e:	8b 75 f8             	mov    0xfffffff8(%ebp),%esi
80005c21:	8b 7d fc             	mov    0xfffffffc(%ebp),%edi
80005c24:	89 ec                	mov    %ebp,%esp
80005c26:	5d                   	pop    %ebp
80005c27:	c3                   	ret    
80005c28:	90                   	nop    
80005c29:	8d b4 26 00 00 00 00 	lea    0x0(%esi,1),%esi
80005c30:	8b 07                	mov    (%edi),%eax
80005c32:	c7 04 24 06 00 00 00 	movl   $0x6,(%esp,1)
80005c39:	c7 44 24 04 18 00 00 	movl   $0x18,0x4(%esp,1)
80005c40:	00 
80005c41:	89 44 24 08          	mov    %eax,0x8(%esp,1)
80005c45:	e8 96 d8 ff ff       	call   800034e0 <ObjectManager_CreateObject>
80005c4a:	89 c3                	mov    %eax,%ebx
80005c4c:	a1 04 a5 00 80       	mov    0x8000a504,%eax
80005c51:	89 43 34             	mov    %eax,0x34(%ebx)
80005c54:	8b 43 4c             	mov    0x4c(%ebx),%eax
80005c57:	c7 40 08 00 00 00 00 	movl   $0x0,0x8(%eax)
80005c5e:	c7 40 04 00 00 00 00 	movl   $0x0,0x4(%eax)
80005c65:	c7 40 14 00 00 00 00 	movl   $0x0,0x14(%eax)
80005c6c:	c7 00 00 00 00 00    	movl   $0x0,(%eax)
80005c72:	c7 40 10 00 00 00 00 	movl   $0x0,0x10(%eax)
80005c79:	89 5e 6c             	mov    %ebx,0x6c(%esi)
80005c7c:	e8 6f d9 ff ff       	call   800035f0 <ObjectManager_Unlock>
80005c81:	8b 43 40             	mov    0x40(%ebx),%eax
80005c84:	89 44 24 10          	mov    %eax,0x10(%esp,1)
80005c88:	8b 07                	mov    (%edi),%eax
80005c8a:	c7 04 24 00 00 00 00 	movl   $0x0,(%esp,1)
80005c91:	c7 44 24 08 60 98 00 	movl   $0x80009860,0x8(%esp,1)
80005c98:	80 
80005c99:	c7 44 24 04 45 9a 00 	movl   $0x80009a45,0x4(%esp,1)
80005ca0:	80 
80005ca1:	89 44 24 0c          	mov    %eax,0xc(%esp,1)
80005ca5:	e8 f6 11 00 00       	call   80006ea0 <KPrint>
80005caa:	31 c0                	xor    %eax,%eax
80005cac:	e9 6a ff ff ff       	jmp    80005c1b <MessageManager_CreateMessagePort+0x5b>
80005cb1:	eb 0d                	jmp    80005cc0 <MessageManager_SetMessageDestination>
80005cb3:	90                   	nop    
80005cb4:	90                   	nop    
80005cb5:	90                   	nop    
80005cb6:	90                   	nop    
80005cb7:	90                   	nop    
80005cb8:	90                   	nop    
80005cb9:	90                   	nop    
80005cba:	90                   	nop    
80005cbb:	90                   	nop    
80005cbc:	90                   	nop    
80005cbd:	90                   	nop    
80005cbe:	90                   	nop    
80005cbf:	90                   	nop    

80005cc0 <MessageManager_SetMessageDestination>:
80005cc0:	55                   	push   %ebp
80005cc1:	89 e5                	mov    %esp,%ebp
80005cc3:	83 ec 28             	sub    $0x28,%esp
80005cc6:	89 5d f8             	mov    %ebx,0xfffffff8(%ebp)
80005cc9:	89 75 fc             	mov    %esi,0xfffffffc(%ebp)
80005ccc:	8b 75 08             	mov    0x8(%ebp),%esi
80005ccf:	e8 fc d8 ff ff       	call   800035d0 <ObjectManager_Lock>
80005cd4:	a1 fc a4 00 80       	mov    0x8000a4fc,%eax
80005cd9:	8b 58 4c             	mov    0x4c(%eax),%ebx
80005cdc:	8b 43 6c             	mov    0x6c(%ebx),%eax
80005cdf:	85 c0                	test   %eax,%eax
80005ce1:	75 4d                	jne    80005d30 <MessageManager_SetMessageDestination+0x70>
80005ce3:	8b 06                	mov    (%esi),%eax
80005ce5:	c7 04 24 00 00 00 00 	movl   $0x0,(%esp,1)
80005cec:	c7 44 24 08 a0 98 00 	movl   $0x800098a0,0x8(%esp,1)
80005cf3:	80 
80005cf4:	c7 44 24 04 45 9a 00 	movl   $0x80009a45,0x4(%esp,1)
80005cfb:	80 
80005cfc:	89 44 24 10          	mov    %eax,0x10(%esp,1)
80005d00:	a1 04 a5 00 80       	mov    0x8000a504,%eax
80005d05:	89 44 24 0c          	mov    %eax,0xc(%esp,1)
80005d09:	e8 92 11 00 00       	call   80006ea0 <KPrint>
80005d0e:	e8 dd d8 ff ff       	call   800035f0 <ObjectManager_Unlock>
80005d13:	b8 fe ff ff ff       	mov    $0xfffffffe,%eax
80005d18:	8b 5d f8             	mov    0xfffffff8(%ebp),%ebx
80005d1b:	8b 75 fc             	mov    0xfffffffc(%ebp),%esi
80005d1e:	89 ec                	mov    %ebp,%esp
80005d20:	5d                   	pop    %ebp
80005d21:	c3                   	ret    
80005d22:	8d b4 26 00 00 00 00 	lea    0x0(%esi,1),%esi
80005d29:	8d bc 27 00 00 00 00 	lea    0x0(%edi,1),%edi
80005d30:	8b 06                	mov    (%esi),%eax
80005d32:	c7 04 24 00 00 00 00 	movl   $0x0,(%esp,1)
80005d39:	c7 44 24 04 06 00 00 	movl   $0x6,0x4(%esp,1)
80005d40:	00 
80005d41:	89 44 24 08          	mov    %eax,0x8(%esp,1)
80005d45:	e8 46 dc ff ff       	call   80003990 <ObjectManager_SearchNameInClass>
80005d4a:	85 c0                	test   %eax,%eax
80005d4c:	89 c1                	mov    %eax,%ecx
80005d4e:	74 3b                	je     80005d8b <MessageManager_SetMessageDestination+0xcb>
80005d50:	8b 50 4c             	mov    0x4c(%eax),%edx
80005d53:	8b 43 6c             	mov    0x6c(%ebx),%eax
80005d56:	89 42 0c             	mov    %eax,0xc(%edx)
80005d59:	8b 06                	mov    (%esi),%eax
80005d5b:	89 44 24 10          	mov    %eax,0x10(%esp,1)
80005d5f:	8b 41 40             	mov    0x40(%ecx),%eax
80005d62:	c7 04 24 00 00 00 00 	movl   $0x0,(%esp,1)
80005d69:	c7 44 24 08 e0 98 00 	movl   $0x800098e0,0x8(%esp,1)
80005d70:	80 
80005d71:	c7 44 24 04 45 9a 00 	movl   $0x80009a45,0x4(%esp,1)
80005d78:	80 
80005d79:	89 44 24 0c          	mov    %eax,0xc(%esp,1)
80005d7d:	e8 1e 11 00 00       	call   80006ea0 <KPrint>
80005d82:	e8 69 d8 ff ff       	call   800035f0 <ObjectManager_Unlock>
80005d87:	31 c0                	xor    %eax,%eax
80005d89:	eb 8d                	jmp    80005d18 <MessageManager_SetMessageDestination+0x58>
80005d8b:	8b 06                	mov    (%esi),%eax
80005d8d:	c7 04 24 00 00 00 00 	movl   $0x0,(%esp,1)
80005d94:	c7 44 24 08 20 99 00 	movl   $0x80009920,0x8(%esp,1)
80005d9b:	80 
80005d9c:	c7 44 24 04 45 9a 00 	movl   $0x80009a45,0x4(%esp,1)
80005da3:	80 
80005da4:	89 44 24 10          	mov    %eax,0x10(%esp,1)
80005da8:	a1 04 a5 00 80       	mov    0x8000a504,%eax
80005dad:	89 44 24 0c          	mov    %eax,0xc(%esp,1)
80005db1:	e8 ea 10 00 00       	call   80006ea0 <KPrint>
80005db6:	e8 35 d8 ff ff       	call   800035f0 <ObjectManager_Unlock>
80005dbb:	b8 fd ff ff ff       	mov    $0xfffffffd,%eax
80005dc0:	e9 53 ff ff ff       	jmp    80005d18 <MessageManager_SetMessageDestination+0x58>
80005dc5:	8d 74 26 00          	lea    0x0(%esi,1),%esi
80005dc9:	8d bc 27 00 00 00 00 	lea    0x0(%edi,1),%edi

80005dd0 <MessageManager_MessageQueueLength>:
80005dd0:	55                   	push   %ebp
80005dd1:	89 e5                	mov    %esp,%ebp
80005dd3:	53                   	push   %ebx
80005dd4:	83 ec 04             	sub    $0x4,%esp
80005dd7:	8b 5d 08             	mov    0x8(%ebp),%ebx
80005dda:	e8 f1 d7 ff ff       	call   800035d0 <ObjectManager_Lock>
80005ddf:	a1 fc a4 00 80       	mov    0x8000a4fc,%eax
80005de4:	8b 40 4c             	mov    0x4c(%eax),%eax
80005de7:	8b 40 6c             	mov    0x6c(%eax),%eax
80005dea:	8b 40 4c             	mov    0x4c(%eax),%eax
80005ded:	8b 08                	mov    (%eax),%ecx
80005def:	85 c9                	test   %ecx,%ecx
80005df1:	74 35                	je     80005e28 <MessageManager_MessageQueueLength+0x58>
80005df3:	c7 03 00 00 00 00    	movl   $0x0,(%ebx)
80005df9:	8b 40 04             	mov    0x4(%eax),%eax
80005dfc:	85 c0                	test   %eax,%eax
80005dfe:	8b 48 4c             	mov    0x4c(%eax),%ecx
80005e01:	74 1a                	je     80005e1d <MessageManager_MessageQueueLength+0x4d>
80005e03:	31 d2                	xor    %edx,%edx
80005e05:	8d 74 26 00          	lea    0x0(%esi,1),%esi
80005e09:	8d bc 27 00 00 00 00 	lea    0x0(%edi,1),%edi
80005e10:	8b 41 10             	mov    0x10(%ecx),%eax
80005e13:	42                   	inc    %edx
80005e14:	85 c0                	test   %eax,%eax
80005e16:	8b 48 4c             	mov    0x4c(%eax),%ecx
80005e19:	75 f5                	jne    80005e10 <MessageManager_MessageQueueLength+0x40>
80005e1b:	89 13                	mov    %edx,(%ebx)
80005e1d:	e8 ce d7 ff ff       	call   800035f0 <ObjectManager_Unlock>
80005e22:	5b                   	pop    %ebx
80005e23:	31 c0                	xor    %eax,%eax
80005e25:	5b                   	pop    %ebx
80005e26:	5d                   	pop    %ebp
80005e27:	c3                   	ret    
80005e28:	c7 03 00 00 00 00    	movl   $0x0,(%ebx)
80005e2e:	eb ed                	jmp    80005e1d <MessageManager_MessageQueueLength+0x4d>

80005e30 <MessageManager_CreateMessage>:
80005e30:	55                   	push   %ebp
80005e31:	89 e5                	mov    %esp,%ebp
80005e33:	83 ec 18             	sub    $0x18,%esp
80005e36:	89 75 fc             	mov    %esi,0xfffffffc(%ebp)
80005e39:	8b 75 08             	mov    0x8(%ebp),%esi
80005e3c:	89 5d f8             	mov    %ebx,0xfffffff8(%ebp)
80005e3f:	e8 8c d7 ff ff       	call   800035d0 <ObjectManager_Lock>
80005e44:	a1 fc a4 00 80       	mov    0x8000a4fc,%eax
80005e49:	8b 40 4c             	mov    0x4c(%eax),%eax
80005e4c:	8b 40 6c             	mov    0x6c(%eax),%eax
80005e4f:	85 c0                	test   %eax,%eax
80005e51:	0f 84 99 00 00 00    	je     80005ef0 <MessageManager_CreateMessage+0xc0>
80005e57:	8b 58 4c             	mov    0x4c(%eax),%ebx
80005e5a:	8b 43 14             	mov    0x14(%ebx),%eax
80005e5d:	85 c0                	test   %eax,%eax
80005e5f:	74 3f                	je     80005ea0 <MessageManager_CreateMessage+0x70>
80005e61:	c7 44 24 08 60 99 00 	movl   $0x80009960,0x8(%esp,1)
80005e68:	80 
80005e69:	a1 04 a5 00 80       	mov    0x8000a504,%eax
80005e6e:	c7 44 24 04 45 9a 00 	movl   $0x80009a45,0x4(%esp,1)
80005e75:	80 
80005e76:	c7 04 24 00 00 00 00 	movl   $0x0,(%esp,1)
80005e7d:	89 44 24 0c          	mov    %eax,0xc(%esp,1)
80005e81:	e8 1a 10 00 00       	call   80006ea0 <KPrint>
80005e86:	e8 65 d7 ff ff       	call   800035f0 <ObjectManager_Unlock>
80005e8b:	b8 fc ff ff ff       	mov    $0xfffffffc,%eax
80005e90:	8b 5d f8             	mov    0xfffffff8(%ebp),%ebx
80005e93:	8b 75 fc             	mov    0xfffffffc(%ebp),%esi
80005e96:	89 ec                	mov    %ebp,%esp
80005e98:	5d                   	pop    %ebp
80005e99:	c3                   	ret    
80005e9a:	8d b6 00 00 00 00    	lea    0x0(%esi),%esi
80005ea0:	c7 44 24 08 9e 9a 00 	movl   $0x80009a9e,0x8(%esp,1)
80005ea7:	80 
80005ea8:	c7 44 24 04 14 00 00 	movl   $0x14,0x4(%esp,1)
80005eaf:	00 
80005eb0:	c7 04 24 07 00 00 00 	movl   $0x7,(%esp,1)
80005eb7:	e8 24 d6 ff ff       	call   800034e0 <ObjectManager_CreateObject>
80005ebc:	89 43 14             	mov    %eax,0x14(%ebx)
80005ebf:	8b 1d 04 a5 00 80    	mov    0x8000a504,%ebx
80005ec5:	8b 48 4c             	mov    0x4c(%eax),%ecx
80005ec8:	89 58 34             	mov    %ebx,0x34(%eax)
80005ecb:	8b 06                	mov    (%esi),%eax
80005ecd:	c7 41 08 00 00 00 00 	movl   $0x0,0x8(%ecx)
80005ed4:	c7 41 0c 00 00 00 00 	movl   $0x0,0xc(%ecx)
80005edb:	89 01                	mov    %eax,(%ecx)
80005edd:	8b 46 04             	mov    0x4(%esi),%eax
80005ee0:	89 41 04             	mov    %eax,0x4(%ecx)
80005ee3:	e8 08 d7 ff ff       	call   800035f0 <ObjectManager_Unlock>
80005ee8:	31 c0                	xor    %eax,%eax
80005eea:	eb a4                	jmp    80005e90 <MessageManager_CreateMessage+0x60>
80005eec:	8d 74 26 00          	lea    0x0(%esi,1),%esi
80005ef0:	c7 44 24 08 a0 99 00 	movl   $0x800099a0,0x8(%esp,1)
80005ef7:	80 
80005ef8:	a1 04 a5 00 80       	mov    0x8000a504,%eax
80005efd:	c7 44 24 04 45 9a 00 	movl   $0x80009a45,0x4(%esp,1)
80005f04:	80 
80005f05:	c7 04 24 00 00 00 00 	movl   $0x0,(%esp,1)
80005f0c:	89 44 24 0c          	mov    %eax,0xc(%esp,1)
80005f10:	e8 8b 0f 00 00       	call   80006ea0 <KPrint>
80005f15:	e8 d6 d6 ff ff       	call   800035f0 <ObjectManager_Unlock>
80005f1a:	b8 fe ff ff ff       	mov    $0xfffffffe,%eax
80005f1f:	e9 6c ff ff ff       	jmp    80005e90 <MessageManager_CreateMessage+0x60>
80005f24:	8d b6 00 00 00 00    	lea    0x0(%esi),%esi
80005f2a:	8d bf 00 00 00 00    	lea    0x0(%edi),%edi

80005f30 <MessageManager_GetMessage>:
80005f30:	55                   	push   %ebp
80005f31:	89 e5                	mov    %esp,%ebp
80005f33:	83 ec 18             	sub    $0x18,%esp
80005f36:	89 5d fc             	mov    %ebx,0xfffffffc(%ebp)
80005f39:	8b 5d 08             	mov    0x8(%ebp),%ebx
80005f3c:	e8 8f d6 ff ff       	call   800035d0 <ObjectManager_Lock>
80005f41:	a1 fc a4 00 80       	mov    0x8000a4fc,%eax
80005f46:	8b 40 4c             	mov    0x4c(%eax),%eax
80005f49:	8b 40 6c             	mov    0x6c(%eax),%eax
80005f4c:	8b 48 4c             	mov    0x4c(%eax),%ecx
80005f4f:	8b 01                	mov    (%ecx),%eax
80005f51:	85 c0                	test   %eax,%eax
80005f53:	75 4b                	jne    80005fa0 <MessageManager_GetMessage+0x70>
80005f55:	c7 44 24 08 e0 99 00 	movl   $0x800099e0,0x8(%esp,1)
80005f5c:	80 
80005f5d:	a1 04 a5 00 80       	mov    0x8000a504,%eax
80005f62:	c7 44 24 04 45 9a 00 	movl   $0x80009a45,0x4(%esp,1)
80005f69:	80 
80005f6a:	c7 04 24 00 00 00 00 	movl   $0x0,(%esp,1)
80005f71:	89 44 24 0c          	mov    %eax,0xc(%esp,1)
80005f75:	e8 26 0f 00 00       	call   80006ea0 <KPrint>
80005f7a:	c7 43 04 00 00 00 00 	movl   $0x0,0x4(%ebx)
80005f81:	e8 6a d6 ff ff       	call   800035f0 <ObjectManager_Unlock>
80005f86:	b8 fd ff ff ff       	mov    $0xfffffffd,%eax
80005f8b:	8b 5d fc             	mov    0xfffffffc(%ebp),%ebx
80005f8e:	89 ec                	mov    %ebp,%esp
80005f90:	5d                   	pop    %ebp
80005f91:	c3                   	ret    
80005f92:	8d b4 26 00 00 00 00 	lea    0x0(%esi,1),%esi
80005f99:	8d bc 27 00 00 00 00 	lea    0x0(%edi,1),%edi
80005fa0:	8b 41 04             	mov    0x4(%ecx),%eax
80005fa3:	8b 50 4c             	mov    0x4c(%eax),%edx
80005fa6:	8b 02                	mov    (%edx),%eax
80005fa8:	89 03                	mov    %eax,(%ebx)
80005faa:	8b 42 04             	mov    0x4(%edx),%eax
80005fad:	89 43 04             	mov    %eax,0x4(%ebx)
80005fb0:	ff 09                	decl   (%ecx)
80005fb2:	c7 41 10 01 00 00 00 	movl   $0x1,0x10(%ecx)
80005fb9:	e8 32 d6 ff ff       	call   800035f0 <ObjectManager_Unlock>
80005fbe:	31 c0                	xor    %eax,%eax
80005fc0:	eb c9                	jmp    80005f8b <MessageManager_GetMessage+0x5b>
80005fc2:	8d b4 26 00 00 00 00 	lea    0x0(%esi,1),%esi
80005fc9:	8d bc 27 00 00 00 00 	lea    0x0(%edi,1),%edi

80005fd0 <MessageManager_MessageProcessed>:
80005fd0:	55                   	push   %ebp
80005fd1:	89 e5                	mov    %esp,%ebp
80005fd3:	83 ec 18             	sub    $0x18,%esp
80005fd6:	e8 f5 d5 ff ff       	call   800035d0 <ObjectManager_Lock>
80005fdb:	a1 fc a4 00 80       	mov    0x8000a4fc,%eax
80005fe0:	8b 40 4c             	mov    0x4c(%eax),%eax
80005fe3:	8b 40 6c             	mov    0x6c(%eax),%eax
80005fe6:	8b 48 4c             	mov    0x4c(%eax),%ecx
80005fe9:	8b 41 10             	mov    0x10(%ecx),%eax
80005fec:	85 c0                	test   %eax,%eax
80005fee:	75 40                	jne    80006030 <MessageManager_MessageProcessed+0x60>
80005ff0:	c7 44 24 08 20 9a 00 	movl   $0x80009a20,0x8(%esp,1)
80005ff7:	80 
80005ff8:	a1 04 a5 00 80       	mov    0x8000a504,%eax
80005ffd:	c7 44 24 04 45 9a 00 	movl   $0x80009a45,0x4(%esp,1)
80006004:	80 
80006005:	c7 04 24 00 00 00 00 	movl   $0x0,(%esp,1)
8000600c:	89 44 24 0c          	mov    %eax,0xc(%esp,1)
80006010:	e8 8b 0e 00 00       	call   80006ea0 <KPrint>
80006015:	e8 d6 d5 ff ff       	call   800035f0 <ObjectManager_Unlock>
8000601a:	b8 fd ff ff ff       	mov    $0xfffffffd,%eax
8000601f:	89 ec                	mov    %ebp,%esp
80006021:	5d                   	pop    %ebp
80006022:	c3                   	ret    
80006023:	8d b6 00 00 00 00    	lea    0x0(%esi),%esi
80006029:	8d bc 27 00 00 00 00 	lea    0x0(%edi,1),%edi
80006030:	c7 41 10 00 00 00 00 	movl   $0x0,0x10(%ecx)
80006037:	8b 41 04             	mov    0x4(%ecx),%eax
8000603a:	8b 50 4c             	mov    0x4c(%eax),%edx
8000603d:	8b 52 10             	mov    0x10(%edx),%edx
80006040:	89 51 04             	mov    %edx,0x4(%ecx)
80006043:	89 04 24             	mov    %eax,(%esp,1)
80006046:	e8 a5 d8 ff ff       	call   800038f0 <ObjectManager_DeleteObject>
8000604b:	e8 a0 d5 ff ff       	call   800035f0 <ObjectManager_Unlock>
80006050:	31 c0                	xor    %eax,%eax
80006052:	eb cb                	jmp    8000601f <MessageManager_MessageProcessed+0x4f>
80006054:	8d b6 00 00 00 00    	lea    0x0(%esi),%esi
8000605a:	8d bf 00 00 00 00    	lea    0x0(%edi),%edi

80006060 <MessageManager_Handler>:
80006060:	55                   	push   %ebp
80006061:	89 e5                	mov    %esp,%ebp
80006063:	83 ec 28             	sub    $0x28,%esp
80006066:	89 75 f8             	mov    %esi,0xfffffff8(%ebp)
80006069:	8b 55 08             	mov    0x8(%ebp),%edx
8000606c:	b8 fc ff ff ff       	mov    $0xfffffffc,%eax
80006071:	89 5d f4             	mov    %ebx,0xfffffff4(%ebp)
80006074:	8b 75 0c             	mov    0xc(%ebp),%esi
80006077:	89 7d fc             	mov    %edi,0xfffffffc(%ebp)
8000607a:	83 fa 06             	cmp    $0x6,%edx
8000607d:	77 51                	ja     800060d0 <MessageManager_Handler+0x70>
8000607f:	ff 24 95 ec 9a 00 80 	jmp    *0x80009aec(,%edx,4)
80006086:	e8 45 d5 ff ff       	call   800035d0 <ObjectManager_Lock>
8000608b:	a1 fc a4 00 80       	mov    0x8000a4fc,%eax
80006090:	8b 78 4c             	mov    0x4c(%eax),%edi
80006093:	8b 47 6c             	mov    0x6c(%edi),%eax
80006096:	85 c0                	test   %eax,%eax
80006098:	74 43                	je     800060dd <MessageManager_Handler+0x7d>
8000609a:	8b 06                	mov    (%esi),%eax
8000609c:	89 44 24 10          	mov    %eax,0x10(%esp,1)
800060a0:	a1 04 a5 00 80       	mov    0x8000a504,%eax
800060a5:	c7 04 24 00 00 00 00 	movl   $0x0,(%esp,1)
800060ac:	c7 44 24 08 20 98 00 	movl   $0x80009820,0x8(%esp,1)
800060b3:	80 
800060b4:	c7 44 24 04 45 9a 00 	movl   $0x80009a45,0x4(%esp,1)
800060bb:	80 
800060bc:	89 44 24 0c          	mov    %eax,0xc(%esp,1)
800060c0:	e8 db 0d 00 00       	call   80006ea0 <KPrint>
800060c5:	e8 26 d5 ff ff       	call   800035f0 <ObjectManager_Unlock>
800060ca:	b8 ff ff ff ff       	mov    $0xffffffff,%eax
800060cf:	90                   	nop    
800060d0:	8b 5d f4             	mov    0xfffffff4(%ebp),%ebx
800060d3:	8b 75 f8             	mov    0xfffffff8(%ebp),%esi
800060d6:	8b 7d fc             	mov    0xfffffffc(%ebp),%edi
800060d9:	89 ec                	mov    %ebp,%esp
800060db:	5d                   	pop    %ebp
800060dc:	c3                   	ret    
800060dd:	8b 06                	mov    (%esi),%eax
800060df:	c7 04 24 06 00 00 00 	movl   $0x6,(%esp,1)
800060e6:	c7 44 24 04 18 00 00 	movl   $0x18,0x4(%esp,1)
800060ed:	00 
800060ee:	89 44 24 08          	mov    %eax,0x8(%esp,1)
800060f2:	e8 e9 d3 ff ff       	call   800034e0 <ObjectManager_CreateObject>
800060f7:	89 c3                	mov    %eax,%ebx
800060f9:	a1 04 a5 00 80       	mov    0x8000a504,%eax
800060fe:	89 43 34             	mov    %eax,0x34(%ebx)
80006101:	8b 43 4c             	mov    0x4c(%ebx),%eax
80006104:	c7 40 08 00 00 00 00 	movl   $0x0,0x8(%eax)
8000610b:	c7 40 04 00 00 00 00 	movl   $0x0,0x4(%eax)
80006112:	c7 40 14 00 00 00 00 	movl   $0x0,0x14(%eax)
80006119:	c7 00 00 00 00 00    	movl   $0x0,(%eax)
8000611f:	c7 40 10 00 00 00 00 	movl   $0x0,0x10(%eax)
80006126:	89 5f 6c             	mov    %ebx,0x6c(%edi)
80006129:	e8 c2 d4 ff ff       	call   800035f0 <ObjectManager_Unlock>
8000612e:	8b 43 40             	mov    0x40(%ebx),%eax
80006131:	89 44 24 10          	mov    %eax,0x10(%esp,1)
80006135:	8b 06                	mov    (%esi),%eax
80006137:	c7 04 24 00 00 00 00 	movl   $0x0,(%esp,1)
8000613e:	c7 44 24 08 60 98 00 	movl   $0x80009860,0x8(%esp,1)
80006145:	80 
80006146:	c7 44 24 04 45 9a 00 	movl   $0x80009a45,0x4(%esp,1)
8000614d:	80 
8000614e:	89 44 24 0c          	mov    %eax,0xc(%esp,1)
80006152:	e8 49 0d 00 00       	call   80006ea0 <KPrint>
80006157:	89 f6                	mov    %esi,%esi
80006159:	8d bc 27 00 00 00 00 	lea    0x0(%edi,1),%edi
80006160:	31 c0                	xor    %eax,%eax
80006162:	e9 69 ff ff ff       	jmp    800060d0 <MessageManager_Handler+0x70>
80006167:	e8 64 d4 ff ff       	call   800035d0 <ObjectManager_Lock>
8000616c:	a1 fc a4 00 80       	mov    0x8000a4fc,%eax
80006171:	8b 58 4c             	mov    0x4c(%eax),%ebx
80006174:	8b 43 6c             	mov    0x6c(%ebx),%eax
80006177:	85 c0                	test   %eax,%eax
80006179:	75 3a                	jne    800061b5 <MessageManager_Handler+0x155>
8000617b:	8b 06                	mov    (%esi),%eax
8000617d:	89 44 24 10          	mov    %eax,0x10(%esp,1)
80006181:	a1 04 a5 00 80       	mov    0x8000a504,%eax
80006186:	c7 04 24 00 00 00 00 	movl   $0x0,(%esp,1)
8000618d:	c7 44 24 08 a0 98 00 	movl   $0x800098a0,0x8(%esp,1)
80006194:	80 
80006195:	c7 44 24 04 45 9a 00 	movl   $0x80009a45,0x4(%esp,1)
8000619c:	80 
8000619d:	89 44 24 0c          	mov    %eax,0xc(%esp,1)
800061a1:	e8 fa 0c 00 00       	call   80006ea0 <KPrint>
800061a6:	e8 45 d4 ff ff       	call   800035f0 <ObjectManager_Unlock>
800061ab:	b8 fe ff ff ff       	mov    $0xfffffffe,%eax
800061b0:	e9 1b ff ff ff       	jmp    800060d0 <MessageManager_Handler+0x70>
800061b5:	8b 06                	mov    (%esi),%eax
800061b7:	c7 04 24 00 00 00 00 	movl   $0x0,(%esp,1)
800061be:	c7 44 24 04 06 00 00 	movl   $0x6,0x4(%esp,1)
800061c5:	00 
800061c6:	89 44 24 08          	mov    %eax,0x8(%esp,1)
800061ca:	e8 c1 d7 ff ff       	call   80003990 <ObjectManager_SearchNameInClass>
800061cf:	85 c0                	test   %eax,%eax
800061d1:	89 c1                	mov    %eax,%ecx
800061d3:	74 45                	je     8000621a <MessageManager_Handler+0x1ba>
800061d5:	8b 78 4c             	mov    0x4c(%eax),%edi
800061d8:	8b 43 6c             	mov    0x6c(%ebx),%eax
800061db:	89 47 0c             	mov    %eax,0xc(%edi)
800061de:	8b 06                	mov    (%esi),%eax
800061e0:	89 44 24 10          	mov    %eax,0x10(%esp,1)
800061e4:	8b 41 40             	mov    0x40(%ecx),%eax
800061e7:	c7 04 24 00 00 00 00 	movl   $0x0,(%esp,1)
800061ee:	c7 44 24 08 e0 98 00 	movl   $0x800098e0,0x8(%esp,1)
800061f5:	80 
800061f6:	c7 44 24 04 45 9a 00 	movl   $0x80009a45,0x4(%esp,1)
800061fd:	80 
800061fe:	89 44 24 0c          	mov    %eax,0xc(%esp,1)
80006202:	e8 99 0c 00 00       	call   80006ea0 <KPrint>
80006207:	89 f6                	mov    %esi,%esi
80006209:	8d bc 27 00 00 00 00 	lea    0x0(%edi,1),%edi
80006210:	e8 db d3 ff ff       	call   800035f0 <ObjectManager_Unlock>
80006215:	e9 46 ff ff ff       	jmp    80006160 <MessageManager_Handler+0x100>
8000621a:	8b 06                	mov    (%esi),%eax
8000621c:	89 44 24 10          	mov    %eax,0x10(%esp,1)
80006220:	a1 04 a5 00 80       	mov    0x8000a504,%eax
80006225:	c7 04 24 00 00 00 00 	movl   $0x0,(%esp,1)
8000622c:	c7 44 24 08 20 99 00 	movl   $0x80009920,0x8(%esp,1)
80006233:	80 
80006234:	c7 44 24 04 45 9a 00 	movl   $0x80009a45,0x4(%esp,1)
8000623b:	80 
8000623c:	89 44 24 0c          	mov    %eax,0xc(%esp,1)
80006240:	e8 5b 0c 00 00       	call   80006ea0 <KPrint>
80006245:	e8 a6 d3 ff ff       	call   800035f0 <ObjectManager_Unlock>
8000624a:	b8 fd ff ff ff       	mov    $0xfffffffd,%eax
8000624f:	e9 7c fe ff ff       	jmp    800060d0 <MessageManager_Handler+0x70>
80006254:	e8 77 d3 ff ff       	call   800035d0 <ObjectManager_Lock>
80006259:	a1 fc a4 00 80       	mov    0x8000a4fc,%eax
8000625e:	8b 40 4c             	mov    0x4c(%eax),%eax
80006261:	8b 40 6c             	mov    0x6c(%eax),%eax
80006264:	8b 40 4c             	mov    0x4c(%eax),%eax
80006267:	8b 08                	mov    (%eax),%ecx
80006269:	85 c9                	test   %ecx,%ecx
8000626b:	74 22                	je     8000628f <MessageManager_Handler+0x22f>
8000626d:	c7 06 00 00 00 00    	movl   $0x0,(%esi)
80006273:	8b 40 04             	mov    0x4(%eax),%eax
80006276:	85 c0                	test   %eax,%eax
80006278:	8b 48 4c             	mov    0x4c(%eax),%ecx
8000627b:	74 93                	je     80006210 <MessageManager_Handler+0x1b0>
8000627d:	31 d2                	xor    %edx,%edx
8000627f:	90                   	nop    
80006280:	8b 41 10             	mov    0x10(%ecx),%eax
80006283:	42                   	inc    %edx
80006284:	85 c0                	test   %eax,%eax
80006286:	8b 48 4c             	mov    0x4c(%eax),%ecx
80006289:	75 f5                	jne    80006280 <MessageManager_Handler+0x220>
8000628b:	89 16                	mov    %edx,(%esi)
8000628d:	eb 81                	jmp    80006210 <MessageManager_Handler+0x1b0>
8000628f:	c7 06 00 00 00 00    	movl   $0x0,(%esi)
80006295:	e9 76 ff ff ff       	jmp    80006210 <MessageManager_Handler+0x1b0>
8000629a:	e8 31 d3 ff ff       	call   800035d0 <ObjectManager_Lock>
8000629f:	a1 fc a4 00 80       	mov    0x8000a4fc,%eax
800062a4:	8b 40 4c             	mov    0x4c(%eax),%eax
800062a7:	8b 40 6c             	mov    0x6c(%eax),%eax
800062aa:	85 c0                	test   %eax,%eax
800062ac:	0f 84 86 00 00 00    	je     80006338 <MessageManager_Handler+0x2d8>
800062b2:	8b 58 4c             	mov    0x4c(%eax),%ebx
800062b5:	8b 43 14             	mov    0x14(%ebx),%eax
800062b8:	85 c0                	test   %eax,%eax
800062ba:	74 34                	je     800062f0 <MessageManager_Handler+0x290>
800062bc:	a1 04 a5 00 80       	mov    0x8000a504,%eax
800062c1:	c7 04 24 00 00 00 00 	movl   $0x0,(%esp,1)
800062c8:	c7 44 24 08 60 99 00 	movl   $0x80009960,0x8(%esp,1)
800062cf:	80 
800062d0:	c7 44 24 04 45 9a 00 	movl   $0x80009a45,0x4(%esp,1)
800062d7:	80 
800062d8:	89 44 24 0c          	mov    %eax,0xc(%esp,1)
800062dc:	e8 bf 0b 00 00       	call   80006ea0 <KPrint>
800062e1:	e8 0a d3 ff ff       	call   800035f0 <ObjectManager_Unlock>
800062e6:	b8 fc ff ff ff       	mov    $0xfffffffc,%eax
800062eb:	e9 e0 fd ff ff       	jmp    800060d0 <MessageManager_Handler+0x70>
800062f0:	c7 44 24 08 9e 9a 00 	movl   $0x80009a9e,0x8(%esp,1)
800062f7:	80 
800062f8:	c7 44 24 04 14 00 00 	movl   $0x14,0x4(%esp,1)
800062ff:	00 
80006300:	c7 04 24 07 00 00 00 	movl   $0x7,(%esp,1)
80006307:	e8 d4 d1 ff ff       	call   800034e0 <ObjectManager_CreateObject>
8000630c:	8b 3d 04 a5 00 80    	mov    0x8000a504,%edi
80006312:	89 43 14             	mov    %eax,0x14(%ebx)
80006315:	8b 58 4c             	mov    0x4c(%eax),%ebx
80006318:	89 78 34             	mov    %edi,0x34(%eax)
8000631b:	8b 06                	mov    (%esi),%eax
8000631d:	c7 43 08 00 00 00 00 	movl   $0x0,0x8(%ebx)
80006324:	c7 43 0c 00 00 00 00 	movl   $0x0,0xc(%ebx)
8000632b:	89 03                	mov    %eax,(%ebx)
8000632d:	8b 46 04             	mov    0x4(%esi),%eax
80006330:	89 43 04             	mov    %eax,0x4(%ebx)
80006333:	e9 d8 fe ff ff       	jmp    80006210 <MessageManager_Handler+0x1b0>
80006338:	a1 04 a5 00 80       	mov    0x8000a504,%eax
8000633d:	c7 04 24 00 00 00 00 	movl   $0x0,(%esp,1)
80006344:	c7 44 24 08 a0 99 00 	movl   $0x800099a0,0x8(%esp,1)
8000634b:	80 
8000634c:	c7 44 24 04 45 9a 00 	movl   $0x80009a45,0x4(%esp,1)
80006353:	80 
80006354:	89 44 24 0c          	mov    %eax,0xc(%esp,1)
80006358:	e8 43 0b 00 00       	call   80006ea0 <KPrint>
8000635d:	e9 44 fe ff ff       	jmp    800061a6 <MessageManager_Handler+0x146>
80006362:	8b 5d f4             	mov    0xfffffff4(%ebp),%ebx
80006365:	8b 75 f8             	mov    0xfffffff8(%ebp),%esi
80006368:	8b 7d fc             	mov    0xfffffffc(%ebp),%edi
8000636b:	89 ec                	mov    %ebp,%esp
8000636d:	5d                   	pop    %ebp
8000636e:	e9 3d f6 ff ff       	jmp    800059b0 <MessageManager_SendMessage>
80006373:	e8 58 d2 ff ff       	call   800035d0 <ObjectManager_Lock>
80006378:	a1 fc a4 00 80       	mov    0x8000a4fc,%eax
8000637d:	8b 40 4c             	mov    0x4c(%eax),%eax
80006380:	8b 40 6c             	mov    0x6c(%eax),%eax
80006383:	8b 48 4c             	mov    0x4c(%eax),%ecx
80006386:	8b 01                	mov    (%ecx),%eax
80006388:	85 c0                	test   %eax,%eax
8000638a:	75 31                	jne    800063bd <MessageManager_Handler+0x35d>
8000638c:	a1 04 a5 00 80       	mov    0x8000a504,%eax
80006391:	c7 04 24 00 00 00 00 	movl   $0x0,(%esp,1)
80006398:	c7 44 24 08 e0 99 00 	movl   $0x800099e0,0x8(%esp,1)
8000639f:	80 
800063a0:	c7 44 24 04 45 9a 00 	movl   $0x80009a45,0x4(%esp,1)
800063a7:	80 
800063a8:	89 44 24 0c          	mov    %eax,0xc(%esp,1)
800063ac:	e8 ef 0a 00 00       	call   80006ea0 <KPrint>
800063b1:	c7 46 04 00 00 00 00 	movl   $0x0,0x4(%esi)
800063b8:	e9 88 fe ff ff       	jmp    80006245 <MessageManager_Handler+0x1e5>
800063bd:	8b 41 04             	mov    0x4(%ecx),%eax
800063c0:	8b 58 4c             	mov    0x4c(%eax),%ebx
800063c3:	8b 03                	mov    (%ebx),%eax
800063c5:	89 06                	mov    %eax,(%esi)
800063c7:	8b 43 04             	mov    0x4(%ebx),%eax
800063ca:	89 46 04             	mov    %eax,0x4(%esi)
800063cd:	ff 09                	decl   (%ecx)
800063cf:	c7 41 10 01 00 00 00 	movl   $0x1,0x10(%ecx)
800063d6:	e9 35 fe ff ff       	jmp    80006210 <MessageManager_Handler+0x1b0>
800063db:	e8 f0 d1 ff ff       	call   800035d0 <ObjectManager_Lock>
800063e0:	a1 fc a4 00 80       	mov    0x8000a4fc,%eax
800063e5:	8b 40 4c             	mov    0x4c(%eax),%eax
800063e8:	8b 40 6c             	mov    0x6c(%eax),%eax
800063eb:	8b 48 4c             	mov    0x4c(%eax),%ecx
800063ee:	8b 41 10             	mov    0x10(%ecx),%eax
800063f1:	85 c0                	test   %eax,%eax
800063f3:	75 2a                	jne    8000641f <MessageManager_Handler+0x3bf>
800063f5:	a1 04 a5 00 80       	mov    0x8000a504,%eax
800063fa:	c7 04 24 00 00 00 00 	movl   $0x0,(%esp,1)
80006401:	c7 44 24 08 20 9a 00 	movl   $0x80009a20,0x8(%esp,1)
80006408:	80 
80006409:	c7 44 24 04 45 9a 00 	movl   $0x80009a45,0x4(%esp,1)
80006410:	80 
80006411:	89 44 24 0c          	mov    %eax,0xc(%esp,1)
80006415:	e8 86 0a 00 00       	call   80006ea0 <KPrint>
8000641a:	e9 26 fe ff ff       	jmp    80006245 <MessageManager_Handler+0x1e5>
8000641f:	c7 41 10 00 00 00 00 	movl   $0x0,0x10(%ecx)
80006426:	8b 41 04             	mov    0x4(%ecx),%eax
80006429:	8b 78 4c             	mov    0x4c(%eax),%edi
8000642c:	8b 77 10             	mov    0x10(%edi),%esi
8000642f:	89 71 04             	mov    %esi,0x4(%ecx)
80006432:	89 04 24             	mov    %eax,(%esp,1)
80006435:	e8 b6 d4 ff ff       	call   800038f0 <ObjectManager_DeleteObject>
8000643a:	e9 d1 fd ff ff       	jmp    80006210 <MessageManager_Handler+0x1b0>
	...

80006440 <ModuleManager_Init>:
80006440:	55                   	push   %ebp
80006441:	89 e5                	mov    %esp,%ebp
80006443:	31 d2                	xor    %edx,%edx
80006445:	83 ec 18             	sub    $0x18,%esp
80006448:	89 15 24 a5 00 80    	mov    %edx,0x8000a524
8000644e:	c7 44 24 04 4f 13 00 	movl   $0x8000134f,0x4(%esp,1)
80006455:	80 
80006456:	c7 04 24 80 00 00 00 	movl   $0x80,(%esp,1)
8000645d:	e8 8e 13 00 00       	call   800077f0 <Descriptor_SetInterruptGate>
80006462:	c7 44 24 04 b0 13 00 	movl   $0x800013b0,0x4(%esp,1)
80006469:	80 
8000646a:	c7 04 24 81 00 00 00 	movl   $0x81,(%esp,1)
80006471:	e8 7a 13 00 00       	call   800077f0 <Descriptor_SetInterruptGate>
80006476:	c7 44 24 04 11 14 00 	movl   $0x80001411,0x4(%esp,1)
8000647d:	80 
8000647e:	c7 04 24 82 00 00 00 	movl   $0x82,(%esp,1)
80006485:	e8 66 13 00 00       	call   800077f0 <Descriptor_SetInterruptGate>
8000648a:	c7 44 24 04 73 14 00 	movl   $0x80001473,0x4(%esp,1)
80006491:	80 
80006492:	c7 04 24 83 00 00 00 	movl   $0x83,(%esp,1)
80006499:	e8 52 13 00 00       	call   800077f0 <Descriptor_SetInterruptGate>
8000649e:	c7 44 24 04 d6 14 00 	movl   $0x800014d6,0x4(%esp,1)
800064a5:	80 
800064a6:	c7 04 24 84 00 00 00 	movl   $0x84,(%esp,1)
800064ad:	e8 3e 13 00 00       	call   800077f0 <Descriptor_SetInterruptGate>
800064b2:	c7 44 24 04 38 15 00 	movl   $0x80001538,0x4(%esp,1)
800064b9:	80 
800064ba:	c7 04 24 85 00 00 00 	movl   $0x85,(%esp,1)
800064c1:	e8 2a 13 00 00       	call   800077f0 <Descriptor_SetInterruptGate>
800064c6:	c7 44 24 08 08 9b 00 	movl   $0x80009b08,0x8(%esp,1)
800064cd:	80 
800064ce:	c7 44 24 04 24 9b 00 	movl   $0x80009b24,0x4(%esp,1)
800064d5:	80 
800064d6:	c7 04 24 01 00 00 00 	movl   $0x1,(%esp,1)
800064dd:	e8 be 09 00 00       	call   80006ea0 <KPrint>
800064e2:	89 ec                	mov    %ebp,%esp
800064e4:	5d                   	pop    %ebp
800064e5:	c3                   	ret    
800064e6:	8d 76 00             	lea    0x0(%esi),%esi
800064e9:	8d bc 27 00 00 00 00 	lea    0x0(%edi,1),%edi

800064f0 <ModuleManager_CreateModule>:
800064f0:	55                   	push   %ebp
800064f1:	89 e5                	mov    %esp,%ebp
800064f3:	83 ec 28             	sub    $0x28,%esp
800064f6:	89 75 fc             	mov    %esi,0xfffffffc(%ebp)
800064f9:	8b 75 08             	mov    0x8(%ebp),%esi
800064fc:	89 5d f8             	mov    %ebx,0xfffffff8(%ebp)
800064ff:	e8 cc d0 ff ff       	call   800035d0 <ObjectManager_Lock>
80006504:	c7 44 24 04 04 00 00 	movl   $0x4,0x4(%esp,1)
8000650b:	00 
8000650c:	89 74 24 08          	mov    %esi,0x8(%esp,1)
80006510:	c7 04 24 04 00 00 00 	movl   $0x4,(%esp,1)
80006517:	e8 c4 cf ff ff       	call   800034e0 <ObjectManager_CreateObject>
8000651c:	89 c3                	mov    %eax,%ebx
8000651e:	a1 24 a5 00 80       	mov    0x8000a524,%eax
80006523:	8b 4b 4c             	mov    0x4c(%ebx),%ecx
80006526:	89 43 34             	mov    %eax,0x34(%ebx)
80006529:	8b 45 0c             	mov    0xc(%ebp),%eax
8000652c:	ff 05 24 a5 00 80    	incl   0x8000a524
80006532:	89 01                	mov    %eax,(%ecx)
80006534:	e8 b7 d0 ff ff       	call   800035f0 <ObjectManager_Unlock>
80006539:	8b 43 34             	mov    0x34(%ebx),%eax
8000653c:	c7 04 24 00 00 00 00 	movl   $0x0,(%esp,1)
80006543:	89 74 24 0c          	mov    %esi,0xc(%esp,1)
80006547:	c7 44 24 08 2c 9b 00 	movl   $0x80009b2c,0x8(%esp,1)
8000654e:	80 
8000654f:	89 44 24 10          	mov    %eax,0x10(%esp,1)
80006553:	c7 44 24 04 24 9b 00 	movl   $0x80009b24,0x4(%esp,1)
8000655a:	80 
8000655b:	e8 40 09 00 00       	call   80006ea0 <KPrint>
80006560:	8b 75 fc             	mov    0xfffffffc(%ebp),%esi
80006563:	31 c0                	xor    %eax,%eax
80006565:	8b 5d f8             	mov    0xfffffff8(%ebp),%ebx
80006568:	89 ec                	mov    %ebp,%esp
8000656a:	5d                   	pop    %ebp
8000656b:	c3                   	ret    
8000656c:	8d 74 26 00          	lea    0x0(%esi,1),%esi

80006570 <ModuleManager_CreateModuleInt>:
80006570:	55                   	push   %ebp
80006571:	89 e5                	mov    %esp,%ebp
80006573:	83 ec 28             	sub    $0x28,%esp
80006576:	89 75 f8             	mov    %esi,0xfffffff8(%ebp)
80006579:	8b 75 08             	mov    0x8(%ebp),%esi
8000657c:	89 5d f4             	mov    %ebx,0xfffffff4(%ebp)
8000657f:	89 7d fc             	mov    %edi,0xfffffffc(%ebp)
80006582:	8b 3d 10 a5 00 80    	mov    0x8000a510,%edi
80006588:	e8 43 d0 ff ff       	call   800035d0 <ObjectManager_Lock>
8000658d:	89 74 24 08          	mov    %esi,0x8(%esp,1)
80006591:	c7 44 24 04 04 00 00 	movl   $0x4,0x4(%esp,1)
80006598:	00 
80006599:	c7 04 24 04 00 00 00 	movl   $0x4,(%esp,1)
800065a0:	e8 3b cf ff ff       	call   800034e0 <ObjectManager_CreateObject>
800065a5:	89 c3                	mov    %eax,%ebx
800065a7:	a1 24 a5 00 80       	mov    0x8000a524,%eax
800065ac:	8b 4b 4c             	mov    0x4c(%ebx),%ecx
800065af:	89 43 34             	mov    %eax,0x34(%ebx)
800065b2:	8b 45 0c             	mov    0xc(%ebp),%eax
800065b5:	ff 05 24 a5 00 80    	incl   0x8000a524
800065bb:	89 01                	mov    %eax,(%ecx)
800065bd:	e8 2e d0 ff ff       	call   800035f0 <ObjectManager_Unlock>
800065c2:	8b 43 34             	mov    0x34(%ebx),%eax
800065c5:	c7 04 24 00 00 00 00 	movl   $0x0,(%esp,1)
800065cc:	89 74 24 0c          	mov    %esi,0xc(%esp,1)
800065d0:	c7 44 24 08 2c 9b 00 	movl   $0x80009b2c,0x8(%esp,1)
800065d7:	80 
800065d8:	89 44 24 10          	mov    %eax,0x10(%esp,1)
800065dc:	c7 44 24 04 24 9b 00 	movl   $0x80009b24,0x4(%esp,1)
800065e3:	80 
800065e4:	e8 b7 08 00 00       	call   80006ea0 <KPrint>
800065e9:	c7 47 18 00 00 00 00 	movl   $0x0,0x18(%edi)
800065f0:	8b 5d f4             	mov    0xfffffff4(%ebp),%ebx
800065f3:	8b 75 f8             	mov    0xfffffff8(%ebp),%esi
800065f6:	8b 7d fc             	mov    0xfffffffc(%ebp),%edi
800065f9:	89 ec                	mov    %ebp,%esp
800065fb:	5d                   	pop    %ebp
800065fc:	c3                   	ret    
800065fd:	8d 76 00             	lea    0x0(%esi),%esi

80006600 <ModuleManager_CreateModuleCall>:
80006600:	55                   	push   %ebp
80006601:	89 e5                	mov    %esp,%ebp
80006603:	83 ec 28             	sub    $0x28,%esp
80006606:	89 5d f4             	mov    %ebx,0xfffffff4(%ebp)
80006609:	8b 5d 08             	mov    0x8(%ebp),%ebx
8000660c:	89 75 f8             	mov    %esi,0xfffffff8(%ebp)
8000660f:	89 7d fc             	mov    %edi,0xfffffffc(%ebp)
80006612:	8b 7d 10             	mov    0x10(%ebp),%edi
80006615:	e8 b6 cf ff ff       	call   800035d0 <ObjectManager_Lock>
8000661a:	89 5c 24 08          	mov    %ebx,0x8(%esp,1)
8000661e:	c7 44 24 04 04 00 00 	movl   $0x4,0x4(%esp,1)
80006625:	00 
80006626:	c7 04 24 00 00 00 00 	movl   $0x0,(%esp,1)
8000662d:	e8 5e d3 ff ff       	call   80003990 <ObjectManager_SearchNameInClass>
80006632:	85 c0                	test   %eax,%eax
80006634:	89 c6                	mov    %eax,%esi
80006636:	74 68                	je     800066a0 <ModuleManager_CreateModuleCall+0xa0>
80006638:	c7 44 24 04 00 00 00 	movl   $0x0,0x4(%esp,1)
8000663f:	00 
80006640:	8b 45 0c             	mov    0xc(%ebp),%eax
80006643:	c7 04 24 05 00 00 00 	movl   $0x5,(%esp,1)
8000664a:	89 44 24 08          	mov    %eax,0x8(%esp,1)
8000664e:	e8 8d ce ff ff       	call   800034e0 <ObjectManager_CreateObject>
80006653:	89 c3                	mov    %eax,%ebx
80006655:	8b 46 34             	mov    0x34(%esi),%eax
80006658:	89 7b 38             	mov    %edi,0x38(%ebx)
8000665b:	89 43 34             	mov    %eax,0x34(%ebx)
8000665e:	e8 8d cf ff ff       	call   800035f0 <ObjectManager_Unlock>
80006663:	89 7c 24 14          	mov    %edi,0x14(%esp,1)
80006667:	8b 43 34             	mov    0x34(%ebx),%eax
8000666a:	c7 04 24 00 00 00 00 	movl   $0x0,(%esp,1)
80006671:	c7 44 24 08 a0 9b 00 	movl   $0x80009ba0,0x8(%esp,1)
80006678:	80 
80006679:	c7 44 24 04 24 9b 00 	movl   $0x80009b24,0x4(%esp,1)
80006680:	80 
80006681:	89 44 24 10          	mov    %eax,0x10(%esp,1)
80006685:	8b 45 0c             	mov    0xc(%ebp),%eax
80006688:	89 44 24 0c          	mov    %eax,0xc(%esp,1)
8000668c:	e8 0f 08 00 00       	call   80006ea0 <KPrint>
80006691:	31 c0                	xor    %eax,%eax
80006693:	8b 5d f4             	mov    0xfffffff4(%ebp),%ebx
80006696:	8b 75 f8             	mov    0xfffffff8(%ebp),%esi
80006699:	8b 7d fc             	mov    0xfffffffc(%ebp),%edi
8000669c:	89 ec                	mov    %ebp,%esp
8000669e:	5d                   	pop    %ebp
8000669f:	c3                   	ret    
800066a0:	e8 4b cf ff ff       	call   800035f0 <ObjectManager_Unlock>
800066a5:	c7 04 24 00 00 00 00 	movl   $0x0,(%esp,1)
800066ac:	89 5c 24 0c          	mov    %ebx,0xc(%esp,1)
800066b0:	c7 44 24 08 46 9b 00 	movl   $0x80009b46,0x8(%esp,1)
800066b7:	80 
800066b8:	c7 44 24 04 24 9b 00 	movl   $0x80009b24,0x4(%esp,1)
800066bf:	80 
800066c0:	e8 db 07 00 00       	call   80006ea0 <KPrint>
800066c5:	b8 fe ff ff ff       	mov    $0xfffffffe,%eax
800066ca:	eb c7                	jmp    80006693 <ModuleManager_CreateModuleCall+0x93>
800066cc:	8d 74 26 00          	lea    0x0(%esi,1),%esi

800066d0 <ModuleManager_CreateModuleCallInt>:
800066d0:	55                   	push   %ebp
800066d1:	89 e5                	mov    %esp,%ebp
800066d3:	57                   	push   %edi
800066d4:	56                   	push   %esi
800066d5:	53                   	push   %ebx
800066d6:	83 ec 1c             	sub    $0x1c,%esp
800066d9:	a1 10 a5 00 80       	mov    0x8000a510,%eax
800066de:	8b 5d 08             	mov    0x8(%ebp),%ebx
800066e1:	8b 7d 10             	mov    0x10(%ebp),%edi
800066e4:	89 45 f0             	mov    %eax,0xfffffff0(%ebp)
800066e7:	e8 e4 ce ff ff       	call   800035d0 <ObjectManager_Lock>
800066ec:	89 5c 24 08          	mov    %ebx,0x8(%esp,1)
800066f0:	c7 44 24 04 04 00 00 	movl   $0x4,0x4(%esp,1)
800066f7:	00 
800066f8:	c7 04 24 00 00 00 00 	movl   $0x0,(%esp,1)
800066ff:	e8 8c d2 ff ff       	call   80003990 <ObjectManager_SearchNameInClass>
80006704:	85 c0                	test   %eax,%eax
80006706:	89 c6                	mov    %eax,%esi
80006708:	74 76                	je     80006780 <ModuleManager_CreateModuleCallInt+0xb0>
8000670a:	c7 44 24 04 00 00 00 	movl   $0x0,0x4(%esp,1)
80006711:	00 
80006712:	8b 45 0c             	mov    0xc(%ebp),%eax
80006715:	c7 04 24 05 00 00 00 	movl   $0x5,(%esp,1)
8000671c:	89 44 24 08          	mov    %eax,0x8(%esp,1)
80006720:	e8 bb cd ff ff       	call   800034e0 <ObjectManager_CreateObject>
80006725:	89 c3                	mov    %eax,%ebx
80006727:	8b 46 34             	mov    0x34(%esi),%eax
8000672a:	89 7b 38             	mov    %edi,0x38(%ebx)
8000672d:	89 43 34             	mov    %eax,0x34(%ebx)
80006730:	e8 bb ce ff ff       	call   800035f0 <ObjectManager_Unlock>
80006735:	89 7c 24 14          	mov    %edi,0x14(%esp,1)
80006739:	8b 43 34             	mov    0x34(%ebx),%eax
8000673c:	c7 04 24 00 00 00 00 	movl   $0x0,(%esp,1)
80006743:	c7 44 24 08 a0 9b 00 	movl   $0x80009ba0,0x8(%esp,1)
8000674a:	80 
8000674b:	c7 44 24 04 24 9b 00 	movl   $0x80009b24,0x4(%esp,1)
80006752:	80 
80006753:	89 44 24 10          	mov    %eax,0x10(%esp,1)
80006757:	8b 45 0c             	mov    0xc(%ebp),%eax
8000675a:	89 44 24 0c          	mov    %eax,0xc(%esp,1)
8000675e:	e8 3d 07 00 00       	call   80006ea0 <KPrint>
80006763:	31 c0                	xor    %eax,%eax
80006765:	8b 4d f0             	mov    0xfffffff0(%ebp),%ecx
80006768:	89 41 18             	mov    %eax,0x18(%ecx)
8000676b:	83 c4 1c             	add    $0x1c,%esp
8000676e:	5b                   	pop    %ebx
8000676f:	5e                   	pop    %esi
80006770:	5f                   	pop    %edi
80006771:	5d                   	pop    %ebp
80006772:	c3                   	ret    
80006773:	8d b6 00 00 00 00    	lea    0x0(%esi),%esi
80006779:	8d bc 27 00 00 00 00 	lea    0x0(%edi,1),%edi
80006780:	e8 6b ce ff ff       	call   800035f0 <ObjectManager_Unlock>
80006785:	c7 04 24 00 00 00 00 	movl   $0x0,(%esp,1)
8000678c:	89 5c 24 0c          	mov    %ebx,0xc(%esp,1)
80006790:	c7 44 24 08 46 9b 00 	movl   $0x80009b46,0x8(%esp,1)
80006797:	80 
80006798:	c7 44 24 04 24 9b 00 	movl   $0x80009b24,0x4(%esp,1)
8000679f:	80 
800067a0:	e8 fb 06 00 00       	call   80006ea0 <KPrint>
800067a5:	b8 fe ff ff ff       	mov    $0xfffffffe,%eax
800067aa:	eb b9                	jmp    80006765 <ModuleManager_CreateModuleCallInt+0x95>
800067ac:	8d 74 26 00          	lea    0x0(%esi,1),%esi

800067b0 <ModuleManager_GetHandleInt>:
800067b0:	55                   	push   %ebp
800067b1:	89 e5                	mov    %esp,%ebp
800067b3:	83 ec 28             	sub    $0x28,%esp
800067b6:	89 7d fc             	mov    %edi,0xfffffffc(%ebp)
800067b9:	8b 7d 08             	mov    0x8(%ebp),%edi
800067bc:	89 5d f4             	mov    %ebx,0xfffffff4(%ebp)
800067bf:	89 75 f8             	mov    %esi,0xfffffff8(%ebp)
800067c2:	8b 35 10 a5 00 80    	mov    0x8000a510,%esi
800067c8:	e8 03 ce ff ff       	call   800035d0 <ObjectManager_Lock>
800067cd:	89 7c 24 08          	mov    %edi,0x8(%esp,1)
800067d1:	c7 44 24 04 04 00 00 	movl   $0x4,0x4(%esp,1)
800067d8:	00 
800067d9:	c7 04 24 00 00 00 00 	movl   $0x0,(%esp,1)
800067e0:	e8 ab d1 ff ff       	call   80003990 <ObjectManager_SearchNameInClass>
800067e5:	85 c0                	test   %eax,%eax
800067e7:	89 c3                	mov    %eax,%ebx
800067e9:	74 25                	je     80006810 <ModuleManager_GetHandleInt+0x60>
800067eb:	ff 40 48             	incl   0x48(%eax)
800067ee:	e8 fd cd ff ff       	call   800035f0 <ObjectManager_Unlock>
800067f3:	8b 43 34             	mov    0x34(%ebx),%eax
800067f6:	89 46 18             	mov    %eax,0x18(%esi)
800067f9:	8b 5d f4             	mov    0xfffffff4(%ebp),%ebx
800067fc:	8b 75 f8             	mov    0xfffffff8(%ebp),%esi
800067ff:	8b 7d fc             	mov    0xfffffffc(%ebp),%edi
80006802:	89 ec                	mov    %ebp,%esp
80006804:	5d                   	pop    %ebp
80006805:	c3                   	ret    
80006806:	8d 76 00             	lea    0x0(%esi),%esi
80006809:	8d bc 27 00 00 00 00 	lea    0x0(%edi,1),%edi
80006810:	89 7c 24 0c          	mov    %edi,0xc(%esp,1)
80006814:	c7 44 24 08 46 9b 00 	movl   $0x80009b46,0x8(%esp,1)
8000681b:	80 
8000681c:	c7 44 24 04 24 9b 00 	movl   $0x80009b24,0x4(%esp,1)
80006823:	80 
80006824:	c7 04 24 00 00 00 00 	movl   $0x0,(%esp,1)
8000682b:	e8 70 06 00 00       	call   80006ea0 <KPrint>
80006830:	b8 fe ff ff ff       	mov    $0xfffffffe,%eax
80006835:	eb bf                	jmp    800067f6 <ModuleManager_GetHandleInt+0x46>
80006837:	89 f6                	mov    %esi,%esi
80006839:	8d bc 27 00 00 00 00 	lea    0x0(%edi,1),%edi

80006840 <ModuleManager_ReleaseHandleInt>:
80006840:	55                   	push   %ebp
80006841:	89 e5                	mov    %esp,%ebp
80006843:	83 ec 18             	sub    $0x18,%esp
80006846:	89 75 fc             	mov    %esi,0xfffffffc(%ebp)
80006849:	8b 75 08             	mov    0x8(%ebp),%esi
8000684c:	89 5d f8             	mov    %ebx,0xfffffff8(%ebp)
8000684f:	8b 1d 10 a5 00 80    	mov    0x8000a510,%ebx
80006855:	e8 76 cd ff ff       	call   800035d0 <ObjectManager_Lock>
8000685a:	c7 44 24 04 04 00 00 	movl   $0x4,0x4(%esp,1)
80006861:	00 
80006862:	89 74 24 08          	mov    %esi,0x8(%esp,1)
80006866:	c7 04 24 00 00 00 00 	movl   $0x0,(%esp,1)
8000686d:	e8 6e d2 ff ff       	call   80003ae0 <ObjectManager_SearchInClassTypeIndex>
80006872:	85 c0                	test   %eax,%eax
80006874:	74 1a                	je     80006890 <ModuleManager_ReleaseHandleInt+0x50>
80006876:	ff 48 48             	decl   0x48(%eax)
80006879:	e8 72 cd ff ff       	call   800035f0 <ObjectManager_Unlock>
8000687e:	31 c0                	xor    %eax,%eax
80006880:	89 43 18             	mov    %eax,0x18(%ebx)
80006883:	8b 5d f8             	mov    0xfffffff8(%ebp),%ebx
80006886:	8b 75 fc             	mov    0xfffffffc(%ebp),%esi
80006889:	89 ec                	mov    %ebp,%esp
8000688b:	5d                   	pop    %ebp
8000688c:	c3                   	ret    
8000688d:	8d 76 00             	lea    0x0(%esi),%esi
80006890:	89 74 24 0c          	mov    %esi,0xc(%esp,1)
80006894:	c7 44 24 08 5d 9b 00 	movl   $0x80009b5d,0x8(%esp,1)
8000689b:	80 
8000689c:	c7 44 24 04 24 9b 00 	movl   $0x80009b24,0x4(%esp,1)
800068a3:	80 
800068a4:	c7 04 24 00 00 00 00 	movl   $0x0,(%esp,1)
800068ab:	e8 f0 05 00 00       	call   80006ea0 <KPrint>
800068b0:	b8 fd ff ff ff       	mov    $0xfffffffd,%eax
800068b5:	eb c9                	jmp    80006880 <ModuleManager_ReleaseHandleInt+0x40>
800068b7:	89 f6                	mov    %esi,%esi
800068b9:	8d bc 27 00 00 00 00 	lea    0x0(%edi,1),%edi

800068c0 <ModuleManager_GetCallIDInt>:
800068c0:	55                   	push   %ebp
800068c1:	89 e5                	mov    %esp,%ebp
800068c3:	83 ec 28             	sub    $0x28,%esp
800068c6:	89 75 f8             	mov    %esi,0xfffffff8(%ebp)
800068c9:	8b 75 08             	mov    0x8(%ebp),%esi
800068cc:	89 7d fc             	mov    %edi,0xfffffffc(%ebp)
800068cf:	8b 3d 10 a5 00 80    	mov    0x8000a510,%edi
800068d5:	89 5d f4             	mov    %ebx,0xfffffff4(%ebp)
800068d8:	e8 f3 cc ff ff       	call   800035d0 <ObjectManager_Lock>
800068dd:	89 74 24 08          	mov    %esi,0x8(%esp,1)
800068e1:	c7 44 24 04 04 00 00 	movl   $0x4,0x4(%esp,1)
800068e8:	00 
800068e9:	c7 04 24 00 00 00 00 	movl   $0x0,(%esp,1)
800068f0:	e8 eb d1 ff ff       	call   80003ae0 <ObjectManager_SearchInClassTypeIndex>
800068f5:	85 c0                	test   %eax,%eax
800068f7:	74 77                	je     80006970 <ModuleManager_GetCallIDInt+0xb0>
800068f9:	8b 40 34             	mov    0x34(%eax),%eax
800068fc:	c7 04 24 00 00 00 00 	movl   $0x0,(%esp,1)
80006903:	c7 44 24 04 05 00 00 	movl   $0x5,0x4(%esp,1)
8000690a:	00 
8000690b:	89 44 24 0c          	mov    %eax,0xc(%esp,1)
8000690f:	8b 45 0c             	mov    0xc(%ebp),%eax
80006912:	89 44 24 08          	mov    %eax,0x8(%esp,1)
80006916:	e8 f5 d0 ff ff       	call   80003a10 <ObjectManager_SearchNameInClassTypeIndex>
8000691b:	85 c0                	test   %eax,%eax
8000691d:	89 c3                	mov    %eax,%ebx
8000691f:	74 1f                	je     80006940 <ModuleManager_GetCallIDInt+0x80>
80006921:	e8 ca cc ff ff       	call   800035f0 <ObjectManager_Unlock>
80006926:	8b 43 38             	mov    0x38(%ebx),%eax
80006929:	89 47 18             	mov    %eax,0x18(%edi)
8000692c:	8b 5d f4             	mov    0xfffffff4(%ebp),%ebx
8000692f:	8b 75 f8             	mov    0xfffffff8(%ebp),%esi
80006932:	8b 7d fc             	mov    0xfffffffc(%ebp),%edi
80006935:	89 ec                	mov    %ebp,%esp
80006937:	5d                   	pop    %ebp
80006938:	c3                   	ret    
80006939:	8d b4 26 00 00 00 00 	lea    0x0(%esi,1),%esi
80006940:	89 74 24 0c          	mov    %esi,0xc(%esp,1)
80006944:	8b 45 0c             	mov    0xc(%ebp),%eax
80006947:	c7 44 24 08 72 9b 00 	movl   $0x80009b72,0x8(%esp,1)
8000694e:	80 
8000694f:	c7 44 24 04 24 9b 00 	movl   $0x80009b24,0x4(%esp,1)
80006956:	80 
80006957:	89 44 24 10          	mov    %eax,0x10(%esp,1)
8000695b:	c7 04 24 00 00 00 00 	movl   $0x0,(%esp,1)
80006962:	e8 39 05 00 00       	call   80006ea0 <KPrint>
80006967:	b8 fb ff ff ff       	mov    $0xfffffffb,%eax
8000696c:	eb bb                	jmp    80006929 <ModuleManager_GetCallIDInt+0x69>
8000696e:	89 f6                	mov    %esi,%esi
80006970:	89 74 24 0c          	mov    %esi,0xc(%esp,1)
80006974:	c7 44 24 08 5d 9b 00 	movl   $0x80009b5d,0x8(%esp,1)
8000697b:	80 
8000697c:	c7 44 24 04 24 9b 00 	movl   $0x80009b24,0x4(%esp,1)
80006983:	80 
80006984:	c7 04 24 00 00 00 00 	movl   $0x0,(%esp,1)
8000698b:	e8 10 05 00 00       	call   80006ea0 <KPrint>
80006990:	b8 fd ff ff ff       	mov    $0xfffffffd,%eax
80006995:	eb 92                	jmp    80006929 <ModuleManager_GetCallIDInt+0x69>
80006997:	89 f6                	mov    %esi,%esi
80006999:	8d bc 27 00 00 00 00 	lea    0x0(%edi,1),%edi

800069a0 <ModuleManager_CallInt>:
800069a0:	55                   	push   %ebp
800069a1:	89 e5                	mov    %esp,%ebp
800069a3:	83 ec 18             	sub    $0x18,%esp
800069a6:	89 5d f8             	mov    %ebx,0xfffffff8(%ebp)
800069a9:	8b 5d 08             	mov    0x8(%ebp),%ebx
800069ac:	89 75 fc             	mov    %esi,0xfffffffc(%ebp)
800069af:	8b 35 10 a5 00 80    	mov    0x8000a510,%esi
800069b5:	e8 16 cc ff ff       	call   800035d0 <ObjectManager_Lock>
800069ba:	c7 44 24 04 04 00 00 	movl   $0x4,0x4(%esp,1)
800069c1:	00 
800069c2:	89 5c 24 08          	mov    %ebx,0x8(%esp,1)
800069c6:	c7 04 24 00 00 00 00 	movl   $0x0,(%esp,1)
800069cd:	e8 0e d1 ff ff       	call   80003ae0 <ObjectManager_SearchInClassTypeIndex>
800069d2:	85 c0                	test   %eax,%eax
800069d4:	74 2a                	je     80006a00 <ModuleManager_CallInt+0x60>
800069d6:	8b 40 4c             	mov    0x4c(%eax),%eax
800069d9:	8b 18                	mov    (%eax),%ebx
800069db:	e8 10 cc ff ff       	call   800035f0 <ObjectManager_Unlock>
800069e0:	8b 45 10             	mov    0x10(%ebp),%eax
800069e3:	89 44 24 04          	mov    %eax,0x4(%esp,1)
800069e7:	8b 45 0c             	mov    0xc(%ebp),%eax
800069ea:	89 04 24             	mov    %eax,(%esp,1)
800069ed:	ff d3                	call   *%ebx
800069ef:	89 46 18             	mov    %eax,0x18(%esi)
800069f2:	8b 5d f8             	mov    0xfffffff8(%ebp),%ebx
800069f5:	8b 75 fc             	mov    0xfffffffc(%ebp),%esi
800069f8:	89 ec                	mov    %ebp,%esp
800069fa:	5d                   	pop    %ebp
800069fb:	c3                   	ret    
800069fc:	8d 74 26 00          	lea    0x0(%esi,1),%esi
80006a00:	89 5c 24 0c          	mov    %ebx,0xc(%esp,1)
80006a04:	c7 44 24 08 5d 9b 00 	movl   $0x80009b5d,0x8(%esp,1)
80006a0b:	80 
80006a0c:	c7 44 24 04 24 9b 00 	movl   $0x80009b24,0x4(%esp,1)
80006a13:	80 
80006a14:	c7 04 24 00 00 00 00 	movl   $0x0,(%esp,1)
80006a1b:	e8 80 04 00 00       	call   80006ea0 <KPrint>
80006a20:	b8 fd ff ff ff       	mov    $0xfffffffd,%eax
80006a25:	eb c8                	jmp    800069ef <ModuleManager_CallInt+0x4f>
80006a27:	89 f6                	mov    %esi,%esi
80006a29:	8d bc 27 00 00 00 00 	lea    0x0(%edi,1),%edi

80006a30 <ModuleManager_Load>:
80006a30:	55                   	push   %ebp
80006a31:	89 e5                	mov    %esp,%ebp
80006a33:	5d                   	pop    %ebp
80006a34:	e9 37 b6 ff ff       	jmp    80002070 <FS_LoadElf>
80006a39:	00 00                	add    %al,(%eax)
80006a3b:	00 00                	add    %al,(%eax)
80006a3d:	00 00                	add    %al,(%eax)
	...

80006a40 <TimerManager_Init>:
80006a40:	55                   	push   %ebp
80006a41:	31 d2                	xor    %edx,%edx
80006a43:	89 e5                	mov    %esp,%ebp
80006a45:	31 c9                	xor    %ecx,%ecx
80006a47:	31 c0                	xor    %eax,%eax
80006a49:	83 ec 18             	sub    $0x18,%esp
80006a4c:	a3 1c a5 00 80       	mov    %eax,0x8000a51c
80006a51:	89 15 14 a5 00 80    	mov    %edx,0x8000a514
80006a57:	31 d2                	xor    %edx,%edx
80006a59:	89 0d 18 a5 00 80    	mov    %ecx,0x8000a518
80006a5f:	89 15 20 a5 00 80    	mov    %edx,0x8000a520
80006a65:	c7 44 24 08 70 6b 00 	movl   $0x80006b70,0x8(%esp,1)
80006a6c:	80 
80006a6d:	c7 44 24 04 00 00 00 	movl   $0x0,0x4(%esp,1)
80006a74:	00 
80006a75:	c7 04 24 c2 9b 00 80 	movl   $0x80009bc2,(%esp,1)
80006a7c:	e8 2f c3 ff ff       	call   80002db0 <InterruptManager_AttachHandler>
80006a81:	c7 04 24 00 00 00 00 	movl   $0x0,(%esp,1)
80006a88:	e8 13 c4 ff ff       	call   80002ea0 <InterruptManager_EnableIRQ>
80006a8d:	c7 44 24 08 c8 9b 00 	movl   $0x80009bc8,0x8(%esp,1)
80006a94:	80 
80006a95:	c7 44 24 04 db 9b 00 	movl   $0x80009bdb,0x4(%esp,1)
80006a9c:	80 
80006a9d:	c7 04 24 01 00 00 00 	movl   $0x1,(%esp,1)
80006aa4:	e8 f7 03 00 00       	call   80006ea0 <KPrint>
80006aa9:	89 ec                	mov    %ebp,%esp
80006aab:	5d                   	pop    %ebp
80006aac:	c3                   	ret    
80006aad:	8d 76 00             	lea    0x0(%esi),%esi

80006ab0 <TimerManager_AttachTimerHandler>:
80006ab0:	55                   	push   %ebp
80006ab1:	89 e5                	mov    %esp,%ebp
80006ab3:	83 ec 18             	sub    $0x18,%esp
80006ab6:	89 5d f4             	mov    %ebx,0xfffffff4(%ebp)
80006ab9:	a1 a8 a2 00 80       	mov    0x8000a2a8,%eax
80006abe:	31 d2                	xor    %edx,%edx
80006ac0:	89 75 f8             	mov    %esi,0xfffffff8(%ebp)
80006ac3:	8b 5d 08             	mov    0x8(%ebp),%ebx
80006ac6:	8b 75 0c             	mov    0xc(%ebp),%esi
80006ac9:	89 7d fc             	mov    %edi,0xfffffffc(%ebp)
80006acc:	89 45 f0             	mov    %eax,0xfffffff0(%ebp)
80006acf:	89 15 a8 a2 00 80    	mov    %edx,0x8000a2a8
80006ad5:	fa                   	cli    
80006ad6:	c7 04 24 14 01 00 00 	movl   $0x114,(%esp,1)
80006add:	e8 ae ed ff ff       	call   80005890 <MemoryManager_KAlloc>
80006ae2:	ba 30 00 00 00       	mov    $0x30,%edx
80006ae7:	89 c7                	mov    %eax,%edi
80006ae9:	8a 0b                	mov    (%ebx),%cl
80006aeb:	43                   	inc    %ebx
80006aec:	88 0f                	mov    %cl,(%edi)
80006aee:	47                   	inc    %edi
80006aef:	4a                   	dec    %edx
80006af0:	74 0a                	je     80006afc <TimerManager_AttachTimerHandler+0x4c>
80006af2:	84 c9                	test   %cl,%cl
80006af4:	75 f3                	jne    80006ae9 <TimerManager_AttachTimerHandler+0x39>
80006af6:	88 0f                	mov    %cl,(%edi)
80006af8:	47                   	inc    %edi
80006af9:	4a                   	dec    %edx
80006afa:	75 fa                	jne    80006af6 <TimerManager_AttachTimerHandler+0x46>
80006afc:	31 c9                	xor    %ecx,%ecx
80006afe:	8b 3d 18 a5 00 80    	mov    0x8000a518,%edi
80006b04:	8b 5d 10             	mov    0x10(%ebp),%ebx
80006b07:	89 b8 00 01 00 00    	mov    %edi,0x100(%eax)
80006b0d:	89 98 0c 01 00 00    	mov    %ebx,0x10c(%eax)
80006b13:	8b 1d 14 a5 00 80    	mov    0x8000a514,%ebx
80006b19:	ff 05 18 a5 00 80    	incl   0x8000a518
80006b1f:	89 b0 04 01 00 00    	mov    %esi,0x104(%eax)
80006b25:	85 db                	test   %ebx,%ebx
80006b27:	0f 94 c1             	sete   %cl
80006b2a:	89 b0 08 01 00 00    	mov    %esi,0x108(%eax)
80006b30:	49                   	dec    %ecx
80006b31:	21 cb                	and    %ecx,%ebx
80006b33:	83 7d f0 01          	cmpl   $0x1,0xfffffff0(%ebp)
80006b37:	89 98 10 01 00 00    	mov    %ebx,0x110(%eax)
80006b3d:	a3 14 a5 00 80       	mov    %eax,0x8000a514
80006b42:	74 1c                	je     80006b60 <TimerManager_AttachTimerHandler+0xb0>
80006b44:	8b 5d f4             	mov    0xfffffff4(%ebp),%ebx
80006b47:	8b 75 f8             	mov    0xfffffff8(%ebp),%esi
80006b4a:	8b 7d fc             	mov    0xfffffffc(%ebp),%edi
80006b4d:	89 ec                	mov    %ebp,%esp
80006b4f:	5d                   	pop    %ebp
80006b50:	c3                   	ret    
80006b51:	eb 0d                	jmp    80006b60 <TimerManager_AttachTimerHandler+0xb0>
80006b53:	90                   	nop    
80006b54:	90                   	nop    
80006b55:	90                   	nop    
80006b56:	90                   	nop    
80006b57:	90                   	nop    
80006b58:	90                   	nop    
80006b59:	90                   	nop    
80006b5a:	90                   	nop    
80006b5b:	90                   	nop    
80006b5c:	90                   	nop    
80006b5d:	90                   	nop    
80006b5e:	90                   	nop    
80006b5f:	90                   	nop    
80006b60:	b8 01 00 00 00       	mov    $0x1,%eax
80006b65:	a3 a8 a2 00 80       	mov    %eax,0x8000a2a8
80006b6a:	fb                   	sti    
80006b6b:	eb d7                	jmp    80006b44 <TimerManager_AttachTimerHandler+0x94>
80006b6d:	8d 76 00             	lea    0x0(%esi),%esi

80006b70 <TimerManager_Handler>:
80006b70:	55                   	push   %ebp
80006b71:	89 e5                	mov    %esp,%ebp
80006b73:	53                   	push   %ebx
80006b74:	83 ec 04             	sub    $0x4,%esp
80006b77:	8b 1d 14 a5 00 80    	mov    0x8000a514,%ebx
80006b7d:	85 db                	test   %ebx,%ebx
80006b7f:	74 3a                	je     80006bbb <TimerManager_Handler+0x4b>
80006b81:	eb 0d                	jmp    80006b90 <TimerManager_Handler+0x20>
80006b83:	90                   	nop    
80006b84:	90                   	nop    
80006b85:	90                   	nop    
80006b86:	90                   	nop    
80006b87:	90                   	nop    
80006b88:	90                   	nop    
80006b89:	90                   	nop    
80006b8a:	90                   	nop    
80006b8b:	90                   	nop    
80006b8c:	90                   	nop    
80006b8d:	90                   	nop    
80006b8e:	90                   	nop    
80006b8f:	90                   	nop    
80006b90:	8b 93 04 01 00 00    	mov    0x104(%ebx),%edx
80006b96:	8b 8b 0c 01 00 00    	mov    0x10c(%ebx),%ecx
80006b9c:	85 d2                	test   %edx,%edx
80006b9e:	74 36                	je     80006bd6 <TimerManager_Handler+0x66>
80006ba0:	8b 83 08 01 00 00    	mov    0x108(%ebx),%eax
80006ba6:	48                   	dec    %eax
80006ba7:	85 c0                	test   %eax,%eax
80006ba9:	89 83 08 01 00 00    	mov    %eax,0x108(%ebx)
80006baf:	74 1f                	je     80006bd0 <TimerManager_Handler+0x60>
80006bb1:	8b 9b 10 01 00 00    	mov    0x110(%ebx),%ebx
80006bb7:	85 db                	test   %ebx,%ebx
80006bb9:	75 d5                	jne    80006b90 <TimerManager_Handler+0x20>
80006bbb:	5a                   	pop    %edx
80006bbc:	b8 01 00 00 00       	mov    $0x1,%eax
80006bc1:	5b                   	pop    %ebx
80006bc2:	5d                   	pop    %ebp
80006bc3:	c3                   	ret    
80006bc4:	8d b6 00 00 00 00    	lea    0x0(%esi),%esi
80006bca:	8d bf 00 00 00 00    	lea    0x0(%edi),%edi
80006bd0:	89 93 08 01 00 00    	mov    %edx,0x108(%ebx)
80006bd6:	ff d1                	call   *%ecx
80006bd8:	eb d7                	jmp    80006bb1 <TimerManager_Handler+0x41>
80006bda:	00 00                	add    %al,(%eax)
80006bdc:	00 00                	add    %al,(%eax)
	...

80006be0 <PIC_Init>:
80006be0:	55                   	push   %ebp
80006be1:	89 e5                	mov    %esp,%ebp
80006be3:	83 ec 18             	sub    $0x18,%esp
80006be6:	0f b6 0d bc a2 00 80 	movzbl 0x8000a2bc,%ecx
80006bed:	88 c8                	mov    %cl,%al
80006bef:	e6 21                	out    %al,$0x21
80006bf1:	0f b6 15 bd a2 00 80 	movzbl 0x8000a2bd,%edx
80006bf8:	88 d0                	mov    %dl,%al
80006bfa:	e6 a1                	out    %al,$0xa1
80006bfc:	b0 11                	mov    $0x11,%al
80006bfe:	e6 20                	out    %al,$0x20
80006c00:	b0 20                	mov    $0x20,%al
80006c02:	e6 21                	out    %al,$0x21
80006c04:	b0 04                	mov    $0x4,%al
80006c06:	e6 21                	out    %al,$0x21
80006c08:	b0 01                	mov    $0x1,%al
80006c0a:	e6 21                	out    %al,$0x21
80006c0c:	b0 11                	mov    $0x11,%al
80006c0e:	e6 a0                	out    %al,$0xa0
80006c10:	b0 28                	mov    $0x28,%al
80006c12:	e6 a1                	out    %al,$0xa1
80006c14:	b0 02                	mov    $0x2,%al
80006c16:	e6 a1                	out    %al,$0xa1
80006c18:	b0 01                	mov    $0x1,%al
80006c1a:	e6 a1                	out    %al,$0xa1
80006c1c:	88 c8                	mov    %cl,%al
80006c1e:	e6 21                	out    %al,$0x21
80006c20:	88 d0                	mov    %dl,%al
80006c22:	e6 a1                	out    %al,$0xa1
80006c24:	c7 04 24 e1 9b 00 80 	movl   $0x80009be1,(%esp,1)
80006c2b:	e8 f0 aa ff ff       	call   80001720 <DeviceManager_RegisterDevice>
80006c30:	c7 44 24 08 20 00 00 	movl   $0x20,0x8(%esp,1)
80006c37:	00 
80006c38:	c7 44 24 04 00 00 00 	movl   $0x0,0x4(%esp,1)
80006c3f:	00 
80006c40:	c7 04 24 e1 9b 00 80 	movl   $0x80009be1,(%esp,1)
80006c47:	e8 54 a9 ff ff       	call   800015a0 <DeviceManager_AttachResource>
80006c4c:	c7 44 24 08 21 00 00 	movl   $0x21,0x8(%esp,1)
80006c53:	00 
80006c54:	c7 44 24 04 00 00 00 	movl   $0x0,0x4(%esp,1)
80006c5b:	00 
80006c5c:	c7 04 24 e1 9b 00 80 	movl   $0x80009be1,(%esp,1)
80006c63:	e8 38 a9 ff ff       	call   800015a0 <DeviceManager_AttachResource>
80006c68:	c7 44 24 08 a0 00 00 	movl   $0xa0,0x8(%esp,1)
80006c6f:	00 
80006c70:	c7 44 24 04 00 00 00 	movl   $0x0,0x4(%esp,1)
80006c77:	00 
80006c78:	c7 04 24 e1 9b 00 80 	movl   $0x80009be1,(%esp,1)
80006c7f:	e8 1c a9 ff ff       	call   800015a0 <DeviceManager_AttachResource>
80006c84:	c7 44 24 08 a1 00 00 	movl   $0xa1,0x8(%esp,1)
80006c8b:	00 
80006c8c:	c7 44 24 04 00 00 00 	movl   $0x0,0x4(%esp,1)
80006c93:	00 
80006c94:	c7 04 24 e1 9b 00 80 	movl   $0x80009be1,(%esp,1)
80006c9b:	e8 00 a9 ff ff       	call   800015a0 <DeviceManager_AttachResource>
80006ca0:	c7 44 24 08 eb 9b 00 	movl   $0x80009beb,0x8(%esp,1)
80006ca7:	80 
80006ca8:	c7 44 24 04 e7 9b 00 	movl   $0x80009be7,0x4(%esp,1)
80006caf:	80 
80006cb0:	c7 04 24 01 00 00 00 	movl   $0x1,(%esp,1)
80006cb7:	e8 e4 01 00 00       	call   80006ea0 <KPrint>
80006cbc:	c9                   	leave  
80006cbd:	c3                   	ret    
80006cbe:	89 f6                	mov    %esi,%esi

80006cc0 <PIC_EnableIRQ>:
80006cc0:	55                   	push   %ebp
80006cc1:	b8 fe ff ff ff       	mov    $0xfffffffe,%eax
80006cc6:	89 e5                	mov    %esp,%ebp
80006cc8:	0f b7 4d 08          	movzwl 0x8(%ebp),%ecx
80006ccc:	0f b7 15 bc a2 00 80 	movzwl 0x8000a2bc,%edx
80006cd3:	d3 c0                	rol    %cl,%eax
80006cd5:	83 e1 08             	and    $0x8,%ecx
80006cd8:	21 d0                	and    %edx,%eax
80006cda:	66 85 c9             	test   %cx,%cx
80006cdd:	66 a3 bc a2 00 80    	mov    %ax,0x8000a2bc
80006ce3:	74 0b                	je     80006cf0 <PIC_EnableIRQ+0x30>
80006ce5:	0f b6 05 bd a2 00 80 	movzbl 0x8000a2bd,%eax
80006cec:	e6 a1                	out    %al,$0xa1
80006cee:	5d                   	pop    %ebp
80006cef:	c3                   	ret    
80006cf0:	0f b6 05 bc a2 00 80 	movzbl 0x8000a2bc,%eax
80006cf7:	e6 21                	out    %al,$0x21
80006cf9:	eb f3                	jmp    80006cee <PIC_EnableIRQ+0x2e>
80006cfb:	90                   	nop    
80006cfc:	8d 74 26 00          	lea    0x0(%esi,1),%esi

80006d00 <PIC_DisableIRQ>:
80006d00:	55                   	push   %ebp
80006d01:	b8 01 00 00 00       	mov    $0x1,%eax
80006d06:	89 e5                	mov    %esp,%ebp
80006d08:	0f b7 4d 08          	movzwl 0x8(%ebp),%ecx
80006d0c:	0f b7 15 bc a2 00 80 	movzwl 0x8000a2bc,%edx
80006d13:	d3 e0                	shl    %cl,%eax
80006d15:	83 e1 08             	and    $0x8,%ecx
80006d18:	09 d0                	or     %edx,%eax
80006d1a:	66 85 c9             	test   %cx,%cx
80006d1d:	66 a3 bc a2 00 80    	mov    %ax,0x8000a2bc
80006d23:	74 0b                	je     80006d30 <PIC_DisableIRQ+0x30>
80006d25:	0f b6 05 bd a2 00 80 	movzbl 0x8000a2bd,%eax
80006d2c:	e6 a1                	out    %al,$0xa1
80006d2e:	5d                   	pop    %ebp
80006d2f:	c3                   	ret    
80006d30:	0f b6 05 bc a2 00 80 	movzbl 0x8000a2bc,%eax
80006d37:	e6 21                	out    %al,$0x21
80006d39:	eb f3                	jmp    80006d2e <PIC_DisableIRQ+0x2e>
80006d3b:	90                   	nop    
80006d3c:	8d 74 26 00          	lea    0x0(%esi,1),%esi

80006d40 <PIC_MaskAndAcknowledge>:
80006d40:	55                   	push   %ebp
80006d41:	b8 01 00 00 00       	mov    $0x1,%eax
80006d46:	89 e5                	mov    %esp,%ebp
80006d48:	0f b7 4d 08          	movzwl 0x8(%ebp),%ecx
80006d4c:	0f b7 15 bc a2 00 80 	movzwl 0x8000a2bc,%edx
80006d53:	d3 e0                	shl    %cl,%eax
80006d55:	09 d0                	or     %edx,%eax
80006d57:	89 ca                	mov    %ecx,%edx
80006d59:	83 e2 08             	and    $0x8,%edx
80006d5c:	66 85 d2             	test   %dx,%dx
80006d5f:	66 a3 bc a2 00 80    	mov    %ax,0x8000a2bc
80006d65:	74 19                	je     80006d80 <PIC_MaskAndAcknowledge+0x40>
80006d67:	e4 a1                	in     $0xa1,%al
80006d69:	0f b6 05 bd a2 00 80 	movzbl 0x8000a2bd,%eax
80006d70:	e6 a1                	out    %al,$0xa1
80006d72:	88 c8                	mov    %cl,%al
80006d74:	24 07                	and    $0x7,%al
80006d76:	04 60                	add    $0x60,%al
80006d78:	e6 a0                	out    %al,$0xa0
80006d7a:	b0 62                	mov    $0x62,%al
80006d7c:	e6 20                	out    %al,$0x20
80006d7e:	5d                   	pop    %ebp
80006d7f:	c3                   	ret    
80006d80:	e4 21                	in     $0x21,%al
80006d82:	0f b6 05 bc a2 00 80 	movzbl 0x8000a2bc,%eax
80006d89:	e6 21                	out    %al,$0x21
80006d8b:	88 c8                	mov    %cl,%al
80006d8d:	04 60                	add    $0x60,%al
80006d8f:	eb eb                	jmp    80006d7c <PIC_MaskAndAcknowledge+0x3c>
	...

80006da0 <PIT_Init>:
80006da0:	55                   	push   %ebp
80006da1:	89 e5                	mov    %esp,%ebp
80006da3:	83 ec 18             	sub    $0x18,%esp
80006da6:	e4 61                	in     $0x61,%al
80006da8:	0c 01                	or     $0x1,%al
80006daa:	e6 61                	out    %al,$0x61
80006dac:	b0 34                	mov    $0x34,%al
80006dae:	e6 43                	out    %al,$0x43
80006db0:	b0 a9                	mov    $0xa9,%al
80006db2:	e6 40                	out    %al,$0x40
80006db4:	b0 04                	mov    $0x4,%al
80006db6:	e6 40                	out    %al,$0x40
80006db8:	b0 74                	mov    $0x74,%al
80006dba:	e6 43                	out    %al,$0x43
80006dbc:	31 c0                	xor    %eax,%eax
80006dbe:	e6 42                	out    %al,$0x42
80006dc0:	e6 42                	out    %al,$0x42
80006dc2:	b0 b4                	mov    $0xb4,%al
80006dc4:	e6 43                	out    %al,$0x43
80006dc6:	31 c0                	xor    %eax,%eax
80006dc8:	e6 42                	out    %al,$0x42
80006dca:	e6 42                	out    %al,$0x42
80006dcc:	c7 04 24 fc 9b 00 80 	movl   $0x80009bfc,(%esp,1)
80006dd3:	e8 48 a9 ff ff       	call   80001720 <DeviceManager_RegisterDevice>
80006dd8:	c7 44 24 08 40 00 00 	movl   $0x40,0x8(%esp,1)
80006ddf:	00 
80006de0:	c7 44 24 04 00 00 00 	movl   $0x0,0x4(%esp,1)
80006de7:	00 
80006de8:	c7 04 24 fc 9b 00 80 	movl   $0x80009bfc,(%esp,1)
80006def:	e8 ac a7 ff ff       	call   800015a0 <DeviceManager_AttachResource>
80006df4:	c7 44 24 08 41 00 00 	movl   $0x41,0x8(%esp,1)
80006dfb:	00 
80006dfc:	c7 44 24 04 00 00 00 	movl   $0x0,0x4(%esp,1)
80006e03:	00 
80006e04:	c7 04 24 fc 9b 00 80 	movl   $0x80009bfc,(%esp,1)
80006e0b:	e8 90 a7 ff ff       	call   800015a0 <DeviceManager_AttachResource>
80006e10:	c7 44 24 08 42 00 00 	movl   $0x42,0x8(%esp,1)
80006e17:	00 
80006e18:	c7 44 24 04 00 00 00 	movl   $0x0,0x4(%esp,1)
80006e1f:	00 
80006e20:	c7 04 24 fc 9b 00 80 	movl   $0x80009bfc,(%esp,1)
80006e27:	e8 74 a7 ff ff       	call   800015a0 <DeviceManager_AttachResource>
80006e2c:	c7 44 24 08 43 00 00 	movl   $0x43,0x8(%esp,1)
80006e33:	00 
80006e34:	c7 44 24 04 00 00 00 	movl   $0x0,0x4(%esp,1)
80006e3b:	00 
80006e3c:	c7 04 24 fc 9b 00 80 	movl   $0x80009bfc,(%esp,1)
80006e43:	e8 58 a7 ff ff       	call   800015a0 <DeviceManager_AttachResource>
80006e48:	c7 44 24 08 00 00 00 	movl   $0x0,0x8(%esp,1)
80006e4f:	00 
80006e50:	c7 44 24 04 01 00 00 	movl   $0x1,0x4(%esp,1)
80006e57:	00 
80006e58:	c7 04 24 fc 9b 00 80 	movl   $0x80009bfc,(%esp,1)
80006e5f:	e8 3c a7 ff ff       	call   800015a0 <DeviceManager_AttachResource>
80006e64:	c7 44 24 08 05 9c 00 	movl   $0x80009c05,0x8(%esp,1)
80006e6b:	80 
80006e6c:	c7 44 24 04 01 9c 00 	movl   $0x80009c01,0x4(%esp,1)
80006e73:	80 
80006e74:	c7 04 24 01 00 00 00 	movl   $0x1,(%esp,1)
80006e7b:	e8 20 00 00 00       	call   80006ea0 <KPrint>
80006e80:	c9                   	leave  
80006e81:	c3                   	ret    
80006e82:	8d b4 26 00 00 00 00 	lea    0x0(%esi,1),%esi
80006e89:	8d bc 27 00 00 00 00 	lea    0x0(%edi,1),%edi

80006e90 <PIT_StopTimer>:
80006e90:	55                   	push   %ebp
80006e91:	89 e5                	mov    %esp,%ebp
80006e93:	b0 34                	mov    $0x34,%al
80006e95:	e6 43                	out    %al,$0x43
80006e97:	31 c0                	xor    %eax,%eax
80006e99:	e6 40                	out    %al,$0x40
80006e9b:	e6 40                	out    %al,$0x40
80006e9d:	5d                   	pop    %ebp
80006e9e:	c3                   	ret    
	...

80006ea0 <KPrint>:
80006ea0:	55                   	push   %ebp
80006ea1:	89 e5                	mov    %esp,%ebp
80006ea3:	31 d2                	xor    %edx,%edx
80006ea5:	57                   	push   %edi
80006ea6:	56                   	push   %esi
80006ea7:	53                   	push   %ebx
80006ea8:	81 ec 1c 04 00 00    	sub    $0x41c,%esp
80006eae:	8b 45 08             	mov    0x8(%ebp),%eax
80006eb1:	85 c0                	test   %eax,%eax
80006eb3:	75 0d                	jne    80006ec2 <KPrint+0x22>
80006eb5:	83 3d c0 a5 00 80 01 	cmpl   $0x1,0x8000a5c0
80006ebc:	0f 84 ae 02 00 00    	je     80007170 <KPrint+0x2d0>
80006ec2:	83 f8 01             	cmp    $0x1,%eax
80006ec5:	0f 84 b5 02 00 00    	je     80007180 <KPrint+0x2e0>
80006ecb:	83 f8 02             	cmp    $0x2,%eax
80006ece:	0f 84 9c 02 00 00    	je     80007170 <KPrint+0x2d0>
80006ed4:	4a                   	dec    %edx
80006ed5:	74 49                	je     80006f20 <KPrint+0x80>
80006ed7:	a1 d8 a5 00 80       	mov    0x8000a5d8,%eax
80006edc:	8d 1c 80             	lea    (%eax,%eax,4),%ebx
80006edf:	b1 0f                	mov    $0xf,%cl
80006ee1:	a1 d4 a5 00 80       	mov    0x8000a5d4,%eax
80006ee6:	c1 e3 04             	shl    $0x4,%ebx
80006ee9:	ba d4 03 00 00       	mov    $0x3d4,%edx
80006eee:	01 c3                	add    %eax,%ebx
80006ef0:	88 c8                	mov    %cl,%al
80006ef2:	ee                   	out    %al,(%dx)
80006ef3:	88 d8                	mov    %bl,%al
80006ef5:	ba d5 03 00 00       	mov    $0x3d5,%edx
80006efa:	ee                   	out    %al,(%dx)
80006efb:	ba d4 03 00 00       	mov    $0x3d4,%edx
80006f00:	b1 0e                	mov    $0xe,%cl
80006f02:	88 c8                	mov    %cl,%al
80006f04:	ee                   	out    %al,(%dx)
80006f05:	ba d5 03 00 00       	mov    $0x3d5,%edx
80006f0a:	89 d8                	mov    %ebx,%eax
80006f0c:	c1 e8 08             	shr    $0x8,%eax
80006f0f:	ee                   	out    %al,(%dx)
80006f10:	81 c4 1c 04 00 00    	add    $0x41c,%esp
80006f16:	5b                   	pop    %ebx
80006f17:	5e                   	pop    %esi
80006f18:	5f                   	pop    %edi
80006f19:	5d                   	pop    %ebp
80006f1a:	c3                   	ret    
80006f1b:	90                   	nop    
80006f1c:	8d 74 26 00          	lea    0x0(%esi,1),%esi
80006f20:	c7 44 24 08 16 9c 00 	movl   $0x80009c16,0x8(%esp,1)
80006f27:	80 
80006f28:	8b 45 0c             	mov    0xc(%ebp),%eax
80006f2b:	8d 95 e8 fb ff ff    	lea    0xfffffbe8(%ebp),%edx
80006f31:	c7 44 24 04 00 04 00 	movl   $0x400,0x4(%esp,1)
80006f38:	00 
80006f39:	31 f6                	xor    %esi,%esi
80006f3b:	89 14 24             	mov    %edx,(%esp,1)
80006f3e:	89 44 24 0c          	mov    %eax,0xc(%esp,1)
80006f42:	e8 89 10 00 00       	call   80007fd0 <snprintf>
80006f47:	80 bd e8 fb ff ff 00 	cmpb   $0x0,0xfffffbe8(%ebp)
80006f4e:	c6 05 c0 a2 00 80 0e 	movb   $0xe,0x8000a2c0
80006f55:	0f 84 7e 00 00 00    	je     80006fd9 <KPrint+0x139>
80006f5b:	31 ff                	xor    %edi,%edi
80006f5d:	8d 76 00             	lea    0x0(%esi),%esi
80006f60:	0f b6 8c 35 e8 fb ff 	movzbl 0xfffffbe8(%ebp,%esi,1),%ecx
80006f67:	ff 
80006f68:	46                   	inc    %esi
80006f69:	80 f9 0a             	cmp    $0xa,%cl
80006f6c:	0f 84 8e 01 00 00    	je     80007100 <KPrint+0x260>
80006f72:	80 f9 0d             	cmp    $0xd,%cl
80006f75:	0f 84 85 01 00 00    	je     80007100 <KPrint+0x260>
80006f7b:	a1 d8 a5 00 80       	mov    0x8000a5d8,%eax
80006f80:	8b 1d d4 a5 00 80    	mov    0x8000a5d4,%ebx
80006f86:	8d 14 80             	lea    (%eax,%eax,4),%edx
80006f89:	c1 e2 04             	shl    $0x4,%edx
80006f8c:	01 da                	add    %ebx,%edx
80006f8e:	8b 1d dc a5 00 80    	mov    0x8000a5dc,%ebx
80006f94:	88 0c 53             	mov    %cl,(%ebx,%edx,2)
80006f97:	a1 d8 a5 00 80       	mov    0x8000a5d8,%eax
80006f9c:	8b 1d d4 a5 00 80    	mov    0x8000a5d4,%ebx
80006fa2:	0f b6 0d c0 a2 00 80 	movzbl 0x8000a2c0,%ecx
80006fa9:	8d 14 80             	lea    (%eax,%eax,4),%edx
80006fac:	c1 e2 04             	shl    $0x4,%edx
80006faf:	01 da                	add    %ebx,%edx
80006fb1:	8b 1d dc a5 00 80    	mov    0x8000a5dc,%ebx
80006fb7:	88 4c 53 01          	mov    %cl,0x1(%ebx,%edx,2)
80006fbb:	a1 d4 a5 00 80       	mov    0x8000a5d4,%eax
80006fc0:	40                   	inc    %eax
80006fc1:	a3 d4 a5 00 80       	mov    %eax,0x8000a5d4
80006fc6:	83 f8 4f             	cmp    $0x4f,%eax
80006fc9:	0f 8f 31 01 00 00    	jg     80007100 <KPrint+0x260>
80006fcf:	80 bc 2e e8 fb ff ff 	cmpb   $0x0,0xfffffbe8(%esi,%ebp,1)
80006fd6:	00 
80006fd7:	75 87                	jne    80006f60 <KPrint+0xc0>
80006fd9:	c7 44 24 04 f2 03 00 	movl   $0x3f2,0x4(%esp,1)
80006fe0:	00 
80006fe1:	8b 45 10             	mov    0x10(%ebp),%eax
80006fe4:	8d 75 14             	lea    0x14(%ebp),%esi
80006fe7:	89 74 24 0c          	mov    %esi,0xc(%esp,1)
80006feb:	8d 8d e8 fb ff ff    	lea    0xfffffbe8(%ebp),%ecx
80006ff1:	31 f6                	xor    %esi,%esi
80006ff3:	89 44 24 08          	mov    %eax,0x8(%esp,1)
80006ff7:	89 0c 24             	mov    %ecx,(%esp,1)
80006ffa:	e8 11 0b 00 00       	call   80007b10 <vsnprintf>
80006fff:	80 bd e8 fb ff ff 00 	cmpb   $0x0,0xfffffbe8(%ebp)
80007006:	c6 05 c0 a2 00 80 07 	movb   $0x7,0x8000a2c0
8000700d:	0f 84 c4 fe ff ff    	je     80006ed7 <KPrint+0x37>
80007013:	a1 d8 a5 00 80       	mov    0x8000a5d8,%eax
80007018:	31 ff                	xor    %edi,%edi
8000701a:	8d b6 00 00 00 00    	lea    0x0(%esi),%esi
80007020:	0f b6 8c 35 e8 fb ff 	movzbl 0xfffffbe8(%ebp,%esi,1),%ecx
80007027:	ff 
80007028:	46                   	inc    %esi
80007029:	80 f9 0a             	cmp    $0xa,%cl
8000702c:	74 77                	je     800070a5 <KPrint+0x205>
8000702e:	80 f9 0d             	cmp    $0xd,%cl
80007031:	74 72                	je     800070a5 <KPrint+0x205>
80007033:	8b 1d d4 a5 00 80    	mov    0x8000a5d4,%ebx
80007039:	8d 14 80             	lea    (%eax,%eax,4),%edx
8000703c:	c1 e2 04             	shl    $0x4,%edx
8000703f:	01 da                	add    %ebx,%edx
80007041:	8b 1d dc a5 00 80    	mov    0x8000a5dc,%ebx
80007047:	88 0c 53             	mov    %cl,(%ebx,%edx,2)
8000704a:	a1 d8 a5 00 80       	mov    0x8000a5d8,%eax
8000704f:	8b 0d d4 a5 00 80    	mov    0x8000a5d4,%ecx
80007055:	0f b6 15 c0 a2 00 80 	movzbl 0x8000a2c0,%edx
8000705c:	8d 04 80             	lea    (%eax,%eax,4),%eax
8000705f:	8b 1d dc a5 00 80    	mov    0x8000a5dc,%ebx
80007065:	c1 e0 04             	shl    $0x4,%eax
80007068:	01 c8                	add    %ecx,%eax
8000706a:	88 54 43 01          	mov    %dl,0x1(%ebx,%eax,2)
8000706e:	a1 d4 a5 00 80       	mov    0x8000a5d4,%eax
80007073:	40                   	inc    %eax
80007074:	a3 d4 a5 00 80       	mov    %eax,0x8000a5d4
80007079:	83 f8 4f             	cmp    $0x4f,%eax
8000707c:	7f 22                	jg     800070a0 <KPrint+0x200>
8000707e:	a1 d8 a5 00 80       	mov    0x8000a5d8,%eax
80007083:	80 bc 2e e8 fb ff ff 	cmpb   $0x0,0xfffffbe8(%esi,%ebp,1)
8000708a:	00 
8000708b:	75 93                	jne    80007020 <KPrint+0x180>
8000708d:	e9 4a fe ff ff       	jmp    80006edc <KPrint+0x3c>
80007092:	8d b4 26 00 00 00 00 	lea    0x0(%esi,1),%esi
80007099:	8d bc 27 00 00 00 00 	lea    0x0(%edi,1),%edi
800070a0:	a1 d8 a5 00 80       	mov    0x8000a5d8,%eax
800070a5:	40                   	inc    %eax
800070a6:	31 db                	xor    %ebx,%ebx
800070a8:	83 f8 19             	cmp    $0x19,%eax
800070ab:	89 1d d4 a5 00 80    	mov    %ebx,0x8000a5d4
800070b1:	a3 d8 a5 00 80       	mov    %eax,0x8000a5d8
800070b6:	75 cb                	jne    80007083 <KPrint+0x1e3>
800070b8:	8b 0d dc a5 00 80    	mov    0x8000a5dc,%ecx
800070be:	b8 c0 03 00 00       	mov    $0x3c0,%eax
800070c3:	8d 91 a0 00 00 00    	lea    0xa0(%ecx),%edx
800070c9:	89 cb                	mov    %ecx,%ebx
800070cb:	8b 0a                	mov    (%edx),%ecx
800070cd:	83 c2 04             	add    $0x4,%edx
800070d0:	89 0b                	mov    %ecx,(%ebx)
800070d2:	83 c3 04             	add    $0x4,%ebx
800070d5:	48                   	dec    %eax
800070d6:	75 f3                	jne    800070cb <KPrint+0x22b>
800070d8:	b8 28 00 00 00       	mov    $0x28,%eax
800070dd:	8b 1d dc a5 00 80    	mov    0x8000a5dc,%ebx
800070e3:	89 f9                	mov    %edi,%ecx
800070e5:	81 c3 00 0f 00 00    	add    $0xf00,%ebx
800070eb:	89 0b                	mov    %ecx,(%ebx)
800070ed:	83 c3 04             	add    $0x4,%ebx
800070f0:	48                   	dec    %eax
800070f1:	75 f8                	jne    800070eb <KPrint+0x24b>
800070f3:	a1 d8 a5 00 80       	mov    0x8000a5d8,%eax
800070f8:	48                   	dec    %eax
800070f9:	a3 d8 a5 00 80       	mov    %eax,0x8000a5d8
800070fe:	eb 83                	jmp    80007083 <KPrint+0x1e3>
80007100:	a1 d8 a5 00 80       	mov    0x8000a5d8,%eax
80007105:	31 d2                	xor    %edx,%edx
80007107:	89 15 d4 a5 00 80    	mov    %edx,0x8000a5d4
8000710d:	40                   	inc    %eax
8000710e:	83 f8 19             	cmp    $0x19,%eax
80007111:	a3 d8 a5 00 80       	mov    %eax,0x8000a5d8
80007116:	0f 85 b3 fe ff ff    	jne    80006fcf <KPrint+0x12f>
8000711c:	8b 0d dc a5 00 80    	mov    0x8000a5dc,%ecx
80007122:	b8 c0 03 00 00       	mov    $0x3c0,%eax
80007127:	8d 91 a0 00 00 00    	lea    0xa0(%ecx),%edx
8000712d:	89 cb                	mov    %ecx,%ebx
8000712f:	8b 0a                	mov    (%edx),%ecx
80007131:	83 c2 04             	add    $0x4,%edx
80007134:	89 0b                	mov    %ecx,(%ebx)
80007136:	83 c3 04             	add    $0x4,%ebx
80007139:	48                   	dec    %eax
8000713a:	75 f3                	jne    8000712f <KPrint+0x28f>
8000713c:	b8 28 00 00 00       	mov    $0x28,%eax
80007141:	8b 1d dc a5 00 80    	mov    0x8000a5dc,%ebx
80007147:	89 f9                	mov    %edi,%ecx
80007149:	81 c3 00 0f 00 00    	add    $0xf00,%ebx
8000714f:	89 0b                	mov    %ecx,(%ebx)
80007151:	83 c3 04             	add    $0x4,%ebx
80007154:	48                   	dec    %eax
80007155:	75 f8                	jne    8000714f <KPrint+0x2af>
80007157:	ff 0d d8 a5 00 80    	decl   0x8000a5d8
8000715d:	e9 6d fe ff ff       	jmp    80006fcf <KPrint+0x12f>
80007162:	8d b4 26 00 00 00 00 	lea    0x0(%esi,1),%esi
80007169:	8d bc 27 00 00 00 00 	lea    0x0(%edi,1),%edi
80007170:	ba 01 00 00 00       	mov    $0x1,%edx
80007175:	e9 5a fd ff ff       	jmp    80006ed4 <KPrint+0x34>
8000717a:	8d b6 00 00 00 00    	lea    0x0(%esi),%esi
80007180:	83 3d bc a5 00 80 01 	cmpl   $0x1,0x8000a5bc
80007187:	0f 85 3e fd ff ff    	jne    80006ecb <KPrint+0x2b>
8000718d:	eb e1                	jmp    80007170 <KPrint+0x2d0>
8000718f:	90                   	nop    

80007190 <Console_Handler>:
80007190:	55                   	push   %ebp
80007191:	89 e5                	mov    %esp,%ebp
80007193:	b8 fc ff ff ff       	mov    $0xfffffffc,%eax
80007198:	57                   	push   %edi
80007199:	56                   	push   %esi
8000719a:	53                   	push   %ebx
8000719b:	83 ec 0c             	sub    $0xc,%esp
8000719e:	8b 55 08             	mov    0x8(%ebp),%edx
800071a1:	83 fa 04             	cmp    $0x4,%edx
800071a4:	77 4e                	ja     800071f4 <Console_Handler+0x64>
800071a6:	ff 24 95 58 9c 00 80 	jmp    *0x80009c58(,%edx,4)
800071ad:	8b 1d dc a5 00 80    	mov    0x8000a5dc,%ebx
800071b3:	31 c9                	xor    %ecx,%ecx
800071b5:	b8 e8 03 00 00       	mov    $0x3e8,%eax
800071ba:	89 0b                	mov    %ecx,(%ebx)
800071bc:	83 c3 04             	add    $0x4,%ebx
800071bf:	48                   	dec    %eax
800071c0:	75 f8                	jne    800071ba <Console_Handler+0x2a>
800071c2:	b0 0f                	mov    $0xf,%al
800071c4:	31 d2                	xor    %edx,%edx
800071c6:	89 15 d4 a5 00 80    	mov    %edx,0x8000a5d4
800071cc:	31 d2                	xor    %edx,%edx
800071ce:	89 15 d8 a5 00 80    	mov    %edx,0x8000a5d8
800071d4:	ba d4 03 00 00       	mov    $0x3d4,%edx
800071d9:	ee                   	out    %al,(%dx)
800071da:	ba d5 03 00 00       	mov    $0x3d5,%edx
800071df:	31 c0                	xor    %eax,%eax
800071e1:	ee                   	out    %al,(%dx)
800071e2:	ba d4 03 00 00       	mov    $0x3d4,%edx
800071e7:	b0 0e                	mov    $0xe,%al
800071e9:	ee                   	out    %al,(%dx)
800071ea:	31 c0                	xor    %eax,%eax
800071ec:	ba d5 03 00 00       	mov    $0x3d5,%edx
800071f1:	ee                   	out    %al,(%dx)
800071f2:	31 c0                	xor    %eax,%eax
800071f4:	83 c4 0c             	add    $0xc,%esp
800071f7:	5b                   	pop    %ebx
800071f8:	5e                   	pop    %esi
800071f9:	5f                   	pop    %edi
800071fa:	5d                   	pop    %ebp
800071fb:	c3                   	ret    
800071fc:	8b 45 0c             	mov    0xc(%ebp),%eax
800071ff:	0f b6 08             	movzbl (%eax),%ecx
80007202:	80 f9 0a             	cmp    $0xa,%cl
80007205:	0f 84 8f 00 00 00    	je     8000729a <Console_Handler+0x10a>
8000720b:	80 f9 0d             	cmp    $0xd,%cl
8000720e:	0f 84 86 00 00 00    	je     8000729a <Console_Handler+0x10a>
80007214:	a1 d8 a5 00 80       	mov    0x8000a5d8,%eax
80007219:	8b 15 d4 a5 00 80    	mov    0x8000a5d4,%edx
8000721f:	8b 35 dc a5 00 80    	mov    0x8000a5dc,%esi
80007225:	8d 3c 80             	lea    (%eax,%eax,4),%edi
80007228:	c1 e7 04             	shl    $0x4,%edi
8000722b:	01 d7                	add    %edx,%edi
8000722d:	88 0c 7e             	mov    %cl,(%esi,%edi,2)
80007230:	a1 d8 a5 00 80       	mov    0x8000a5d8,%eax
80007235:	8b 1d d4 a5 00 80    	mov    0x8000a5d4,%ebx
8000723b:	0f b6 15 c0 a2 00 80 	movzbl 0x8000a2c0,%edx
80007242:	8b 35 dc a5 00 80    	mov    0x8000a5dc,%esi
80007248:	8d 3c 80             	lea    (%eax,%eax,4),%edi
8000724b:	c1 e7 04             	shl    $0x4,%edi
8000724e:	01 df                	add    %ebx,%edi
80007250:	88 54 7e 01          	mov    %dl,0x1(%esi,%edi,2)
80007254:	8b 35 d4 a5 00 80    	mov    0x8000a5d4,%esi
8000725a:	46                   	inc    %esi
8000725b:	89 35 d4 a5 00 80    	mov    %esi,0x8000a5d4
80007261:	83 fe 4f             	cmp    $0x4f,%esi
80007264:	7f 34                	jg     8000729a <Console_Handler+0x10a>
80007266:	a1 d8 a5 00 80       	mov    0x8000a5d8,%eax
8000726b:	8d 0c 80             	lea    (%eax,%eax,4),%ecx
8000726e:	c1 e1 04             	shl    $0x4,%ecx
80007271:	8d 1c 0e             	lea    (%esi,%ecx,1),%ebx
80007274:	b1 0f                	mov    $0xf,%cl
80007276:	ba d4 03 00 00       	mov    $0x3d4,%edx
8000727b:	88 c8                	mov    %cl,%al
8000727d:	ee                   	out    %al,(%dx)
8000727e:	ba d5 03 00 00       	mov    $0x3d5,%edx
80007283:	88 d8                	mov    %bl,%al
80007285:	ee                   	out    %al,(%dx)
80007286:	ba d4 03 00 00       	mov    $0x3d4,%edx
8000728b:	b1 0e                	mov    $0xe,%cl
8000728d:	88 c8                	mov    %cl,%al
8000728f:	ee                   	out    %al,(%dx)
80007290:	89 d8                	mov    %ebx,%eax
80007292:	c1 e8 08             	shr    $0x8,%eax
80007295:	e9 52 ff ff ff       	jmp    800071ec <Console_Handler+0x5c>
8000729a:	31 c0                	xor    %eax,%eax
8000729c:	31 f6                	xor    %esi,%esi
8000729e:	a3 d4 a5 00 80       	mov    %eax,0x8000a5d4
800072a3:	a1 d8 a5 00 80       	mov    0x8000a5d8,%eax
800072a8:	40                   	inc    %eax
800072a9:	a3 d8 a5 00 80       	mov    %eax,0x8000a5d8
800072ae:	83 f8 19             	cmp    $0x19,%eax
800072b1:	75 b8                	jne    8000726b <Console_Handler+0xdb>
800072b3:	8b 1d dc a5 00 80    	mov    0x8000a5dc,%ebx
800072b9:	b8 c0 03 00 00       	mov    $0x3c0,%eax
800072be:	8d bb a0 00 00 00    	lea    0xa0(%ebx),%edi
800072c4:	89 da                	mov    %ebx,%edx
800072c6:	8b 0f                	mov    (%edi),%ecx
800072c8:	83 c7 04             	add    $0x4,%edi
800072cb:	89 0a                	mov    %ecx,(%edx)
800072cd:	83 c2 04             	add    $0x4,%edx
800072d0:	48                   	dec    %eax
800072d1:	75 f3                	jne    800072c6 <Console_Handler+0x136>
800072d3:	b8 28 00 00 00       	mov    $0x28,%eax
800072d8:	8b 3d dc a5 00 80    	mov    0x8000a5dc,%edi
800072de:	89 f1                	mov    %esi,%ecx
800072e0:	81 c7 00 0f 00 00    	add    $0xf00,%edi
800072e6:	89 0f                	mov    %ecx,(%edi)
800072e8:	83 c7 04             	add    $0x4,%edi
800072eb:	48                   	dec    %eax
800072ec:	75 f8                	jne    800072e6 <Console_Handler+0x156>
800072ee:	8b 35 d4 a5 00 80    	mov    0x8000a5d4,%esi
800072f4:	a1 d8 a5 00 80       	mov    0x8000a5d8,%eax
800072f9:	48                   	dec    %eax
800072fa:	a3 d8 a5 00 80       	mov    %eax,0x8000a5d8
800072ff:	e9 67 ff ff ff       	jmp    8000726b <Console_Handler+0xdb>
80007304:	a1 d8 a5 00 80       	mov    0x8000a5d8,%eax
80007309:	8b 15 d4 a5 00 80    	mov    0x8000a5d4,%edx
8000730f:	8b 0d dc a5 00 80    	mov    0x8000a5dc,%ecx
80007315:	8d 1c 80             	lea    (%eax,%eax,4),%ebx
80007318:	4a                   	dec    %edx
80007319:	c1 e3 04             	shl    $0x4,%ebx
8000731c:	89 15 d4 a5 00 80    	mov    %edx,0x8000a5d4
80007322:	01 d3                	add    %edx,%ebx
80007324:	c6 04 59 00          	movb   $0x0,(%ecx,%ebx,2)
80007328:	a1 d8 a5 00 80       	mov    0x8000a5d8,%eax
8000732d:	8b 3d d4 a5 00 80    	mov    0x8000a5d4,%edi
80007333:	0f b6 15 c0 a2 00 80 	movzbl 0x8000a2c0,%edx
8000733a:	8d 34 80             	lea    (%eax,%eax,4),%esi
8000733d:	8b 1d dc a5 00 80    	mov    0x8000a5dc,%ebx
80007343:	c1 e6 04             	shl    $0x4,%esi
80007346:	01 fe                	add    %edi,%esi
80007348:	88 54 73 01          	mov    %dl,0x1(%ebx,%esi,2)
8000734c:	a1 d8 a5 00 80       	mov    0x8000a5d8,%eax
80007351:	8d 1c 80             	lea    (%eax,%eax,4),%ebx
80007354:	a1 d4 a5 00 80       	mov    0x8000a5d4,%eax
80007359:	c1 e3 04             	shl    $0x4,%ebx
8000735c:	01 c3                	add    %eax,%ebx
8000735e:	e9 11 ff ff ff       	jmp    80007274 <Console_Handler+0xe4>
80007363:	c6 05 c0 a2 00 80 07 	movb   $0x7,0x8000a2c0
8000736a:	8b 75 0c             	mov    0xc(%ebp),%esi
8000736d:	31 ff                	xor    %edi,%edi
8000736f:	0f b6 06             	movzbl (%esi),%eax
80007372:	84 c0                	test   %al,%al
80007374:	0f 84 78 fe ff ff    	je     800071f2 <Console_Handler+0x62>
8000737a:	88 c1                	mov    %al,%cl
8000737c:	8d 74 26 00          	lea    0x0(%esi,1),%esi
80007380:	47                   	inc    %edi
80007381:	80 f9 0a             	cmp    $0xa,%cl
80007384:	74 6a                	je     800073f0 <Console_Handler+0x260>
80007386:	80 f9 0d             	cmp    $0xd,%cl
80007389:	74 65                	je     800073f0 <Console_Handler+0x260>
8000738b:	a1 d8 a5 00 80       	mov    0x8000a5d8,%eax
80007390:	8b 35 d4 a5 00 80    	mov    0x8000a5d4,%esi
80007396:	8d 14 80             	lea    (%eax,%eax,4),%edx
80007399:	c1 e2 04             	shl    $0x4,%edx
8000739c:	01 f2                	add    %esi,%edx
8000739e:	8b 35 dc a5 00 80    	mov    0x8000a5dc,%esi
800073a4:	88 0c 56             	mov    %cl,(%esi,%edx,2)
800073a7:	a1 d8 a5 00 80       	mov    0x8000a5d8,%eax
800073ac:	8b 0d d4 a5 00 80    	mov    0x8000a5d4,%ecx
800073b2:	0f b6 15 c0 a2 00 80 	movzbl 0x8000a2c0,%edx
800073b9:	8d 1c 80             	lea    (%eax,%eax,4),%ebx
800073bc:	8b 35 dc a5 00 80    	mov    0x8000a5dc,%esi
800073c2:	c1 e3 04             	shl    $0x4,%ebx
800073c5:	01 cb                	add    %ecx,%ebx
800073c7:	88 54 5e 01          	mov    %dl,0x1(%esi,%ebx,2)
800073cb:	a1 d4 a5 00 80       	mov    0x8000a5d4,%eax
800073d0:	40                   	inc    %eax
800073d1:	a3 d4 a5 00 80       	mov    %eax,0x8000a5d4
800073d6:	83 f8 4f             	cmp    $0x4f,%eax
800073d9:	7f 15                	jg     800073f0 <Console_Handler+0x260>
800073db:	8b 45 0c             	mov    0xc(%ebp),%eax
800073de:	0f b6 1c 07          	movzbl (%edi,%eax,1),%ebx
800073e2:	84 db                	test   %bl,%bl
800073e4:	88 d9                	mov    %bl,%cl
800073e6:	75 98                	jne    80007380 <Console_Handler+0x1f0>
800073e8:	e9 05 fe ff ff       	jmp    800071f2 <Console_Handler+0x62>
800073ed:	8d 76 00             	lea    0x0(%esi),%esi
800073f0:	a1 d8 a5 00 80       	mov    0x8000a5d8,%eax
800073f5:	31 c9                	xor    %ecx,%ecx
800073f7:	31 f6                	xor    %esi,%esi
800073f9:	89 0d d4 a5 00 80    	mov    %ecx,0x8000a5d4
800073ff:	40                   	inc    %eax
80007400:	83 f8 19             	cmp    $0x19,%eax
80007403:	a3 d8 a5 00 80       	mov    %eax,0x8000a5d8
80007408:	75 d1                	jne    800073db <Console_Handler+0x24b>
8000740a:	8b 0d dc a5 00 80    	mov    0x8000a5dc,%ecx
80007410:	b8 c0 03 00 00       	mov    $0x3c0,%eax
80007415:	8d 91 a0 00 00 00    	lea    0xa0(%ecx),%edx
8000741b:	89 cb                	mov    %ecx,%ebx
8000741d:	8b 0a                	mov    (%edx),%ecx
8000741f:	83 c2 04             	add    $0x4,%edx
80007422:	89 0b                	mov    %ecx,(%ebx)
80007424:	83 c3 04             	add    $0x4,%ebx
80007427:	48                   	dec    %eax
80007428:	75 f3                	jne    8000741d <Console_Handler+0x28d>
8000742a:	b8 28 00 00 00       	mov    $0x28,%eax
8000742f:	8b 1d dc a5 00 80    	mov    0x8000a5dc,%ebx
80007435:	89 f1                	mov    %esi,%ecx
80007437:	81 c3 00 0f 00 00    	add    $0xf00,%ebx
8000743d:	89 0b                	mov    %ecx,(%ebx)
8000743f:	83 c3 04             	add    $0x4,%ebx
80007442:	48                   	dec    %eax
80007443:	75 f8                	jne    8000743d <Console_Handler+0x2ad>
80007445:	ff 0d d8 a5 00 80    	decl   0x8000a5d8
8000744b:	eb 8e                	jmp    800073db <Console_Handler+0x24b>
8000744d:	8b 7d 0c             	mov    0xc(%ebp),%edi
80007450:	8b 47 08             	mov    0x8(%edi),%eax
80007453:	89 44 24 08          	mov    %eax,0x8(%esp,1)
80007457:	8b 47 04             	mov    0x4(%edi),%eax
8000745a:	89 44 24 04          	mov    %eax,0x4(%esp,1)
8000745e:	8b 07                	mov    (%edi),%eax
80007460:	89 04 24             	mov    %eax,(%esp,1)
80007463:	e8 38 fa ff ff       	call   80006ea0 <KPrint>
80007468:	e9 df fe ff ff       	jmp    8000734c <Console_Handler+0x1bc>
8000746d:	8d 76 00             	lea    0x0(%esi),%esi

80007470 <Console_Init>:
80007470:	55                   	push   %ebp
80007471:	b8 00 80 0b 00       	mov    $0xb8000,%eax
80007476:	89 e5                	mov    %esp,%ebp
80007478:	a3 dc a5 00 80       	mov    %eax,0x8000a5dc
8000747d:	ba d4 03 00 00       	mov    $0x3d4,%edx
80007482:	b0 09                	mov    $0x9,%al
80007484:	ee                   	out    %al,(%dx)
80007485:	ba d5 03 00 00       	mov    $0x3d5,%edx
8000748a:	ec                   	in     (%dx),%al
8000748b:	88 c1                	mov    %al,%cl
8000748d:	80 e1 1f             	and    $0x1f,%cl
80007490:	ba d4 03 00 00       	mov    $0x3d4,%edx
80007495:	b0 0a                	mov    $0xa,%al
80007497:	ee                   	out    %al,(%dx)
80007498:	ba d5 03 00 00       	mov    $0x3d5,%edx
8000749d:	88 c8                	mov    %cl,%al
8000749f:	d0 e8                	shr    %al
800074a1:	ee                   	out    %al,(%dx)
800074a2:	ba d4 03 00 00       	mov    $0x3d4,%edx
800074a7:	b0 0b                	mov    $0xb,%al
800074a9:	ee                   	out    %al,(%dx)
800074aa:	ba d5 03 00 00       	mov    $0x3d5,%edx
800074af:	88 c8                	mov    %cl,%al
800074b1:	ee                   	out    %al,(%dx)
800074b2:	b8 e8 03 00 00       	mov    $0x3e8,%eax
800074b7:	b9 00 80 0b 00       	mov    $0xb8000,%ecx
800074bc:	31 d2                	xor    %edx,%edx
800074be:	89 11                	mov    %edx,(%ecx)
800074c0:	83 c1 04             	add    $0x4,%ecx
800074c3:	48                   	dec    %eax
800074c4:	75 f8                	jne    800074be <Console_Init+0x4e>
800074c6:	b0 0f                	mov    $0xf,%al
800074c8:	31 d2                	xor    %edx,%edx
800074ca:	89 15 d4 a5 00 80    	mov    %edx,0x8000a5d4
800074d0:	31 d2                	xor    %edx,%edx
800074d2:	89 15 d8 a5 00 80    	mov    %edx,0x8000a5d8
800074d8:	ba d4 03 00 00       	mov    $0x3d4,%edx
800074dd:	ee                   	out    %al,(%dx)
800074de:	ba d5 03 00 00       	mov    $0x3d5,%edx
800074e3:	31 c0                	xor    %eax,%eax
800074e5:	ee                   	out    %al,(%dx)
800074e6:	ba d4 03 00 00       	mov    $0x3d4,%edx
800074eb:	b0 0e                	mov    $0xe,%al
800074ed:	ee                   	out    %al,(%dx)
800074ee:	ba d5 03 00 00       	mov    $0x3d5,%edx
800074f3:	31 c0                	xor    %eax,%eax
800074f5:	ee                   	out    %al,(%dx)
800074f6:	5d                   	pop    %ebp
800074f7:	c3                   	ret    
800074f8:	90                   	nop    
800074f9:	8d b4 26 00 00 00 00 	lea    0x0(%esi,1),%esi

80007500 <Console_Remap>:
80007500:	55                   	push   %ebp
80007501:	89 e5                	mov    %esp,%ebp
80007503:	83 ec 18             	sub    $0x18,%esp
80007506:	e8 b5 de ff ff       	call   800053c0 <MemoryManager_Lock>
8000750b:	c7 04 24 00 80 0b 00 	movl   $0xb8000,(%esp,1)
80007512:	a1 68 a4 00 80       	mov    0x8000a468,%eax
80007517:	c7 44 24 0c 0a 00 00 	movl   $0xa,0xc(%esp,1)
8000751e:	00 
8000751f:	c7 44 24 08 08 00 00 	movl   $0x8,0x8(%esp,1)
80007526:	00 
80007527:	89 44 24 04          	mov    %eax,0x4(%esp,1)
8000752b:	e8 40 d9 ff ff       	call   80004e70 <MemoryManager_Page_Map>
80007530:	e8 ab de ff ff       	call   800053e0 <MemoryManager_Unlock>
80007535:	a1 68 a4 00 80       	mov    0x8000a468,%eax
8000753a:	a3 dc a5 00 80       	mov    %eax,0x8000a5dc
8000753f:	05 00 80 00 00       	add    $0x8000,%eax
80007544:	a3 68 a4 00 80       	mov    %eax,0x8000a468
80007549:	89 ec                	mov    %ebp,%esp
8000754b:	5d                   	pop    %ebp
8000754c:	c3                   	ret    
8000754d:	8d 76 00             	lea    0x0(%esi),%esi

80007550 <Console_CreateModuleInterface>:
80007550:	55                   	push   %ebp
80007551:	89 e5                	mov    %esp,%ebp
80007553:	83 ec 18             	sub    $0x18,%esp
80007556:	c7 44 24 04 90 71 00 	movl   $0x80007190,0x4(%esp,1)
8000755d:	80 
8000755e:	c7 04 24 1f 9c 00 80 	movl   $0x80009c1f,(%esp,1)
80007565:	e8 86 ef ff ff       	call   800064f0 <ModuleManager_CreateModule>
8000756a:	c7 44 24 08 00 00 00 	movl   $0x0,0x8(%esp,1)
80007571:	00 
80007572:	c7 44 24 04 27 9c 00 	movl   $0x80009c27,0x4(%esp,1)
80007579:	80 
8000757a:	c7 04 24 1f 9c 00 80 	movl   $0x80009c1f,(%esp,1)
80007581:	e8 7a f0 ff ff       	call   80006600 <ModuleManager_CreateModuleCall>
80007586:	c7 44 24 08 01 00 00 	movl   $0x1,0x8(%esp,1)
8000758d:	00 
8000758e:	c7 44 24 04 2d 9c 00 	movl   $0x80009c2d,0x4(%esp,1)
80007595:	80 
80007596:	c7 04 24 1f 9c 00 80 	movl   $0x80009c1f,(%esp,1)
8000759d:	e8 5e f0 ff ff       	call   80006600 <ModuleManager_CreateModuleCall>
800075a2:	c7 44 24 08 02 00 00 	movl   $0x2,0x8(%esp,1)
800075a9:	00 
800075aa:	c7 44 24 04 3c 9c 00 	movl   $0x80009c3c,0x4(%esp,1)
800075b1:	80 
800075b2:	c7 04 24 1f 9c 00 80 	movl   $0x80009c1f,(%esp,1)
800075b9:	e8 42 f0 ff ff       	call   80006600 <ModuleManager_CreateModuleCall>
800075be:	c7 44 24 08 03 00 00 	movl   $0x3,0x8(%esp,1)
800075c5:	00 
800075c6:	c7 44 24 04 51 9c 00 	movl   $0x80009c51,0x4(%esp,1)
800075cd:	80 
800075ce:	c7 04 24 1f 9c 00 80 	movl   $0x80009c1f,(%esp,1)
800075d5:	e8 26 f0 ff ff       	call   80006600 <ModuleManager_CreateModuleCall>
800075da:	c7 44 24 08 04 00 00 	movl   $0x4,0x8(%esp,1)
800075e1:	00 
800075e2:	c7 44 24 04 4c 9c 00 	movl   $0x80009c4c,0x4(%esp,1)
800075e9:	80 
800075ea:	c7 04 24 1f 9c 00 80 	movl   $0x80009c1f,(%esp,1)
800075f1:	e8 0a f0 ff ff       	call   80006600 <ModuleManager_CreateModuleCall>
800075f6:	89 ec                	mov    %ebp,%esp
800075f8:	5d                   	pop    %ebp
800075f9:	c3                   	ret    
800075fa:	8d b6 00 00 00 00    	lea    0x0(%esi),%esi

80007600 <Console_MoveCursor>:
80007600:	55                   	push   %ebp
80007601:	a1 d8 a5 00 80       	mov    0x8000a5d8,%eax
80007606:	b1 0f                	mov    $0xf,%cl
80007608:	89 e5                	mov    %esp,%ebp
8000760a:	ba d4 03 00 00       	mov    $0x3d4,%edx
8000760f:	53                   	push   %ebx
80007610:	8d 1c 80             	lea    (%eax,%eax,4),%ebx
80007613:	a1 d4 a5 00 80       	mov    0x8000a5d4,%eax
80007618:	c1 e3 04             	shl    $0x4,%ebx
8000761b:	01 c3                	add    %eax,%ebx
8000761d:	88 c8                	mov    %cl,%al
8000761f:	ee                   	out    %al,(%dx)
80007620:	88 d8                	mov    %bl,%al
80007622:	ba d5 03 00 00       	mov    $0x3d5,%edx
80007627:	ee                   	out    %al,(%dx)
80007628:	ba d4 03 00 00       	mov    $0x3d4,%edx
8000762d:	b1 0e                	mov    $0xe,%cl
8000762f:	88 c8                	mov    %cl,%al
80007631:	ee                   	out    %al,(%dx)
80007632:	ba d5 03 00 00       	mov    $0x3d5,%edx
80007637:	89 d8                	mov    %ebx,%eax
80007639:	c1 e8 08             	shr    $0x8,%eax
8000763c:	ee                   	out    %al,(%dx)
8000763d:	5b                   	pop    %ebx
8000763e:	5d                   	pop    %ebp
8000763f:	c3                   	ret    

80007640 <KClear>:
80007640:	55                   	push   %ebp
80007641:	8b 0d dc a5 00 80    	mov    0x8000a5dc,%ecx
80007647:	31 d2                	xor    %edx,%edx
80007649:	89 e5                	mov    %esp,%ebp
8000764b:	b8 e8 03 00 00       	mov    $0x3e8,%eax
80007650:	89 11                	mov    %edx,(%ecx)
80007652:	83 c1 04             	add    $0x4,%ecx
80007655:	48                   	dec    %eax
80007656:	75 f8                	jne    80007650 <KClear+0x10>
80007658:	ba d4 03 00 00       	mov    $0x3d4,%edx
8000765d:	31 c0                	xor    %eax,%eax
8000765f:	a3 d4 a5 00 80       	mov    %eax,0x8000a5d4
80007664:	31 c0                	xor    %eax,%eax
80007666:	a3 d8 a5 00 80       	mov    %eax,0x8000a5d8
8000766b:	b0 0f                	mov    $0xf,%al
8000766d:	ee                   	out    %al,(%dx)
8000766e:	ba d5 03 00 00       	mov    $0x3d5,%edx
80007673:	31 c0                	xor    %eax,%eax
80007675:	ee                   	out    %al,(%dx)
80007676:	ba d4 03 00 00       	mov    $0x3d4,%edx
8000767b:	b0 0e                	mov    $0xe,%al
8000767d:	ee                   	out    %al,(%dx)
8000767e:	ba d5 03 00 00       	mov    $0x3d5,%edx
80007683:	31 c0                	xor    %eax,%eax
80007685:	ee                   	out    %al,(%dx)
80007686:	5d                   	pop    %ebp
80007687:	c3                   	ret    
80007688:	90                   	nop    
80007689:	8d b4 26 00 00 00 00 	lea    0x0(%esi,1),%esi

80007690 <Console_WriteChar>:
80007690:	55                   	push   %ebp
80007691:	89 e5                	mov    %esp,%ebp
80007693:	53                   	push   %ebx
80007694:	8b 4d 08             	mov    0x8(%ebp),%ecx
80007697:	80 f9 0a             	cmp    $0xa,%cl
8000769a:	74 55                	je     800076f1 <Console_WriteChar+0x61>
8000769c:	80 f9 0d             	cmp    $0xd,%cl
8000769f:	74 50                	je     800076f1 <Console_WriteChar+0x61>
800076a1:	a1 d8 a5 00 80       	mov    0x8000a5d8,%eax
800076a6:	8b 1d d4 a5 00 80    	mov    0x8000a5d4,%ebx
800076ac:	8d 04 80             	lea    (%eax,%eax,4),%eax
800076af:	c1 e0 04             	shl    $0x4,%eax
800076b2:	01 d8                	add    %ebx,%eax
800076b4:	8b 1d dc a5 00 80    	mov    0x8000a5dc,%ebx
800076ba:	88 0c 43             	mov    %cl,(%ebx,%eax,2)
800076bd:	a1 d8 a5 00 80       	mov    0x8000a5d8,%eax
800076c2:	8b 0d d4 a5 00 80    	mov    0x8000a5d4,%ecx
800076c8:	8b 1d dc a5 00 80    	mov    0x8000a5dc,%ebx
800076ce:	8d 14 80             	lea    (%eax,%eax,4),%edx
800076d1:	c1 e2 04             	shl    $0x4,%edx
800076d4:	01 ca                	add    %ecx,%edx
800076d6:	0f b6 0d c0 a2 00 80 	movzbl 0x8000a2c0,%ecx
800076dd:	88 4c 53 01          	mov    %cl,0x1(%ebx,%edx,2)
800076e1:	a1 d4 a5 00 80       	mov    0x8000a5d4,%eax
800076e6:	40                   	inc    %eax
800076e7:	a3 d4 a5 00 80       	mov    %eax,0x8000a5d4
800076ec:	83 f8 4f             	cmp    $0x4f,%eax
800076ef:	7e 17                	jle    80007708 <Console_WriteChar+0x78>
800076f1:	31 c0                	xor    %eax,%eax
800076f3:	a3 d4 a5 00 80       	mov    %eax,0x8000a5d4
800076f8:	a1 d8 a5 00 80       	mov    0x8000a5d8,%eax
800076fd:	40                   	inc    %eax
800076fe:	a3 d8 a5 00 80       	mov    %eax,0x8000a5d8
80007703:	83 f8 19             	cmp    $0x19,%eax
80007706:	74 08                	je     80007710 <Console_WriteChar+0x80>
80007708:	5b                   	pop    %ebx
80007709:	5d                   	pop    %ebp
8000770a:	c3                   	ret    
8000770b:	90                   	nop    
8000770c:	8d 74 26 00          	lea    0x0(%esi,1),%esi
80007710:	8b 0d dc a5 00 80    	mov    0x8000a5dc,%ecx
80007716:	b8 c0 03 00 00       	mov    $0x3c0,%eax
8000771b:	8d 91 a0 00 00 00    	lea    0xa0(%ecx),%edx
80007721:	89 cb                	mov    %ecx,%ebx
80007723:	8b 0a                	mov    (%edx),%ecx
80007725:	83 c2 04             	add    $0x4,%edx
80007728:	89 0b                	mov    %ecx,(%ebx)
8000772a:	83 c3 04             	add    $0x4,%ebx
8000772d:	48                   	dec    %eax
8000772e:	75 f3                	jne    80007723 <Console_WriteChar+0x93>
80007730:	b8 28 00 00 00       	mov    $0x28,%eax
80007735:	8b 1d dc a5 00 80    	mov    0x8000a5dc,%ebx
8000773b:	31 c9                	xor    %ecx,%ecx
8000773d:	81 c3 00 0f 00 00    	add    $0xf00,%ebx
80007743:	89 0b                	mov    %ecx,(%ebx)
80007745:	83 c3 04             	add    $0x4,%ebx
80007748:	48                   	dec    %eax
80007749:	75 f8                	jne    80007743 <Console_WriteChar+0xb3>
8000774b:	ff 0d d8 a5 00 80    	decl   0x8000a5d8
80007751:	eb b5                	jmp    80007708 <Console_WriteChar+0x78>
80007753:	8d b6 00 00 00 00    	lea    0x0(%esi),%esi
80007759:	8d bc 27 00 00 00 00 	lea    0x0(%edi,1),%edi

80007760 <Console_DeleteChar>:
80007760:	55                   	push   %ebp
80007761:	a1 d8 a5 00 80       	mov    0x8000a5d8,%eax
80007766:	89 e5                	mov    %esp,%ebp
80007768:	53                   	push   %ebx
80007769:	8b 1d d4 a5 00 80    	mov    0x8000a5d4,%ebx
8000776f:	8d 0c 80             	lea    (%eax,%eax,4),%ecx
80007772:	4b                   	dec    %ebx
80007773:	c1 e1 04             	shl    $0x4,%ecx
80007776:	01 d9                	add    %ebx,%ecx
80007778:	89 1d d4 a5 00 80    	mov    %ebx,0x8000a5d4
8000777e:	8b 1d dc a5 00 80    	mov    0x8000a5dc,%ebx
80007784:	c6 04 4b 00          	movb   $0x0,(%ebx,%ecx,2)
80007788:	a1 d8 a5 00 80       	mov    0x8000a5d8,%eax
8000778d:	8b 0d d4 a5 00 80    	mov    0x8000a5d4,%ecx
80007793:	0f b6 15 c0 a2 00 80 	movzbl 0x8000a2c0,%edx
8000779a:	8b 1d dc a5 00 80    	mov    0x8000a5dc,%ebx
800077a0:	8d 04 80             	lea    (%eax,%eax,4),%eax
800077a3:	c1 e0 04             	shl    $0x4,%eax
800077a6:	01 c8                	add    %ecx,%eax
800077a8:	b1 0f                	mov    $0xf,%cl
800077aa:	88 54 43 01          	mov    %dl,0x1(%ebx,%eax,2)
800077ae:	ba d4 03 00 00       	mov    $0x3d4,%edx
800077b3:	a1 d8 a5 00 80       	mov    0x8000a5d8,%eax
800077b8:	8d 1c 80             	lea    (%eax,%eax,4),%ebx
800077bb:	a1 d4 a5 00 80       	mov    0x8000a5d4,%eax
800077c0:	c1 e3 04             	shl    $0x4,%ebx
800077c3:	01 c3                	add    %eax,%ebx
800077c5:	88 c8                	mov    %cl,%al
800077c7:	ee                   	out    %al,(%dx)
800077c8:	88 d8                	mov    %bl,%al
800077ca:	ba d5 03 00 00       	mov    $0x3d5,%edx
800077cf:	ee                   	out    %al,(%dx)
800077d0:	ba d4 03 00 00       	mov    $0x3d4,%edx
800077d5:	b1 0e                	mov    $0xe,%cl
800077d7:	88 c8                	mov    %cl,%al
800077d9:	ee                   	out    %al,(%dx)
800077da:	ba d5 03 00 00       	mov    $0x3d5,%edx
800077df:	89 d8                	mov    %ebx,%eax
800077e1:	c1 e8 08             	shr    $0x8,%eax
800077e4:	ee                   	out    %al,(%dx)
800077e5:	5b                   	pop    %ebx
800077e6:	5d                   	pop    %ebp
800077e7:	c3                   	ret    
	...

800077f0 <Descriptor_SetInterruptGate>:
800077f0:	55                   	push   %ebp
800077f1:	89 e5                	mov    %esp,%ebp
800077f3:	8b 4d 08             	mov    0x8(%ebp),%ecx
800077f6:	a1 40 a4 00 80       	mov    0x8000a440,%eax
800077fb:	8b 55 0c             	mov    0xc(%ebp),%edx
800077fe:	66 c7 44 c8 02 08 00 	movw   $0x8,0x2(%eax,%ecx,8)
80007805:	66 89 14 c8          	mov    %dx,(%eax,%ecx,8)
80007809:	c1 ea 10             	shr    $0x10,%edx
8000780c:	66 89 54 c8 06       	mov    %dx,0x6(%eax,%ecx,8)
80007811:	66 c7 44 c8 04 00 8e 	movw   $0x8e00,0x4(%eax,%ecx,8)
80007818:	5d                   	pop    %ebp
80007819:	c3                   	ret    
8000781a:	8d b6 00 00 00 00    	lea    0x0(%esi),%esi

80007820 <Descriptor_SetTaskGate>:
80007820:	55                   	push   %ebp
80007821:	89 e5                	mov    %esp,%ebp
80007823:	8b 4d 08             	mov    0x8(%ebp),%ecx
80007826:	a1 40 a4 00 80       	mov    0x8000a440,%eax
8000782b:	8b 55 0c             	mov    0xc(%ebp),%edx
8000782e:	66 c7 44 c8 02 08 00 	movw   $0x8,0x2(%eax,%ecx,8)
80007835:	66 89 14 c8          	mov    %dx,(%eax,%ecx,8)
80007839:	c1 ea 10             	shr    $0x10,%edx
8000783c:	66 89 54 c8 06       	mov    %dx,0x6(%eax,%ecx,8)
80007841:	66 c7 44 c8 04 00 85 	movw   $0x8500,0x4(%eax,%ecx,8)
80007848:	5d                   	pop    %ebp
80007849:	c3                   	ret    
8000784a:	8d b6 00 00 00 00    	lea    0x0(%esi),%esi

80007850 <Descriptor_SetCallGate>:
80007850:	55                   	push   %ebp
80007851:	89 e5                	mov    %esp,%ebp
80007853:	8b 4d 08             	mov    0x8(%ebp),%ecx
80007856:	a1 40 a4 00 80       	mov    0x8000a440,%eax
8000785b:	8b 55 0c             	mov    0xc(%ebp),%edx
8000785e:	66 c7 44 c8 02 08 00 	movw   $0x8,0x2(%eax,%ecx,8)
80007865:	66 89 14 c8          	mov    %dx,(%eax,%ecx,8)
80007869:	c1 ea 10             	shr    $0x10,%edx
8000786c:	66 89 54 c8 06       	mov    %dx,0x6(%eax,%ecx,8)
80007871:	66 c7 44 c8 04 00 8c 	movw   $0x8c00,0x4(%eax,%ecx,8)
80007878:	5d                   	pop    %ebp
80007879:	c3                   	ret    
8000787a:	8d b6 00 00 00 00    	lea    0x0(%esi),%esi

80007880 <Descriptor_SetBase>:
80007880:	55                   	push   %ebp
80007881:	89 e5                	mov    %esp,%ebp
80007883:	8b 45 0c             	mov    0xc(%ebp),%eax
80007886:	0f b7 4d 08          	movzwl 0x8(%ebp),%ecx
8000788a:	8b 15 44 a4 00 80    	mov    0x8000a444,%edx
80007890:	c1 e9 03             	shr    $0x3,%ecx
80007893:	66 89 44 ca 02       	mov    %ax,0x2(%edx,%ecx,8)
80007898:	c1 e8 10             	shr    $0x10,%eax
8000789b:	88 44 ca 04          	mov    %al,0x4(%edx,%ecx,8)
8000789f:	c1 e8 08             	shr    $0x8,%eax
800078a2:	8b 15 44 a4 00 80    	mov    0x8000a444,%edx
800078a8:	88 44 ca 07          	mov    %al,0x7(%edx,%ecx,8)
800078ac:	5d                   	pop    %ebp
800078ad:	c3                   	ret    
800078ae:	89 f6                	mov    %esi,%esi

800078b0 <Descriptor_SetLimit>:
800078b0:	55                   	push   %ebp
800078b1:	89 e5                	mov    %esp,%ebp
800078b3:	8b 55 0c             	mov    0xc(%ebp),%edx
800078b6:	0f b7 4d 08          	movzwl 0x8(%ebp),%ecx
800078ba:	a1 44 a4 00 80       	mov    0x8000a444,%eax
800078bf:	c1 e9 03             	shr    $0x3,%ecx
800078c2:	81 fa ff ff 0f 00    	cmp    $0xfffff,%edx
800078c8:	c6 44 c8 06 40       	movb   $0x40,0x6(%eax,%ecx,8)
800078cd:	76 0d                	jbe    800078dc <Descriptor_SetLimit+0x2c>
800078cf:	a1 44 a4 00 80       	mov    0x8000a444,%eax
800078d4:	c1 ea 0c             	shr    $0xc,%edx
800078d7:	80 4c c8 06 80       	orb    $0x80,0x6(%eax,%ecx,8)
800078dc:	a1 44 a4 00 80       	mov    0x8000a444,%eax
800078e1:	66 89 14 c8          	mov    %dx,(%eax,%ecx,8)
800078e5:	c1 ea 10             	shr    $0x10,%edx
800078e8:	80 e2 0f             	and    $0xf,%dl
800078eb:	08 54 c8 06          	or     %dl,0x6(%eax,%ecx,8)
800078ef:	5d                   	pop    %ebp
800078f0:	c3                   	ret    
800078f1:	eb 0d                	jmp    80007900 <Descriptor_SetAccess>
800078f3:	90                   	nop    
800078f4:	90                   	nop    
800078f5:	90                   	nop    
800078f6:	90                   	nop    
800078f7:	90                   	nop    
800078f8:	90                   	nop    
800078f9:	90                   	nop    
800078fa:	90                   	nop    
800078fb:	90                   	nop    
800078fc:	90                   	nop    
800078fd:	90                   	nop    
800078fe:	90                   	nop    
800078ff:	90                   	nop    

80007900 <Descriptor_SetAccess>:
80007900:	55                   	push   %ebp
80007901:	89 e5                	mov    %esp,%ebp
80007903:	8b 4d 0c             	mov    0xc(%ebp),%ecx
80007906:	0f b7 45 08          	movzwl 0x8(%ebp),%eax
8000790a:	8b 15 44 a4 00 80    	mov    0x8000a444,%edx
80007910:	c1 e8 03             	shr    $0x3,%eax
80007913:	88 4c c2 05          	mov    %cl,0x5(%edx,%eax,8)
80007917:	5d                   	pop    %ebp
80007918:	c3                   	ret    
80007919:	00 00                	add    %al,(%eax)
8000791b:	00 00                	add    %al,(%eax)
8000791d:	00 00                	add    %al,(%eax)
	...

80007920 <Exception_Debug>:
80007920:	55                   	push   %ebp
80007921:	89 e5                	mov    %esp,%ebp
80007923:	83 ec 18             	sub    $0x18,%esp
80007926:	8b 45 08             	mov    0x8(%ebp),%eax
80007929:	8b 48 2c             	mov    0x2c(%eax),%ecx
8000792c:	89 4c 24 10          	mov    %ecx,0x10(%esp,1)
80007930:	0f b7 50 30          	movzwl 0x30(%eax),%edx
80007934:	c7 04 24 01 00 00 00 	movl   $0x1,(%esp,1)
8000793b:	c7 44 24 08 80 9c 00 	movl   $0x80009c80,0x8(%esp,1)
80007942:	80 
80007943:	c7 44 24 04 c6 9d 00 	movl   $0x80009dc6,0x4(%esp,1)
8000794a:	80 
8000794b:	89 54 24 0c          	mov    %edx,0xc(%esp,1)
8000794f:	e8 4c f5 ff ff       	call   80006ea0 <KPrint>
80007954:	89 ec                	mov    %ebp,%esp
80007956:	5d                   	pop    %ebp
80007957:	c3                   	ret    
80007958:	90                   	nop    
80007959:	8d b4 26 00 00 00 00 	lea    0x0(%esi,1),%esi

80007960 <Exception_InvalidOpCode>:
80007960:	55                   	push   %ebp
80007961:	89 e5                	mov    %esp,%ebp
80007963:	83 ec 18             	sub    $0x18,%esp
80007966:	8b 45 08             	mov    0x8(%ebp),%eax
80007969:	8b 48 2c             	mov    0x2c(%eax),%ecx
8000796c:	89 4c 24 10          	mov    %ecx,0x10(%esp,1)
80007970:	0f b7 50 30          	movzwl 0x30(%eax),%edx
80007974:	c7 04 24 01 00 00 00 	movl   $0x1,(%esp,1)
8000797b:	c7 44 24 08 c0 9c 00 	movl   $0x80009cc0,0x8(%esp,1)
80007982:	80 
80007983:	c7 44 24 04 c6 9d 00 	movl   $0x80009dc6,0x4(%esp,1)
8000798a:	80 
8000798b:	89 54 24 0c          	mov    %edx,0xc(%esp,1)
8000798f:	e8 0c f5 ff ff       	call   80006ea0 <KPrint>
80007994:	89 ec                	mov    %ebp,%esp
80007996:	5d                   	pop    %ebp
80007997:	c3                   	ret    
80007998:	90                   	nop    
80007999:	8d b4 26 00 00 00 00 	lea    0x0(%esi,1),%esi

800079a0 <Exception_Double>:
800079a0:	55                   	push   %ebp
800079a1:	89 e5                	mov    %esp,%ebp
800079a3:	83 ec 18             	sub    $0x18,%esp
800079a6:	8b 45 08             	mov    0x8(%ebp),%eax
800079a9:	8b 48 2c             	mov    0x2c(%eax),%ecx
800079ac:	89 4c 24 10          	mov    %ecx,0x10(%esp,1)
800079b0:	0f b7 50 30          	movzwl 0x30(%eax),%edx
800079b4:	c7 04 24 01 00 00 00 	movl   $0x1,(%esp,1)
800079bb:	c7 44 24 08 00 9d 00 	movl   $0x80009d00,0x8(%esp,1)
800079c2:	80 
800079c3:	c7 44 24 04 c6 9d 00 	movl   $0x80009dc6,0x4(%esp,1)
800079ca:	80 
800079cb:	89 54 24 0c          	mov    %edx,0xc(%esp,1)
800079cf:	e8 cc f4 ff ff       	call   80006ea0 <KPrint>
800079d4:	89 ec                	mov    %ebp,%esp
800079d6:	5d                   	pop    %ebp
800079d7:	c3                   	ret    
800079d8:	90                   	nop    
800079d9:	8d b4 26 00 00 00 00 	lea    0x0(%esi,1),%esi

800079e0 <Exception_StackFault>:
800079e0:	55                   	push   %ebp
800079e1:	89 e5                	mov    %esp,%ebp
800079e3:	83 ec 18             	sub    $0x18,%esp
800079e6:	8b 45 08             	mov    0x8(%ebp),%eax
800079e9:	8b 48 2c             	mov    0x2c(%eax),%ecx
800079ec:	89 4c 24 10          	mov    %ecx,0x10(%esp,1)
800079f0:	0f b7 50 30          	movzwl 0x30(%eax),%edx
800079f4:	c7 04 24 01 00 00 00 	movl   $0x1,(%esp,1)
800079fb:	c7 44 24 08 40 9d 00 	movl   $0x80009d40,0x8(%esp,1)
80007a02:	80 
80007a03:	c7 44 24 04 c6 9d 00 	movl   $0x80009dc6,0x4(%esp,1)
80007a0a:	80 
80007a0b:	89 54 24 0c          	mov    %edx,0xc(%esp,1)
80007a0f:	e8 8c f4 ff ff       	call   80006ea0 <KPrint>
80007a14:	89 ec                	mov    %ebp,%esp
80007a16:	5d                   	pop    %ebp
80007a17:	c3                   	ret    
80007a18:	90                   	nop    
80007a19:	8d b4 26 00 00 00 00 	lea    0x0(%esi,1),%esi

80007a20 <Exception_Page>:
80007a20:	55                   	push   %ebp
80007a21:	89 e5                	mov    %esp,%ebp
80007a23:	83 ec 28             	sub    $0x28,%esp
80007a26:	89 75 fc             	mov    %esi,0xfffffffc(%ebp)
80007a29:	8b 75 08             	mov    0x8(%ebp),%esi
80007a2c:	89 5d f8             	mov    %ebx,0xfffffff8(%ebp)
80007a2f:	0f 20 d0             	mov    %cr2,%eax
80007a32:	89 c3                	mov    %eax,%ebx
80007a34:	81 e3 00 f0 ff ff    	and    $0xfffff000,%ebx
80007a3a:	89 1c 24             	mov    %ebx,(%esp,1)
80007a3d:	e8 be da ff ff       	call   80005500 <MemoryManager_GetPTAddress>
80007a42:	89 d9                	mov    %ebx,%ecx
80007a44:	29 c1                	sub    %eax,%ecx
80007a46:	c1 e8 0c             	shr    $0xc,%eax
80007a49:	c1 e9 0c             	shr    $0xc,%ecx
80007a4c:	01 c8                	add    %ecx,%eax
80007a4e:	8b 0d 58 a4 00 80    	mov    0x8000a458,%ecx
80007a54:	8b 04 81             	mov    (%ecx,%eax,4),%eax
80007a57:	25 00 0e 00 00       	and    $0xe00,%eax
80007a5c:	3d 00 02 00 00       	cmp    $0x200,%eax
80007a61:	74 4d                	je     80007ab0 <Exception_Page+0x90>
80007a63:	89 44 24 1c          	mov    %eax,0x1c(%esp,1)
80007a67:	8b 46 2c             	mov    0x2c(%esi),%eax
80007a6a:	89 44 24 18          	mov    %eax,0x18(%esp,1)
80007a6e:	8b 46 30             	mov    0x30(%esi),%eax
80007a71:	89 44 24 14          	mov    %eax,0x14(%esp,1)
80007a75:	0f b7 56 34          	movzwl 0x34(%esi),%edx
80007a79:	c7 04 24 02 00 00 00 	movl   $0x2,(%esp,1)
80007a80:	89 5c 24 0c          	mov    %ebx,0xc(%esp,1)
80007a84:	c7 44 24 08 80 9d 00 	movl   $0x80009d80,0x8(%esp,1)
80007a8b:	80 
80007a8c:	c7 44 24 04 c6 9d 00 	movl   $0x80009dc6,0x4(%esp,1)
80007a93:	80 
80007a94:	89 54 24 10          	mov    %edx,0x10(%esp,1)
80007a98:	e8 03 f4 ff ff       	call   80006ea0 <KPrint>
80007a9d:	e8 41 8f ff ff       	call   800009e3 <halt>
80007aa2:	8b 5d f8             	mov    0xfffffff8(%ebp),%ebx
80007aa5:	8b 75 fc             	mov    0xfffffffc(%ebp),%esi
80007aa8:	89 ec                	mov    %ebp,%esp
80007aaa:	5d                   	pop    %ebp
80007aab:	c3                   	ret    
80007aac:	8d 74 26 00          	lea    0x0(%esi,1),%esi
80007ab0:	c7 44 24 04 01 00 00 	movl   $0x1,0x4(%esp,1)
80007ab7:	00 
80007ab8:	89 1c 24             	mov    %ebx,(%esp,1)
80007abb:	e8 10 dc ff ff       	call   800056d0 <MemoryManager_Page_Allocate>
80007ac0:	eb e0                	jmp    80007aa2 <Exception_Page+0x82>
80007ac2:	8d b4 26 00 00 00 00 	lea    0x0(%esi,1),%esi
80007ac9:	8d bc 27 00 00 00 00 	lea    0x0(%edi,1),%edi

80007ad0 <Exception_GPF>:
80007ad0:	55                   	push   %ebp
80007ad1:	89 e5                	mov    %esp,%ebp
80007ad3:	83 ec 18             	sub    $0x18,%esp
80007ad6:	8b 45 08             	mov    0x8(%ebp),%eax
80007ad9:	8b 48 30             	mov    0x30(%eax),%ecx
80007adc:	89 4c 24 10          	mov    %ecx,0x10(%esp,1)
80007ae0:	0f b7 50 34          	movzwl 0x34(%eax),%edx
80007ae4:	c7 04 24 01 00 00 00 	movl   $0x1,(%esp,1)
80007aeb:	c7 44 24 08 d0 9d 00 	movl   $0x80009dd0,0x8(%esp,1)
80007af2:	80 
80007af3:	c7 44 24 04 c6 9d 00 	movl   $0x80009dc6,0x4(%esp,1)
80007afa:	80 
80007afb:	89 54 24 0c          	mov    %edx,0xc(%esp,1)
80007aff:	e8 9c f3 ff ff       	call   80006ea0 <KPrint>
80007b04:	89 ec                	mov    %ebp,%esp
80007b06:	5d                   	pop    %ebp
80007b07:	c3                   	ret    
	...

80007b10 <vsnprintf>:
80007b10:	55                   	push   %ebp
80007b11:	89 e5                	mov    %esp,%ebp
80007b13:	57                   	push   %edi
80007b14:	56                   	push   %esi
80007b15:	53                   	push   %ebx
80007b16:	83 ec 2c             	sub    $0x2c,%esp
80007b19:	8b 75 08             	mov    0x8(%ebp),%esi
80007b1c:	8b 45 0c             	mov    0xc(%ebp),%eax
80007b1f:	8d 54 30 ff          	lea    0xffffffff(%eax,%esi,1),%edx
80007b23:	89 55 f0             	mov    %edx,0xfffffff0(%ebp)
80007b26:	89 f2                	mov    %esi,%edx
80007b28:	4a                   	dec    %edx
80007b29:	39 55 f0             	cmp    %edx,0xfffffff0(%ebp)
80007b2c:	73 0e                	jae    80007b3c <vsnprintf+0x2c>
80007b2e:	c7 45 f0 ff ff ff ff 	movl   $0xffffffff,0xfffffff0(%ebp)
80007b35:	89 f0                	mov    %esi,%eax
80007b37:	f7 d8                	neg    %eax
80007b39:	89 45 0c             	mov    %eax,0xc(%ebp)
80007b3c:	8b 4d 10             	mov    0x10(%ebp),%ecx
80007b3f:	80 39 00             	cmpb   $0x0,(%ecx)
80007b42:	74 2a                	je     80007b6e <vsnprintf+0x5e>
80007b44:	8d b6 00 00 00 00    	lea    0x0(%esi),%esi
80007b4a:	8d bf 00 00 00 00    	lea    0x0(%edi),%edi
80007b50:	0f b6 01             	movzbl (%ecx),%eax
80007b53:	3c 25                	cmp    $0x25,%al
80007b55:	74 49                	je     80007ba0 <vsnprintf+0x90>
80007b57:	3b 75 f0             	cmp    0xfffffff0(%ebp),%esi
80007b5a:	77 05                	ja     80007b61 <vsnprintf+0x51>
80007b5c:	88 06                	mov    %al,(%esi)
80007b5e:	8b 4d 10             	mov    0x10(%ebp),%ecx
80007b61:	46                   	inc    %esi
80007b62:	89 cf                	mov    %ecx,%edi
80007b64:	41                   	inc    %ecx
80007b65:	89 4d 10             	mov    %ecx,0x10(%ebp)
80007b68:	80 7f 01 00          	cmpb   $0x0,0x1(%edi)
80007b6c:	75 e2                	jne    80007b50 <vsnprintf+0x40>
80007b6e:	3b 75 f0             	cmp    0xfffffff0(%ebp),%esi
80007b71:	77 12                	ja     80007b85 <vsnprintf+0x75>
80007b73:	c6 06 00             	movb   $0x0,(%esi)
80007b76:	8b 45 08             	mov    0x8(%ebp),%eax
80007b79:	83 c4 2c             	add    $0x2c,%esp
80007b7c:	5b                   	pop    %ebx
80007b7d:	29 c6                	sub    %eax,%esi
80007b7f:	89 f0                	mov    %esi,%eax
80007b81:	5e                   	pop    %esi
80007b82:	5f                   	pop    %edi
80007b83:	5d                   	pop    %ebp
80007b84:	c3                   	ret    
80007b85:	8b 4d 0c             	mov    0xc(%ebp),%ecx
80007b88:	85 c9                	test   %ecx,%ecx
80007b8a:	74 ea                	je     80007b76 <vsnprintf+0x66>
80007b8c:	8b 45 f0             	mov    0xfffffff0(%ebp),%eax
80007b8f:	c6 00 00             	movb   $0x0,(%eax)
80007b92:	eb e2                	jmp    80007b76 <vsnprintf+0x66>
80007b94:	8d b6 00 00 00 00    	lea    0x0(%esi),%esi
80007b9a:	8d bf 00 00 00 00    	lea    0x0(%edi),%edi
80007ba0:	31 ff                	xor    %edi,%edi
80007ba2:	89 cb                	mov    %ecx,%ebx
80007ba4:	41                   	inc    %ecx
80007ba5:	89 ca                	mov    %ecx,%edx
80007ba7:	89 4d 10             	mov    %ecx,0x10(%ebp)
80007baa:	0f be 43 01          	movsbl 0x1(%ebx),%eax
80007bae:	83 e8 20             	sub    $0x20,%eax
80007bb1:	83 f8 10             	cmp    $0x10,%eax
80007bb4:	77 4a                	ja     80007c00 <vsnprintf+0xf0>
80007bb6:	ff 24 85 f8 9d 00 80 	jmp    *0x80009df8(,%eax,4)
80007bbd:	8d 76 00             	lea    0x0(%esi),%esi
80007bc0:	83 cf 10             	or     $0x10,%edi
80007bc3:	eb dd                	jmp    80007ba2 <vsnprintf+0x92>
80007bc5:	8d 74 26 00          	lea    0x0(%esi,1),%esi
80007bc9:	8d bc 27 00 00 00 00 	lea    0x0(%edi,1),%edi
80007bd0:	83 cf 08             	or     $0x8,%edi
80007bd3:	eb cd                	jmp    80007ba2 <vsnprintf+0x92>
80007bd5:	8d 74 26 00          	lea    0x0(%esi,1),%esi
80007bd9:	8d bc 27 00 00 00 00 	lea    0x0(%edi,1),%edi
80007be0:	83 cf 20             	or     $0x20,%edi
80007be3:	eb bd                	jmp    80007ba2 <vsnprintf+0x92>
80007be5:	8d 74 26 00          	lea    0x0(%esi,1),%esi
80007be9:	8d bc 27 00 00 00 00 	lea    0x0(%edi,1),%edi
80007bf0:	83 cf 04             	or     $0x4,%edi
80007bf3:	eb ad                	jmp    80007ba2 <vsnprintf+0x92>
80007bf5:	8d 74 26 00          	lea    0x0(%esi,1),%esi
80007bf9:	8d bc 27 00 00 00 00 	lea    0x0(%edi,1),%edi
80007c00:	c7 45 ec ff ff ff ff 	movl   $0xffffffff,0xffffffec(%ebp)
80007c07:	0f b6 1a             	movzbl (%edx),%ebx
80007c0a:	0f b6 c3             	movzbl %bl,%eax
80007c0d:	0f b6 80 e0 a2 00 80 	movzbl 0x8000a2e0(%eax),%eax
80007c14:	24 04                	and    $0x4,%al
80007c16:	84 c0                	test   %al,%al
80007c18:	0f 84 72 03 00 00    	je     80007f90 <vsnprintf+0x480>
80007c1e:	8d 5d 10             	lea    0x10(%ebp),%ebx
80007c21:	31 c9                	xor    %ecx,%ecx
80007c23:	8d b6 00 00 00 00    	lea    0x0(%esi),%esi
80007c29:	8d bc 27 00 00 00 00 	lea    0x0(%edi,1),%edi
80007c30:	8b 13                	mov    (%ebx),%edx
80007c32:	8d 0c 89             	lea    (%ecx,%ecx,4),%ecx
80007c35:	0f be 02             	movsbl (%edx),%eax
80007c38:	8d 4c 48 d0          	lea    0xffffffd0(%eax,%ecx,2),%ecx
80007c3c:	8d 42 01             	lea    0x1(%edx),%eax
80007c3f:	89 03                	mov    %eax,(%ebx)
80007c41:	0f b6 42 01          	movzbl 0x1(%edx),%eax
80007c45:	0f b6 90 e0 a2 00 80 	movzbl 0x8000a2e0(%eax),%edx
80007c4c:	80 e2 04             	and    $0x4,%dl
80007c4f:	84 d2                	test   %dl,%dl
80007c51:	75 dd                	jne    80007c30 <vsnprintf+0x120>
80007c53:	89 4d ec             	mov    %ecx,0xffffffec(%ebp)
80007c56:	8b 4d 10             	mov    0x10(%ebp),%ecx
80007c59:	c7 45 e8 ff ff ff ff 	movl   $0xffffffff,0xffffffe8(%ebp)
80007c60:	89 cb                	mov    %ecx,%ebx
80007c62:	80 39 2e             	cmpb   $0x2e,(%ecx)
80007c65:	0f 84 a1 02 00 00    	je     80007f0c <vsnprintf+0x3fc>
80007c6b:	0f b6 01             	movzbl (%ecx),%eax
80007c6e:	ba ff ff ff ff       	mov    $0xffffffff,%edx
80007c73:	3c 68                	cmp    $0x68,%al
80007c75:	0f 84 65 02 00 00    	je     80007ee0 <vsnprintf+0x3d0>
80007c7b:	3c 6c                	cmp    $0x6c,%al
80007c7d:	0f 84 5d 02 00 00    	je     80007ee0 <vsnprintf+0x3d0>
80007c83:	3c 4c                	cmp    $0x4c,%al
80007c85:	0f 84 55 02 00 00    	je     80007ee0 <vsnprintf+0x3d0>
80007c8b:	3c 5a                	cmp    $0x5a,%al
80007c8d:	0f 84 4d 02 00 00    	je     80007ee0 <vsnprintf+0x3d0>
80007c93:	0f be 01             	movsbl (%ecx),%eax
80007c96:	bb 0a 00 00 00       	mov    $0xa,%ebx
80007c9b:	83 e8 25             	sub    $0x25,%eax
80007c9e:	83 f8 53             	cmp    $0x53,%eax
80007ca1:	0f 87 19 02 00 00    	ja     80007ec0 <vsnprintf+0x3b0>
80007ca7:	ff 24 85 3c 9e 00 80 	jmp    *0x80009e3c(,%eax,4)
80007cae:	83 e7 10             	and    $0x10,%edi
80007cb1:	75 1d                	jne    80007cd0 <vsnprintf+0x1c0>
80007cb3:	ff 4d ec             	decl   0xffffffec(%ebp)
80007cb6:	8b 45 ec             	mov    0xffffffec(%ebp),%eax
80007cb9:	85 c0                	test   %eax,%eax
80007cbb:	7e 13                	jle    80007cd0 <vsnprintf+0x1c0>
80007cbd:	3b 75 f0             	cmp    0xfffffff0(%ebp),%esi
80007cc0:	77 03                	ja     80007cc5 <vsnprintf+0x1b5>
80007cc2:	c6 06 20             	movb   $0x20,(%esi)
80007cc5:	ff 4d ec             	decl   0xffffffec(%ebp)
80007cc8:	46                   	inc    %esi
80007cc9:	8b 45 ec             	mov    0xffffffec(%ebp),%eax
80007ccc:	85 c0                	test   %eax,%eax
80007cce:	7f ed                	jg     80007cbd <vsnprintf+0x1ad>
80007cd0:	8b 45 14             	mov    0x14(%ebp),%eax
80007cd3:	83 45 14 04          	addl   $0x4,0x14(%ebp)
80007cd7:	3b 75 f0             	cmp    0xfffffff0(%ebp),%esi
80007cda:	0f b6 00             	movzbl (%eax),%eax
80007cdd:	77 02                	ja     80007ce1 <vsnprintf+0x1d1>
80007cdf:	88 06                	mov    %al,(%esi)
80007ce1:	ff 4d ec             	decl   0xffffffec(%ebp)
80007ce4:	46                   	inc    %esi
80007ce5:	8b 45 ec             	mov    0xffffffec(%ebp),%eax
80007ce8:	85 c0                	test   %eax,%eax
80007cea:	7e 13                	jle    80007cff <vsnprintf+0x1ef>
80007cec:	3b 75 f0             	cmp    0xfffffff0(%ebp),%esi
80007cef:	77 03                	ja     80007cf4 <vsnprintf+0x1e4>
80007cf1:	c6 06 20             	movb   $0x20,(%esi)
80007cf4:	ff 4d ec             	decl   0xffffffec(%ebp)
80007cf7:	46                   	inc    %esi
80007cf8:	8b 4d ec             	mov    0xffffffec(%ebp),%ecx
80007cfb:	85 c9                	test   %ecx,%ecx
80007cfd:	7f ed                	jg     80007cec <vsnprintf+0x1dc>
80007cff:	8b 4d 10             	mov    0x10(%ebp),%ecx
80007d02:	e9 5b fe ff ff       	jmp    80007b62 <vsnprintf+0x52>
80007d07:	3b 75 f0             	cmp    0xfffffff0(%ebp),%esi
80007d0a:	0f 87 51 fe ff ff    	ja     80007b61 <vsnprintf+0x51>
80007d10:	c6 06 25             	movb   $0x25,(%esi)
80007d13:	e9 46 fe ff ff       	jmp    80007b5e <vsnprintf+0x4e>
80007d18:	83 cf 40             	or     $0x40,%edi
80007d1b:	bb 10 00 00 00       	mov    $0x10,%ebx
80007d20:	83 fa 4c             	cmp    $0x4c,%edx
80007d23:	0f 84 85 00 00 00    	je     80007dae <vsnprintf+0x29e>
80007d29:	83 fa 6c             	cmp    $0x6c,%edx
80007d2c:	74 0a                	je     80007d38 <vsnprintf+0x228>
80007d2e:	83 fa 5a             	cmp    $0x5a,%edx
80007d31:	74 6e                	je     80007da1 <vsnprintf+0x291>
80007d33:	83 fa 68             	cmp    $0x68,%edx
80007d36:	74 4e                	je     80007d86 <vsnprintf+0x276>
80007d38:	8b 45 14             	mov    0x14(%ebp),%eax
80007d3b:	31 c9                	xor    %ecx,%ecx
80007d3d:	83 45 14 04          	addl   $0x4,0x14(%ebp)
80007d41:	f7 c7 02 00 00 00    	test   $0x2,%edi
80007d47:	8b 10                	mov    (%eax),%edx
80007d49:	74 07                	je     80007d52 <vsnprintf+0x242>
80007d4b:	89 d0                	mov    %edx,%eax
80007d4d:	89 c1                	mov    %eax,%ecx
80007d4f:	c1 f9 1f             	sar    $0x1f,%ecx
80007d52:	89 5c 24 10          	mov    %ebx,0x10(%esp,1)
80007d56:	8b 45 e8             	mov    0xffffffe8(%ebp),%eax
80007d59:	8b 5d f0             	mov    0xfffffff0(%ebp),%ebx
80007d5c:	89 7c 24 1c          	mov    %edi,0x1c(%esp,1)
80007d60:	89 44 24 18          	mov    %eax,0x18(%esp,1)
80007d64:	8b 45 ec             	mov    0xffffffec(%ebp),%eax
80007d67:	89 54 24 08          	mov    %edx,0x8(%esp,1)
80007d6b:	89 4c 24 0c          	mov    %ecx,0xc(%esp,1)
80007d6f:	89 44 24 14          	mov    %eax,0x14(%esp,1)
80007d73:	89 5c 24 04          	mov    %ebx,0x4(%esp,1)
80007d77:	89 34 24             	mov    %esi,(%esp,1)
80007d7a:	e8 81 02 00 00       	call   80008000 <number>
80007d7f:	89 c6                	mov    %eax,%esi
80007d81:	e9 79 ff ff ff       	jmp    80007cff <vsnprintf+0x1ef>
80007d86:	8b 45 14             	mov    0x14(%ebp),%eax
80007d89:	31 c9                	xor    %ecx,%ecx
80007d8b:	83 45 14 04          	addl   $0x4,0x14(%ebp)
80007d8f:	f7 c7 02 00 00 00    	test   $0x2,%edi
80007d95:	0f b7 10             	movzwl (%eax),%edx
80007d98:	74 b8                	je     80007d52 <vsnprintf+0x242>
80007d9a:	0f bf d2             	movswl %dx,%edx
80007d9d:	89 d1                	mov    %edx,%ecx
80007d9f:	eb ae                	jmp    80007d4f <vsnprintf+0x23f>
80007da1:	8b 45 14             	mov    0x14(%ebp),%eax
80007da4:	31 c9                	xor    %ecx,%ecx
80007da6:	83 45 14 04          	addl   $0x4,0x14(%ebp)
80007daa:	8b 10                	mov    (%eax),%edx
80007dac:	eb a4                	jmp    80007d52 <vsnprintf+0x242>
80007dae:	8b 45 14             	mov    0x14(%ebp),%eax
80007db1:	83 45 14 08          	addl   $0x8,0x14(%ebp)
80007db5:	8b 10                	mov    (%eax),%edx
80007db7:	8b 48 04             	mov    0x4(%eax),%ecx
80007dba:	eb 96                	jmp    80007d52 <vsnprintf+0x242>
80007dbc:	83 cf 02             	or     $0x2,%edi
80007dbf:	e9 5c ff ff ff       	jmp    80007d20 <vsnprintf+0x210>
80007dc4:	8b 45 14             	mov    0x14(%ebp),%eax
80007dc7:	89 f2                	mov    %esi,%edx
80007dc9:	83 45 14 04          	addl   $0x4,0x14(%ebp)
80007dcd:	8b 38                	mov    (%eax),%edi
80007dcf:	8b 45 08             	mov    0x8(%ebp),%eax
80007dd2:	29 c2                	sub    %eax,%edx
80007dd4:	89 17                	mov    %edx,(%edi)
80007dd6:	e9 87 fd ff ff       	jmp    80007b62 <vsnprintf+0x52>
80007ddb:	bb 08 00 00 00       	mov    $0x8,%ebx
80007de0:	e9 3b ff ff ff       	jmp    80007d20 <vsnprintf+0x210>
80007de5:	83 7d ec ff          	cmpl   $0xffffffff,0xffffffec(%ebp)
80007de9:	74 3b                	je     80007e26 <vsnprintf+0x316>
80007deb:	89 7c 24 1c          	mov    %edi,0x1c(%esp,1)
80007def:	8b 45 e8             	mov    0xffffffe8(%ebp),%eax
80007df2:	c7 44 24 10 10 00 00 	movl   $0x10,0x10(%esp,1)
80007df9:	00 
80007dfa:	89 44 24 18          	mov    %eax,0x18(%esp,1)
80007dfe:	8b 45 ec             	mov    0xffffffec(%ebp),%eax
80007e01:	89 44 24 14          	mov    %eax,0x14(%esp,1)
80007e05:	8b 45 14             	mov    0x14(%ebp),%eax
80007e08:	83 45 14 04          	addl   $0x4,0x14(%ebp)
80007e0c:	8b 38                	mov    (%eax),%edi
80007e0e:	c7 44 24 0c 00 00 00 	movl   $0x0,0xc(%esp,1)
80007e15:	00 
80007e16:	8b 45 f0             	mov    0xfffffff0(%ebp),%eax
80007e19:	89 7c 24 08          	mov    %edi,0x8(%esp,1)
80007e1d:	89 44 24 04          	mov    %eax,0x4(%esp,1)
80007e21:	e9 51 ff ff ff       	jmp    80007d77 <vsnprintf+0x267>
80007e26:	c7 45 ec 08 00 00 00 	movl   $0x8,0xffffffec(%ebp)
80007e2d:	83 cf 01             	or     $0x1,%edi
80007e30:	eb b9                	jmp    80007deb <vsnprintf+0x2db>
80007e32:	8b 45 14             	mov    0x14(%ebp),%eax
80007e35:	83 45 14 04          	addl   $0x4,0x14(%ebp)
80007e39:	8b 08                	mov    (%eax),%ecx
80007e3b:	85 c9                	test   %ecx,%ecx
80007e3d:	74 74                	je     80007eb3 <vsnprintf+0x3a3>
80007e3f:	8b 55 e8             	mov    0xffffffe8(%ebp),%edx
80007e42:	89 c8                	mov    %ecx,%eax
80007e44:	eb 06                	jmp    80007e4c <vsnprintf+0x33c>
80007e46:	80 38 00             	cmpb   $0x0,(%eax)
80007e49:	74 07                	je     80007e52 <vsnprintf+0x342>
80007e4b:	40                   	inc    %eax
80007e4c:	4a                   	dec    %edx
80007e4d:	83 fa ff             	cmp    $0xffffffff,%edx
80007e50:	75 f4                	jne    80007e46 <vsnprintf+0x336>
80007e52:	29 c8                	sub    %ecx,%eax
80007e54:	83 e7 10             	and    $0x10,%edi
80007e57:	89 c3                	mov    %eax,%ebx
80007e59:	75 1d                	jne    80007e78 <vsnprintf+0x368>
80007e5b:	8b 45 ec             	mov    0xffffffec(%ebp),%eax
80007e5e:	ff 4d ec             	decl   0xffffffec(%ebp)
80007e61:	39 d8                	cmp    %ebx,%eax
80007e63:	7e 13                	jle    80007e78 <vsnprintf+0x368>
80007e65:	3b 75 f0             	cmp    0xfffffff0(%ebp),%esi
80007e68:	77 03                	ja     80007e6d <vsnprintf+0x35d>
80007e6a:	c6 06 20             	movb   $0x20,(%esi)
80007e6d:	8b 45 ec             	mov    0xffffffec(%ebp),%eax
80007e70:	46                   	inc    %esi
80007e71:	ff 4d ec             	decl   0xffffffec(%ebp)
80007e74:	39 d8                	cmp    %ebx,%eax
80007e76:	7f ed                	jg     80007e65 <vsnprintf+0x355>
80007e78:	85 db                	test   %ebx,%ebx
80007e7a:	7e 11                	jle    80007e8d <vsnprintf+0x37d>
80007e7c:	89 da                	mov    %ebx,%edx
80007e7e:	3b 75 f0             	cmp    0xfffffff0(%ebp),%esi
80007e81:	77 05                	ja     80007e88 <vsnprintf+0x378>
80007e83:	0f b6 01             	movzbl (%ecx),%eax
80007e86:	88 06                	mov    %al,(%esi)
80007e88:	46                   	inc    %esi
80007e89:	41                   	inc    %ecx
80007e8a:	4a                   	dec    %edx
80007e8b:	75 f1                	jne    80007e7e <vsnprintf+0x36e>
80007e8d:	8b 45 ec             	mov    0xffffffec(%ebp),%eax
80007e90:	ff 4d ec             	decl   0xffffffec(%ebp)
80007e93:	39 d8                	cmp    %ebx,%eax
80007e95:	0f 8e 64 fe ff ff    	jle    80007cff <vsnprintf+0x1ef>
80007e9b:	3b 75 f0             	cmp    0xfffffff0(%ebp),%esi
80007e9e:	77 03                	ja     80007ea3 <vsnprintf+0x393>
80007ea0:	c6 06 20             	movb   $0x20,(%esi)
80007ea3:	8b 45 ec             	mov    0xffffffec(%ebp),%eax
80007ea6:	46                   	inc    %esi
80007ea7:	ff 4d ec             	decl   0xffffffec(%ebp)
80007eaa:	39 d8                	cmp    %ebx,%eax
80007eac:	7f ed                	jg     80007e9b <vsnprintf+0x38b>
80007eae:	e9 4c fe ff ff       	jmp    80007cff <vsnprintf+0x1ef>
80007eb3:	b9 ee 9d 00 80       	mov    $0x80009dee,%ecx
80007eb8:	eb 85                	jmp    80007e3f <vsnprintf+0x32f>
80007eba:	8d b6 00 00 00 00    	lea    0x0(%esi),%esi
80007ec0:	3b 75 f0             	cmp    0xfffffff0(%ebp),%esi
80007ec3:	77 06                	ja     80007ecb <vsnprintf+0x3bb>
80007ec5:	c6 06 25             	movb   $0x25,(%esi)
80007ec8:	8b 4d 10             	mov    0x10(%ebp),%ecx
80007ecb:	0f b6 01             	movzbl (%ecx),%eax
80007ece:	46                   	inc    %esi
80007ecf:	84 c0                	test   %al,%al
80007ed1:	0f 85 80 fc ff ff    	jne    80007b57 <vsnprintf+0x47>
80007ed7:	49                   	dec    %ecx
80007ed8:	89 4d 10             	mov    %ecx,0x10(%ebp)
80007edb:	e9 82 fc ff ff       	jmp    80007b62 <vsnprintf+0x52>
80007ee0:	0f be 11             	movsbl (%ecx),%edx
80007ee3:	89 c8                	mov    %ecx,%eax
80007ee5:	41                   	inc    %ecx
80007ee6:	89 4d 10             	mov    %ecx,0x10(%ebp)
80007ee9:	83 fa 6c             	cmp    $0x6c,%edx
80007eec:	0f 85 a1 fd ff ff    	jne    80007c93 <vsnprintf+0x183>
80007ef2:	80 78 01 6c          	cmpb   $0x6c,0x1(%eax)
80007ef6:	0f 85 97 fd ff ff    	jne    80007c93 <vsnprintf+0x183>
80007efc:	8d 48 02             	lea    0x2(%eax),%ecx
80007eff:	ba 4c 00 00 00       	mov    $0x4c,%edx
80007f04:	89 4d 10             	mov    %ecx,0x10(%ebp)
80007f07:	e9 87 fd ff ff       	jmp    80007c93 <vsnprintf+0x183>
80007f0c:	41                   	inc    %ecx
80007f0d:	89 4d 10             	mov    %ecx,0x10(%ebp)
80007f10:	0f b6 53 01          	movzbl 0x1(%ebx),%edx
80007f14:	0f b6 c2             	movzbl %dl,%eax
80007f17:	0f b6 80 e0 a2 00 80 	movzbl 0x8000a2e0(%eax),%eax
80007f1e:	24 04                	and    $0x4,%al
80007f20:	84 c0                	test   %al,%al
80007f22:	74 44                	je     80007f68 <vsnprintf+0x458>
80007f24:	8d 5d 10             	lea    0x10(%ebp),%ebx
80007f27:	31 c9                	xor    %ecx,%ecx
80007f29:	8d b4 26 00 00 00 00 	lea    0x0(%esi,1),%esi
80007f30:	8b 13                	mov    (%ebx),%edx
80007f32:	8d 0c 89             	lea    (%ecx,%ecx,4),%ecx
80007f35:	0f be 02             	movsbl (%edx),%eax
80007f38:	8d 4c 48 d0          	lea    0xffffffd0(%eax,%ecx,2),%ecx
80007f3c:	8d 42 01             	lea    0x1(%edx),%eax
80007f3f:	89 03                	mov    %eax,(%ebx)
80007f41:	0f b6 42 01          	movzbl 0x1(%edx),%eax
80007f45:	0f b6 90 e0 a2 00 80 	movzbl 0x8000a2e0(%eax),%edx
80007f4c:	80 e2 04             	and    $0x4,%dl
80007f4f:	84 d2                	test   %dl,%dl
80007f51:	75 dd                	jne    80007f30 <vsnprintf+0x420>
80007f53:	89 4d e8             	mov    %ecx,0xffffffe8(%ebp)
80007f56:	8b 4d 10             	mov    0x10(%ebp),%ecx
80007f59:	8b 45 e8             	mov    0xffffffe8(%ebp),%eax
80007f5c:	c1 e8 1f             	shr    $0x1f,%eax
80007f5f:	48                   	dec    %eax
80007f60:	21 45 e8             	and    %eax,0xffffffe8(%ebp)
80007f63:	e9 03 fd ff ff       	jmp    80007c6b <vsnprintf+0x15b>
80007f68:	80 fa 2a             	cmp    $0x2a,%dl
80007f6b:	75 ec                	jne    80007f59 <vsnprintf+0x449>
80007f6d:	8b 45 14             	mov    0x14(%ebp),%eax
80007f70:	8d 4b 02             	lea    0x2(%ebx),%ecx
80007f73:	83 45 14 04          	addl   $0x4,0x14(%ebp)
80007f77:	8b 00                	mov    (%eax),%eax
80007f79:	89 4d 10             	mov    %ecx,0x10(%ebp)
80007f7c:	89 45 e8             	mov    %eax,0xffffffe8(%ebp)
80007f7f:	eb d8                	jmp    80007f59 <vsnprintf+0x449>
80007f81:	eb 0d                	jmp    80007f90 <vsnprintf+0x480>
80007f83:	90                   	nop    
80007f84:	90                   	nop    
80007f85:	90                   	nop    
80007f86:	90                   	nop    
80007f87:	90                   	nop    
80007f88:	90                   	nop    
80007f89:	90                   	nop    
80007f8a:	90                   	nop    
80007f8b:	90                   	nop    
80007f8c:	90                   	nop    
80007f8d:	90                   	nop    
80007f8e:	90                   	nop    
80007f8f:	90                   	nop    
80007f90:	80 fb 2a             	cmp    $0x2a,%bl
80007f93:	0f 85 c0 fc ff ff    	jne    80007c59 <vsnprintf+0x149>
80007f99:	8b 45 14             	mov    0x14(%ebp),%eax
80007f9c:	8d 4a 01             	lea    0x1(%edx),%ecx
80007f9f:	83 45 14 04          	addl   $0x4,0x14(%ebp)
80007fa3:	8b 00                	mov    (%eax),%eax
80007fa5:	89 4d 10             	mov    %ecx,0x10(%ebp)
80007fa8:	85 c0                	test   %eax,%eax
80007faa:	89 45 ec             	mov    %eax,0xffffffec(%ebp)
80007fad:	0f 89 a6 fc ff ff    	jns    80007c59 <vsnprintf+0x149>
80007fb3:	f7 d8                	neg    %eax
80007fb5:	83 cf 10             	or     $0x10,%edi
80007fb8:	89 45 ec             	mov    %eax,0xffffffec(%ebp)
80007fbb:	e9 99 fc ff ff       	jmp    80007c59 <vsnprintf+0x149>
80007fc0:	83 cf 01             	or     $0x1,%edi
80007fc3:	e9 da fb ff ff       	jmp    80007ba2 <vsnprintf+0x92>
80007fc8:	90                   	nop    
80007fc9:	8d b4 26 00 00 00 00 	lea    0x0(%esi,1),%esi

80007fd0 <snprintf>:
80007fd0:	55                   	push   %ebp
80007fd1:	89 e5                	mov    %esp,%ebp
80007fd3:	83 ec 18             	sub    $0x18,%esp
80007fd6:	8b 45 10             	mov    0x10(%ebp),%eax
80007fd9:	8d 55 14             	lea    0x14(%ebp),%edx
80007fdc:	89 54 24 0c          	mov    %edx,0xc(%esp,1)
80007fe0:	89 44 24 08          	mov    %eax,0x8(%esp,1)
80007fe4:	8b 45 0c             	mov    0xc(%ebp),%eax
80007fe7:	89 44 24 04          	mov    %eax,0x4(%esp,1)
80007feb:	8b 45 08             	mov    0x8(%ebp),%eax
80007fee:	89 04 24             	mov    %eax,(%esp,1)
80007ff1:	e8 1a fb ff ff       	call   80007b10 <vsnprintf>
80007ff6:	89 ec                	mov    %ebp,%esp
80007ff8:	5d                   	pop    %ebp
80007ff9:	c3                   	ret    
80007ffa:	8d b6 00 00 00 00    	lea    0x0(%esi),%esi

80008000 <number>:
80008000:	55                   	push   %ebp
80008001:	89 e5                	mov    %esp,%ebp
80008003:	57                   	push   %edi
80008004:	8d bd 68 ff ff ff    	lea    0xffffff68(%ebp),%edi
8000800a:	56                   	push   %esi
8000800b:	be a0 9f 00 80       	mov    $0x80009fa0,%esi
80008010:	53                   	push   %ebx
80008011:	81 ec ec 00 00 00    	sub    $0xec,%esp
80008017:	8b 4d 14             	mov    0x14(%ebp),%ecx
8000801a:	fc                   	cld    
8000801b:	8b 45 10             	mov    0x10(%ebp),%eax
8000801e:	8b 5d 08             	mov    0x8(%ebp),%ebx
80008021:	89 8d 34 ff ff ff    	mov    %ecx,0xffffff34(%ebp)
80008027:	b9 09 00 00 00       	mov    $0x9,%ecx
8000802c:	f3 a5                	repz movsl %ds:(%esi),%es:(%edi)
8000802e:	89 85 30 ff ff ff    	mov    %eax,0xffffff30(%ebp)
80008034:	be e0 9f 00 80       	mov    $0x80009fe0,%esi
80008039:	b9 09 00 00 00       	mov    $0x9,%ecx
8000803e:	0f b6 15 c4 9f 00 80 	movzbl 0x80009fc4,%edx
80008045:	88 17                	mov    %dl,(%edi)
80008047:	8d bd 38 ff ff ff    	lea    0xffffff38(%ebp),%edi
8000804d:	89 fa                	mov    %edi,%edx
8000804f:	f3 a5                	repz movsl %ds:(%esi),%es:(%edi)
80008051:	89 95 28 ff ff ff    	mov    %edx,0xffffff28(%ebp)
80008057:	0f b6 0d 04 a0 00 80 	movzbl 0x8000a004,%ecx
8000805e:	88 0f                	mov    %cl,(%edi)
80008060:	f7 45 24 40 00 00 00 	testl  $0x40,0x24(%ebp)
80008067:	75 0c                	jne    80008075 <number+0x75>
80008069:	8d b5 68 ff ff ff    	lea    0xffffff68(%ebp),%esi
8000806f:	89 b5 28 ff ff ff    	mov    %esi,0xffffff28(%ebp)
80008075:	f7 45 24 10 00 00 00 	testl  $0x10,0x24(%ebp)
8000807c:	74 04                	je     80008082 <number+0x82>
8000807e:	83 65 24 fe          	andl   $0xfffffffe,0x24(%ebp)
80008082:	8b 45 18             	mov    0x18(%ebp),%eax
80008085:	31 d2                	xor    %edx,%edx
80008087:	83 e8 02             	sub    $0x2,%eax
8000808a:	83 f8 22             	cmp    $0x22,%eax
8000808d:	0f 87 92 01 00 00    	ja     80008225 <number+0x225>
80008093:	f7 45 24 01 00 00 00 	testl  $0x1,0x24(%ebp)
8000809a:	c6 85 2f ff ff ff 30 	movb   $0x30,0xffffff2f(%ebp)
800080a1:	75 07                	jne    800080aa <number+0xaa>
800080a3:	c6 85 2f ff ff ff 20 	movb   $0x20,0xffffff2f(%ebp)
800080aa:	f7 45 24 02 00 00 00 	testl  $0x2,0x24(%ebp)
800080b1:	c6 85 2e ff ff ff 00 	movb   $0x0,0xffffff2e(%ebp)
800080b8:	74 25                	je     800080df <number+0xdf>
800080ba:	8b 85 34 ff ff ff    	mov    0xffffff34(%ebp),%eax
800080c0:	85 c0                	test   %eax,%eax
800080c2:	0f 88 2d 02 00 00    	js     800082f5 <number+0x2f5>
800080c8:	f7 45 24 04 00 00 00 	testl  $0x4,0x24(%ebp)
800080cf:	0f 84 07 02 00 00    	je     800082dc <number+0x2dc>
800080d5:	c6 85 2e ff ff ff 2b 	movb   $0x2b,0xffffff2e(%ebp)
800080dc:	ff 4d 1c             	decl   0x1c(%ebp)
800080df:	f7 45 24 20 00 00 00 	testl  $0x20,0x24(%ebp)
800080e6:	74 14                	je     800080fc <number+0xfc>
800080e8:	83 7d 18 10          	cmpl   $0x10,0x18(%ebp)
800080ec:	0f 84 e1 01 00 00    	je     800082d3 <number+0x2d3>
800080f2:	83 7d 18 08          	cmpl   $0x8,0x18(%ebp)
800080f6:	0f 84 cf 01 00 00    	je     800082cb <number+0x2cb>
800080fc:	8b 85 34 ff ff ff    	mov    0xffffff34(%ebp),%eax
80008102:	31 f6                	xor    %esi,%esi
80008104:	0b 85 30 ff ff ff    	or     0xffffff30(%ebp),%eax
8000810a:	0f 85 50 01 00 00    	jne    80008260 <number+0x260>
80008110:	c6 45 98 30          	movb   $0x30,0xffffff98(%ebp)
80008114:	be 01 00 00 00       	mov    $0x1,%esi
80008119:	3b 75 20             	cmp    0x20(%ebp),%esi
8000811c:	7e 03                	jle    80008121 <number+0x121>
8000811e:	89 75 20             	mov    %esi,0x20(%ebp)
80008121:	8b 7d 20             	mov    0x20(%ebp),%edi
80008124:	29 7d 1c             	sub    %edi,0x1c(%ebp)
80008127:	f7 45 24 11 00 00 00 	testl  $0x11,0x24(%ebp)
8000812e:	75 23                	jne    80008153 <number+0x153>
80008130:	8b 45 1c             	mov    0x1c(%ebp),%eax
80008133:	ff 4d 1c             	decl   0x1c(%ebp)
80008136:	85 c0                	test   %eax,%eax
80008138:	7e 19                	jle    80008153 <number+0x153>
8000813a:	8d b6 00 00 00 00    	lea    0x0(%esi),%esi
80008140:	3b 5d 0c             	cmp    0xc(%ebp),%ebx
80008143:	77 03                	ja     80008148 <number+0x148>
80008145:	c6 03 20             	movb   $0x20,(%ebx)
80008148:	8b 45 1c             	mov    0x1c(%ebp),%eax
8000814b:	43                   	inc    %ebx
8000814c:	ff 4d 1c             	decl   0x1c(%ebp)
8000814f:	85 c0                	test   %eax,%eax
80008151:	7f ed                	jg     80008140 <number+0x140>
80008153:	80 bd 2e ff ff ff 00 	cmpb   $0x0,0xffffff2e(%ebp)
8000815a:	74 0f                	je     8000816b <number+0x16b>
8000815c:	3b 5d 0c             	cmp    0xc(%ebp),%ebx
8000815f:	77 09                	ja     8000816a <number+0x16a>
80008161:	0f b6 85 2e ff ff ff 	movzbl 0xffffff2e(%ebp),%eax
80008168:	88 03                	mov    %al,(%ebx)
8000816a:	43                   	inc    %ebx
8000816b:	f7 45 24 20 00 00 00 	testl  $0x20,0x24(%ebp)
80008172:	74 14                	je     80008188 <number+0x188>
80008174:	83 7d 18 08          	cmpl   $0x8,0x18(%ebp)
80008178:	0f 84 d4 00 00 00    	je     80008252 <number+0x252>
8000817e:	83 7d 18 10          	cmpl   $0x10,0x18(%ebp)
80008182:	0f 84 aa 00 00 00    	je     80008232 <number+0x232>
80008188:	f7 45 24 10 00 00 00 	testl  $0x10,0x24(%ebp)
8000818f:	75 28                	jne    800081b9 <number+0x1b9>
80008191:	8b 45 1c             	mov    0x1c(%ebp),%eax
80008194:	ff 4d 1c             	decl   0x1c(%ebp)
80008197:	85 c0                	test   %eax,%eax
80008199:	7e 1e                	jle    800081b9 <number+0x1b9>
8000819b:	90                   	nop    
8000819c:	8d 74 26 00          	lea    0x0(%esi,1),%esi
800081a0:	3b 5d 0c             	cmp    0xc(%ebp),%ebx
800081a3:	77 09                	ja     800081ae <number+0x1ae>
800081a5:	0f b6 95 2f ff ff ff 	movzbl 0xffffff2f(%ebp),%edx
800081ac:	88 13                	mov    %dl,(%ebx)
800081ae:	8b 45 1c             	mov    0x1c(%ebp),%eax
800081b1:	43                   	inc    %ebx
800081b2:	ff 4d 1c             	decl   0x1c(%ebp)
800081b5:	85 c0                	test   %eax,%eax
800081b7:	7f e7                	jg     800081a0 <number+0x1a0>
800081b9:	8b 45 20             	mov    0x20(%ebp),%eax
800081bc:	ff 4d 20             	decl   0x20(%ebp)
800081bf:	39 f0                	cmp    %esi,%eax
800081c1:	7e 20                	jle    800081e3 <number+0x1e3>
800081c3:	8d b6 00 00 00 00    	lea    0x0(%esi),%esi
800081c9:	8d bc 27 00 00 00 00 	lea    0x0(%edi,1),%edi
800081d0:	3b 5d 0c             	cmp    0xc(%ebp),%ebx
800081d3:	77 03                	ja     800081d8 <number+0x1d8>
800081d5:	c6 03 30             	movb   $0x30,(%ebx)
800081d8:	8b 45 20             	mov    0x20(%ebp),%eax
800081db:	43                   	inc    %ebx
800081dc:	ff 4d 20             	decl   0x20(%ebp)
800081df:	39 f0                	cmp    %esi,%eax
800081e1:	7f ed                	jg     800081d0 <number+0x1d0>
800081e3:	89 f1                	mov    %esi,%ecx
800081e5:	4e                   	dec    %esi
800081e6:	85 c9                	test   %ecx,%ecx
800081e8:	7e 1a                	jle    80008204 <number+0x204>
800081ea:	8d b6 00 00 00 00    	lea    0x0(%esi),%esi
800081f0:	3b 5d 0c             	cmp    0xc(%ebp),%ebx
800081f3:	77 07                	ja     800081fc <number+0x1fc>
800081f5:	0f b6 54 2e 98       	movzbl 0xffffff98(%esi,%ebp,1),%edx
800081fa:	88 13                	mov    %dl,(%ebx)
800081fc:	89 f7                	mov    %esi,%edi
800081fe:	43                   	inc    %ebx
800081ff:	4e                   	dec    %esi
80008200:	85 ff                	test   %edi,%edi
80008202:	7f ec                	jg     800081f0 <number+0x1f0>
80008204:	8b 45 1c             	mov    0x1c(%ebp),%eax
80008207:	ff 4d 1c             	decl   0x1c(%ebp)
8000820a:	85 c0                	test   %eax,%eax
8000820c:	7e 15                	jle    80008223 <number+0x223>
8000820e:	89 f6                	mov    %esi,%esi
80008210:	3b 5d 0c             	cmp    0xc(%ebp),%ebx
80008213:	77 03                	ja     80008218 <number+0x218>
80008215:	c6 03 20             	movb   $0x20,(%ebx)
80008218:	8b 45 1c             	mov    0x1c(%ebp),%eax
8000821b:	43                   	inc    %ebx
8000821c:	ff 4d 1c             	decl   0x1c(%ebp)
8000821f:	85 c0                	test   %eax,%eax
80008221:	7f ed                	jg     80008210 <number+0x210>
80008223:	89 da                	mov    %ebx,%edx
80008225:	81 c4 ec 00 00 00    	add    $0xec,%esp
8000822b:	89 d0                	mov    %edx,%eax
8000822d:	5b                   	pop    %ebx
8000822e:	5e                   	pop    %esi
8000822f:	5f                   	pop    %edi
80008230:	5d                   	pop    %ebp
80008231:	c3                   	ret    
80008232:	3b 5d 0c             	cmp    0xc(%ebp),%ebx
80008235:	77 03                	ja     8000823a <number+0x23a>
80008237:	c6 03 30             	movb   $0x30,(%ebx)
8000823a:	43                   	inc    %ebx
8000823b:	3b 5d 0c             	cmp    0xc(%ebp),%ebx
8000823e:	77 0c                	ja     8000824c <number+0x24c>
80008240:	8b bd 28 ff ff ff    	mov    0xffffff28(%ebp),%edi
80008246:	0f b6 4f 21          	movzbl 0x21(%edi),%ecx
8000824a:	88 0b                	mov    %cl,(%ebx)
8000824c:	43                   	inc    %ebx
8000824d:	e9 36 ff ff ff       	jmp    80008188 <number+0x188>
80008252:	3b 5d 0c             	cmp    0xc(%ebp),%ebx
80008255:	77 f5                	ja     8000824c <number+0x24c>
80008257:	c6 03 30             	movb   $0x30,(%ebx)
8000825a:	eb f0                	jmp    8000824c <number+0x24c>
8000825c:	8d 74 26 00          	lea    0x0(%esi,1),%esi
80008260:	8d 55 e8             	lea    0xffffffe8(%ebp),%edx
80008263:	8d 3c 32             	lea    (%edx,%esi,1),%edi
80008266:	8b 85 30 ff ff ff    	mov    0xffffff30(%ebp),%eax
8000826c:	8b 95 34 ff ff ff    	mov    0xffffff34(%ebp),%edx
80008272:	46                   	inc    %esi
80008273:	89 85 14 ff ff ff    	mov    %eax,0xffffff14(%ebp)
80008279:	85 d2                	test   %edx,%edx
8000827b:	89 d1                	mov    %edx,%ecx
8000827d:	74 09                	je     80008288 <number+0x288>
8000827f:	89 d0                	mov    %edx,%eax
80008281:	31 d2                	xor    %edx,%edx
80008283:	f7 75 18             	divl   0x18(%ebp)
80008286:	89 c1                	mov    %eax,%ecx
80008288:	8b 85 14 ff ff ff    	mov    0xffffff14(%ebp),%eax
8000828e:	f7 75 18             	divl   0x18(%ebp)
80008291:	89 95 10 ff ff ff    	mov    %edx,0xffffff10(%ebp)
80008297:	89 ca                	mov    %ecx,%edx
80008299:	89 95 34 ff ff ff    	mov    %edx,0xffffff34(%ebp)
8000829f:	8b 8d 10 ff ff ff    	mov    0xffffff10(%ebp),%ecx
800082a5:	8b 95 28 ff ff ff    	mov    0xffffff28(%ebp),%edx
800082ab:	89 85 30 ff ff ff    	mov    %eax,0xffffff30(%ebp)
800082b1:	0f b6 04 11          	movzbl (%ecx,%edx,1),%eax
800082b5:	88 47 b0             	mov    %al,0xffffffb0(%edi)
800082b8:	8b 85 34 ff ff ff    	mov    0xffffff34(%ebp),%eax
800082be:	0b 85 30 ff ff ff    	or     0xffffff30(%ebp),%eax
800082c4:	75 9a                	jne    80008260 <number+0x260>
800082c6:	e9 4e fe ff ff       	jmp    80008119 <number+0x119>
800082cb:	ff 4d 1c             	decl   0x1c(%ebp)
800082ce:	e9 29 fe ff ff       	jmp    800080fc <number+0xfc>
800082d3:	83 6d 1c 02          	subl   $0x2,0x1c(%ebp)
800082d7:	e9 20 fe ff ff       	jmp    800080fc <number+0xfc>
800082dc:	f7 45 24 08 00 00 00 	testl  $0x8,0x24(%ebp)
800082e3:	0f 84 f6 fd ff ff    	je     800080df <number+0xdf>
800082e9:	c6 85 2e ff ff ff 20 	movb   $0x20,0xffffff2e(%ebp)
800082f0:	e9 e7 fd ff ff       	jmp    800080dc <number+0xdc>
800082f5:	f7 9d 30 ff ff ff    	negl   0xffffff30(%ebp)
800082fb:	c6 85 2e ff ff ff 2d 	movb   $0x2d,0xffffff2e(%ebp)
80008302:	83 95 34 ff ff ff 00 	adcl   $0x0,0xffffff34(%ebp)
80008309:	f7 9d 34 ff ff ff    	negl   0xffffff34(%ebp)
8000830f:	e9 c8 fd ff ff       	jmp    800080dc <number+0xdc>
	...

80008320 <__v_scanf>:
80008320:	55                   	push   %ebp
80008321:	89 e5                	mov    %esp,%ebp
80008323:	57                   	push   %edi
80008324:	56                   	push   %esi
80008325:	53                   	push   %ebx
80008326:	83 ec 5c             	sub    $0x5c,%esp
80008329:	c7 45 e0 01 00 00 00 	movl   $0x1,0xffffffe0(%ebp)
80008330:	8b 4d 08             	mov    0x8(%ebp),%ecx
80008333:	c7 45 e4 00 00 00 00 	movl   $0x0,0xffffffe4(%ebp)
8000833a:	8b 7d 0c             	mov    0xc(%ebp),%edi
8000833d:	8b 01                	mov    (%ecx),%eax
8000833f:	89 04 24             	mov    %eax,(%esp,1)
80008342:	ff 51 04             	call   *0x4(%ecx)
80008345:	0f b6 17             	movzbl (%edi),%edx
80008348:	89 c6                	mov    %eax,%esi
8000834a:	84 d2                	test   %dl,%dl
8000834c:	74 76                	je     800083c4 <__v_scanf+0xa4>
8000834e:	0f b6 da             	movzbl %dl,%ebx
80008351:	47                   	inc    %edi
80008352:	83 fb 25             	cmp    $0x25,%ebx
80008355:	0f 87 e5 00 00 00    	ja     80008440 <__v_scanf+0x120>
8000835b:	ff 24 9d 18 a0 00 80 	jmp    *0x8000a018(,%ebx,4)
80008362:	8d b4 26 00 00 00 00 	lea    0x0(%esi,1),%esi
80008369:	8d bc 27 00 00 00 00 	lea    0x0(%edi,1),%edi
80008370:	0f b6 17             	movzbl (%edi),%edx
80008373:	84 d2                	test   %dl,%dl
80008375:	74 32                	je     800083a9 <__v_scanf+0x89>
80008377:	0f b6 da             	movzbl %dl,%ebx
8000837a:	0f b6 8b e0 a2 00 80 	movzbl 0x8000a2e0(%ebx),%ecx
80008381:	80 e1 20             	and    $0x20,%cl
80008384:	84 c9                	test   %cl,%cl
80008386:	74 21                	je     800083a9 <__v_scanf+0x89>
80008388:	90                   	nop    
80008389:	8d b4 26 00 00 00 00 	lea    0x0(%esi,1),%esi
80008390:	47                   	inc    %edi
80008391:	0f b6 17             	movzbl (%edi),%edx
80008394:	84 d2                	test   %dl,%dl
80008396:	74 11                	je     800083a9 <__v_scanf+0x89>
80008398:	0f b6 da             	movzbl %dl,%ebx
8000839b:	0f b6 8b e0 a2 00 80 	movzbl 0x8000a2e0(%ebx),%ecx
800083a2:	80 e1 20             	and    $0x20,%cl
800083a5:	84 c9                	test   %cl,%cl
800083a7:	75 e7                	jne    80008390 <__v_scanf+0x70>
800083a9:	89 f0                	mov    %esi,%eax
800083ab:	0f b6 d8             	movzbl %al,%ebx
800083ae:	0f b6 8b e0 a2 00 80 	movzbl 0x8000a2e0(%ebx),%ecx
800083b5:	80 e1 20             	and    $0x20,%cl
800083b8:	84 c9                	test   %cl,%cl
800083ba:	75 34                	jne    800083f0 <__v_scanf+0xd0>
800083bc:	8d 74 26 00          	lea    0x0(%esi,1),%esi
800083c0:	84 d2                	test   %dl,%dl
800083c2:	75 8a                	jne    8000834e <__v_scanf+0x2e>
800083c4:	85 f6                	test   %esi,%esi
800083c6:	78 1a                	js     800083e2 <__v_scanf+0xc2>
800083c8:	8b 5d 08             	mov    0x8(%ebp),%ebx
800083cb:	8b 03                	mov    (%ebx),%eax
800083cd:	89 34 24             	mov    %esi,(%esp,1)
800083d0:	89 44 24 04          	mov    %eax,0x4(%esp,1)
800083d4:	ff 53 08             	call   *0x8(%ebx)
800083d7:	8b 45 e4             	mov    0xffffffe4(%ebp),%eax
800083da:	83 c4 5c             	add    $0x5c,%esp
800083dd:	5b                   	pop    %ebx
800083de:	5e                   	pop    %esi
800083df:	5f                   	pop    %edi
800083e0:	5d                   	pop    %ebp
800083e1:	c3                   	ret    
800083e2:	8b 7d e4             	mov    0xffffffe4(%ebp),%edi
800083e5:	b8 ff ff ff ff       	mov    $0xffffffff,%eax
800083ea:	85 ff                	test   %edi,%edi
800083ec:	74 ec                	je     800083da <__v_scanf+0xba>
800083ee:	eb d8                	jmp    800083c8 <__v_scanf+0xa8>
800083f0:	ff 45 e0             	incl   0xffffffe0(%ebp)
800083f3:	8b 75 08             	mov    0x8(%ebp),%esi
800083f6:	8b 06                	mov    (%esi),%eax
800083f8:	89 04 24             	mov    %eax,(%esp,1)
800083fb:	ff 56 04             	call   *0x4(%esi)
800083fe:	0f b6 d8             	movzbl %al,%ebx
80008401:	89 c6                	mov    %eax,%esi
80008403:	0f b6 93 e0 a2 00 80 	movzbl 0x8000a2e0(%ebx),%edx
8000840a:	80 e2 20             	and    $0x20,%dl
8000840d:	84 d2                	test   %dl,%dl
8000840f:	75 df                	jne    800083f0 <__v_scanf+0xd0>
80008411:	eb 0d                	jmp    80008420 <__v_scanf+0x100>
80008413:	90                   	nop    
80008414:	90                   	nop    
80008415:	90                   	nop    
80008416:	90                   	nop    
80008417:	90                   	nop    
80008418:	90                   	nop    
80008419:	90                   	nop    
8000841a:	90                   	nop    
8000841b:	90                   	nop    
8000841c:	90                   	nop    
8000841d:	90                   	nop    
8000841e:	90                   	nop    
8000841f:	90                   	nop    
80008420:	0f b6 17             	movzbl (%edi),%edx
80008423:	eb 9b                	jmp    800083c0 <__v_scanf+0xa0>
80008425:	8d 74 26 00          	lea    0x0(%esi,1),%esi
80008429:	8d bc 27 00 00 00 00 	lea    0x0(%edi,1),%edi
80008430:	31 c0                	xor    %eax,%eax
80008432:	eb a6                	jmp    800083da <__v_scanf+0xba>
80008434:	8d b6 00 00 00 00    	lea    0x0(%esi),%esi
8000843a:	8d bf 00 00 00 00    	lea    0x0(%edi),%edi
80008440:	89 f0                	mov    %esi,%eax
80008442:	0f b6 d0             	movzbl %al,%edx
80008445:	39 da                	cmp    %ebx,%edx
80008447:	0f 85 77 ff ff ff    	jne    800083c4 <__v_scanf+0xa4>
8000844d:	ff 45 e0             	incl   0xffffffe0(%ebp)
80008450:	8b 75 08             	mov    0x8(%ebp),%esi
80008453:	8b 06                	mov    (%esi),%eax
80008455:	89 04 24             	mov    %eax,(%esp,1)
80008458:	ff 56 04             	call   *0x4(%esi)
8000845b:	89 c6                	mov    %eax,%esi
8000845d:	eb c1                	jmp    80008420 <__v_scanf+0x100>
8000845f:	90                   	nop    
80008460:	c7 45 dc 00 00 00 00 	movl   $0x0,0xffffffdc(%ebp)
80008467:	c7 45 d8 ff ff ff ff 	movl   $0xffffffff,0xffffffd8(%ebp)
8000846e:	c6 45 d7 00          	movb   $0x0,0xffffffd7(%ebp)
80008472:	c6 45 d6 00          	movb   $0x0,0xffffffd6(%ebp)
80008476:	c6 45 d5 00          	movb   $0x0,0xffffffd5(%ebp)
8000847a:	c6 45 d4 00          	movb   $0x0,0xffffffd4(%ebp)
8000847e:	0f b6 1f             	movzbl (%edi),%ebx
80008481:	47                   	inc    %edi
80008482:	83 fb 6e             	cmp    $0x6e,%ebx
80008485:	74 09                	je     80008490 <__v_scanf+0x170>
80008487:	83 fe ff             	cmp    $0xffffffff,%esi
8000848a:	0f 84 34 ff ff ff    	je     800083c4 <__v_scanf+0xa4>
80008490:	83 fb 78             	cmp    $0x78,%ebx
80008493:	0f 87 2b ff ff ff    	ja     800083c4 <__v_scanf+0xa4>
80008499:	ff 24 9d b0 a0 00 80 	jmp    *0x8000a0b0(,%ebx,4)
800084a0:	89 f0                	mov    %esi,%eax
800084a2:	0f b6 c8             	movzbl %al,%ecx
800084a5:	39 d9                	cmp    %ebx,%ecx
800084a7:	0f 85 17 ff ff ff    	jne    800083c4 <__v_scanf+0xa4>
800084ad:	ff 45 e0             	incl   0xffffffe0(%ebp)
800084b0:	8b 55 08             	mov    0x8(%ebp),%edx
800084b3:	8b 02                	mov    (%edx),%eax
800084b5:	89 04 24             	mov    %eax,(%esp,1)
800084b8:	ff 52 04             	call   *0x4(%edx)
800084bb:	eb 9e                	jmp    8000845b <__v_scanf+0x13b>
800084bd:	c6 45 d6 01          	movb   $0x1,0xffffffd6(%ebp)
800084c1:	eb bb                	jmp    8000847e <__v_scanf+0x15e>
800084c3:	c7 44 24 08 0a 00 00 	movl   $0xa,0x8(%esp,1)
800084ca:	00 
800084cb:	8d 4d e8             	lea    0xffffffe8(%ebp),%ecx
800084ce:	8d 5f ff             	lea    0xffffffff(%edi),%ebx
800084d1:	89 4c 24 04          	mov    %ecx,0x4(%esp,1)
800084d5:	89 1c 24             	mov    %ebx,(%esp,1)
800084d8:	e8 a3 07 00 00       	call   80008c80 <strtol>
800084dd:	8b 7d e8             	mov    0xffffffe8(%ebp),%edi
800084e0:	89 45 d8             	mov    %eax,0xffffffd8(%ebp)
800084e3:	c6 45 d7 01          	movb   $0x1,0xffffffd7(%ebp)
800084e7:	eb 95                	jmp    8000847e <__v_scanf+0x15e>
800084e9:	80 7d d6 00          	cmpb   $0x0,0xffffffd6(%ebp)
800084ed:	75 0f                	jne    800084fe <__v_scanf+0x1de>
800084ef:	ff 45 e4             	incl   0xffffffe4(%ebp)
800084f2:	8b 45 10             	mov    0x10(%ebp),%eax
800084f5:	83 45 10 04          	addl   $0x4,0x10(%ebp)
800084f9:	8b 00                	mov    (%eax),%eax
800084fb:	89 45 e8             	mov    %eax,0xffffffe8(%ebp)
800084fe:	80 7d d7 00          	cmpb   $0x0,0xffffffd7(%ebp)
80008502:	75 07                	jne    8000850b <__v_scanf+0x1eb>
80008504:	c7 45 d8 01 00 00 00 	movl   $0x1,0xffffffd8(%ebp)
8000850b:	8b 45 d8             	mov    0xffffffd8(%ebp),%eax
8000850e:	85 c0                	test   %eax,%eax
80008510:	0f 84 0a ff ff ff    	je     80008420 <__v_scanf+0x100>
80008516:	83 fe ff             	cmp    $0xffffffff,%esi
80008519:	0f 84 01 ff ff ff    	je     80008420 <__v_scanf+0x100>
8000851f:	80 7d d6 00          	cmpb   $0x0,0xffffffd6(%ebp)
80008523:	75 0a                	jne    8000852f <__v_scanf+0x20f>
80008525:	8b 45 e8             	mov    0xffffffe8(%ebp),%eax
80008528:	89 f3                	mov    %esi,%ebx
8000852a:	88 18                	mov    %bl,(%eax)
8000852c:	ff 45 e8             	incl   0xffffffe8(%ebp)
8000852f:	ff 4d d8             	decl   0xffffffd8(%ebp)
80008532:	8b 55 08             	mov    0x8(%ebp),%edx
80008535:	ff 45 e0             	incl   0xffffffe0(%ebp)
80008538:	8b 02                	mov    (%edx),%eax
8000853a:	89 04 24             	mov    %eax,(%esp,1)
8000853d:	ff 52 04             	call   *0x4(%edx)
80008540:	89 c6                	mov    %eax,%esi
80008542:	8b 45 d8             	mov    0xffffffd8(%ebp),%eax
80008545:	85 c0                	test   %eax,%eax
80008547:	0f 84 d3 fe ff ff    	je     80008420 <__v_scanf+0x100>
8000854d:	83 fe ff             	cmp    $0xffffffff,%esi
80008550:	75 cd                	jne    8000851f <__v_scanf+0x1ff>
80008552:	e9 c9 fe ff ff       	jmp    80008420 <__v_scanf+0x100>
80008557:	83 45 dc 02          	addl   $0x2,0xffffffdc(%ebp)
8000855b:	83 45 dc 08          	addl   $0x8,0xffffffdc(%ebp)
8000855f:	c7 45 d0 00 00 00 00 	movl   $0x0,0xffffffd0(%ebp)
80008566:	8b 45 e0             	mov    0xffffffe0(%ebp),%eax
80008569:	c7 45 c8 00 00 00 00 	movl   $0x0,0xffffffc8(%ebp)
80008570:	89 45 cc             	mov    %eax,0xffffffcc(%ebp)
80008573:	89 f0                	mov    %esi,%eax
80008575:	0f b6 c8             	movzbl %al,%ecx
80008578:	0f b6 91 e0 a2 00 80 	movzbl 0x8000a2e0(%ecx),%edx
8000857f:	80 e2 20             	and    $0x20,%dl
80008582:	84 d2                	test   %dl,%dl
80008584:	0f 85 96 01 00 00    	jne    80008720 <__v_scanf+0x400>
8000858a:	83 fe 2d             	cmp    $0x2d,%esi
8000858d:	0f 84 65 01 00 00    	je     800086f8 <__v_scanf+0x3d8>
80008593:	83 fe 2b             	cmp    $0x2b,%esi
80008596:	0f 84 47 01 00 00    	je     800086e3 <__v_scanf+0x3c3>
8000859c:	80 7d d7 00          	cmpb   $0x0,0xffffffd7(%ebp)
800085a0:	75 21                	jne    800085c3 <__v_scanf+0x2a3>
800085a2:	83 7d dc 10          	cmpl   $0x10,0xffffffdc(%ebp)
800085a6:	0f 84 2c 01 00 00    	je     800086d8 <__v_scanf+0x3b8>
800085ac:	8b 45 dc             	mov    0xffffffdc(%ebp),%eax
800085af:	85 c0                	test   %eax,%eax
800085b1:	75 10                	jne    800085c3 <__v_scanf+0x2a3>
800085b3:	c7 45 dc 0a 00 00 00 	movl   $0xa,0xffffffdc(%ebp)
800085ba:	83 fe 30             	cmp    $0x30,%esi
800085bd:	0f 84 d6 00 00 00    	je     80008699 <__v_scanf+0x379>
800085c3:	8b 45 d8             	mov    0xffffffd8(%ebp),%eax
800085c6:	85 c0                	test   %eax,%eax
800085c8:	74 57                	je     80008621 <__v_scanf+0x301>
800085ca:	83 fe ff             	cmp    $0xffffffff,%esi
800085cd:	74 52                	je     80008621 <__v_scanf+0x301>
800085cf:	89 f0                	mov    %esi,%eax
800085d1:	25 ff 00 00 00       	and    $0xff,%eax
800085d6:	89 c2                	mov    %eax,%edx
800085d8:	83 ca 20             	or     $0x20,%edx
800085db:	83 fa 60             	cmp    $0x60,%edx
800085de:	0f 86 a1 00 00 00    	jbe    80008685 <__v_scanf+0x365>
800085e4:	8d 42 a9             	lea    0xffffffa9(%edx),%eax
800085e7:	3b 45 dc             	cmp    0xffffffdc(%ebp),%eax
800085ea:	73 35                	jae    80008621 <__v_scanf+0x301>
800085ec:	8b 75 d0             	mov    0xffffffd0(%ebp),%esi
800085ef:	8b 55 dc             	mov    0xffffffdc(%ebp),%edx
800085f2:	0f af f2             	imul   %edx,%esi
800085f5:	3b 75 d0             	cmp    0xffffffd0(%ebp),%esi
800085f8:	8d 0c 30             	lea    (%eax,%esi,1),%ecx
800085fb:	8b 75 08             	mov    0x8(%ebp),%esi
800085fe:	8b 06                	mov    (%esi),%eax
80008600:	19 d2                	sbb    %edx,%edx
80008602:	ff 45 e0             	incl   0xffffffe0(%ebp)
80008605:	09 ca                	or     %ecx,%edx
80008607:	ff 4d d8             	decl   0xffffffd8(%ebp)
8000860a:	89 55 d0             	mov    %edx,0xffffffd0(%ebp)
8000860d:	89 04 24             	mov    %eax,(%esp,1)
80008610:	ff 56 04             	call   *0x4(%esi)
80008613:	89 c6                	mov    %eax,%esi
80008615:	8b 45 d8             	mov    0xffffffd8(%ebp),%eax
80008618:	85 c0                	test   %eax,%eax
8000861a:	74 05                	je     80008621 <__v_scanf+0x301>
8000861c:	83 fe ff             	cmp    $0xffffffff,%esi
8000861f:	75 ae                	jne    800085cf <__v_scanf+0x2af>
80008621:	83 cb 20             	or     $0x20,%ebx
80008624:	83 fb 6f             	cmp    $0x6f,%ebx
80008627:	77 13                	ja     8000863c <__v_scanf+0x31c>
80008629:	81 7d d0 ff ff ff 7f 	cmpl   $0x7fffffff,0xffffffd0(%ebp)
80008630:	77 0a                	ja     8000863c <__v_scanf+0x31c>
80008632:	8b 45 c8             	mov    0xffffffc8(%ebp),%eax
80008635:	85 c0                	test   %eax,%eax
80008637:	74 03                	je     8000863c <__v_scanf+0x31c>
80008639:	f7 5d d0             	negl   0xffffffd0(%ebp)
8000863c:	80 7d d6 00          	cmpb   $0x0,0xffffffd6(%ebp)
80008640:	0f 85 da fd ff ff    	jne    80008420 <__v_scanf+0x100>
80008646:	80 7d d4 00          	cmpb   $0x0,0xffffffd4(%ebp)
8000864a:	75 29                	jne    80008675 <__v_scanf+0x355>
8000864c:	80 7d d5 00          	cmpb   $0x0,0xffffffd5(%ebp)
80008650:	74 23                	je     80008675 <__v_scanf+0x355>
80008652:	8b 45 10             	mov    0x10(%ebp),%eax
80008655:	8b 5d d0             	mov    0xffffffd0(%ebp),%ebx
80008658:	83 45 10 04          	addl   $0x4,0x10(%ebp)
8000865c:	8b 00                	mov    (%eax),%eax
8000865e:	66 89 18             	mov    %bx,(%eax)
80008661:	8b 45 e0             	mov    0xffffffe0(%ebp),%eax
80008664:	39 45 cc             	cmp    %eax,0xffffffcc(%ebp)
80008667:	0f 83 b3 fd ff ff    	jae    80008420 <__v_scanf+0x100>
8000866d:	ff 45 e4             	incl   0xffffffe4(%ebp)
80008670:	e9 ab fd ff ff       	jmp    80008420 <__v_scanf+0x100>
80008675:	8b 45 10             	mov    0x10(%ebp),%eax
80008678:	8b 55 d0             	mov    0xffffffd0(%ebp),%edx
8000867b:	83 45 10 04          	addl   $0x4,0x10(%ebp)
8000867f:	8b 00                	mov    (%eax),%eax
80008681:	89 10                	mov    %edx,(%eax)
80008683:	eb dc                	jmp    80008661 <__v_scanf+0x341>
80008685:	83 f8 39             	cmp    $0x39,%eax
80008688:	ba ff 00 00 00       	mov    $0xff,%edx
8000868d:	77 03                	ja     80008692 <__v_scanf+0x372>
8000868f:	8d 50 d0             	lea    0xffffffd0(%eax),%edx
80008692:	89 d0                	mov    %edx,%eax
80008694:	e9 4e ff ff ff       	jmp    800085e7 <__v_scanf+0x2c7>
80008699:	c7 45 dc 08 00 00 00 	movl   $0x8,0xffffffdc(%ebp)
800086a0:	ff 45 e0             	incl   0xffffffe0(%ebp)
800086a3:	8b 75 08             	mov    0x8(%ebp),%esi
800086a6:	8b 06                	mov    (%esi),%eax
800086a8:	89 04 24             	mov    %eax,(%esp,1)
800086ab:	ff 56 04             	call   *0x4(%esi)
800086ae:	89 c6                	mov    %eax,%esi
800086b0:	83 c8 20             	or     $0x20,%eax
800086b3:	83 f8 78             	cmp    $0x78,%eax
800086b6:	0f 85 07 ff ff ff    	jne    800085c3 <__v_scanf+0x2a3>
800086bc:	ff 45 e0             	incl   0xffffffe0(%ebp)
800086bf:	8b 4d 08             	mov    0x8(%ebp),%ecx
800086c2:	8b 01                	mov    (%ecx),%eax
800086c4:	89 04 24             	mov    %eax,(%esp,1)
800086c7:	ff 51 04             	call   *0x4(%ecx)
800086ca:	c7 45 dc 10 00 00 00 	movl   $0x10,0xffffffdc(%ebp)
800086d1:	89 c6                	mov    %eax,%esi
800086d3:	e9 eb fe ff ff       	jmp    800085c3 <__v_scanf+0x2a3>
800086d8:	83 fe 30             	cmp    $0x30,%esi
800086db:	0f 85 cb fe ff ff    	jne    800085ac <__v_scanf+0x28c>
800086e1:	eb bd                	jmp    800086a0 <__v_scanf+0x380>
800086e3:	ff 45 e0             	incl   0xffffffe0(%ebp)
800086e6:	8b 4d 08             	mov    0x8(%ebp),%ecx
800086e9:	8b 01                	mov    (%ecx),%eax
800086eb:	89 04 24             	mov    %eax,(%esp,1)
800086ee:	ff 51 04             	call   *0x4(%ecx)
800086f1:	89 c6                	mov    %eax,%esi
800086f3:	e9 a4 fe ff ff       	jmp    8000859c <__v_scanf+0x27c>
800086f8:	ff 45 e0             	incl   0xffffffe0(%ebp)
800086fb:	8b 55 08             	mov    0x8(%ebp),%edx
800086fe:	8b 02                	mov    (%edx),%eax
80008700:	89 04 24             	mov    %eax,(%esp,1)
80008703:	ff 52 04             	call   *0x4(%edx)
80008706:	c7 45 c8 01 00 00 00 	movl   $0x1,0xffffffc8(%ebp)
8000870d:	89 c6                	mov    %eax,%esi
8000870f:	e9 7f fe ff ff       	jmp    80008593 <__v_scanf+0x273>
80008714:	8d b6 00 00 00 00    	lea    0x0(%esi),%esi
8000871a:	8d bf 00 00 00 00    	lea    0x0(%edi),%edi
80008720:	ff 45 e0             	incl   0xffffffe0(%ebp)
80008723:	8b 75 08             	mov    0x8(%ebp),%esi
80008726:	8b 06                	mov    (%esi),%eax
80008728:	89 04 24             	mov    %eax,(%esp,1)
8000872b:	ff 56 04             	call   *0x4(%esi)
8000872e:	0f b6 c8             	movzbl %al,%ecx
80008731:	89 c6                	mov    %eax,%esi
80008733:	0f b6 91 e0 a2 00 80 	movzbl 0x8000a2e0(%ecx),%edx
8000873a:	80 e2 20             	and    $0x20,%dl
8000873d:	84 d2                	test   %dl,%dl
8000873f:	75 df                	jne    80008720 <__v_scanf+0x400>
80008741:	e9 44 fe ff ff       	jmp    8000858a <__v_scanf+0x26a>
80008746:	89 f0                	mov    %esi,%eax
80008748:	0f b6 d8             	movzbl %al,%ebx
8000874b:	d9 ee                	fldz   
8000874d:	0f b6 8b e0 a2 00 80 	movzbl 0x8000a2e0(%ebx),%ecx
80008754:	dd 5d c0             	fstpl  0xffffffc0(%ebp)
80008757:	80 e1 20             	and    $0x20,%cl
8000875a:	84 c9                	test   %cl,%cl
8000875c:	0f 85 2e 02 00 00    	jne    80008990 <__v_scanf+0x670>
80008762:	83 fe 2d             	cmp    $0x2d,%esi
80008765:	0f 84 0c 02 00 00    	je     80008977 <__v_scanf+0x657>
8000876b:	83 fe 2b             	cmp    $0x2b,%esi
8000876e:	0f 84 ee 01 00 00    	je     80008962 <__v_scanf+0x642>
80008774:	89 f0                	mov    %esi,%eax
80008776:	0f b6 d0             	movzbl %al,%edx
80008779:	0f b6 9a e0 a2 00 80 	movzbl 0x8000a2e0(%edx),%ebx
80008780:	80 e3 04             	and    $0x4,%bl
80008783:	84 db                	test   %bl,%bl
80008785:	0f 85 95 01 00 00    	jne    80008920 <__v_scanf+0x600>
8000878b:	83 fe 2e             	cmp    $0x2e,%esi
8000878e:	0f 84 0d 01 00 00    	je     800088a1 <__v_scanf+0x581>
80008794:	89 f3                	mov    %esi,%ebx
80008796:	83 cb 20             	or     $0x20,%ebx
80008799:	83 fb 65             	cmp    $0x65,%ebx
8000879c:	74 36                	je     800087d4 <__v_scanf+0x4b4>
8000879e:	80 7d d6 00          	cmpb   $0x0,0xffffffd6(%ebp)
800087a2:	0f 85 c5 fe ff ff    	jne    8000866d <__v_scanf+0x34d>
800087a8:	80 7d d4 00          	cmpb   $0x0,0xffffffd4(%ebp)
800087ac:	74 13                	je     800087c1 <__v_scanf+0x4a1>
800087ae:	dd 45 c0             	fldl   0xffffffc0(%ebp)
800087b1:	8b 45 10             	mov    0x10(%ebp),%eax
800087b4:	83 45 10 04          	addl   $0x4,0x10(%ebp)
800087b8:	8b 00                	mov    (%eax),%eax
800087ba:	dd 18                	fstpl  (%eax)
800087bc:	e9 ac fe ff ff       	jmp    8000866d <__v_scanf+0x34d>
800087c1:	dd 45 c0             	fldl   0xffffffc0(%ebp)
800087c4:	8b 45 10             	mov    0x10(%ebp),%eax
800087c7:	83 45 10 04          	addl   $0x4,0x10(%ebp)
800087cb:	8b 00                	mov    (%eax),%eax
800087cd:	d9 18                	fstps  (%eax)
800087cf:	e9 99 fe ff ff       	jmp    8000866d <__v_scanf+0x34d>
800087d4:	89 75 b4             	mov    %esi,0xffffffb4(%ebp)
800087d7:	31 db                	xor    %ebx,%ebx
800087d9:	8b 75 08             	mov    0x8(%ebp),%esi
800087dc:	dd 05 08 a0 00 80    	fldl   0x8000a008
800087e2:	ff 45 e0             	incl   0xffffffe0(%ebp)
800087e5:	8b 06                	mov    (%esi),%eax
800087e7:	dd 5d a8             	fstpl  0xffffffa8(%ebp)
800087ea:	89 04 24             	mov    %eax,(%esp,1)
800087ed:	ff 56 04             	call   *0x4(%esi)
800087f0:	83 f8 2d             	cmp    $0x2d,%eax
800087f3:	89 c6                	mov    %eax,%esi
800087f5:	0f 84 8d 00 00 00    	je     80008888 <__v_scanf+0x568>
800087fb:	83 f8 2b             	cmp    $0x2b,%eax
800087fe:	74 24                	je     80008824 <__v_scanf+0x504>
80008800:	d9 ee                	fldz   
80008802:	83 f8 ff             	cmp    $0xffffffff,%eax
80008805:	dd 5d c0             	fstpl  0xffffffc0(%ebp)
80008808:	74 12                	je     8000881c <__v_scanf+0x4fc>
8000880a:	ff 4d e0             	decl   0xffffffe0(%ebp)
8000880d:	8b 5d 08             	mov    0x8(%ebp),%ebx
80008810:	8b 03                	mov    (%ebx),%eax
80008812:	89 34 24             	mov    %esi,(%esp,1)
80008815:	89 44 24 04          	mov    %eax,0x4(%esp,1)
80008819:	ff 53 08             	call   *0x8(%ebx)
8000881c:	8b 75 b4             	mov    0xffffffb4(%ebp),%esi
8000881f:	e9 7a ff ff ff       	jmp    8000879e <__v_scanf+0x47e>
80008824:	ff 45 e0             	incl   0xffffffe0(%ebp)
80008827:	8b 55 08             	mov    0x8(%ebp),%edx
8000882a:	8b 02                	mov    (%edx),%eax
8000882c:	89 04 24             	mov    %eax,(%esp,1)
8000882f:	ff 52 04             	call   *0x4(%edx)
80008832:	0f b6 d0             	movzbl %al,%edx
80008835:	89 c6                	mov    %eax,%esi
80008837:	0f b6 8a e0 a2 00 80 	movzbl 0x8000a2e0(%edx),%ecx
8000883e:	80 e1 04             	and    $0x4,%cl
80008841:	84 c9                	test   %cl,%cl
80008843:	75 19                	jne    8000885e <__v_scanf+0x53e>
80008845:	85 db                	test   %ebx,%ebx
80008847:	0f 84 51 ff ff ff    	je     8000879e <__v_scanf+0x47e>
8000884d:	dd 45 c0             	fldl   0xffffffc0(%ebp)
80008850:	4b                   	dec    %ebx
80008851:	dc 4d a8             	fmull  0xffffffa8(%ebp)
80008854:	dd 5d c0             	fstpl  0xffffffc0(%ebp)
80008857:	75 f4                	jne    8000884d <__v_scanf+0x52d>
80008859:	e9 40 ff ff ff       	jmp    8000879e <__v_scanf+0x47e>
8000885e:	ff 45 e0             	incl   0xffffffe0(%ebp)
80008861:	8d 0c 9b             	lea    (%ebx,%ebx,4),%ecx
80008864:	8d 5c 4e d0          	lea    0xffffffd0(%esi,%ecx,2),%ebx
80008868:	8b 75 08             	mov    0x8(%ebp),%esi
8000886b:	8b 06                	mov    (%esi),%eax
8000886d:	89 04 24             	mov    %eax,(%esp,1)
80008870:	ff 56 04             	call   *0x4(%esi)
80008873:	0f b6 d0             	movzbl %al,%edx
80008876:	89 c6                	mov    %eax,%esi
80008878:	0f b6 8a e0 a2 00 80 	movzbl 0x8000a2e0(%edx),%ecx
8000887f:	80 e1 04             	and    $0x4,%cl
80008882:	84 c9                	test   %cl,%cl
80008884:	75 d8                	jne    8000885e <__v_scanf+0x53e>
80008886:	eb bd                	jmp    80008845 <__v_scanf+0x525>
80008888:	dd 05 10 a0 00 80    	fldl   0x8000a010
8000888e:	8b 4d 08             	mov    0x8(%ebp),%ecx
80008891:	ff 45 e0             	incl   0xffffffe0(%ebp)
80008894:	8b 01                	mov    (%ecx),%eax
80008896:	dd 5d a8             	fstpl  0xffffffa8(%ebp)
80008899:	89 04 24             	mov    %eax,(%esp,1)
8000889c:	ff 51 04             	call   *0x4(%ecx)
8000889f:	eb 91                	jmp    80008832 <__v_scanf+0x512>
800088a1:	dd 05 10 a0 00 80    	fldl   0x8000a010
800088a7:	8b 75 08             	mov    0x8(%ebp),%esi
800088aa:	ff 45 e0             	incl   0xffffffe0(%ebp)
800088ad:	8b 06                	mov    (%esi),%eax
800088af:	dd 5d b8             	fstpl  0xffffffb8(%ebp)
800088b2:	89 04 24             	mov    %eax,(%esp,1)
800088b5:	ff 56 04             	call   *0x4(%esi)
800088b8:	0f b6 d0             	movzbl %al,%edx
800088bb:	89 c6                	mov    %eax,%esi
800088bd:	0f b6 9a e0 a2 00 80 	movzbl 0x8000a2e0(%edx),%ebx
800088c4:	80 e3 04             	and    $0x4,%bl
800088c7:	84 db                	test   %bl,%bl
800088c9:	0f 84 c5 fe ff ff    	je     80008794 <__v_scanf+0x474>
800088cf:	ff 45 e0             	incl   0xffffffe0(%ebp)
800088d2:	8d 4e d0             	lea    0xffffffd0(%esi),%ecx
800088d5:	8b 75 08             	mov    0x8(%ebp),%esi
800088d8:	51                   	push   %ecx
800088d9:	db 04 24             	fildl  (%esp,1)
800088dc:	83 c4 04             	add    $0x4,%esp
800088df:	8b 06                	mov    (%esi),%eax
800088e1:	dc 4d b8             	fmull  0xffffffb8(%ebp)
800088e4:	89 04 24             	mov    %eax,(%esp,1)
800088e7:	dc 45 c0             	faddl  0xffffffc0(%ebp)
800088ea:	dd 5d c0             	fstpl  0xffffffc0(%ebp)
800088ed:	dd 45 b8             	fldl   0xffffffb8(%ebp)
800088f0:	dc 35 08 a0 00 80    	fdivl  0x8000a008
800088f6:	dd 5d b8             	fstpl  0xffffffb8(%ebp)
800088f9:	ff 56 04             	call   *0x4(%esi)
800088fc:	0f b6 d8             	movzbl %al,%ebx
800088ff:	89 c6                	mov    %eax,%esi
80008901:	0f b6 8b e0 a2 00 80 	movzbl 0x8000a2e0(%ebx),%ecx
80008908:	80 e1 04             	and    $0x4,%cl
8000890b:	84 c9                	test   %cl,%cl
8000890d:	75 c0                	jne    800088cf <__v_scanf+0x5af>
8000890f:	e9 80 fe ff ff       	jmp    80008794 <__v_scanf+0x474>
80008914:	8d b6 00 00 00 00    	lea    0x0(%esi),%esi
8000891a:	8d bf 00 00 00 00    	lea    0x0(%edi),%edi
80008920:	dd 45 c0             	fldl   0xffffffc0(%ebp)
80008923:	8d 4e d0             	lea    0xffffffd0(%esi),%ecx
80008926:	8b 75 08             	mov    0x8(%ebp),%esi
80008929:	dc 0d 08 a0 00 80    	fmull  0x8000a008
8000892f:	51                   	push   %ecx
80008930:	8b 06                	mov    (%esi),%eax
80008932:	ff 45 e0             	incl   0xffffffe0(%ebp)
80008935:	dd 5d c0             	fstpl  0xffffffc0(%ebp)
80008938:	db 04 24             	fildl  (%esp,1)
8000893b:	83 c4 04             	add    $0x4,%esp
8000893e:	dc 45 c0             	faddl  0xffffffc0(%ebp)
80008941:	89 04 24             	mov    %eax,(%esp,1)
80008944:	dd 5d c0             	fstpl  0xffffffc0(%ebp)
80008947:	ff 56 04             	call   *0x4(%esi)
8000894a:	0f b6 d8             	movzbl %al,%ebx
8000894d:	89 c6                	mov    %eax,%esi
8000894f:	0f b6 8b e0 a2 00 80 	movzbl 0x8000a2e0(%ebx),%ecx
80008956:	80 e1 04             	and    $0x4,%cl
80008959:	84 c9                	test   %cl,%cl
8000895b:	75 c3                	jne    80008920 <__v_scanf+0x600>
8000895d:	e9 29 fe ff ff       	jmp    8000878b <__v_scanf+0x46b>
80008962:	ff 45 e0             	incl   0xffffffe0(%ebp)
80008965:	8b 4d 08             	mov    0x8(%ebp),%ecx
80008968:	8b 01                	mov    (%ecx),%eax
8000896a:	89 04 24             	mov    %eax,(%esp,1)
8000896d:	ff 51 04             	call   *0x4(%ecx)
80008970:	89 c6                	mov    %eax,%esi
80008972:	e9 fd fd ff ff       	jmp    80008774 <__v_scanf+0x454>
80008977:	ff 45 e0             	incl   0xffffffe0(%ebp)
8000897a:	8b 55 08             	mov    0x8(%ebp),%edx
8000897d:	8b 02                	mov    (%edx),%eax
8000897f:	89 04 24             	mov    %eax,(%esp,1)
80008982:	ff 52 04             	call   *0x4(%edx)
80008985:	89 c6                	mov    %eax,%esi
80008987:	e9 df fd ff ff       	jmp    8000876b <__v_scanf+0x44b>
8000898c:	8d 74 26 00          	lea    0x0(%esi,1),%esi
80008990:	ff 45 e0             	incl   0xffffffe0(%ebp)
80008993:	8b 75 08             	mov    0x8(%ebp),%esi
80008996:	8b 06                	mov    (%esi),%eax
80008998:	89 04 24             	mov    %eax,(%esp,1)
8000899b:	ff 56 04             	call   *0x4(%esi)
8000899e:	0f b6 c8             	movzbl %al,%ecx
800089a1:	89 c6                	mov    %eax,%esi
800089a3:	0f b6 91 e0 a2 00 80 	movzbl 0x8000a2e0(%ecx),%edx
800089aa:	80 e2 20             	and    $0x20,%dl
800089ad:	84 d2                	test   %dl,%dl
800089af:	75 df                	jne    80008990 <__v_scanf+0x670>
800089b1:	e9 ac fd ff ff       	jmp    80008762 <__v_scanf+0x442>
800089b6:	c6 45 d5 01          	movb   $0x1,0xffffffd5(%ebp)
800089ba:	e9 bf fa ff ff       	jmp    8000847e <__v_scanf+0x15e>
800089bf:	c6 45 d4 01          	movb   $0x1,0xffffffd4(%ebp)
800089c3:	e9 b6 fa ff ff       	jmp    8000847e <__v_scanf+0x15e>
800089c8:	80 7d d6 00          	cmpb   $0x0,0xffffffd6(%ebp)
800089cc:	0f 85 4e fa ff ff    	jne    80008420 <__v_scanf+0x100>
800089d2:	0f b6 55 e0          	movzbl 0xffffffe0(%ebp),%edx
800089d6:	8b 45 10             	mov    0x10(%ebp),%eax
800089d9:	83 45 10 04          	addl   $0x4,0x10(%ebp)
800089dd:	8b 18                	mov    (%eax),%ebx
800089df:	fe ca                	dec    %dl
800089e1:	89 5d e8             	mov    %ebx,0xffffffe8(%ebp)
800089e4:	88 13                	mov    %dl,(%ebx)
800089e6:	ff 45 e8             	incl   0xffffffe8(%ebp)
800089e9:	e9 32 fa ff ff       	jmp    80008420 <__v_scanf+0x100>
800089ee:	80 7d d6 00          	cmpb   $0x0,0xffffffd6(%ebp)
800089f2:	75 0c                	jne    80008a00 <__v_scanf+0x6e0>
800089f4:	8b 45 10             	mov    0x10(%ebp),%eax
800089f7:	83 45 10 04          	addl   $0x4,0x10(%ebp)
800089fb:	8b 00                	mov    (%eax),%eax
800089fd:	89 45 e8             	mov    %eax,0xffffffe8(%ebp)
80008a00:	89 f0                	mov    %esi,%eax
80008a02:	0f b6 d8             	movzbl %al,%ebx
80008a05:	0f b6 8b e0 a2 00 80 	movzbl 0x8000a2e0(%ebx),%ecx
80008a0c:	80 e1 20             	and    $0x20,%cl
80008a0f:	84 c9                	test   %cl,%cl
80008a11:	75 78                	jne    80008a8b <__v_scanf+0x76b>
80008a13:	8b 45 d8             	mov    0xffffffd8(%ebp),%eax
80008a16:	85 c0                	test   %eax,%eax
80008a18:	74 5c                	je     80008a76 <__v_scanf+0x756>
80008a1a:	83 fe ff             	cmp    $0xffffffff,%esi
80008a1d:	74 57                	je     80008a76 <__v_scanf+0x756>
80008a1f:	89 f0                	mov    %esi,%eax
80008a21:	0f b6 d8             	movzbl %al,%ebx
80008a24:	0f b6 93 e0 a2 00 80 	movzbl 0x8000a2e0(%ebx),%edx
80008a2b:	80 e2 20             	and    $0x20,%dl
80008a2e:	84 d2                	test   %dl,%dl
80008a30:	75 44                	jne    80008a76 <__v_scanf+0x756>
80008a32:	80 7d d6 00          	cmpb   $0x0,0xffffffd6(%ebp)
80008a36:	75 07                	jne    80008a3f <__v_scanf+0x71f>
80008a38:	8b 45 e8             	mov    0xffffffe8(%ebp),%eax
80008a3b:	89 f1                	mov    %esi,%ecx
80008a3d:	88 08                	mov    %cl,(%eax)
80008a3f:	85 f6                	test   %esi,%esi
80008a41:	74 33                	je     80008a76 <__v_scanf+0x756>
80008a43:	ff 45 e8             	incl   0xffffffe8(%ebp)
80008a46:	8b 75 08             	mov    0x8(%ebp),%esi
80008a49:	ff 4d d8             	decl   0xffffffd8(%ebp)
80008a4c:	ff 45 e0             	incl   0xffffffe0(%ebp)
80008a4f:	8b 06                	mov    (%esi),%eax
80008a51:	89 04 24             	mov    %eax,(%esp,1)
80008a54:	ff 56 04             	call   *0x4(%esi)
80008a57:	8b 55 d8             	mov    0xffffffd8(%ebp),%edx
80008a5a:	85 d2                	test   %edx,%edx
80008a5c:	89 c6                	mov    %eax,%esi
80008a5e:	74 16                	je     80008a76 <__v_scanf+0x756>
80008a60:	83 f8 ff             	cmp    $0xffffffff,%eax
80008a63:	74 11                	je     80008a76 <__v_scanf+0x756>
80008a65:	0f b6 c8             	movzbl %al,%ecx
80008a68:	0f b6 99 e0 a2 00 80 	movzbl 0x8000a2e0(%ecx),%ebx
80008a6f:	80 e3 20             	and    $0x20,%bl
80008a72:	84 db                	test   %bl,%bl
80008a74:	74 bc                	je     80008a32 <__v_scanf+0x712>
80008a76:	80 7d d6 00          	cmpb   $0x0,0xffffffd6(%ebp)
80008a7a:	0f 85 a0 f9 ff ff    	jne    80008420 <__v_scanf+0x100>
80008a80:	8b 45 e8             	mov    0xffffffe8(%ebp),%eax
80008a83:	c6 00 00             	movb   $0x0,(%eax)
80008a86:	e9 e2 fb ff ff       	jmp    8000866d <__v_scanf+0x34d>
80008a8b:	ff 45 e0             	incl   0xffffffe0(%ebp)
80008a8e:	8b 75 08             	mov    0x8(%ebp),%esi
80008a91:	8b 06                	mov    (%esi),%eax
80008a93:	89 04 24             	mov    %eax,(%esp,1)
80008a96:	ff 56 04             	call   *0x4(%esi)
80008a99:	0f b6 c8             	movzbl %al,%ecx
80008a9c:	89 c6                	mov    %eax,%esi
80008a9e:	0f b6 91 e0 a2 00 80 	movzbl 0x8000a2e0(%ecx),%edx
80008aa5:	80 e2 20             	and    $0x20,%dl
80008aa8:	84 d2                	test   %dl,%dl
80008aaa:	75 df                	jne    80008a8b <__v_scanf+0x76b>
80008aac:	e9 62 ff ff ff       	jmp    80008a13 <__v_scanf+0x6f3>
80008ab1:	c7 45 dc 06 00 00 00 	movl   $0x6,0xffffffdc(%ebp)
80008ab8:	e9 9a fa ff ff       	jmp    80008557 <__v_scanf+0x237>
80008abd:	8d 76 00             	lea    0x0(%esi),%esi

80008ac0 <sscanf>:
80008ac0:	55                   	push   %ebp
80008ac1:	89 e5                	mov    %esp,%ebp
80008ac3:	83 ec 38             	sub    $0x38,%esp
80008ac6:	c7 45 ec 40 8b 00 80 	movl   $0x80008b40,0xffffffec(%ebp)
80008acd:	8b 45 08             	mov    0x8(%ebp),%eax
80008ad0:	8d 55 e4             	lea    0xffffffe4(%ebp),%edx
80008ad3:	89 55 e8             	mov    %edx,0xffffffe8(%ebp)
80008ad6:	8d 4d 10             	lea    0x10(%ebp),%ecx
80008ad9:	8d 55 e8             	lea    0xffffffe8(%ebp),%edx
80008adc:	89 45 e4             	mov    %eax,0xffffffe4(%ebp)
80008adf:	8b 45 0c             	mov    0xc(%ebp),%eax
80008ae2:	c7 45 f0 60 8b 00 80 	movl   $0x80008b60,0xfffffff0(%ebp)
80008ae9:	89 4c 24 08          	mov    %ecx,0x8(%esp,1)
80008aed:	89 44 24 04          	mov    %eax,0x4(%esp,1)
80008af1:	89 14 24             	mov    %edx,(%esp,1)
80008af4:	e8 27 f8 ff ff       	call   80008320 <__v_scanf>
80008af9:	89 ec                	mov    %ebp,%esp
80008afb:	5d                   	pop    %ebp
80008afc:	c3                   	ret    
80008afd:	8d 76 00             	lea    0x0(%esi),%esi

80008b00 <vsscanf>:
80008b00:	55                   	push   %ebp
80008b01:	89 e5                	mov    %esp,%ebp
80008b03:	83 ec 38             	sub    $0x38,%esp
80008b06:	c7 45 ec 40 8b 00 80 	movl   $0x80008b40,0xffffffec(%ebp)
80008b0d:	8b 45 08             	mov    0x8(%ebp),%eax
80008b10:	8d 55 e4             	lea    0xffffffe4(%ebp),%edx
80008b13:	89 55 e8             	mov    %edx,0xffffffe8(%ebp)
80008b16:	8d 55 e8             	lea    0xffffffe8(%ebp),%edx
80008b19:	89 45 e4             	mov    %eax,0xffffffe4(%ebp)
80008b1c:	8b 45 10             	mov    0x10(%ebp),%eax
80008b1f:	c7 45 f0 60 8b 00 80 	movl   $0x80008b60,0xfffffff0(%ebp)
80008b26:	89 14 24             	mov    %edx,(%esp,1)
80008b29:	89 44 24 08          	mov    %eax,0x8(%esp,1)
80008b2d:	8b 45 0c             	mov    0xc(%ebp),%eax
80008b30:	89 44 24 04          	mov    %eax,0x4(%esp,1)
80008b34:	e8 e7 f7 ff ff       	call   80008320 <__v_scanf>
80008b39:	89 ec                	mov    %ebp,%esp
80008b3b:	5d                   	pop    %ebp
80008b3c:	c3                   	ret    
80008b3d:	8d 76 00             	lea    0x0(%esi),%esi

80008b40 <sgetc>:
80008b40:	55                   	push   %ebp
80008b41:	89 e5                	mov    %esp,%ebp
80008b43:	8b 4d 08             	mov    0x8(%ebp),%ecx
80008b46:	8b 11                	mov    (%ecx),%edx
80008b48:	0f b6 02             	movzbl (%edx),%eax
80008b4b:	42                   	inc    %edx
80008b4c:	89 11                	mov    %edx,(%ecx)
80008b4e:	31 c9                	xor    %ecx,%ecx
80008b50:	5d                   	pop    %ebp
80008b51:	85 c0                	test   %eax,%eax
80008b53:	0f 95 c1             	setne  %cl
80008b56:	49                   	dec    %ecx
80008b57:	09 c8                	or     %ecx,%eax
80008b59:	c3                   	ret    
80008b5a:	8d b6 00 00 00 00    	lea    0x0(%esi),%esi

80008b60 <sputc>:
80008b60:	55                   	push   %ebp
80008b61:	89 e5                	mov    %esp,%ebp
80008b63:	53                   	push   %ebx
80008b64:	8b 4d 0c             	mov    0xc(%ebp),%ecx
80008b67:	8b 45 08             	mov    0x8(%ebp),%eax
80008b6a:	8b 19                	mov    (%ecx),%ebx
80008b6c:	8d 53 ff             	lea    0xffffffff(%ebx),%edx
80008b6f:	89 11                	mov    %edx,(%ecx)
80008b71:	0f b6 4b ff          	movzbl 0xffffffff(%ebx),%ecx
80008b75:	39 c1                	cmp    %eax,%ecx
80008b77:	0f 94 c3             	sete   %bl
80008b7a:	0f b6 cb             	movzbl %bl,%ecx
80008b7d:	5b                   	pop    %ebx
80008b7e:	49                   	dec    %ecx
80008b7f:	09 c8                	or     %ecx,%eax
80008b81:	5d                   	pop    %ebp
80008b82:	c3                   	ret    
	...

80008b90 <strtoul>:
80008b90:	55                   	push   %ebp
80008b91:	89 e5                	mov    %esp,%ebp
80008b93:	57                   	push   %edi
80008b94:	8b 4d 08             	mov    0x8(%ebp),%ecx
80008b97:	56                   	push   %esi
80008b98:	31 f6                	xor    %esi,%esi
80008b9a:	8b 7d 0c             	mov    0xc(%ebp),%edi
80008b9d:	53                   	push   %ebx
80008b9e:	8b 5d 10             	mov    0x10(%ebp),%ebx
80008ba1:	0f b6 11             	movzbl (%ecx),%edx
80008ba4:	0f b6 c2             	movzbl %dl,%eax
80008ba7:	0f b6 80 e0 a2 00 80 	movzbl 0x8000a2e0(%eax),%eax
80008bae:	24 20                	and    $0x20,%al
80008bb0:	84 c0                	test   %al,%al
80008bb2:	74 20                	je     80008bd4 <strtoul+0x44>
80008bb4:	8d b6 00 00 00 00    	lea    0x0(%esi),%esi
80008bba:	8d bf 00 00 00 00    	lea    0x0(%edi),%edi
80008bc0:	41                   	inc    %ecx
80008bc1:	0f b6 11             	movzbl (%ecx),%edx
80008bc4:	0f b6 c2             	movzbl %dl,%eax
80008bc7:	0f b6 80 e0 a2 00 80 	movzbl 0x8000a2e0(%eax),%eax
80008bce:	24 20                	and    $0x20,%al
80008bd0:	84 c0                	test   %al,%al
80008bd2:	75 ec                	jne    80008bc0 <strtoul+0x30>
80008bd4:	80 fa 2b             	cmp    $0x2b,%dl
80008bd7:	0f 84 99 00 00 00    	je     80008c76 <strtoul+0xe6>
80008bdd:	83 fb 10             	cmp    $0x10,%ebx
80008be0:	0f 84 85 00 00 00    	je     80008c6b <strtoul+0xdb>
80008be6:	85 db                	test   %ebx,%ebx
80008be8:	75 0a                	jne    80008bf4 <strtoul+0x64>
80008bea:	80 fa 30             	cmp    $0x30,%dl
80008bed:	bb 0a 00 00 00       	mov    $0xa,%ebx
80008bf2:	74 59                	je     80008c4d <strtoul+0xbd>
80008bf4:	84 d2                	test   %dl,%dl
80008bf6:	74 26                	je     80008c1e <strtoul+0x8e>
80008bf8:	80 fa 60             	cmp    $0x60,%dl
80008bfb:	76 33                	jbe    80008c30 <strtoul+0xa0>
80008bfd:	88 d0                	mov    %dl,%al
80008bff:	2c 57                	sub    $0x57,%al
80008c01:	0f b6 d0             	movzbl %al,%edx
80008c04:	39 da                	cmp    %ebx,%edx
80008c06:	7d 16                	jge    80008c1e <strtoul+0x8e>
80008c08:	89 f0                	mov    %esi,%eax
80008c0a:	0f af c3             	imul   %ebx,%eax
80008c0d:	39 f0                	cmp    %esi,%eax
80008c0f:	72 1a                	jb     80008c2b <strtoul+0x9b>
80008c11:	41                   	inc    %ecx
80008c12:	8d 34 02             	lea    (%edx,%eax,1),%esi
80008c15:	0f b6 01             	movzbl (%ecx),%eax
80008c18:	84 c0                	test   %al,%al
80008c1a:	88 c2                	mov    %al,%dl
80008c1c:	75 da                	jne    80008bf8 <strtoul+0x68>
80008c1e:	85 ff                	test   %edi,%edi
80008c20:	74 02                	je     80008c24 <strtoul+0x94>
80008c22:	89 0f                	mov    %ecx,(%edi)
80008c24:	89 f0                	mov    %esi,%eax
80008c26:	5b                   	pop    %ebx
80008c27:	5e                   	pop    %esi
80008c28:	5f                   	pop    %edi
80008c29:	5d                   	pop    %ebp
80008c2a:	c3                   	ret    
80008c2b:	31 c0                	xor    %eax,%eax
80008c2d:	eb f7                	jmp    80008c26 <strtoul+0x96>
80008c2f:	90                   	nop    
80008c30:	80 fa 40             	cmp    $0x40,%dl
80008c33:	76 0b                	jbe    80008c40 <strtoul+0xb0>
80008c35:	88 d0                	mov    %dl,%al
80008c37:	2c 37                	sub    $0x37,%al
80008c39:	eb c6                	jmp    80008c01 <strtoul+0x71>
80008c3b:	90                   	nop    
80008c3c:	8d 74 26 00          	lea    0x0(%esi,1),%esi
80008c40:	80 fa 39             	cmp    $0x39,%dl
80008c43:	b0 ff                	mov    $0xff,%al
80008c45:	77 ba                	ja     80008c01 <strtoul+0x71>
80008c47:	88 d0                	mov    %dl,%al
80008c49:	2c 30                	sub    $0x30,%al
80008c4b:	eb b4                	jmp    80008c01 <strtoul+0x71>
80008c4d:	bb 08 00 00 00       	mov    $0x8,%ebx
80008c52:	0f b6 41 01          	movzbl 0x1(%ecx),%eax
80008c56:	3c 78                	cmp    $0x78,%al
80008c58:	74 04                	je     80008c5e <strtoul+0xce>
80008c5a:	3c 58                	cmp    $0x58,%al
80008c5c:	75 96                	jne    80008bf4 <strtoul+0x64>
80008c5e:	83 c1 02             	add    $0x2,%ecx
80008c61:	bb 10 00 00 00       	mov    $0x10,%ebx
80008c66:	0f b6 11             	movzbl (%ecx),%edx
80008c69:	eb 89                	jmp    80008bf4 <strtoul+0x64>
80008c6b:	80 fa 30             	cmp    $0x30,%dl
80008c6e:	0f 85 72 ff ff ff    	jne    80008be6 <strtoul+0x56>
80008c74:	eb dc                	jmp    80008c52 <strtoul+0xc2>
80008c76:	41                   	inc    %ecx
80008c77:	0f b6 11             	movzbl (%ecx),%edx
80008c7a:	e9 5e ff ff ff       	jmp    80008bdd <strtoul+0x4d>
80008c7f:	90                   	nop    

80008c80 <strtol>:
80008c80:	55                   	push   %ebp
80008c81:	89 e5                	mov    %esp,%ebp
80008c83:	53                   	push   %ebx
80008c84:	83 ec 14             	sub    $0x14,%esp
80008c87:	8b 4d 08             	mov    0x8(%ebp),%ecx
80008c8a:	31 db                	xor    %ebx,%ebx
80008c8c:	0f b6 11             	movzbl (%ecx),%edx
80008c8f:	0f b6 c2             	movzbl %dl,%eax
80008c92:	0f b6 80 e0 a2 00 80 	movzbl 0x8000a2e0(%eax),%eax
80008c99:	24 20                	and    $0x20,%al
80008c9b:	84 c0                	test   %al,%al
80008c9d:	74 15                	je     80008cb4 <strtol+0x34>
80008c9f:	90                   	nop    
80008ca0:	41                   	inc    %ecx
80008ca1:	0f b6 11             	movzbl (%ecx),%edx
80008ca4:	0f b6 c2             	movzbl %dl,%eax
80008ca7:	0f b6 80 e0 a2 00 80 	movzbl 0x8000a2e0(%eax),%eax
80008cae:	24 20                	and    $0x20,%al
80008cb0:	84 c0                	test   %al,%al
80008cb2:	75 ec                	jne    80008ca0 <strtol+0x20>
80008cb4:	80 fa 2d             	cmp    $0x2d,%dl
80008cb7:	74 3f                	je     80008cf8 <strtol+0x78>
80008cb9:	89 0c 24             	mov    %ecx,(%esp,1)
80008cbc:	8b 45 10             	mov    0x10(%ebp),%eax
80008cbf:	89 44 24 08          	mov    %eax,0x8(%esp,1)
80008cc3:	8b 45 0c             	mov    0xc(%ebp),%eax
80008cc6:	89 44 24 04          	mov    %eax,0x4(%esp,1)
80008cca:	e8 c1 fe ff ff       	call   80008b90 <strtoul>
80008ccf:	3d ff ff ff 7f       	cmp    $0x7fffffff,%eax
80008cd4:	76 1a                	jbe    80008cf0 <strtol+0x70>
80008cd6:	3d 00 00 00 80       	cmp    $0x80000000,%eax
80008cdb:	74 08                	je     80008ce5 <strtol+0x65>
80008cdd:	31 c0                	xor    %eax,%eax
80008cdf:	83 c4 14             	add    $0x14,%esp
80008ce2:	5b                   	pop    %ebx
80008ce3:	5d                   	pop    %ebp
80008ce4:	c3                   	ret    
80008ce5:	85 db                	test   %ebx,%ebx
80008ce7:	b8 00 00 00 80       	mov    $0x80000000,%eax
80008cec:	75 f1                	jne    80008cdf <strtol+0x5f>
80008cee:	eb ed                	jmp    80008cdd <strtol+0x5d>
80008cf0:	85 db                	test   %ebx,%ebx
80008cf2:	74 eb                	je     80008cdf <strtol+0x5f>
80008cf4:	f7 d8                	neg    %eax
80008cf6:	eb e7                	jmp    80008cdf <strtol+0x5f>
80008cf8:	bb ff ff ff ff       	mov    $0xffffffff,%ebx
80008cfd:	41                   	inc    %ecx
80008cfe:	eb b9                	jmp    80008cb9 <strtol+0x39>
Disassembly of section .rodata:

80008d00 <rodata>:
80008d00:	00 44 4d 41          	add    %al,0x41(%ebp,%ecx,2)
80008d04:	20 30                	and    %dh,(%eax)
80008d06:	78 25                	js     80008d2d <rodata+0x2d>
80008d08:	58                   	pop    %eax
80008d09:	00 50 4f             	add    %dl,0x4f(%eax)
80008d0c:	52                   	push   %edx
80008d0d:	54                   	push   %esp
80008d0e:	20 30                	and    %dh,(%eax)
80008d10:	78 25                	js     80008d37 <rodata+0x37>
80008d12:	58                   	pop    %eax
80008d13:	00 49 52             	add    %cl,0x52(%ecx)
80008d16:	51                   	push   %ecx
80008d17:	20 30                	and    %dh,(%eax)
80008d19:	78 25                	js     80008d40 <rodata+0x40>
80008d1b:	58                   	pop    %eax
80008d1c:	00 5b 25             	add    %bl,0x25(%ebx)
80008d1f:	73 5d                	jae    80008d7e <rodata+0x7e>
80008d21:	20 44 65 76          	and    %al,0x76(%ebp,2)
80008d25:	69 63 65 20 64 65 76 	imul   $0x76656420,0x65(%ebx),%esp
80008d2c:	69 63 65 20 6e 6f 74 	imul   $0x746f6e20,0x65(%ebx),%esp
80008d33:	20 66 6f             	and    %ah,0x6f(%esi)
80008d36:	75 6e                	jne    80008da6 <rodata+0xa6>
80008d38:	64 0a 00             	or     %fs:(%eax),%al
80008d3b:	44                   	inc    %esp
80008d3c:	45                   	inc    %ebp
80008d3d:	56                   	push   %esi
80008d3e:	49                   	dec    %ecx
80008d3f:	43                   	inc    %ebx
80008d40:	45                   	inc    %ebp
80008d41:	00 44 65 76          	add    %al,0x76(%ebp,2)
80008d45:	69 63 65 4d 61 6e 61 	imul   $0x616e614d,0x65(%ebx),%esp
80008d4c:	67                   	addr16
80008d4d:	65                   	gs
80008d4e:	72 00                	jb     80008d50 <rodata+0x50>
80008d50:	52                   	push   %edx
80008d51:	65 67 69 73 74 65 72 	addr16 imul $0x65447265,%gs:116(%bp,%di),%esi
80008d58:	44 65 
80008d5a:	76 69                	jbe    80008dc5 <rodata+0xc5>
80008d5c:	63 65 00             	arpl   %sp,0x0(%ebp)
80008d5f:	41                   	inc    %ecx
80008d60:	74 74                	je     80008dd6 <rodata+0xd6>
80008d62:	61                   	popa   
80008d63:	63 68 52             	arpl   %bp,0x52(%eax)
80008d66:	65                   	gs
80008d67:	73 6f                	jae    80008dd8 <rodata+0xd8>
80008d69:	75 72                	jne    80008ddd <rodata+0xdd>
80008d6b:	63 65 00             	arpl   %sp,0x0(%ebp)
80008d6e:	44                   	inc    %esp
80008d6f:	65                   	gs
80008d70:	76 69                	jbe    80008ddb <rodata+0xdb>
80008d72:	63 65 20             	arpl   %sp,0x20(%ebp)
80008d75:	6d                   	insl   (%dx),%es:(%edi)
80008d76:	61                   	popa   
80008d77:	6e                   	outsb  %ds:(%esi),(%dx)
80008d78:	61                   	popa   
80008d79:	67                   	addr16
80008d7a:	65                   	gs
80008d7b:	72 20                	jb     80008d9d <rodata+0x9d>
80008d7d:	69 6e 69 74 69 61 6c 	imul   $0x6c616974,0x69(%esi),%ebp
80008d84:	69 73 65 64 0a 00 44 	imul   $0x44000a64,0x65(%ebx),%esi
80008d8b:	65                   	gs
80008d8c:	76 69                	jbe    80008df7 <rodata+0xf7>
80008d8e:	63 65 20             	arpl   %sp,0x20(%ebp)
80008d91:	5b                   	pop    %ebx
80008d92:	25 73 5d 20 61       	and    $0x61205d73,%eax
80008d97:	64 64 65 64 0a 00    	or     %fs:%gs:(%eax),%al
80008d9d:	44                   	inc    %esp
80008d9e:	4d                   	dec    %ebp
80008d9f:	4d                   	dec    %ebp
80008da0:	42                   	inc    %edx
80008da1:	6c                   	insb   (%dx),%es:(%edi)
80008da2:	6f                   	outsl  %ds:(%esi),(%dx)
80008da3:	63 6b 49             	arpl   %bp,0x49(%ebx)
80008da6:	4f                   	dec    %edi
80008da7:	00 44 4d 4d          	add    %al,0x4d(%ebp,%ecx,2)
80008dab:	46                   	inc    %esi
80008dac:	53                   	push   %ebx
80008dad:	00 44 4d 4d          	add    %al,0x4d(%ebp,%ecx,2)
80008db1:	20 49 2f             	and    %cl,0x2f(%ecx)
80008db4:	4f                   	dec    %edi
80008db5:	20 69 6e             	and    %ch,0x6e(%ecx)
80008db8:	69 74 69 61 6c 69 73 	imul   $0x6573696c,0x61(%ecx,%ebp,2),%esi
80008dbf:	65 
80008dc0:	64 0a 00             	or     %fs:(%eax),%al
80008dc3:	44                   	inc    %esp
80008dc4:	4d                   	dec    %ebp
80008dc5:	4d                   	dec    %ebp
80008dc6:	20 49 2f             	and    %cl,0x2f(%ecx)
80008dc9:	4f                   	dec    %edi
80008dca:	00 25 58 2f 25 58    	add    %ah,0x58252f58
80008dd0:	00 44 65 76          	add    %al,0x76(%ebp,2)
80008dd4:	69 63 65 20 5b 25 73 	imul   $0x73255b20,0x65(%ebx),%esp
80008ddb:	5d                   	pop    %ebp
80008ddc:	20 66 61             	and    %ah,0x61(%esi)
80008ddf:	69 6c 65 64 20 6d 6f 	imul   $0x756f6d20,0x64(%ebp,2),%ebp
80008de6:	75 
80008de7:	6e                   	outsb  %ds:(%esi),(%dx)
80008de8:	74 0a                	je     80008df4 <rodata+0xf4>
80008dea:	00 43 72             	add    %al,0x72(%ebx)
80008ded:	65                   	gs
80008dee:	61                   	popa   
80008def:	74 65                	je     80008e56 <rodata+0x156>
80008df1:	64 20 76 6f          	and    %dh,%fs:0x6f(%esi)
80008df5:	6c                   	insb   (%dx),%es:(%edi)
80008df6:	75 6d                	jne    80008e65 <rodata+0x165>
80008df8:	65 20 5b 25          	and    %bl,%gs:0x25(%ebx)
80008dfc:	73 5d                	jae    80008e5b <rodata+0x15b>
80008dfe:	5b                   	pop    %ebx
80008dff:	25 73 5d 5b 25       	and    $0x255b5d73,%eax
80008e04:	73 5d                	jae    80008e63 <rodata+0x163>
80008e06:	0a 00                	or     (%eax),%al
80008e08:	50                   	push   %eax
80008e09:	61                   	popa   
80008e0a:	74 68                	je     80008e74 <rodata+0x174>
80008e0c:	20 5b 25             	and    %bl,0x25(%ebx)
80008e0f:	73 5d                	jae    80008e6e <rodata+0x16e>
80008e11:	20 69 73             	and    %ch,0x73(%ecx)
80008e14:	20 6e 6f             	and    %ch,0x6f(%esi)
80008e17:	74 20                	je     80008e39 <rodata+0x139>
80008e19:	76 61                	jbe    80008e7c <rodata+0x17c>
80008e1b:	6c                   	insb   (%dx),%es:(%edi)
80008e1c:	69 64 0a 00 4f 70 65 	imul   $0x6e65704f,0x0(%edx,%ecx,1),%esp
80008e23:	6e 
80008e24:	20 66 61             	and    %ah,0x61(%esi)
80008e27:	69 6c 65 64 20 6f 6e 	imul   $0x206e6f20,0x64(%ebp,2),%ebp
80008e2e:	20 
80008e2f:	66 69 6c 65 20 5b 25 	imul   $0x255b,0x20(%ebp,2),%bp
80008e36:	73 5d                	jae    80008e95 <rodata+0x195>
80008e38:	0a 00                	or     (%eax),%al
80008e3a:	56                   	push   %esi
80008e3b:	6f                   	outsl  %ds:(%esi),(%dx)
80008e3c:	6c                   	insb   (%dx),%es:(%edi)
80008e3d:	75 6d                	jne    80008eac <rodata+0x1ac>
80008e3f:	65 20 5b 25          	and    %bl,%gs:0x25(%ebx)
80008e43:	73 5d                	jae    80008ea2 <rodata+0x1a2>
80008e45:	20 6e 6f             	and    %ch,0x6f(%esi)
80008e48:	74 20                	je     80008e6a <rodata+0x16a>
80008e4a:	66 6f                	outsw  %ds:(%esi),(%dx)
80008e4c:	75 6e                	jne    80008ebc <rodata+0x1bc>
80008e4e:	64 0a 00             	or     %fs:(%eax),%al
80008e51:	45                   	inc    %ebp
80008e52:	72 72                	jb     80008ec6 <rodata+0x1c6>
80008e54:	6f                   	outsl  %ds:(%esi),(%dx)
80008e55:	72 20                	jb     80008e77 <rodata+0x177>
80008e57:	6f                   	outsl  %ds:(%esi),(%dx)
80008e58:	70 65                	jo     80008ebf <rodata+0x1bf>
80008e5a:	6e                   	outsb  %ds:(%esi),(%dx)
80008e5b:	69 6e 67 20 66 69 6c 	imul   $0x6c696620,0x67(%esi),%ebp
80008e62:	65 20 5b 25          	and    %bl,%gs:0x25(%ebx)
80008e66:	73 5d                	jae    80008ec5 <rodata+0x1c5>
80008e68:	0a 00                	or     (%eax),%al
80008e6a:	5b                   	pop    %ebx
80008e6b:	25 73 5d 20 69       	and    $0x69205d73,%eax
80008e70:	73 20                	jae    80008e92 <rodata+0x192>
80008e72:	6e                   	outsb  %ds:(%esi),(%dx)
80008e73:	6f                   	outsl  %ds:(%esi),(%dx)
80008e74:	74 20                	je     80008e96 <rodata+0x196>
80008e76:	61                   	popa   
80008e77:	20 76 61             	and    %dh,0x61(%esi)
80008e7a:	6c                   	insb   (%dx),%es:(%edi)
80008e7b:	69 64 20 45 4c 46 20 	imul   $0x6620464c,0x45(%eax,1),%esp
80008e82:	66 
80008e83:	69 6c 65 0a 00 45 72 	imul   $0x72724500,0xa(%ebp,2),%ebp
80008e8a:	72 
80008e8b:	6f                   	outsl  %ds:(%esi),(%dx)
80008e8c:	72 20                	jb     80008eae <rodata+0x1ae>
80008e8e:	72 65                	jb     80008ef5 <rodata+0x1f5>
80008e90:	61                   	popa   
80008e91:	64 69 6e 67 20 66 72 	imul   $0x6f726620,%fs:0x67(%esi),%ebp
80008e98:	6f 
80008e99:	6d                   	insl   (%dx),%es:(%edi)
80008e9a:	20 66 69             	and    %ah,0x69(%esi)
80008e9d:	6c                   	insb   (%dx),%es:(%edi)
80008e9e:	65 20 5b 25          	and    %bl,%gs:0x25(%ebx)
80008ea2:	73 5d                	jae    80008f01 <rodata+0x201>
80008ea4:	0a 00                	or     (%eax),%al
80008ea6:	52                   	push   %edx
80008ea7:	65 67 69 73 74 65 72 	addr16 imul $0x69467265,%gs:116(%bp,%di),%esi
80008eae:	46 69 
80008eb0:	6c                   	insb   (%dx),%es:(%edi)
80008eb1:	65                   	gs
80008eb2:	73 79                	jae    80008f2d <rodata+0x22d>
80008eb4:	73 74                	jae    80008f2a <rodata+0x22a>
80008eb6:	65                   	gs
80008eb7:	6d                   	insl   (%dx),%es:(%edi)
80008eb8:	00 4d 6f             	add    %cl,0x6f(%ebp)
80008ebb:	75 6e                	jne    80008f2b <rodata+0x22b>
80008ebd:	74 00                	je     80008ebf <rodata+0x1bf>
80008ebf:	4f                   	dec    %edi
80008ec0:	70 65                	jo     80008f27 <rodata+0x227>
80008ec2:	6e                   	outsb  %ds:(%esi),(%dx)
80008ec3:	00 46 69             	add    %al,0x69(%esi)
80008ec6:	6c                   	insb   (%dx),%es:(%edi)
80008ec7:	65 20 73 79          	and    %dh,%gs:0x79(%ebx)
80008ecb:	73 74                	jae    80008f41 <rodata+0x241>
80008ecd:	65                   	gs
80008ece:	6d                   	insl   (%dx),%es:(%edi)
80008ecf:	20 69 6e             	and    %ch,0x6e(%ecx)
80008ed2:	69 74 69 61 6c 69 73 	imul   $0x6573696c,0x61(%ecx,%ebp,2),%esi
80008ed9:	65 
80008eda:	64 0a 00             	or     %fs:(%eax),%al
80008edd:	46                   	inc    %esi
80008ede:	69 6c 65 73 79 73 74 	imul   $0x65747379,0x73(%ebp,2),%ebp
80008ee5:	65 
80008ee6:	6d                   	insl   (%dx),%es:(%edi)
80008ee7:	20 5b 25             	and    %bl,0x25(%ebx)
80008eea:	73 5d                	jae    80008f49 <rodata+0x249>
80008eec:	20 72 65             	and    %dh,0x65(%edx)
80008eef:	67 69 73 74 65 72 65 	addr16 imul $0x64657265,116(%bp,%di),%esi
80008ef6:	64 
80008ef7:	0a 00                	or     (%eax),%al
80008ef9:	00 00                	add    %al,(%eax)
80008efb:	00 00                	add    %al,(%eax)
80008efd:	00 00                	add    %al,(%eax)
80008eff:	00 43 61             	add    %al,0x61(%ebx)
80008f02:	6e                   	outsb  %ds:(%esi),(%dx)
80008f03:	27                   	daa    
80008f04:	74 20                	je     80008f26 <rodata+0x226>
80008f06:	63 72 65             	arpl   %si,0x65(%edx)
80008f09:	61                   	popa   
80008f0a:	74 65                	je     80008f71 <rodata+0x271>
80008f0c:	20 76 6f             	and    %dh,0x6f(%esi)
80008f0f:	6c                   	insb   (%dx),%es:(%edi)
80008f10:	75 6d                	jne    80008f7f <rodata+0x27f>
80008f12:	65 20 5b 25          	and    %bl,%gs:0x25(%ebx)
80008f16:	73 5d                	jae    80008f75 <rodata+0x275>
80008f18:	20 62 65             	and    %ah,0x65(%edx)
80008f1b:	63 61 75             	arpl   %sp,0x75(%ecx)
80008f1e:	73 65                	jae    80008f85 <rodata+0x285>
80008f20:	20 66 69             	and    %ah,0x69(%esi)
80008f23:	6c                   	insb   (%dx),%es:(%edi)
80008f24:	65                   	gs
80008f25:	73 79                	jae    80008fa0 <rodata+0x2a0>
80008f27:	73 74                	jae    80008f9d <rodata+0x29d>
80008f29:	65 6e                	outsb  %gs:(%esi),(%dx)
80008f2b:	20 5b 25             	and    %bl,0x25(%ebx)
80008f2e:	73 5d                	jae    80008f8d <rodata+0x28d>
80008f30:	20 6e 6f             	and    %ch,0x6f(%esi)
80008f33:	6e                   	outsb  %ds:(%esi),(%dx)
80008f34:	2d 65 78 69 73       	sub    $0x73697865,%eax
80008f39:	74 61                	je     80008f9c <rodata+0x29c>
80008f3b:	6e                   	outsb  %ds:(%esi),(%dx)
80008f3c:	74 0a                	je     80008f48 <rodata+0x248>
80008f3e:	00 00                	add    %al,(%eax)
80008f40:	43                   	inc    %ebx
80008f41:	61                   	popa   
80008f42:	6e                   	outsb  %ds:(%esi),(%dx)
80008f43:	27                   	daa    
80008f44:	74 20                	je     80008f66 <rodata+0x266>
80008f46:	63 72 65             	arpl   %si,0x65(%edx)
80008f49:	61                   	popa   
80008f4a:	74 65                	je     80008fb1 <rodata+0x2b1>
80008f4c:	20 76 6f             	and    %dh,0x6f(%esi)
80008f4f:	6c                   	insb   (%dx),%es:(%edi)
80008f50:	75 6d                	jne    80008fbf <rodata+0x2bf>
80008f52:	65 20 5b 25          	and    %bl,%gs:0x25(%ebx)
80008f56:	73 5d                	jae    80008fb5 <rodata+0x2b5>
80008f58:	20 62 65             	and    %ah,0x65(%edx)
80008f5b:	63 61 75             	arpl   %sp,0x75(%ecx)
80008f5e:	73 65                	jae    80008fc5 <rodata+0x2c5>
80008f60:	20 49 2f             	and    %cl,0x2f(%ecx)
80008f63:	4f                   	dec    %edi
80008f64:	20 64 65 76          	and    %ah,0x76(%ebp,2)
80008f68:	69 63 65 20 5b 25 73 	imul   $0x73255b20,0x65(%ebx),%esp
80008f6f:	5d                   	pop    %ebp
80008f70:	20 6e 6f             	and    %ch,0x6f(%esi)
80008f73:	6e                   	outsb  %ds:(%esi),(%dx)
80008f74:	2d 65 78 69 73       	sub    $0x73697865,%eax
80008f79:	74 61                	je     80008fdc <rodata+0x2dc>
80008f7b:	6e                   	outsb  %ds:(%esi),(%dx)
80008f7c:	74 0a                	je     80008f88 <rodata+0x288>
80008f7e:	00 64 65 62          	add    %ah,0x62(%ebp,2)
80008f82:	75 67                	jne    80008feb <rodata+0x2eb>
80008f84:	00 76 65             	add    %dh,0x65(%esi)
80008f87:	72 62                	jb     80008feb <rodata+0x2eb>
80008f89:	6f                   	outsl  %ds:(%esi),(%dx)
80008f8a:	73 65                	jae    80008ff1 <rodata+0x2f1>
80008f8c:	00 5b 25             	add    %bl,0x25(%ebx)
80008f8f:	6c                   	insb   (%dx),%es:(%edi)
80008f90:	75 5d                	jne    80008fef <rodata+0x2ef>
80008f92:	20 62 6f             	and    %ah,0x6f(%edx)
80008f95:	6f                   	outsl  %ds:(%esi),(%dx)
80008f96:	74 20                	je     80008fb8 <rodata+0x2b8>
80008f98:	6d                   	insl   (%dx),%es:(%edi)
80008f99:	6f                   	outsl  %ds:(%esi),(%dx)
80008f9a:	64                   	fs
80008f9b:	75 6c                	jne    80009009 <rodata+0x309>
80008f9d:	65 28 73 29          	sub    %dh,%gs:0x29(%ebx)
80008fa1:	20 66 6f             	and    %ah,0x6f(%esi)
80008fa4:	75 6e                	jne    80009014 <rodata+0x314>
80008fa6:	64 0a 00             	or     %fs:(%eax),%al
80008fa9:	4b                   	dec    %ebx
80008faa:	45                   	inc    %ebp
80008fab:	52                   	push   %edx
80008fac:	4e                   	dec    %esi
80008fad:	45                   	inc    %ebp
80008fae:	4c                   	dec    %esp
80008faf:	00 30                	add    %dh,(%eax)
80008fb1:	78 25                	js     80008fd8 <rodata+0x2d8>
80008fb3:	58                   	pop    %eax
80008fb4:	2f                   	das    
80008fb5:	30 78 25             	xor    %bh,0x25(%eax)
80008fb8:	58                   	pop    %eax
80008fb9:	00 44 4d 4d          	add    %al,0x4d(%ebp,%ecx,2)
80008fbd:	3a 00                	cmp    (%eax),%al
80008fbf:	44                   	inc    %esp
80008fc0:	4d                   	dec    %ebp
80008fc1:	4d                   	dec    %ebp
80008fc2:	3a 2f                	cmp    (%edi),%ch
80008fc4:	46                   	inc    %esi
80008fc5:	49                   	dec    %ecx
80008fc6:	4c                   	dec    %esp
80008fc7:	45                   	inc    %ebp
	...
80008fe0:	42                   	inc    %edx
80008fe1:	6f                   	outsl  %ds:(%esi),(%dx)
80008fe2:	6f                   	outsl  %ds:(%esi),(%dx)
80008fe3:	74 20                	je     80009005 <rodata+0x305>
80008fe5:	6d                   	insl   (%dx),%es:(%edi)
80008fe6:	6f                   	outsl  %ds:(%esi),(%dx)
80008fe7:	64                   	fs
80008fe8:	75 6c                	jne    80009056 <rodata+0x356>
80008fea:	65 20 66 6f          	and    %ah,%gs:0x6f(%esi)
80008fee:	75 6e                	jne    8000905e <rodata+0x35e>
80008ff0:	64 20 61 74          	and    %ah,%fs:0x74(%ecx)
80008ff4:	20 5b 30             	and    %bl,0x30(%ebx)
80008ff7:	78 25                	js     8000901e <rodata+0x31e>
80008ff9:	58                   	pop    %eax
80008ffa:	2d 30 78 25 58       	sub    $0x58257830,%eax
80008fff:	5d                   	pop    %ebp
80009000:	20 28                	and    %ch,(%eax)
80009002:	25 6c 75 20 62       	and    $0x6220756c,%eax
80009007:	79 74                	jns    8000907d <rodata+0x37d>
80009009:	65                   	gs
8000900a:	73 29                	jae    80009035 <rodata+0x335>
8000900c:	0a 00                	or     (%eax),%al
	...
8000901e:	00 00                	add    %al,(%eax)
80009020:	54                   	push   %esp
80009021:	6f                   	outsl  %ds:(%esi),(%dx)
80009022:	6f                   	outsl  %ds:(%esi),(%dx)
80009023:	20 6d 61             	and    %ch,0x61(%ebp)
80009026:	6e                   	outsb  %ds:(%esi),(%dx)
80009027:	79 20                	jns    80009049 <rodata+0x349>
80009029:	62 6f 6f             	bound  %ebp,0x6f(%edi)
8000902c:	74 20                	je     8000904e <rodata+0x34e>
8000902e:	6d                   	insl   (%dx),%es:(%edi)
8000902f:	6f                   	outsl  %ds:(%esi),(%dx)
80009030:	64                   	fs
80009031:	75 6c                	jne    8000909f <rodata+0x39f>
80009033:	65                   	gs
80009034:	73 20                	jae    80009056 <rodata+0x356>
80009036:	2d 20 48 61 6c       	sub    $0x6c614820,%eax
8000903b:	74 69                	je     800090a6 <rodata+0x3a6>
8000903d:	6e                   	outsb  %ds:(%esi),(%dx)
8000903e:	67 0a 00             	addr16 or (%bx,%si),%al
	...
8000905d:	00 00                	add    %al,(%eax)
8000905f:	00 42 6f             	add    %al,0x6f(%edx)
80009062:	6f                   	outsl  %ds:(%esi),(%dx)
80009063:	74 20                	je     80009085 <rodata+0x385>
80009065:	6d                   	insl   (%dx),%es:(%edi)
80009066:	6f                   	outsl  %ds:(%esi),(%dx)
80009067:	64                   	fs
80009068:	75 6c                	jne    800090d6 <rodata+0x3d6>
8000906a:	65 20 6d 61          	and    %ch,%gs:0x61(%ebp)
8000906e:	70 70                	jo     800090e0 <rodata+0x3e0>
80009070:	65 64 20 61 74       	and    %ah,%fs:%gs:0x74(%ecx)
80009075:	20 5b 30             	and    %bl,0x30(%ebx)
80009078:	78 25                	js     8000909f <rodata+0x39f>
8000907a:	58                   	pop    %eax
8000907b:	5d                   	pop    %ebp
8000907c:	20 66 72             	and    %ah,0x72(%esi)
8000907f:	6f                   	outsl  %ds:(%esi),(%dx)
80009080:	6d                   	insl   (%dx),%es:(%edi)
80009081:	20 5b 30             	and    %bl,0x30(%ebx)
80009084:	78 25                	js     800090ab <rodata+0x3ab>
80009086:	58                   	pop    %eax
80009087:	5d                   	pop    %ebp
80009088:	20 28                	and    %ch,(%eax)
8000908a:	25 6c 75 20 70       	and    $0x7020756c,%eax
8000908f:	61                   	popa   
80009090:	67                   	addr16
80009091:	65                   	gs
80009092:	73 29                	jae    800090bd <rodata+0x3bd>
80009094:	0a 00                	or     (%eax),%al
80009096:	49                   	dec    %ecx
80009097:	6e                   	outsb  %ds:(%esi),(%dx)
80009098:	74 65                	je     800090ff <rodata+0x3ff>
8000909a:	72 72                	jb     8000910e <rodata+0x40e>
8000909c:	75 70                	jne    8000910e <rodata+0x40e>
8000909e:	74 73                	je     80009113 <rodata+0x413>
800090a0:	20 73 65             	and    %dh,0x65(%ebx)
800090a3:	74 20                	je     800090c5 <rodata+0x3c5>
800090a5:	75 70                	jne    80009117 <rodata+0x417>
800090a7:	0a 00                	or     (%eax),%al
800090a9:	49                   	dec    %ecx
800090aa:	4e                   	dec    %esi
800090ab:	54                   	push   %esp
800090ac:	45                   	inc    %ebp
800090ad:	52                   	push   %edx
800090ae:	52                   	push   %edx
800090af:	55                   	push   %ebp
800090b0:	50                   	push   %eax
800090b1:	54                   	push   %esp
800090b2:	00 49 6e             	add    %cl,0x6e(%ecx)
800090b5:	74 65                	je     8000911c <rodata+0x41c>
800090b7:	72 72                	jb     8000912b <rodata+0x42b>
800090b9:	75 70                	jne    8000912b <rodata+0x42b>
800090bb:	74 4d                	je     8000910a <rodata+0x40a>
800090bd:	61                   	popa   
800090be:	6e                   	outsb  %ds:(%esi),(%dx)
800090bf:	61                   	popa   
800090c0:	67                   	addr16
800090c1:	65                   	gs
800090c2:	72 00                	jb     800090c4 <rodata+0x3c4>
800090c4:	41                   	inc    %ecx
800090c5:	74 74                	je     8000913b <rodata+0x43b>
800090c7:	61                   	popa   
800090c8:	63 68 48             	arpl   %bp,0x48(%eax)
800090cb:	61                   	popa   
800090cc:	6e                   	outsb  %ds:(%esi),(%dx)
800090cd:	64                   	fs
800090ce:	6c                   	insb   (%dx),%es:(%edi)
800090cf:	65                   	gs
800090d0:	72 00                	jb     800090d2 <rodata+0x3d2>
800090d2:	45                   	inc    %ebp
800090d3:	6e                   	outsb  %ds:(%esi),(%dx)
800090d4:	61                   	popa   
800090d5:	62 6c 65 49          	bound  %ebp,0x49(%ebp,2)
800090d9:	6e                   	outsb  %ds:(%esi),(%dx)
800090da:	74 65                	je     80009141 <rodata+0x441>
800090dc:	72 72                	jb     80009150 <rodata+0x450>
800090de:	75 70                	jne    80009150 <rodata+0x450>
800090e0:	74 00                	je     800090e2 <rodata+0x3e2>
800090e2:	55                   	push   %ebp
800090e3:	6e                   	outsb  %ds:(%esi),(%dx)
800090e4:	68 61 6e 64 6c       	push   $0x6c646e61
800090e9:	65 64 20 69 6e       	and    %ch,%fs:%gs:0x6e(%ecx)
800090ee:	74 65                	je     80009155 <rodata+0x455>
800090f0:	72 72                	jb     80009164 <rodata+0x464>
800090f2:	75 70                	jne    80009164 <rodata+0x464>
800090f4:	74 20                	je     80009116 <rodata+0x416>
800090f6:	25 64 0a 00 4e       	and    $0x4e000a64,%eax
800090fb:	6f                   	outsl  %ds:(%esi),(%dx)
800090fc:	20 68 61             	and    %ch,0x61(%eax)
800090ff:	6e                   	outsb  %ds:(%esi),(%dx)
80009100:	64                   	fs
80009101:	6c                   	insb   (%dx),%es:(%edi)
80009102:	65                   	gs
80009103:	72 20                	jb     80009125 <rodata+0x425>
80009105:	66 6f                	outsw  %ds:(%esi),(%dx)
80009107:	72 20                	jb     80009129 <rodata+0x429>
80009109:	69 6e 74 65 72 72 75 	imul   $0x75727265,0x74(%esi),%ebp
80009110:	70 74                	jo     80009186 <rodata+0x486>
80009112:	20 25 64 0a 00 45    	and    %ah,0x45000a64
80009118:	6e                   	outsb  %ds:(%esi),(%dx)
80009119:	61                   	popa   
8000911a:	62 6c 65 64          	bound  %ebp,0x64(%ebp,2)
8000911e:	20 49 52             	and    %cl,0x52(%ecx)
80009121:	51                   	push   %ecx
80009122:	20 5b 25             	and    %bl,0x25(%ebx)
80009125:	6c                   	insb   (%dx),%es:(%edi)
80009126:	75 5d                	jne    80009185 <rodata+0x485>
80009128:	0a 00                	or     (%eax),%al
	...
8000913e:	00 00                	add    %al,(%eax)
80009140:	41                   	inc    %ecx
80009141:	74 74                	je     800091b7 <rodata+0x4b7>
80009143:	61                   	popa   
80009144:	63 68 65             	arpl   %bp,0x65(%eax)
80009147:	64 20 68 61          	and    %ch,%fs:0x61(%eax)
8000914b:	6e                   	outsb  %ds:(%esi),(%dx)
8000914c:	64                   	fs
8000914d:	6c                   	insb   (%dx),%es:(%edi)
8000914e:	65                   	gs
8000914f:	72 20                	jb     80009171 <rodata+0x471>
80009151:	5b                   	pop    %ebx
80009152:	25 73 5d 20 66       	and    $0x66205d73,%eax
80009157:	6f                   	outsl  %ds:(%esi),(%dx)
80009158:	72 20                	jb     8000917a <rodata+0x47a>
8000915a:	49                   	dec    %ecx
8000915b:	52                   	push   %edx
8000915c:	51                   	push   %ecx
8000915d:	20 5b 25             	and    %bl,0x25(%ebx)
80009160:	6c                   	insb   (%dx),%es:(%edi)
80009161:	75 5d                	jne    800091c0 <rodata+0x4c0>
80009163:	0a 00                	or     (%eax),%al
80009165:	42                   	inc    %edx
80009166:	6c                   	insb   (%dx),%es:(%edi)
80009167:	6f                   	outsl  %ds:(%esi),(%dx)
80009168:	63 6b 20             	arpl   %bp,0x20(%ebx)
8000916b:	6e                   	outsb  %ds:(%esi),(%dx)
8000916c:	6f                   	outsl  %ds:(%esi),(%dx)
8000916d:	74 20                	je     8000918f <rodata+0x48f>
8000916f:	69 6e 20 63 61 63 68 	imul   $0x68636163,0x20(%esi),%ebp
80009176:	65 20 5b 25          	and    %bl,%gs:0x25(%ebx)
8000917a:	75 5d                	jne    800091d9 <rodata+0x4d9>
8000917c:	0a 00                	or     (%eax),%al
8000917e:	49                   	dec    %ecx
8000917f:	4f                   	dec    %edi
80009180:	43                   	inc    %ebx
80009181:	41                   	inc    %ecx
80009182:	43                   	inc    %ebx
80009183:	48                   	dec    %eax
80009184:	45                   	inc    %ebp
80009185:	00 49 4f             	add    %cl,0x4f(%ecx)
80009188:	4d                   	dec    %ebp
80009189:	61                   	popa   
8000918a:	6e                   	outsb  %ds:(%esi),(%dx)
8000918b:	61                   	popa   
8000918c:	67                   	addr16
8000918d:	65                   	gs
8000918e:	72 00                	jb     80009190 <rodata+0x490>
80009190:	52                   	push   %edx
80009191:	65 67 69 73 74 65 72 	addr16 imul $0x4f497265,%gs:116(%bp,%di),%esi
80009198:	49 4f 
8000919a:	44                   	inc    %esp
8000919b:	65                   	gs
8000919c:	76 69                	jbe    80009207 <rodata+0x507>
8000919e:	63 65 00             	arpl   %sp,0x0(%ebp)
800091a1:	43                   	inc    %ebx
800091a2:	61                   	popa   
800091a3:	63 68 65             	arpl   %bp,0x65(%eax)
800091a6:	20 65 6e             	and    %ah,0x6e(%ebp)
800091a9:	74 72                	je     8000921d <rodata+0x51d>
800091ab:	79 20                	jns    800091cd <rodata+0x4cd>
800091ad:	73 69                	jae    80009218 <rodata+0x518>
800091af:	7a 65                	jp     80009216 <rodata+0x516>
800091b1:	20 5b 25             	and    %bl,0x25(%ebx)
800091b4:	75 20                	jne    800091d6 <rodata+0x4d6>
800091b6:	4b                   	dec    %ebx
800091b7:	62 5d 20             	bound  %ebx,0x20(%ebp)
800091ba:	0a 00                	or     (%eax),%al
800091bc:	49                   	dec    %ecx
800091bd:	2f                   	das    
800091be:	4f                   	dec    %edi
800091bf:	20 4d 61             	and    %cl,0x61(%ebp)
800091c2:	6e                   	outsb  %ds:(%esi),(%dx)
800091c3:	61                   	popa   
800091c4:	67                   	addr16
800091c5:	65                   	gs
800091c6:	72 20                	jb     800091e8 <rodata+0x4e8>
800091c8:	69 6e 69 74 69 61 6c 	imul   $0x6c616974,0x69(%esi),%ebp
800091cf:	69 73 65 64 0a 00 49 	imul   $0x49000a64,0x65(%ebx),%esi
800091d6:	4f                   	dec    %edi
800091d7:	4d                   	dec    %ebp
800091d8:	41                   	inc    %ecx
800091d9:	4e                   	dec    %esi
800091da:	41                   	inc    %ecx
800091db:	47                   	inc    %edi
800091dc:	45                   	inc    %ebp
800091dd:	52                   	push   %edx
800091de:	00 49 2f             	add    %cl,0x2f(%ecx)
800091e1:	4f                   	dec    %edi
800091e2:	20 44 65 76          	and    %al,0x76(%ebp,2)
800091e6:	69 63 65 20 5b 25 73 	imul   $0x73255b20,0x65(%ebx),%esp
800091ed:	5d                   	pop    %ebp
800091ee:	20 72 65             	and    %dh,0x65(%edx)
800091f1:	67 69 73 74 65 72 65 	addr16 imul $0x64657265,116(%bp,%di),%esi
800091f8:	64 
800091f9:	0a 00                	or     (%eax),%al
800091fb:	00 00                	add    %al,(%eax)
800091fd:	00 00                	add    %al,(%eax)
800091ff:	00 5b 25             	add    %bl,0x25(%ebx)
80009202:	75 20                	jne    80009224 <rodata+0x524>
80009204:	4b                   	dec    %ebx
80009205:	62 5d 20             	bound  %ebx,0x20(%ebp)
80009208:	53                   	push   %ebx
80009209:	70 61                	jo     8000926c <rodata+0x56c>
8000920b:	63 65 20             	arpl   %sp,0x20(%ebp)
8000920e:	6e                   	outsb  %ds:(%esi),(%dx)
8000920f:	65 65 64 65 64 20 66 	and    %ah,%fs:%gs:0x6f(%esi)
80009216:	6f 
80009217:	72 20                	jb     80009239 <rodata+0x539>
80009219:	65 6e                	outsb  %gs:(%esi),(%dx)
8000921b:	74 72                	je     8000928f <rodata+0x58f>
8000921d:	69 65 73 0a 00 00 00 	imul   $0xa,0x73(%ebp),%esp
	...
80009240:	49                   	dec    %ecx
80009241:	2f                   	das    
80009242:	4f                   	dec    %edi
80009243:	20 43 61             	and    %al,0x61(%ebx)
80009246:	63 68 65             	arpl   %bp,0x65(%eax)
80009249:	20 69 6e             	and    %ch,0x6e(%ecx)
8000924c:	69 74 69 61 6c 69 73 	imul   $0x6573696c,0x61(%ecx,%ebp,2),%esi
80009253:	65 
80009254:	64 20 77 69          	and    %dh,%fs:0x69(%edi)
80009258:	74 68                	je     800092c2 <rodata+0x5c2>
8000925a:	20 5b 25             	and    %bl,0x25(%ebx)
8000925d:	75 20                	jne    8000927f <rodata+0x57f>
8000925f:	65 6e                	outsb  %gs:(%esi),(%dx)
80009261:	74 72                	je     800092d5 <rodata+0x5d5>
80009263:	69 65 73 5d 20 5b 25 	imul   $0x255b205d,0x73(%ebp),%esp
8000926a:	75 20                	jne    8000928c <rodata+0x58c>
8000926c:	4b                   	dec    %ebx
8000926d:	62 5d 0a             	bound  %ebx,0xa(%ebp)
	...
80009280:	43                   	inc    %ebx
80009281:	61                   	popa   
80009282:	6e                   	outsb  %ds:(%esi),(%dx)
80009283:	27                   	daa    
80009284:	74 20                	je     800092a6 <rodata+0x5a6>
80009286:	64 69 72 65 63 74 20 	imul   $0x6d207463,%fs:0x65(%edx),%esi
8000928d:	6d 
8000928e:	61                   	popa   
8000928f:	70 20                	jo     800092b1 <rodata+0x5b1>
80009291:	70 61                	jo     800092f4 <rodata+0x5f4>
80009293:	67 65 20 5b 30       	addr16 and %bl,%gs:48(%bp,%di)
80009298:	78 25                	js     800092bf <rodata+0x5bf>
8000929a:	58                   	pop    %eax
8000929b:	5d                   	pop    %ebp
8000929c:	20 69 6e             	and    %ch,0x6e(%ecx)
8000929f:	74 6f                	je     80009310 <rodata+0x610>
800092a1:	20 49 2f             	and    %cl,0x2f(%ecx)
800092a4:	4f                   	dec    %edi
800092a5:	20 43 61             	and    %al,0x61(%ebx)
800092a8:	63 68 65             	arpl   %bp,0x65(%eax)
800092ab:	0a 00                	or     (%eax),%al
800092ad:	4b                   	dec    %ebx
800092ae:	65                   	gs
800092af:	72 6e                	jb     8000931f <rodata+0x61f>
800092b1:	65                   	gs
800092b2:	6c                   	insb   (%dx),%es:(%edi)
800092b3:	2f                   	das    
800092b4:	56                   	push   %esi
800092b5:	65                   	gs
800092b6:	72 73                	jb     8000932b <rodata+0x62b>
800092b8:	69 6f 6e 28 4d 61 6a 	imul   $0x6a614d28,0x6e(%edi),%ebp
800092bf:	6f                   	outsl  %ds:(%esi),(%dx)
800092c0:	72 29                	jb     800092eb <rodata+0x5eb>
800092c2:	00 4f 62             	add    %cl,0x62(%edi)
800092c5:	6a 65                	push   $0x65
800092c7:	63 74 4d 61          	arpl   %si,0x61(%ebp,%ecx,2)
800092cb:	6e                   	outsb  %ds:(%esi),(%dx)
800092cc:	61                   	popa   
800092cd:	67                   	addr16
800092ce:	65                   	gs
800092cf:	72 00                	jb     800092d1 <rodata+0x5d1>
800092d1:	47                   	inc    %edi
800092d2:	65                   	gs
800092d3:	74 4b                	je     80009320 <rodata+0x620>
800092d5:	65                   	gs
800092d6:	79 57                	jns    8000932f <rodata+0x62f>
800092d8:	6f                   	outsl  %ds:(%esi),(%dx)
800092d9:	72 64                	jb     8000933f <rodata+0x63f>
800092db:	00 47 65             	add    %al,0x65(%edi)
800092de:	74 4b                	je     8000932b <rodata+0x62b>
800092e0:	65                   	gs
800092e1:	79 53                	jns    80009336 <rodata+0x636>
800092e3:	74 72                	je     80009357 <rodata+0x657>
800092e5:	69 6e 67 4c 65 6e 67 	imul   $0x676e654c,0x67(%esi),%ebp
800092ec:	74 68                	je     80009356 <rodata+0x656>
800092ee:	00 47 65             	add    %al,0x65(%edi)
800092f1:	74 4b                	je     8000933e <rodata+0x63e>
800092f3:	65                   	gs
800092f4:	79 53                	jns    80009349 <rodata+0x649>
800092f6:	74 72                	je     8000936a <rodata+0x66a>
800092f8:	69 6e 67 00 43 72 65 	imul   $0x65724300,0x67(%esi),%ebp
800092ff:	61                   	popa   
80009300:	74 65                	je     80009367 <rodata+0x667>
80009302:	4b                   	dec    %ebx
80009303:	65                   	gs
80009304:	79 57                	jns    8000935d <rodata+0x65d>
80009306:	6f                   	outsl  %ds:(%esi),(%dx)
80009307:	72 64                	jb     8000936d <rodata+0x66d>
80009309:	00 43 72             	add    %al,0x72(%ebx)
8000930c:	65                   	gs
8000930d:	61                   	popa   
8000930e:	74 65                	je     80009375 <rodata+0x675>
80009310:	4b                   	dec    %ebx
80009311:	65                   	gs
80009312:	79 53                	jns    80009367 <rodata+0x667>
80009314:	74 72                	je     80009388 <rodata+0x688>
80009316:	69 6e 67 00 45 6e 74 	imul   $0x746e4500,0x67(%esi),%ebp
8000931d:	69 74 79 20 57 6f 72 	imul   $0x64726f57,0x20(%ecx,%edi,2),%esi
80009324:	64 
80009325:	00 4b 65             	add    %cl,0x65(%ebx)
80009328:	72 6e                	jb     80009398 <rodata+0x698>
8000932a:	65                   	gs
8000932b:	6c                   	insb   (%dx),%es:(%edi)
8000932c:	2f                   	das    
8000932d:	56                   	push   %esi
8000932e:	65                   	gs
8000932f:	72 73                	jb     800093a4 <rodata+0x6a4>
80009331:	69 6f 6e 28 4d 69 6e 	imul   $0x6e694d28,0x6e(%edi),%ebp
80009338:	6f                   	outsl  %ds:(%esi),(%dx)
80009339:	72 29                	jb     80009364 <rodata+0x664>
8000933b:	00 4b 65             	add    %cl,0x65(%ebx)
8000933e:	72 6e                	jb     800093ae <rodata+0x6ae>
80009340:	65                   	gs
80009341:	6c                   	insb   (%dx),%es:(%edi)
80009342:	2f                   	das    
80009343:	56                   	push   %esi
80009344:	65                   	gs
80009345:	72 73                	jb     800093ba <rodata+0x6ba>
80009347:	69 6f 6e 28 52 65 76 	imul   $0x76655228,0x6e(%edi),%ebp
8000934e:	69 73 69 6f 6e 29 00 	imul   $0x296e6f,0x69(%ebx),%esi
80009355:	4b                   	dec    %ebx
80009356:	65                   	gs
80009357:	72 6e                	jb     800093c7 <rodata+0x6c7>
80009359:	65                   	gs
8000935a:	6c                   	insb   (%dx),%es:(%edi)
8000935b:	2f                   	das    
8000935c:	56                   	push   %esi
8000935d:	65                   	gs
8000935e:	72 73                	jb     800093d3 <rodata+0x6d3>
80009360:	69 6f 6e 28 43 6f 64 	imul   $0x646f4328,0x6e(%edi),%ebp
80009367:	65 6e                	outsb  %gs:(%esi),(%dx)
80009369:	61                   	popa   
8000936a:	6d                   	insl   (%dx),%es:(%edi)
8000936b:	65 29 00             	sub    %eax,%gs:(%eax)
8000936e:	53                   	push   %ebx
8000936f:	69 72 75 73 00 45 6e 	imul   $0x6e450073,0x75(%edx),%esi
80009376:	74 69                	je     800093e1 <rodata+0x6e1>
80009378:	74 79                	je     800093f3 <rodata+0x6f3>
8000937a:	20 53 74             	and    %dl,0x74(%ebx)
8000937d:	72 69                	jb     800093e8 <rodata+0x6e8>
8000937f:	6e                   	outsb  %ds:(%esi),(%dx)
80009380:	67 00 4f 62          	addr16 add %cl,98(%bx)
80009384:	6a 65                	push   $0x65
80009386:	63 74 20 6d          	arpl   %si,0x6d(%eax,1)
8000938a:	61                   	popa   
8000938b:	6e                   	outsb  %ds:(%esi),(%dx)
8000938c:	61                   	popa   
8000938d:	67                   	addr16
8000938e:	65                   	gs
8000938f:	72 20                	jb     800093b1 <rodata+0x6b1>
80009391:	69 6e 69 74 69 61 6c 	imul   $0x6c616974,0x69(%esi),%ebp
80009398:	69 73 65 64 0a 00 4f 	imul   $0x4f000a64,0x65(%ebx),%esi
8000939f:	42                   	inc    %edx
800093a0:	4a                   	dec    %edx
800093a1:	45                   	inc    %ebp
800093a2:	43                   	inc    %ebx
800093a3:	54                   	push   %esp
800093a4:	53                   	push   %ebx
800093a5:	00 45 6e             	add    %al,0x6e(%ebp)
800093a8:	74 69                	je     80009413 <rodata+0x713>
800093aa:	74 79                	je     80009425 <rodata+0x725>
800093ac:	20 5b 25             	and    %bl,0x25(%ebx)
800093af:	73 5d                	jae    8000940e <rodata+0x70e>
800093b1:	20 6e 6f             	and    %ch,0x6f(%esi)
800093b4:	74 20                	je     800093d6 <rodata+0x6d6>
800093b6:	66 6f                	outsw  %ds:(%esi),(%dx)
800093b8:	75 6e                	jne    80009428 <rodata+0x728>
800093ba:	64 0a 00             	or     %fs:(%eax),%al
800093bd:	00 00                	add    %al,(%eax)
800093bf:	00 4f 62             	add    %cl,0x62(%edi)
800093c2:	6a 65                	push   $0x65
800093c4:	63 74 20 5b          	arpl   %si,0x5b(%eax,1)
800093c8:	25 73 5d 20 63       	and    $0x63205d73,%eax
800093cd:	61                   	popa   
800093ce:	6e                   	outsb  %ds:(%esi),(%dx)
800093cf:	20 6e 6f             	and    %ch,0x6f(%esi)
800093d2:	74 20                	je     800093f4 <rodata+0x6f4>
800093d4:	62 65 20             	bound  %esp,0x20(%ebp)
800093d7:	64                   	fs
800093d8:	65                   	gs
800093d9:	6c                   	insb   (%dx),%es:(%edi)
800093da:	65                   	gs
800093db:	74 65                	je     80009442 <rodata+0x742>
800093dd:	64 20 62 65          	and    %ah,%fs:0x65(%edx)
800093e1:	63 61 75             	arpl   %sp,0x75(%ecx)
800093e4:	73 65                	jae    8000944b <rodata+0x74b>
800093e6:	20 69 74             	and    %ch,0x74(%ecx)
800093e9:	73 20                	jae    8000940b <rodata+0x70b>
800093eb:	62 65 69             	bound  %esp,0x69(%ebp)
800093ee:	6e                   	outsb  %ds:(%esi),(%dx)
800093ef:	67 20 72 65          	addr16 and %dh,101(%bp,%si)
800093f3:	66                   	data16
800093f4:	65                   	gs
800093f5:	72 65                	jb     8000945c <rodata+0x75c>
800093f7:	6e                   	outsb  %ds:(%esi),(%dx)
800093f8:	63 65 64             	arpl   %sp,0x64(%ebp)
800093fb:	0a 00                	or     (%eax),%al
800093fd:	00 00                	add    %al,(%eax)
800093ff:	00 f0                	add    %dh,%al
80009401:	3f                   	aas    
80009402:	00 80 00 40 00 80    	add    %al,0x80004000(%eax)
80009408:	10 40 00             	adc    %al,0x0(%eax)
8000940b:	80 20 40             	andb   $0x40,(%eax)
8000940e:	00 80 30 40 00 80    	add    %al,0x80004030(%eax)
80009414:	4b                   	dec    %ebx
80009415:	65                   	gs
80009416:	72 6e                	jb     80009486 <rodata+0x786>
80009418:	65                   	gs
80009419:	6c                   	insb   (%dx),%es:(%edi)
8000941a:	00 53 63             	add    %dl,0x63(%ebx)
8000941d:	68 65 64 75 6c       	push   $0x6c756465
80009422:	65                   	gs
80009423:	72 00                	jb     80009425 <rodata+0x725>
80009425:	50                   	push   %eax
80009426:	72 6f                	jb     80009497 <rodata+0x797>
80009428:	63 65 73             	arpl   %sp,0x73(%ebp)
8000942b:	73 4d                	jae    8000947a <rodata+0x77a>
8000942d:	61                   	popa   
8000942e:	6e                   	outsb  %ds:(%esi),(%dx)
8000942f:	61                   	popa   
80009430:	67                   	addr16
80009431:	65                   	gs
80009432:	72 00                	jb     80009434 <rodata+0x734>
80009434:	43                   	inc    %ebx
80009435:	72 65                	jb     8000949c <rodata+0x79c>
80009437:	61                   	popa   
80009438:	74 65                	je     8000949f <rodata+0x79f>
8000943a:	50                   	push   %eax
8000943b:	72 6f                	jb     800094ac <rodata+0x7ac>
8000943d:	63 65 73             	arpl   %sp,0x73(%ebp)
80009440:	73 00                	jae    80009442 <rodata+0x742>
80009442:	43                   	inc    %ebx
80009443:	72 65                	jb     800094aa <rodata+0x7aa>
80009445:	61                   	popa   
80009446:	74 65                	je     800094ad <rodata+0x7ad>
80009448:	54                   	push   %esp
80009449:	68 72 65 61 64       	push   $0x64616572
8000944e:	00 53 6c             	add    %dl,0x6c(%ebx)
80009451:	65                   	gs
80009452:	65                   	gs
80009453:	70 00                	jo     80009455 <rodata+0x755>
80009455:	41                   	inc    %ecx
80009456:	77 61                	ja     800094b9 <rodata+0x7b9>
80009458:	6b 65 6e 00          	imul   $0x0,0x6e(%ebp),%esp
8000945c:	52                   	push   %edx
8000945d:	65                   	gs
8000945e:	6c                   	insb   (%dx),%es:(%edi)
8000945f:	69 6e 71 75 69 73 68 	imul   $0x68736975,0x71(%esi),%ebp
80009466:	00 53 63             	add    %dl,0x63(%ebx)
80009469:	68 65 64 75 6c       	push   $0x6c756465
8000946e:	65                   	gs
8000946f:	72 20                	jb     80009491 <rodata+0x791>
80009471:	69 6e 69 74 69 61 6c 	imul   $0x6c616974,0x69(%esi),%ebp
80009478:	69 73 65 64 0a 00 50 	imul   $0x50000a64,0x65(%ebx),%esi
8000947f:	52                   	push   %edx
80009480:	4f                   	dec    %edi
80009481:	43                   	inc    %ebx
80009482:	45                   	inc    %ebp
80009483:	53                   	push   %ebx
80009484:	53                   	push   %ebx
80009485:	45                   	inc    %ebp
80009486:	53                   	push   %ebx
80009487:	00 54 68 72          	add    %dl,0x72(%eax,%ebp,2)
8000948b:	65                   	gs
8000948c:	61                   	popa   
8000948d:	64 20 25 75 00 53 57 	and    %ah,%fs:0x57530075
80009494:	49                   	dec    %ecx
80009495:	54                   	push   %esp
80009496:	43                   	inc    %ebx
80009497:	48                   	dec    %eax
	...
800094a0:	43                   	inc    %ebx
800094a1:	61                   	popa   
800094a2:	6e                   	outsb  %ds:(%esi),(%dx)
800094a3:	27                   	daa    
800094a4:	74 20                	je     800094c6 <rodata+0x7c6>
800094a6:	74 61                	je     80009509 <rodata+0x809>
800094a8:	73 6b                	jae    80009515 <rodata+0x815>
800094aa:	20 73 77             	and    %dh,0x77(%ebx)
800094ad:	69 74 63 68 20 2d 20 	imul   $0x5b202d20,0x68(%ebx,2),%esi
800094b4:	5b 
800094b5:	25 75 20 25 75       	and    $0x75252075,%eax
800094ba:	20 25 75 5d 00 00    	and    %ah,0x5d75
800094c0:	4b                   	dec    %ebx
800094c1:	65                   	gs
800094c2:	72 6e                	jb     80009532 <rodata+0x832>
800094c4:	65                   	gs
800094c5:	6c                   	insb   (%dx),%es:(%edi)
800094c6:	20 6e 65             	and    %ch,0x65(%esi)
800094c9:	73 74                	jae    8000953f <rodata+0x83f>
800094cb:	69 6e 67 20 65 78 63 	imul   $0x63786520,0x67(%esi),%ebp
800094d2:	65 65 64 65 64 20 6d 	and    %ch,%fs:%gs:0x61(%ebp)
800094d9:	61 
800094da:	78 69                	js     80009545 <rodata+0x845>
800094dc:	6d                   	insl   (%dx),%es:(%edi)
800094dd:	75 6d                	jne    8000954c <rodata+0x84c>
800094df:	20 2d 20 48 61 6c    	and    %ch,0x6c614820
800094e5:	74 69                	je     80009550 <rodata+0x850>
800094e7:	6e                   	outsb  %ds:(%esi),(%dx)
800094e8:	67 0a 00             	addr16 or (%bx,%si),%al
800094eb:	00 a0 49 00 80 7b    	add    %ah,0x7b800049(%eax)
800094f1:	49                   	dec    %ecx
800094f2:	00 80 ac 49 00 80    	add    %al,0x800049ac(%eax)
800094f8:	d8 49 00             	fmuls  0x0(%ecx)
800094fb:	80 10 4a             	adcb   $0x4a,(%eax)
800094fe:	00 80 53 69 7a 65    	add    %al,0x657a6953(%eax)
80009504:	20 6f 66             	and    %ch,0x66(%edi)
80009507:	20 6d 65             	and    %ch,0x65(%ebp)
8000950a:	6d                   	insl   (%dx),%es:(%edi)
8000950b:	6f                   	outsl  %ds:(%esi),(%dx)
8000950c:	72 79                	jb     80009587 <rodata+0x887>
8000950e:	20 69 73             	and    %ch,0x73(%ecx)
80009511:	20 5b 25             	and    %bl,0x25(%ebx)
80009514:	75 20                	jne    80009536 <rodata+0x836>
80009516:	50                   	push   %eax
80009517:	61                   	popa   
80009518:	67                   	addr16
80009519:	65                   	gs
8000951a:	73 5d                	jae    80009579 <rodata+0x879>
8000951c:	20 5b 25             	and    %bl,0x25(%ebx)
8000951f:	75 20                	jne    80009541 <rodata+0x841>
80009521:	4b                   	dec    %ebx
80009522:	62 5d 0a             	bound  %ebx,0xa(%ebp)
	...
8000953d:	00 00                	add    %al,(%eax)
8000953f:	00 53 69             	add    %dl,0x69(%ebx)
80009542:	7a 65                	jp     800095a9 <rodata+0x8a9>
80009544:	20 6f 66             	and    %ch,0x66(%edi)
80009547:	20 66 72             	and    %ah,0x72(%esi)
8000954a:	65 65 20 70 61       	and    %dh,%gs:0x61(%eax)
8000954f:	67 65 20 73 74       	addr16 and %dh,%gs:116(%bp,%di)
80009554:	61                   	popa   
80009555:	63 6b 20             	arpl   %bp,0x20(%ebx)
80009558:	69 73 20 5b 25 75 20 	imul   $0x2075255b,0x20(%ebx),%esi
8000955f:	50                   	push   %eax
80009560:	61                   	popa   
80009561:	67                   	addr16
80009562:	65                   	gs
80009563:	73 5d                	jae    800095c2 <rodata+0x8c2>
80009565:	0a 00                	or     (%eax),%al
	...
8000957f:	00 4b 65             	add    %cl,0x65(%ebx)
80009582:	72 6e                	jb     800095f2 <rodata+0x8f2>
80009584:	65                   	gs
80009585:	6c                   	insb   (%dx),%es:(%edi)
80009586:	20 68 65             	and    %ch,0x65(%eax)
80009589:	61                   	popa   
8000958a:	70 20                	jo     800095ac <rodata+0x8ac>
8000958c:	6f                   	outsl  %ds:(%esi),(%dx)
8000958d:	66                   	data16
8000958e:	20 5b 25             	and    %bl,0x25(%ebx)
80009591:	75 20                	jne    800095b3 <rodata+0x8b3>
80009593:	4b                   	dec    %ebx
80009594:	42                   	inc    %edx
80009595:	79 74                	jns    8000960b <rodata+0x90b>
80009597:	65                   	gs
80009598:	73 5d                	jae    800095f7 <rodata+0x8f7>
8000959a:	20 6d 61             	and    %ch,0x61(%ebp)
8000959d:	78 69                	js     80009608 <rodata+0x908>
8000959f:	6d                   	insl   (%dx),%es:(%edi)
800095a0:	75 6d                	jne    8000960f <rodata+0x90f>
800095a2:	20 63 72             	and    %ah,0x72(%ebx)
800095a5:	65                   	gs
800095a6:	61                   	popa   
800095a7:	74 65                	je     8000960e <rodata+0x90e>
800095a9:	64 0a 00             	or     %fs:(%eax),%al
	...
800095c0:	46                   	inc    %esi
800095c1:	41                   	inc    %ecx
800095c2:	54                   	push   %esp
800095c3:	41                   	inc    %ecx
800095c4:	4c                   	dec    %esp
800095c5:	3a 20                	cmp    (%eax),%ah
800095c7:	4e                   	dec    %esi
800095c8:	6f                   	outsl  %ds:(%esi),(%dx)
800095c9:	20 6d 75             	and    %ch,0x75(%ebp)
800095cc:	6c                   	insb   (%dx),%es:(%edi)
800095cd:	74 69                	je     80009638 <rodata+0x938>
800095cf:	62 6f 6f             	bound  %ebp,0x6f(%edi)
800095d2:	74 20                	je     800095f4 <rodata+0x8f4>
800095d4:	6d                   	insl   (%dx),%es:(%edi)
800095d5:	65                   	gs
800095d6:	6d                   	insl   (%dx),%es:(%edi)
800095d7:	6f                   	outsl  %ds:(%esi),(%dx)
800095d8:	72 79                	jb     80009653 <rodata+0x953>
800095da:	20 6d 61             	and    %ch,0x61(%ebp)
800095dd:	70 20                	jo     800095ff <rodata+0x8ff>
800095df:	69 6e 66 6f 72 6d 61 	imul   $0x616d726f,0x66(%esi),%ebp
800095e6:	74 69                	je     80009651 <rodata+0x951>
800095e8:	6f                   	outsl  %ds:(%esi),(%dx)
800095e9:	6e                   	outsb  %ds:(%esi),(%dx)
800095ea:	20 61 76             	and    %ah,0x76(%ecx)
800095ed:	61                   	popa   
800095ee:	69 6c 61 62 6c 65 20 	imul   $0x2d20656c,0x62(%ecx,2),%ebp
800095f5:	2d 
800095f6:	20 48 61             	and    %cl,0x61(%eax)
800095f9:	6c                   	insb   (%dx),%es:(%edi)
800095fa:	74 69                	je     80009665 <rodata+0x965>
800095fc:	6e                   	outsb  %ds:(%esi),(%dx)
800095fd:	67 0a 00             	addr16 or (%bx,%si),%al
80009600:	46                   	inc    %esi
80009601:	41                   	inc    %ecx
80009602:	54                   	push   %esp
80009603:	41                   	inc    %ecx
80009604:	4c                   	dec    %esp
80009605:	3a 20                	cmp    (%eax),%ah
80009607:	4e                   	dec    %esi
80009608:	6f                   	outsl  %ds:(%esi),(%dx)
80009609:	20 6d 65             	and    %ch,0x65(%ebp)
8000960c:	6d                   	insl   (%dx),%es:(%edi)
8000960d:	6f                   	outsl  %ds:(%esi),(%dx)
8000960e:	72 79                	jb     80009689 <rodata+0x989>
80009610:	20 61 76             	and    %ah,0x76(%ecx)
80009613:	61                   	popa   
80009614:	69 6c 61 62 6c 65 20 	imul   $0x2d20656c,0x62(%ecx,2),%ebp
8000961b:	2d 
8000961c:	20 48 61             	and    %cl,0x61(%eax)
8000961f:	6c                   	insb   (%dx),%es:(%edi)
80009620:	74 69                	je     8000968b <rodata+0x98b>
80009622:	6e                   	outsb  %ds:(%esi),(%dx)
80009623:	67 0a 00             	addr16 or (%bx,%si),%al
	...
8000963e:	00 00                	add    %al,(%eax)
80009640:	46                   	inc    %esi
80009641:	41                   	inc    %ecx
80009642:	54                   	push   %esp
80009643:	41                   	inc    %ecx
80009644:	4c                   	dec    %esp
80009645:	3a 20                	cmp    (%eax),%ah
80009647:	55                   	push   %ebp
80009648:	6e                   	outsb  %ds:(%esi),(%dx)
80009649:	61                   	popa   
8000964a:	62 6c 65 20          	bound  %ebp,0x20(%ebp,2)
8000964e:	74 6f                	je     800096bf <rodata+0x9bf>
80009650:	20 61 6c             	and    %ah,0x6c(%ecx)
80009653:	6c                   	insb   (%dx),%es:(%edi)
80009654:	6f                   	outsl  %ds:(%esi),(%dx)
80009655:	63 61 74             	arpl   %sp,0x74(%ecx)
80009658:	65 20 6d 65          	and    %ch,%gs:0x65(%ebp)
8000965c:	6d                   	insl   (%dx),%es:(%edi)
8000965d:	6f                   	outsl  %ds:(%esi),(%dx)
8000965e:	72 79                	jb     800096d9 <rodata+0x9d9>
80009660:	20 28                	and    %ch,(%eax)
80009662:	25 6c 75 20 62       	and    $0x6220756c,%eax
80009667:	79 74                	jns    800096dd <rodata+0x9dd>
80009669:	65                   	gs
8000966a:	73 29                	jae    80009695 <rodata+0x995>
8000966c:	2d 20 48 61 6c       	sub    $0x6c614820,%eax
80009671:	74 69                	je     800096dc <rodata+0x9dc>
80009673:	6e                   	outsb  %ds:(%esi),(%dx)
80009674:	67 0a 00             	addr16 or (%bx,%si),%al
	...
8000967f:	00 46 41             	add    %al,0x41(%esi)
80009682:	54                   	push   %esp
80009683:	41                   	inc    %ecx
80009684:	4c                   	dec    %esp
80009685:	3a 20                	cmp    (%eax),%ah
80009687:	49                   	dec    %ecx
80009688:	6e                   	outsb  %ds:(%esi),(%dx)
80009689:	76 61                	jbe    800096ec <rodata+0x9ec>
8000968b:	6c                   	insb   (%dx),%es:(%edi)
8000968c:	69 64 20 66 72 65 65 	imul   $0x20656572,0x66(%eax,1),%esp
80009693:	20 
80009694:	72 65                	jb     800096fb <rodata+0x9fb>
80009696:	71 75                	jno    8000970d <rodata+0xa0d>
80009698:	65                   	gs
80009699:	73 74                	jae    8000970f <rodata+0xa0f>
8000969b:	20 66 6f             	and    %ah,0x6f(%esi)
8000969e:	72 20                	jb     800096c0 <rodata+0x9c0>
800096a0:	61                   	popa   
800096a1:	6c                   	insb   (%dx),%es:(%edi)
800096a2:	6c                   	insb   (%dx),%es:(%edi)
800096a3:	6f                   	outsl  %ds:(%esi),(%dx)
800096a4:	63 61 74             	arpl   %sp,0x74(%ecx)
800096a7:	69 6f 6e 20 61 74 20 	imul   $0x20746120,0x6e(%edi),%ebp
800096ae:	30 78 25             	xor    %bh,0x25(%eax)
800096b1:	58                   	pop    %eax
800096b2:	0a 00                	or     (%eax),%al
	...
800096c0:	4d                   	dec    %ebp
800096c1:	65                   	gs
800096c2:	6d                   	insl   (%dx),%es:(%edi)
800096c3:	6f                   	outsl  %ds:(%esi),(%dx)
800096c4:	72 79                	jb     8000973f <rodata+0xa3f>
800096c6:	4d                   	dec    %ebp
800096c7:	61                   	popa   
800096c8:	6e                   	outsb  %ds:(%esi),(%dx)
800096c9:	61                   	popa   
800096ca:	67                   	addr16
800096cb:	65                   	gs
800096cc:	72 2f                	jb     800096fd <rodata+0x9fd>
800096ce:	4d                   	dec    %ebp
800096cf:	65                   	gs
800096d0:	6d                   	insl   (%dx),%es:(%edi)
800096d1:	6f                   	outsl  %ds:(%esi),(%dx)
800096d2:	72 79                	jb     8000974d <rodata+0xa4d>
800096d4:	53                   	push   %ebx
800096d5:	69 7a 65 28 49 6e 50 	imul   $0x506e4928,0x65(%edx),%edi
800096dc:	61                   	popa   
800096dd:	67                   	addr16
800096de:	65                   	gs
800096df:	73 29                	jae    8000970a <rodata+0xa0a>
800096e1:	00 4d 4d             	add    %cl,0x4d(%ebp)
800096e4:	55                   	push   %ebp
800096e5:	00 4d 65             	add    %cl,0x65(%ebp)
800096e8:	6d                   	insl   (%dx),%es:(%edi)
800096e9:	6f                   	outsl  %ds:(%esi),(%dx)
800096ea:	72 79                	jb     80009765 <rodata+0xa65>
800096ec:	20 6d 61             	and    %ch,0x61(%ebp)
800096ef:	6e                   	outsb  %ds:(%esi),(%dx)
800096f0:	61                   	popa   
800096f1:	67                   	addr16
800096f2:	65                   	gs
800096f3:	72 20                	jb     80009715 <rodata+0xa15>
800096f5:	69 6e 69 74 69 61 6c 	imul   $0x6c616974,0x69(%esi),%ebp
800096fc:	69 73 65 64 0a 00 4b 	imul   $0x4b000a64,0x65(%ebx),%esi
80009703:	65                   	gs
80009704:	72 6e                	jb     80009774 <rodata+0xa74>
80009706:	65                   	gs
80009707:	6c                   	insb   (%dx),%es:(%edi)
80009708:	20 68 65             	and    %ch,0x65(%eax)
8000970b:	61                   	popa   
8000970c:	70 20                	jo     8000972e <rodata+0xa2e>
8000970e:	2d 20 41 6c 6c       	sub    $0x6c6c4120,%eax
80009713:	6f                   	outsl  %ds:(%esi),(%dx)
80009714:	63 61 74             	arpl   %sp,0x74(%ecx)
80009717:	69 6f 6e 20 6d 61 70 	imul   $0x70616d20,0x6e(%edi),%ebp
8000971e:	0a 00                	or     (%eax),%al
80009720:	41                   	inc    %ecx
80009721:	6c                   	insb   (%dx),%es:(%edi)
80009722:	6c                   	insb   (%dx),%es:(%edi)
80009723:	6f                   	outsl  %ds:(%esi),(%dx)
80009724:	63 3a                	arpl   %di,(%edx)
80009726:	20 30                	and    %dh,(%eax)
80009728:	78 25                	js     8000974f <rodata+0xa4f>
8000972a:	58                   	pop    %eax
8000972b:	2d 30 78 25 58       	sub    $0x58257830,%eax
80009730:	20 28                	and    %ch,(%eax)
80009732:	25 6c 75 20 62       	and    $0x6220756c,%eax
80009737:	79 74                	jns    800097ad <rodata+0xaad>
80009739:	65                   	gs
8000973a:	73 29                	jae    80009765 <rodata+0xa65>
8000973c:	0a 00                	or     (%eax),%al
8000973e:	4b                   	dec    %ebx
8000973f:	65                   	gs
80009740:	72 6e                	jb     800097b0 <rodata+0xab0>
80009742:	65                   	gs
80009743:	6c                   	insb   (%dx),%es:(%edi)
80009744:	20 68 65             	and    %ch,0x65(%eax)
80009747:	61                   	popa   
80009748:	70 20                	jo     8000976a <rodata+0xa6a>
8000974a:	2d 20 46 72 65       	sub    $0x65724620,%eax
8000974f:	65 20 73 70          	and    %dh,%gs:0x70(%ebx)
80009753:	61                   	popa   
80009754:	63 65 20             	arpl   %sp,0x20(%ebp)
80009757:	6d                   	insl   (%dx),%es:(%edi)
80009758:	61                   	popa   
80009759:	70 0a                	jo     80009765 <rodata+0xa65>
8000975b:	00 46 72             	add    %al,0x72(%esi)
8000975e:	65 65 3a 20          	cmp    %gs:(%eax),%ah
80009762:	30 78 25             	xor    %bh,0x25(%eax)
80009765:	58                   	pop    %eax
80009766:	2d 30 78 25 58       	sub    $0x58257830,%eax
8000976b:	20 28                	and    %ch,(%eax)
8000976d:	25 6c 75 20 62       	and    $0x6220756c,%eax
80009772:	79 74                	jns    800097e8 <rodata+0xae8>
80009774:	65                   	gs
80009775:	73 29                	jae    800097a0 <rodata+0xaa0>
80009777:	0a 00                	or     (%eax),%al
80009779:	00 00                	add    %al,(%eax)
8000977b:	00 00                	add    %al,(%eax)
8000977d:	00 00                	add    %al,(%eax)
8000977f:	00 54 68 72          	add    %dl,0x72(%eax,%ebp,2)
80009783:	65                   	gs
80009784:	61                   	popa   
80009785:	64 20 5b 25          	and    %bl,%fs:0x25(%ebx)
80009789:	75 5d                	jne    800097e8 <rodata+0xae8>
8000978b:	2c 20                	sub    $0x20,%al
8000978d:	64                   	fs
8000978e:	65                   	gs
8000978f:	73 74                	jae    80009805 <rodata+0xb05>
80009791:	69 6e 61 74 69 6f 6e 	imul   $0x6e6f6974,0x61(%esi),%ebp
80009798:	20 6d 65             	and    %ch,0x65(%ebp)
8000979b:	73 73                	jae    80009810 <rodata+0xb10>
8000979d:	61                   	popa   
8000979e:	67 65 20 70 6f       	addr16 and %dh,%gs:111(%bx,%si)
800097a3:	72 74                	jb     80009819 <rodata+0xb19>
800097a5:	20 6e 6f             	and    %ch,0x6f(%esi)
800097a8:	74 20                	je     800097ca <rodata+0xaca>
800097aa:	66 6f                	outsw  %ds:(%esi),(%dx)
800097ac:	75 6e                	jne    8000981c <rodata+0xb1c>
800097ae:	64                   	fs
800097af:	2c 20                	sub    $0x20,%al
800097b1:	63 61 6e             	arpl   %sp,0x6e(%ecx)
800097b4:	27                   	daa    
800097b5:	74 20                	je     800097d7 <rodata+0xad7>
800097b7:	73 65                	jae    8000981e <rodata+0xb1e>
800097b9:	6e                   	outsb  %ds:(%esi),(%dx)
800097ba:	64 20 6d 65          	and    %ch,%fs:0x65(%ebp)
800097be:	73 73                	jae    80009833 <rodata+0xb33>
800097c0:	61                   	popa   
800097c1:	67 65 0a 00          	addr16 or %gs:(%bx,%si),%al
	...
800097dd:	00 00                	add    %al,(%eax)
800097df:	00 54 68 72          	add    %dl,0x72(%eax,%ebp,2)
800097e3:	65                   	gs
800097e4:	61                   	popa   
800097e5:	64 20 5b 25          	and    %bl,%fs:0x25(%ebx)
800097e9:	75 5d                	jne    80009848 <rodata+0xb48>
800097eb:	20 6e 6f             	and    %ch,0x6f(%esi)
800097ee:	20 6d 65             	and    %ch,0x65(%ebp)
800097f1:	73 73                	jae    80009866 <rodata+0xb66>
800097f3:	61                   	popa   
800097f4:	67 65 20 63 72       	addr16 and %ah,%gs:114(%bp,%di)
800097f9:	65                   	gs
800097fa:	61                   	popa   
800097fb:	74 65                	je     80009862 <rodata+0xb62>
800097fd:	64                   	fs
800097fe:	2c 20                	sub    $0x20,%al
80009800:	63 61 6e             	arpl   %sp,0x6e(%ecx)
80009803:	27                   	daa    
80009804:	74 20                	je     80009826 <rodata+0xb26>
80009806:	73 65                	jae    8000986d <rodata+0xb6d>
80009808:	6e                   	outsb  %ds:(%esi),(%dx)
80009809:	64 20 6d 65          	and    %ch,%fs:0x65(%ebp)
8000980d:	73 73                	jae    80009882 <rodata+0xb82>
8000980f:	61                   	popa   
80009810:	67 65 0a 00          	addr16 or %gs:(%bx,%si),%al
	...
80009820:	54                   	push   %esp
80009821:	68 72 65 61 64       	push   $0x64616572
80009826:	20 5b 25             	and    %bl,0x25(%ebx)
80009829:	75 5d                	jne    80009888 <rodata+0xb88>
8000982b:	20 61 6c             	and    %ah,0x6c(%ecx)
8000982e:	72 65                	jb     80009895 <rodata+0xb95>
80009830:	61                   	popa   
80009831:	64                   	fs
80009832:	79 20                	jns    80009854 <rodata+0xb54>
80009834:	68 61 73 20 6d       	push   $0x6d207361
80009839:	65                   	gs
8000983a:	73 73                	jae    800098af <rodata+0xbaf>
8000983c:	61                   	popa   
8000983d:	67 65 20 70 6f       	addr16 and %dh,%gs:111(%bx,%si)
80009842:	72 74                	jb     800098b8 <rodata+0xbb8>
80009844:	20 77 68             	and    %dh,0x68(%edi)
80009847:	69 6c 65 20 63 72 65 	imul   $0x61657263,0x20(%ebp,2),%ebp
8000984e:	61 
8000984f:	74 69                	je     800098ba <rodata+0xbba>
80009851:	6e                   	outsb  %ds:(%esi),(%dx)
80009852:	67 20 5b 25          	addr16 and %bl,37(%bp,%di)
80009856:	73 5d                	jae    800098b5 <rodata+0xbb5>
80009858:	0a 00                	or     (%eax),%al
8000985a:	00 00                	add    %al,(%eax)
8000985c:	00 00                	add    %al,(%eax)
8000985e:	00 00                	add    %al,(%eax)
80009860:	4d                   	dec    %ebp
80009861:	65                   	gs
80009862:	73 73                	jae    800098d7 <rodata+0xbd7>
80009864:	61                   	popa   
80009865:	67 65 20 70 6f       	addr16 and %dh,%gs:111(%bx,%si)
8000986a:	72 74                	jb     800098e0 <rodata+0xbe0>
8000986c:	20 63 72             	and    %ah,0x72(%ebx)
8000986f:	65                   	gs
80009870:	61                   	popa   
80009871:	74 65                	je     800098d8 <rodata+0xbd8>
80009873:	64 20 5b 25          	and    %bl,%fs:0x25(%ebx)
80009877:	73 5d                	jae    800098d6 <rodata+0xbd6>
80009879:	20 66 6f             	and    %ah,0x6f(%esi)
8000987c:	72 20                	jb     8000989e <rodata+0xb9e>
8000987e:	74 68                	je     800098e8 <rodata+0xbe8>
80009880:	72 65                	jb     800098e7 <rodata+0xbe7>
80009882:	61                   	popa   
80009883:	64 20 5b 25          	and    %bl,%fs:0x25(%ebx)
80009887:	75 5d                	jne    800098e6 <rodata+0xbe6>
80009889:	0a 00                	or     (%eax),%al
	...
8000989f:	00 54 68 72          	add    %dl,0x72(%eax,%ebp,2)
800098a3:	65                   	gs
800098a4:	61                   	popa   
800098a5:	64 20 5b 25          	and    %bl,%fs:0x25(%ebx)
800098a9:	75 5d                	jne    80009908 <rodata+0xc08>
800098ab:	20 64 6f 65          	and    %ah,0x65(%edi,%ebp,2)
800098af:	73 6e                	jae    8000991f <rodata+0xc1f>
800098b1:	27                   	daa    
800098b2:	74 20                	je     800098d4 <rodata+0xbd4>
800098b4:	68 61 76 65 20       	push   $0x20657661
800098b9:	6d                   	insl   (%dx),%es:(%edi)
800098ba:	65                   	gs
800098bb:	73 73                	jae    80009930 <rodata+0xc30>
800098bd:	61                   	popa   
800098be:	67 65 20 70 6f       	addr16 and %dh,%gs:111(%bx,%si)
800098c3:	72 74                	jb     80009939 <rodata+0xc39>
800098c5:	20 74 6f 20          	and    %dh,0x20(%edi,%ebp,2)
800098c9:	6c                   	insb   (%dx),%es:(%edi)
800098ca:	69 6e 6b 20 74 6f 20 	imul   $0x206f7420,0x6b(%esi),%ebp
800098d1:	5b                   	pop    %ebx
800098d2:	25 73 5d 0a 00       	and    $0xa5d73,%eax
	...
800098df:	00 4d 65             	add    %cl,0x65(%ebp)
800098e2:	73 73                	jae    80009957 <rodata+0xc57>
800098e4:	61                   	popa   
800098e5:	67 65 20 70 6f       	addr16 and %dh,%gs:111(%bx,%si)
800098ea:	72 74                	jb     80009960 <rodata+0xc60>
800098ec:	20 6f 6e             	and    %ch,0x6e(%edi)
800098ef:	20 74 68 72          	and    %dh,0x72(%eax,%ebp,2)
800098f3:	65                   	gs
800098f4:	61                   	popa   
800098f5:	64 20 5b 25          	and    %bl,%fs:0x25(%ebx)
800098f9:	75 5d                	jne    80009958 <rodata+0xc58>
800098fb:	20 6c 69 6e          	and    %ch,0x6e(%ecx,%ebp,2)
800098ff:	6b 20 74             	imul   $0x74,(%eax),%esp
80009902:	6f                   	outsl  %ds:(%esi),(%dx)
80009903:	20 64 65 73          	and    %ah,0x73(%ebp,2)
80009907:	74 69                	je     80009972 <rodata+0xc72>
80009909:	6e                   	outsb  %ds:(%esi),(%dx)
8000990a:	61                   	popa   
8000990b:	74 69                	je     80009976 <rodata+0xc76>
8000990d:	6f                   	outsl  %ds:(%esi),(%dx)
8000990e:	6e                   	outsb  %ds:(%esi),(%dx)
8000990f:	20 5b 25             	and    %bl,0x25(%ebx)
80009912:	73 5d                	jae    80009971 <rodata+0xc71>
80009914:	0a 00                	or     (%eax),%al
	...
8000991e:	00 00                	add    %al,(%eax)
80009920:	54                   	push   %esp
80009921:	68 72 65 61 64       	push   $0x64616572
80009926:	20 5b 25             	and    %bl,0x25(%ebx)
80009929:	75 5d                	jne    80009988 <rodata+0xc88>
8000992b:	2c 20                	sub    $0x20,%al
8000992d:	64                   	fs
8000992e:	65                   	gs
8000992f:	73 74                	jae    800099a5 <rodata+0xca5>
80009931:	69 6e 61 74 69 6f 6e 	imul   $0x6e6f6974,0x61(%esi),%ebp
80009938:	20 6d 65             	and    %ch,0x65(%ebp)
8000993b:	73 73                	jae    800099b0 <rodata+0xcb0>
8000993d:	61                   	popa   
8000993e:	67 65 20 70 6f       	addr16 and %dh,%gs:111(%bx,%si)
80009943:	72 74                	jb     800099b9 <rodata+0xcb9>
80009945:	20 5b 25             	and    %bl,0x25(%ebx)
80009948:	73 5d                	jae    800099a7 <rodata+0xca7>
8000994a:	20 6e 6f             	and    %ch,0x6f(%esi)
8000994d:	74 20                	je     8000996f <rodata+0xc6f>
8000994f:	66 6f                	outsw  %ds:(%esi),(%dx)
80009951:	75 6e                	jne    800099c1 <rodata+0xcc1>
80009953:	64 0a 00             	or     %fs:(%eax),%al
	...
8000995e:	00 00                	add    %al,(%eax)
80009960:	54                   	push   %esp
80009961:	68 72 65 61 64       	push   $0x64616572
80009966:	20 5b 25             	and    %bl,0x25(%ebx)
80009969:	75 5d                	jne    800099c8 <rodata+0xcc8>
8000996b:	20 61 6c             	and    %ah,0x6c(%ecx)
8000996e:	72 65                	jb     800099d5 <rodata+0xcd5>
80009970:	61                   	popa   
80009971:	64                   	fs
80009972:	79 20                	jns    80009994 <rodata+0xc94>
80009974:	63 72 65             	arpl   %si,0x65(%edx)
80009977:	61                   	popa   
80009978:	74 69                	je     800099e3 <rodata+0xce3>
8000997a:	6e                   	outsb  %ds:(%esi),(%dx)
8000997b:	67 20 6d 65          	addr16 and %ch,101(%di)
8000997f:	73 73                	jae    800099f4 <rodata+0xcf4>
80009981:	61                   	popa   
80009982:	67                   	addr16
80009983:	65                   	gs
80009984:	2c 20                	sub    $0x20,%al
80009986:	63 61 6e             	arpl   %sp,0x6e(%ecx)
80009989:	27                   	daa    
8000998a:	74 20                	je     800099ac <rodata+0xcac>
8000998c:	63 72 65             	arpl   %si,0x65(%edx)
8000998f:	61                   	popa   
80009990:	74 65                	je     800099f7 <rodata+0xcf7>
80009992:	20 6d 65             	and    %ch,0x65(%ebp)
80009995:	73 73                	jae    80009a0a <rodata+0xd0a>
80009997:	61                   	popa   
80009998:	67 65 0a 00          	addr16 or %gs:(%bx,%si),%al
8000999c:	00 00                	add    %al,(%eax)
8000999e:	00 00                	add    %al,(%eax)
800099a0:	54                   	push   %esp
800099a1:	68 72 65 61 64       	push   $0x64616572
800099a6:	20 5b 25             	and    %bl,0x25(%ebx)
800099a9:	75 5d                	jne    80009a08 <rodata+0xd08>
800099ab:	20 64 6f 65          	and    %ah,0x65(%edi,%ebp,2)
800099af:	73 6e                	jae    80009a1f <rodata+0xd1f>
800099b1:	27                   	daa    
800099b2:	74 20                	je     800099d4 <rodata+0xcd4>
800099b4:	68 61 76 65 20       	push   $0x20657661
800099b9:	6d                   	insl   (%dx),%es:(%edi)
800099ba:	65                   	gs
800099bb:	73 73                	jae    80009a30 <rodata+0xd30>
800099bd:	61                   	popa   
800099be:	67 65 20 70 6f       	addr16 and %dh,%gs:111(%bx,%si)
800099c3:	72 74                	jb     80009a39 <rodata+0xd39>
800099c5:	2c 20                	sub    $0x20,%al
800099c7:	63 61 6e             	arpl   %sp,0x6e(%ecx)
800099ca:	27                   	daa    
800099cb:	74 20                	je     800099ed <rodata+0xced>
800099cd:	63 72 65             	arpl   %si,0x65(%edx)
800099d0:	61                   	popa   
800099d1:	74 65                	je     80009a38 <rodata+0xd38>
800099d3:	20 6d 65             	and    %ch,0x65(%ebp)
800099d6:	73 73                	jae    80009a4b <rodata+0xd4b>
800099d8:	61                   	popa   
800099d9:	67 65 0a 00          	addr16 or %gs:(%bx,%si),%al
800099dd:	00 00                	add    %al,(%eax)
800099df:	00 54 68 72          	add    %dl,0x72(%eax,%ebp,2)
800099e3:	65                   	gs
800099e4:	61                   	popa   
800099e5:	64 20 5b 25          	and    %bl,%fs:0x25(%ebx)
800099e9:	75 5d                	jne    80009a48 <rodata+0xd48>
800099eb:	2c 20                	sub    $0x20,%al
800099ed:	6e                   	outsb  %ds:(%esi),(%dx)
800099ee:	6f                   	outsl  %ds:(%esi),(%dx)
800099ef:	20 6d 65             	and    %ch,0x65(%ebp)
800099f2:	73 73                	jae    80009a67 <rodata+0xd67>
800099f4:	61                   	popa   
800099f5:	67                   	addr16
800099f6:	65                   	gs
800099f7:	73 20                	jae    80009a19 <rodata+0xd19>
800099f9:	77 61                	ja     80009a5c <rodata+0xd5c>
800099fb:	69 74 69 6e 67 2c 20 	imul   $0x63202c67,0x6e(%ecx,%ebp,2),%esi
80009a02:	63 
80009a03:	61                   	popa   
80009a04:	6e                   	outsb  %ds:(%esi),(%dx)
80009a05:	27                   	daa    
80009a06:	74 20                	je     80009a28 <rodata+0xd28>
80009a08:	67                   	addr16
80009a09:	65                   	gs
80009a0a:	74 20                	je     80009a2c <rodata+0xd2c>
80009a0c:	6d                   	insl   (%dx),%es:(%edi)
80009a0d:	65                   	gs
80009a0e:	73 73                	jae    80009a83 <rodata+0xd83>
80009a10:	61                   	popa   
80009a11:	67 65 0a 00          	addr16 or %gs:(%bx,%si),%al
	...
80009a1d:	00 00                	add    %al,(%eax)
80009a1f:	00 54 68 72          	add    %dl,0x72(%eax,%ebp,2)
80009a23:	65                   	gs
80009a24:	61                   	popa   
80009a25:	64 20 5b 25          	and    %bl,%fs:0x25(%ebx)
80009a29:	75 5d                	jne    80009a88 <rodata+0xd88>
80009a2b:	2c 20                	sub    $0x20,%al
80009a2d:	6e                   	outsb  %ds:(%esi),(%dx)
80009a2e:	6f                   	outsl  %ds:(%esi),(%dx)
80009a2f:	74 20                	je     80009a51 <rodata+0xd51>
80009a31:	70 72                	jo     80009aa5 <rodata+0xda5>
80009a33:	6f                   	outsl  %ds:(%esi),(%dx)
80009a34:	63 65 73             	arpl   %sp,0x73(%ebp)
80009a37:	73 69                	jae    80009aa2 <rodata+0xda2>
80009a39:	6e                   	outsb  %ds:(%esi),(%dx)
80009a3a:	67 20 6d 65          	addr16 and %ch,101(%di)
80009a3e:	73 73                	jae    80009ab3 <rodata+0xdb3>
80009a40:	61                   	popa   
80009a41:	67 65 0a 00          	addr16 or %gs:(%bx,%si),%al
80009a45:	4d                   	dec    %ebp
80009a46:	45                   	inc    %ebp
80009a47:	53                   	push   %ebx
80009a48:	53                   	push   %ebx
80009a49:	41                   	inc    %ecx
80009a4a:	47                   	inc    %edi
80009a4b:	45                   	inc    %ebp
80009a4c:	53                   	push   %ebx
80009a4d:	00 4d 65             	add    %cl,0x65(%ebp)
80009a50:	73 73                	jae    80009ac5 <rodata+0xdc5>
80009a52:	61                   	popa   
80009a53:	67                   	addr16
80009a54:	65                   	gs
80009a55:	4d                   	dec    %ebp
80009a56:	61                   	popa   
80009a57:	6e                   	outsb  %ds:(%esi),(%dx)
80009a58:	61                   	popa   
80009a59:	67                   	addr16
80009a5a:	65                   	gs
80009a5b:	72 00                	jb     80009a5d <rodata+0xd5d>
80009a5d:	43                   	inc    %ebx
80009a5e:	72 65                	jb     80009ac5 <rodata+0xdc5>
80009a60:	61                   	popa   
80009a61:	74 65                	je     80009ac8 <rodata+0xdc8>
80009a63:	4d                   	dec    %ebp
80009a64:	65                   	gs
80009a65:	73 73                	jae    80009ada <rodata+0xdda>
80009a67:	61                   	popa   
80009a68:	67                   	addr16
80009a69:	65                   	gs
80009a6a:	50                   	push   %eax
80009a6b:	6f                   	outsl  %ds:(%esi),(%dx)
80009a6c:	72 74                	jb     80009ae2 <rodata+0xde2>
80009a6e:	00 53 65             	add    %dl,0x65(%ebx)
80009a71:	74 4d                	je     80009ac0 <rodata+0xdc0>
80009a73:	65                   	gs
80009a74:	73 73                	jae    80009ae9 <rodata+0xde9>
80009a76:	61                   	popa   
80009a77:	67                   	addr16
80009a78:	65                   	gs
80009a79:	44                   	inc    %esp
80009a7a:	65                   	gs
80009a7b:	73 74                	jae    80009af1 <rodata+0xdf1>
80009a7d:	69 6e 61 74 69 6f 6e 	imul   $0x6e6f6974,0x61(%esi),%ebp
80009a84:	00 4d 65             	add    %cl,0x65(%ebp)
80009a87:	73 73                	jae    80009afc <rodata+0xdfc>
80009a89:	61                   	popa   
80009a8a:	67                   	addr16
80009a8b:	65                   	gs
80009a8c:	51                   	push   %ecx
80009a8d:	75 65                	jne    80009af4 <rodata+0xdf4>
80009a8f:	75 65                	jne    80009af6 <rodata+0xdf6>
80009a91:	4c                   	dec    %esp
80009a92:	65 6e                	outsb  %gs:(%esi),(%dx)
80009a94:	67 74 68             	addr16 je 80009aff <rodata+0xdff>
80009a97:	00 43 72             	add    %al,0x72(%ebx)
80009a9a:	65                   	gs
80009a9b:	61                   	popa   
80009a9c:	74 65                	je     80009b03 <rodata+0xe03>
80009a9e:	4d                   	dec    %ebp
80009a9f:	65                   	gs
80009aa0:	73 73                	jae    80009b15 <rodata+0xe15>
80009aa2:	61                   	popa   
80009aa3:	67 65 00 53 65       	addr16 add %dl,%gs:101(%bp,%di)
80009aa8:	6e                   	outsb  %ds:(%esi),(%dx)
80009aa9:	64                   	fs
80009aaa:	4d                   	dec    %ebp
80009aab:	65                   	gs
80009aac:	73 73                	jae    80009b21 <rodata+0xe21>
80009aae:	61                   	popa   
80009aaf:	67 65 00 47 65       	addr16 add %al,%gs:101(%bx)
80009ab4:	74 4d                	je     80009b03 <rodata+0xe03>
80009ab6:	65                   	gs
80009ab7:	73 73                	jae    80009b2c <rodata+0xe2c>
80009ab9:	61                   	popa   
80009aba:	67 65 00 4d 65       	addr16 add %cl,%gs:101(%di)
80009abf:	73 73                	jae    80009b34 <rodata+0xe34>
80009ac1:	61                   	popa   
80009ac2:	67                   	addr16
80009ac3:	65                   	gs
80009ac4:	50                   	push   %eax
80009ac5:	72 6f                	jb     80009b36 <rodata+0xe36>
80009ac7:	63 65 73             	arpl   %sp,0x73(%ebp)
80009aca:	73 65                	jae    80009b31 <rodata+0xe31>
80009acc:	64 00 4d 65          	add    %cl,%fs:0x65(%ebp)
80009ad0:	73 73                	jae    80009b45 <rodata+0xe45>
80009ad2:	61                   	popa   
80009ad3:	67 65 20 6d 61       	addr16 and %ch,%gs:97(%di)
80009ad8:	6e                   	outsb  %ds:(%esi),(%dx)
80009ad9:	61                   	popa   
80009ada:	67                   	addr16
80009adb:	65                   	gs
80009adc:	72 20                	jb     80009afe <rodata+0xdfe>
80009ade:	69 6e 69 74 69 61 6c 	imul   $0x6c616974,0x69(%esi),%ebp
80009ae5:	69 73 65 64 0a 00 00 	imul   $0xa64,0x65(%ebx),%esi
80009aec:	86 60 00             	xchg   %ah,0x0(%eax)
80009aef:	80 67 61 00          	andb   $0x0,0x61(%edi)
80009af3:	80 54 62 00 80       	adcb   $0x80,0x0(%edx,2)
80009af8:	9a 62 00 80 62 63 00 	lcall  $0x63,$0x62800062
80009aff:	80 73 63 00          	xorb   $0x0,0x63(%ebx)
80009b03:	80 db 63             	sbb    $0x63,%bl
80009b06:	00 80 4d 6f 64 75    	add    %al,0x75646f4d(%eax)
80009b0c:	6c                   	insb   (%dx),%es:(%edi)
80009b0d:	65 20 6d 61          	and    %ch,%gs:0x61(%ebp)
80009b11:	6e                   	outsb  %ds:(%esi),(%dx)
80009b12:	61                   	popa   
80009b13:	67                   	addr16
80009b14:	65                   	gs
80009b15:	72 20                	jb     80009b37 <rodata+0xe37>
80009b17:	69 6e 69 74 69 61 6c 	imul   $0x6c616974,0x69(%esi),%ebp
80009b1e:	69 73 65 64 0a 00 4d 	imul   $0x4d000a64,0x65(%ebx),%esi
80009b25:	4f                   	dec    %edi
80009b26:	44                   	inc    %esp
80009b27:	55                   	push   %ebp
80009b28:	4c                   	dec    %esp
80009b29:	45                   	inc    %ebp
80009b2a:	53                   	push   %ebx
80009b2b:	00 4d 6f             	add    %cl,0x6f(%ebp)
80009b2e:	64                   	fs
80009b2f:	75 6c                	jne    80009b9d <rodata+0xe9d>
80009b31:	65 20 5b 25          	and    %bl,%gs:0x25(%ebx)
80009b35:	73 5d                	jae    80009b94 <rodata+0xe94>
80009b37:	20 5b 25             	and    %bl,0x25(%ebx)
80009b3a:	75 5d                	jne    80009b99 <rodata+0xe99>
80009b3c:	20 63 72             	and    %ah,0x72(%ebx)
80009b3f:	65                   	gs
80009b40:	61                   	popa   
80009b41:	74 65                	je     80009ba8 <rodata+0xea8>
80009b43:	64 0a 00             	or     %fs:(%eax),%al
80009b46:	5b                   	pop    %ebx
80009b47:	25 73 5d 20 4d       	and    $0x4d205d73,%eax
80009b4c:	6f                   	outsl  %ds:(%esi),(%dx)
80009b4d:	64                   	fs
80009b4e:	75 6c                	jne    80009bbc <rodata+0xebc>
80009b50:	65 20 6e 6f          	and    %ch,%gs:0x6f(%esi)
80009b54:	74 20                	je     80009b76 <rodata+0xe76>
80009b56:	66 6f                	outsw  %ds:(%esi),(%dx)
80009b58:	75 6e                	jne    80009bc8 <rodata+0xec8>
80009b5a:	64 0a 00             	or     %fs:(%eax),%al
80009b5d:	5b                   	pop    %ebx
80009b5e:	25 64 5d 20 49       	and    $0x49205d64,%eax
80009b63:	6e                   	outsb  %ds:(%esi),(%dx)
80009b64:	76 61                	jbe    80009bc7 <rodata+0xec7>
80009b66:	6c                   	insb   (%dx),%es:(%edi)
80009b67:	69 64 20 68 61 6e 64 	imul   $0x6c646e61,0x68(%eax,1),%esp
80009b6e:	6c 
80009b6f:	65 0a 00             	or     %gs:(%eax),%al
80009b72:	5b                   	pop    %ebx
80009b73:	25 64 5d 2d 5b       	and    $0x5b2d5d64,%eax
80009b78:	25 73 5d 20 43       	and    $0x43205d73,%eax
80009b7d:	61                   	popa   
80009b7e:	6c                   	insb   (%dx),%es:(%edi)
80009b7f:	6c                   	insb   (%dx),%es:(%edi)
80009b80:	20 6e 6f             	and    %ch,0x6f(%esi)
80009b83:	74 20                	je     80009ba5 <rodata+0xea5>
80009b85:	66 6f                	outsw  %ds:(%esi),(%dx)
80009b87:	75 6e                	jne    80009bf7 <rodata+0xef7>
80009b89:	64 0a 00             	or     %fs:(%eax),%al
	...
80009ba0:	4d                   	dec    %ebp
80009ba1:	6f                   	outsl  %ds:(%esi),(%dx)
80009ba2:	64                   	fs
80009ba3:	75 6c                	jne    80009c11 <rodata+0xf11>
80009ba5:	65 20 63 61          	and    %ah,%gs:0x61(%ebx)
80009ba9:	6c                   	insb   (%dx),%es:(%edi)
80009baa:	6c                   	insb   (%dx),%es:(%edi)
80009bab:	20 5b 25             	and    %bl,0x25(%ebx)
80009bae:	73 5d                	jae    80009c0d <rodata+0xf0d>
80009bb0:	20 5b 25             	and    %bl,0x25(%ebx)
80009bb3:	75 2d                	jne    80009be2 <rodata+0xee2>
80009bb5:	25 75 5d 20 63       	and    $0x63205d75,%eax
80009bba:	72 65                	jb     80009c21 <rodata+0xf21>
80009bbc:	61                   	popa   
80009bbd:	74 65                	je     80009c24 <rodata+0xf24>
80009bbf:	64 0a 00             	or     %fs:(%eax),%al
80009bc2:	54                   	push   %esp
80009bc3:	69 6d 65 72 00 54 69 	imul   $0x69540072,0x65(%ebp),%ebp
80009bca:	6d                   	insl   (%dx),%es:(%edi)
80009bcb:	65                   	gs
80009bcc:	72 20                	jb     80009bee <rodata+0xeee>
80009bce:	69 6e 69 74 69 61 6c 	imul   $0x6c616974,0x69(%esi),%ebp
80009bd5:	69 73 65 64 0a 00 54 	imul   $0x54000a64,0x65(%ebx),%esi
80009bdc:	49                   	dec    %ecx
80009bdd:	4d                   	dec    %ebp
80009bde:	45                   	inc    %ebp
80009bdf:	52                   	push   %edx
80009be0:	00 38                	add    %bh,(%eax)
80009be2:	32 35 39 61 20 50    	xor    0x50206139,%dh
80009be8:	49                   	dec    %ecx
80009be9:	43                   	inc    %ebx
80009bea:	00 50 49             	add    %dl,0x49(%eax)
80009bed:	43                   	inc    %ebx
80009bee:	20 49 6e             	and    %cl,0x6e(%ecx)
80009bf1:	69 74 69 61 6c 69 73 	imul   $0x6573696c,0x61(%ecx,%ebp,2),%esi
80009bf8:	65 
80009bf9:	64 0a 00             	or     %fs:(%eax),%al
80009bfc:	38 32                	cmp    %dh,(%edx)
80009bfe:	35 34 20 50 49       	xor    $0x49502034,%eax
80009c03:	54                   	push   %esp
80009c04:	00 50 49             	add    %dl,0x49(%eax)
80009c07:	54                   	push   %esp
80009c08:	20 49 6e             	and    %cl,0x6e(%ecx)
80009c0b:	69 74 69 61 6c 69 73 	imul   $0x6573696c,0x61(%ecx,%ebp,2),%esi
80009c12:	65 
80009c13:	64 0a 00             	or     %fs:(%eax),%al
80009c16:	5b                   	pop    %ebx
80009c17:	25 2d 31 30 73       	and    $0x7330312d,%eax
80009c1c:	5d                   	pop    %ebp
80009c1d:	20 00                	and    %al,(%eax)
80009c1f:	43                   	inc    %ebx
80009c20:	6f                   	outsl  %ds:(%esi),(%dx)
80009c21:	6e                   	outsb  %ds:(%esi),(%dx)
80009c22:	73 6f                	jae    80009c93 <rodata+0xf93>
80009c24:	6c                   	insb   (%dx),%es:(%edi)
80009c25:	65 00 43 6c          	add    %al,%gs:0x6c(%ebx)
80009c29:	65                   	gs
80009c2a:	61                   	popa   
80009c2b:	72 00                	jb     80009c2d <rodata+0xf2d>
80009c2d:	57                   	push   %edi
80009c2e:	72 69                	jb     80009c99 <rodata+0xf99>
80009c30:	74 65                	je     80009c97 <rodata+0xf97>
80009c32:	43                   	inc    %ebx
80009c33:	68 61 72 61 63       	push   $0x63617261
80009c38:	74 65                	je     80009c9f <rodata+0xf9f>
80009c3a:	72 00                	jb     80009c3c <rodata+0xf3c>
80009c3c:	44                   	inc    %esp
80009c3d:	65                   	gs
80009c3e:	6c                   	insb   (%dx),%es:(%edi)
80009c3f:	65                   	gs
80009c40:	74 65                	je     80009ca7 <rodata+0xfa7>
80009c42:	43                   	inc    %ebx
80009c43:	68 61 72 61 63       	push   $0x63617261
80009c48:	74 65                	je     80009caf <rodata+0xfaf>
80009c4a:	72 00                	jb     80009c4c <rodata+0xf4c>
80009c4c:	44                   	inc    %esp
80009c4d:	65 62 75 67          	bound  %esi,%gs:0x67(%ebp)
80009c51:	50                   	push   %eax
80009c52:	72 69                	jb     80009cbd <rodata+0xfbd>
80009c54:	6e                   	outsb  %ds:(%esi),(%dx)
80009c55:	74 00                	je     80009c57 <rodata+0xf57>
80009c57:	00 ad 71 00 80 fc    	add    %ch,0xfc800071(%ebp)
80009c5d:	71 00                	jno    80009c5f <rodata+0xf5f>
80009c5f:	80 04 73 00          	addb   $0x0,(%ebx,%esi,2)
80009c63:	80 63 73 00          	andb   $0x0,0x73(%ebx)
80009c67:	80 4d 74 00          	orb    $0x0,0x74(%ebp)
80009c6b:	80 00 00             	addb   $0x0,(%eax)
	...
80009c7e:	00 00                	add    %al,(%eax)
80009c80:	44                   	inc    %esp
80009c81:	65 62 75 67          	bound  %esi,%gs:0x67(%ebp)
80009c85:	20 46 61             	and    %al,0x61(%esi)
80009c88:	75 6c                	jne    80009cf6 <rodata+0xff6>
80009c8a:	74 20                	je     80009cac <rodata+0xfac>
80009c8c:	66                   	data16
80009c8d:	72 6f                	jb     80009cfe <rodata+0xffe>
80009c8f:	6d                   	insl   (%dx),%es:(%edi)
80009c90:	20 30                	and    %dh,(%eax)
80009c92:	78 25                	js     80009cb9 <rodata+0xfb9>
80009c94:	58                   	pop    %eax
80009c95:	3a 30                	cmp    (%eax),%dh
80009c97:	78 25                	js     80009cbe <rodata+0xfbe>
80009c99:	58                   	pop    %eax
80009c9a:	20 2d 20 48 61 6c    	and    %ch,0x6c614820
80009ca0:	74 69                	je     80009d0b <rodata+0x100b>
80009ca2:	6e                   	outsb  %ds:(%esi),(%dx)
80009ca3:	67 0a 00             	addr16 or (%bx,%si),%al
	...
80009cbe:	00 00                	add    %al,(%eax)
80009cc0:	49                   	dec    %ecx
80009cc1:	6e                   	outsb  %ds:(%esi),(%dx)
80009cc2:	76 61                	jbe    80009d25 <rodata+0x1025>
80009cc4:	6c                   	insb   (%dx),%es:(%edi)
80009cc5:	69 64 20 4f 70 63 6f 	imul   $0x646f6370,0x4f(%eax,1),%esp
80009ccc:	64 
80009ccd:	65 20 66 72          	and    %ah,%gs:0x72(%esi)
80009cd1:	6f                   	outsl  %ds:(%esi),(%dx)
80009cd2:	6d                   	insl   (%dx),%es:(%edi)
80009cd3:	20 30                	and    %dh,(%eax)
80009cd5:	78 25                	js     80009cfc <rodata+0xffc>
80009cd7:	58                   	pop    %eax
80009cd8:	3a 30                	cmp    (%eax),%dh
80009cda:	78 25                	js     80009d01 <rodata+0x1001>
80009cdc:	58                   	pop    %eax
80009cdd:	20 2d 20 48 61 6c    	and    %ch,0x6c614820
80009ce3:	74 69                	je     80009d4e <rodata+0x104e>
80009ce5:	6e                   	outsb  %ds:(%esi),(%dx)
80009ce6:	67 0a 00             	addr16 or (%bx,%si),%al
	...
80009cfd:	00 00                	add    %al,(%eax)
80009cff:	00 44 6f 75          	add    %al,0x75(%edi,%ebp,2)
80009d03:	62 6c 65 20          	bound  %ebp,0x20(%ebp,2)
80009d07:	46                   	inc    %esi
80009d08:	61                   	popa   
80009d09:	75 6c                	jne    80009d77 <rodata+0x1077>
80009d0b:	74 20                	je     80009d2d <rodata+0x102d>
80009d0d:	66                   	data16
80009d0e:	72 6f                	jb     80009d7f <rodata+0x107f>
80009d10:	6d                   	insl   (%dx),%es:(%edi)
80009d11:	20 30                	and    %dh,(%eax)
80009d13:	78 25                	js     80009d3a <rodata+0x103a>
80009d15:	58                   	pop    %eax
80009d16:	3a 30                	cmp    (%eax),%dh
80009d18:	78 25                	js     80009d3f <rodata+0x103f>
80009d1a:	58                   	pop    %eax
80009d1b:	20 2d 20 48 61 6c    	and    %ch,0x6c614820
80009d21:	74 69                	je     80009d8c <rodata+0x108c>
80009d23:	6e                   	outsb  %ds:(%esi),(%dx)
80009d24:	67 0a 00             	addr16 or (%bx,%si),%al
	...
80009d3f:	00 53 74             	add    %dl,0x74(%ebx)
80009d42:	61                   	popa   
80009d43:	63 6b 20             	arpl   %bp,0x20(%ebx)
80009d46:	46                   	inc    %esi
80009d47:	61                   	popa   
80009d48:	75 6c                	jne    80009db6 <rodata+0x10b6>
80009d4a:	74 20                	je     80009d6c <rodata+0x106c>
80009d4c:	66                   	data16
80009d4d:	72 6f                	jb     80009dbe <rodata+0x10be>
80009d4f:	6d                   	insl   (%dx),%es:(%edi)
80009d50:	20 30                	and    %dh,(%eax)
80009d52:	78 25                	js     80009d79 <rodata+0x1079>
80009d54:	58                   	pop    %eax
80009d55:	3a 30                	cmp    (%eax),%dh
80009d57:	78 25                	js     80009d7e <rodata+0x107e>
80009d59:	58                   	pop    %eax
80009d5a:	20 2d 20 48 61 6c    	and    %ch,0x6c614820
80009d60:	74 69                	je     80009dcb <rodata+0x10cb>
80009d62:	6e                   	outsb  %ds:(%esi),(%dx)
80009d63:	67 0a 00             	addr16 or (%bx,%si),%al
	...
80009d7e:	00 00                	add    %al,(%eax)
80009d80:	55                   	push   %ebp
80009d81:	6e                   	outsb  %ds:(%esi),(%dx)
80009d82:	68 61 6e 64 6c       	push   $0x6c646e61
80009d87:	65 64 20 50 61       	and    %dl,%fs:%gs:0x61(%eax)
80009d8c:	67 65 20 46 61       	addr16 and %al,%gs:97(%bp)
80009d91:	75 6c                	jne    80009dff <rodata+0x10ff>
80009d93:	74 20                	je     80009db5 <rodata+0x10b5>
80009d95:	61                   	popa   
80009d96:	74 20                	je     80009db8 <rodata+0x10b8>
80009d98:	30 78 25             	xor    %bh,0x25(%eax)
80009d9b:	58                   	pop    %eax
80009d9c:	20 66 72             	and    %ah,0x72(%esi)
80009d9f:	6f                   	outsl  %ds:(%esi),(%dx)
80009da0:	6d                   	insl   (%dx),%es:(%edi)
80009da1:	20 30                	and    %dh,(%eax)
80009da3:	78 25                	js     80009dca <rodata+0x10ca>
80009da5:	58                   	pop    %eax
80009da6:	3a 30                	cmp    (%eax),%dh
80009da8:	78 25                	js     80009dcf <rodata+0x10cf>
80009daa:	58                   	pop    %eax
80009dab:	20 28                	and    %ch,(%eax)
80009dad:	45                   	inc    %ebp
80009dae:	72 72                	jb     80009e22 <rodata+0x1122>
80009db0:	6f                   	outsl  %ds:(%esi),(%dx)
80009db1:	72 20                	jb     80009dd3 <rodata+0x10d3>
80009db3:	30 78 25             	xor    %bh,0x25(%eax)
80009db6:	58                   	pop    %eax
80009db7:	2c 20                	sub    $0x20,%al
80009db9:	46                   	inc    %esi
80009dba:	6c                   	insb   (%dx),%es:(%edi)
80009dbb:	61                   	popa   
80009dbc:	67 73 20             	addr16 jae 80009ddf <rodata+0x10df>
80009dbf:	30 78 25             	xor    %bh,0x25(%eax)
80009dc2:	58                   	pop    %eax
80009dc3:	29 0a                	sub    %ecx,(%edx)
80009dc5:	00 45 58             	add    %al,0x58(%ebp)
80009dc8:	43                   	inc    %ebx
80009dc9:	45                   	inc    %ebp
80009dca:	50                   	push   %eax
80009dcb:	54                   	push   %esp
80009dcc:	49                   	dec    %ecx
80009dcd:	4f                   	dec    %edi
80009dce:	4e                   	dec    %esi
80009dcf:	00 47 50             	add    %al,0x50(%edi)
80009dd2:	46                   	inc    %esi
80009dd3:	20 66 72             	and    %ah,0x72(%esi)
80009dd6:	6f                   	outsl  %ds:(%esi),(%dx)
80009dd7:	6d                   	insl   (%dx),%es:(%edi)
80009dd8:	20 30                	and    %dh,(%eax)
80009dda:	78 25                	js     80009e01 <rodata+0x1101>
80009ddc:	58                   	pop    %eax
80009ddd:	3a 30                	cmp    (%eax),%dh
80009ddf:	78 25                	js     80009e06 <rodata+0x1106>
80009de1:	58                   	pop    %eax
80009de2:	20 2d 20 48 61 6c    	and    %ch,0x6c614820
80009de8:	74 69                	je     80009e53 <rodata+0x1153>
80009dea:	6e                   	outsb  %ds:(%esi),(%dx)
80009deb:	67 0a 00             	addr16 or (%bx,%si),%al
80009dee:	3c 4e                	cmp    $0x4e,%al
80009df0:	55                   	push   %ebp
80009df1:	4c                   	dec    %esp
80009df2:	4c                   	dec    %esp
80009df3:	3e 00 00             	add    %al,%ds:(%eax)
80009df6:	00 00                	add    %al,(%eax)
80009df8:	d0 7b 00             	sarb   0x0(%ebx)
80009dfb:	80 00 7c             	addb   $0x7c,(%eax)
80009dfe:	00 80 00 7c 00 80    	add    %al,0x80007c00(%eax)
80009e04:	e0 7b                	loopne 80009e81 <rodata+0x1181>
80009e06:	00 80 00 7c 00 80    	add    %al,0x80007c00(%eax)
80009e0c:	00 7c 00 80          	add    %bh,0xffffff80(%eax,%eax,1)
80009e10:	00 7c 00 80          	add    %bh,0xffffff80(%eax,%eax,1)
80009e14:	00 7c 00 80          	add    %bh,0xffffff80(%eax,%eax,1)
80009e18:	00 7c 00 80          	add    %bh,0xffffff80(%eax,%eax,1)
80009e1c:	00 7c 00 80          	add    %bh,0xffffff80(%eax,%eax,1)
80009e20:	00 7c 00 80          	add    %bh,0xffffff80(%eax,%eax,1)
80009e24:	f0 7b 00             	lock jnp 80009e27 <rodata+0x1127>
80009e27:	80 00 7c             	addb   $0x7c,(%eax)
80009e2a:	00 80 c0 7b 00 80    	add    %al,0x80007bc0(%eax)
80009e30:	00 7c 00 80          	add    %bh,0xffffff80(%eax,%eax,1)
80009e34:	00 7c 00 80          	add    %bh,0xffffff80(%eax,%eax,1)
80009e38:	c0 7f 00 80          	sarb   $0x80,0x0(%edi)
80009e3c:	07                   	pop    %es
80009e3d:	7d 00                	jge    80009e3f <rodata+0x113f>
80009e3f:	80 c0 7e             	add    $0x7e,%al
80009e42:	00 80 c0 7e 00 80    	add    %al,0x80007ec0(%eax)
80009e48:	c0 7e 00 80          	sarb   $0x80,0x0(%esi)
80009e4c:	c0 7e 00 80          	sarb   $0x80,0x0(%esi)
80009e50:	c0 7e 00 80          	sarb   $0x80,0x0(%esi)
80009e54:	c0 7e 00 80          	sarb   $0x80,0x0(%esi)
80009e58:	c0 7e 00 80          	sarb   $0x80,0x0(%esi)
80009e5c:	c0 7e 00 80          	sarb   $0x80,0x0(%esi)
80009e60:	c0 7e 00 80          	sarb   $0x80,0x0(%esi)
80009e64:	c0 7e 00 80          	sarb   $0x80,0x0(%esi)
80009e68:	c0 7e 00 80          	sarb   $0x80,0x0(%esi)
80009e6c:	c0 7e 00 80          	sarb   $0x80,0x0(%esi)
80009e70:	c0 7e 00 80          	sarb   $0x80,0x0(%esi)
80009e74:	c0 7e 00 80          	sarb   $0x80,0x0(%esi)
80009e78:	c0 7e 00 80          	sarb   $0x80,0x0(%esi)
80009e7c:	c0 7e 00 80          	sarb   $0x80,0x0(%esi)
80009e80:	c0 7e 00 80          	sarb   $0x80,0x0(%esi)
80009e84:	c0 7e 00 80          	sarb   $0x80,0x0(%esi)
80009e88:	c0 7e 00 80          	sarb   $0x80,0x0(%esi)
80009e8c:	c0 7e 00 80          	sarb   $0x80,0x0(%esi)
80009e90:	c0 7e 00 80          	sarb   $0x80,0x0(%esi)
80009e94:	c0 7e 00 80          	sarb   $0x80,0x0(%esi)
80009e98:	c0 7e 00 80          	sarb   $0x80,0x0(%esi)
80009e9c:	c0 7e 00 80          	sarb   $0x80,0x0(%esi)
80009ea0:	c0 7e 00 80          	sarb   $0x80,0x0(%esi)
80009ea4:	c0 7e 00 80          	sarb   $0x80,0x0(%esi)
80009ea8:	c0 7e 00 80          	sarb   $0x80,0x0(%esi)
80009eac:	c0 7e 00 80          	sarb   $0x80,0x0(%esi)
80009eb0:	c0 7e 00 80          	sarb   $0x80,0x0(%esi)
80009eb4:	c0 7e 00 80          	sarb   $0x80,0x0(%esi)
80009eb8:	c0 7e 00 80          	sarb   $0x80,0x0(%esi)
80009ebc:	c0 7e 00 80          	sarb   $0x80,0x0(%esi)
80009ec0:	c0 7e 00 80          	sarb   $0x80,0x0(%esi)
80009ec4:	c0 7e 00 80          	sarb   $0x80,0x0(%esi)
80009ec8:	c0 7e 00 80          	sarb   $0x80,0x0(%esi)
80009ecc:	c0 7e 00 80          	sarb   $0x80,0x0(%esi)
80009ed0:	c0 7e 00 80          	sarb   $0x80,0x0(%esi)
80009ed4:	c0 7e 00 80          	sarb   $0x80,0x0(%esi)
80009ed8:	c0 7e 00 80          	sarb   $0x80,0x0(%esi)
80009edc:	c0 7e 00 80          	sarb   $0x80,0x0(%esi)
80009ee0:	c0 7e 00 80          	sarb   $0x80,0x0(%esi)
80009ee4:	c0 7e 00 80          	sarb   $0x80,0x0(%esi)
80009ee8:	c0 7e 00 80          	sarb   $0x80,0x0(%esi)
80009eec:	c0 7e 00 80          	sarb   $0x80,0x0(%esi)
80009ef0:	c0 7e 00 80          	sarb   $0x80,0x0(%esi)
80009ef4:	c0 7e 00 80          	sarb   $0x80,0x0(%esi)
80009ef8:	c0 7e 00 80          	sarb   $0x80,0x0(%esi)
80009efc:	c0 7e 00 80          	sarb   $0x80,0x0(%esi)
80009f00:	c0 7e 00 80          	sarb   $0x80,0x0(%esi)
80009f04:	c0 7e 00 80          	sarb   $0x80,0x0(%esi)
80009f08:	18 7d 00             	sbb    %bh,0x0(%ebp)
80009f0b:	80 c0 7e             	add    $0x7e,%al
80009f0e:	00 80 c0 7e 00 80    	add    %al,0x80007ec0(%eax)
80009f14:	c0 7e 00 80          	sarb   $0x80,0x0(%esi)
80009f18:	c0 7e 00 80          	sarb   $0x80,0x0(%esi)
80009f1c:	c0 7e 00 80          	sarb   $0x80,0x0(%esi)
80009f20:	c0 7e 00 80          	sarb   $0x80,0x0(%esi)
80009f24:	c0 7e 00 80          	sarb   $0x80,0x0(%esi)
80009f28:	c0 7e 00 80          	sarb   $0x80,0x0(%esi)
80009f2c:	c0 7e 00 80          	sarb   $0x80,0x0(%esi)
80009f30:	c0 7e 00 80          	sarb   $0x80,0x0(%esi)
80009f34:	ae                   	scas   %es:(%edi),%al
80009f35:	7c 00                	jl     80009f37 <rodata+0x1237>
80009f37:	80 bc 7d 00 80 c0 7e 	cmpb   $0x0,0x7ec08000(%ebp,%edi,2)
80009f3e:	00 
80009f3f:	80 c0 7e             	add    $0x7e,%al
80009f42:	00 80 c0 7e 00 80    	add    %al,0x80007ec0(%eax)
80009f48:	c0 7e 00 80          	sarb   $0x80,0x0(%esi)
80009f4c:	bc 7d 00 80 c0       	mov    $0xc080007d,%esp
80009f51:	7e 00                	jle    80009f53 <rodata+0x1253>
80009f53:	80 c0 7e             	add    $0x7e,%al
80009f56:	00 80 c0 7e 00 80    	add    %al,0x80007ec0(%eax)
80009f5c:	c0 7e 00 80          	sarb   $0x80,0x0(%esi)
80009f60:	c4 7d 00             	les    0x0(%ebp),%edi
80009f63:	80 db 7d             	sbb    $0x7d,%bl
80009f66:	00 80 e5 7d 00 80    	add    %al,0x80007de5(%eax)
80009f6c:	c0 7e 00 80          	sarb   $0x80,0x0(%esi)
80009f70:	c0 7e 00 80          	sarb   $0x80,0x0(%esi)
80009f74:	32 7e 00             	xor    0x0(%esi),%bh
80009f77:	80 c0 7e             	add    $0x7e,%al
80009f7a:	00 80 20 7d 00 80    	add    %al,0x80007d20(%eax)
80009f80:	c0 7e 00 80          	sarb   $0x80,0x0(%esi)
80009f84:	c0 7e 00 80          	sarb   $0x80,0x0(%esi)
80009f88:	1b 7d 00             	sbb    0x0(%ebp),%edi
80009f8b:	80 00 00             	addb   $0x0,(%eax)
	...
80009f9e:	00 00                	add    %al,(%eax)
80009fa0:	30 31                	xor    %dh,(%ecx)
80009fa2:	32 33                	xor    (%ebx),%dh
80009fa4:	34 35                	xor    $0x35,%al
80009fa6:	36                   	ss
80009fa7:	37                   	aaa    
80009fa8:	38 39                	cmp    %bh,(%ecx)
80009faa:	61                   	popa   
80009fab:	62 63 64             	bound  %esp,0x64(%ebx)
80009fae:	65                   	gs
80009faf:	66 67 68 69 6a       	addr16 pushw $0x6a69
80009fb4:	6b 6c 6d 6e 6f       	imul   $0x6f,0x6e(%ebp,%ebp,2),%ebp
80009fb9:	70 71                	jo     8000a02c <rodata+0x132c>
80009fbb:	72 73                	jb     8000a030 <rodata+0x1330>
80009fbd:	74 75                	je     8000a034 <rodata+0x1334>
80009fbf:	76 77                	jbe    8000a038 <rodata+0x1338>
80009fc1:	78 79                	js     8000a03c <rodata+0x133c>
80009fc3:	7a 00                	jp     80009fc5 <rodata+0x12c5>
	...
80009fdd:	00 00                	add    %al,(%eax)
80009fdf:	00 30                	add    %dh,(%eax)
80009fe1:	31 32                	xor    %esi,(%edx)
80009fe3:	33 34 35 36 37 38 39 	xor    0x39383736(,%esi,1),%esi
80009fea:	41                   	inc    %ecx
80009feb:	42                   	inc    %edx
80009fec:	43                   	inc    %ebx
80009fed:	44                   	inc    %esp
80009fee:	45                   	inc    %ebp
80009fef:	46                   	inc    %esi
80009ff0:	47                   	inc    %edi
80009ff1:	48                   	dec    %eax
80009ff2:	49                   	dec    %ecx
80009ff3:	4a                   	dec    %edx
80009ff4:	4b                   	dec    %ebx
80009ff5:	4c                   	dec    %esp
80009ff6:	4d                   	dec    %ebp
80009ff7:	4e                   	dec    %esi
80009ff8:	4f                   	dec    %edi
80009ff9:	50                   	push   %eax
80009ffa:	51                   	push   %ecx
80009ffb:	52                   	push   %edx
80009ffc:	53                   	push   %ebx
80009ffd:	54                   	push   %esp
80009ffe:	55                   	push   %ebp
80009fff:	56                   	push   %esi
8000a000:	57                   	push   %edi
8000a001:	58                   	pop    %eax
8000a002:	59                   	pop    %ecx
8000a003:	5a                   	pop    %edx
	...
8000a00c:	00 00                	add    %al,(%eax)
8000a00e:	24 40                	and    $0x40,%al
8000a010:	9a 99 99 99 99 99 b9 	lcall  $0xb999,$0x99999999
8000a017:	3f                   	aas    
8000a018:	30 84 00 80 40 84 00 	xor    %al,0x844080(%eax,%eax,1)
8000a01f:	80 40 84 00          	addb   $0x0,0xffffff84(%eax)
8000a023:	80 40 84 00          	addb   $0x0,0xffffff84(%eax)
8000a027:	80 40 84 00          	addb   $0x0,0xffffff84(%eax)
8000a02b:	80 40 84 00          	addb   $0x0,0xffffff84(%eax)
8000a02f:	80 40 84 00          	addb   $0x0,0xffffff84(%eax)
8000a033:	80 40 84 00          	addb   $0x0,0xffffff84(%eax)
8000a037:	80 40 84 00          	addb   $0x0,0xffffff84(%eax)
8000a03b:	80 70 83 00          	xorb   $0x0,0xffffff83(%eax)
8000a03f:	80 70 83 00          	xorb   $0x0,0xffffff83(%eax)
8000a043:	80 70 83 00          	xorb   $0x0,0xffffff83(%eax)
8000a047:	80 70 83 00          	xorb   $0x0,0xffffff83(%eax)
8000a04b:	80 70 83 00          	xorb   $0x0,0xffffff83(%eax)
8000a04f:	80 40 84 00          	addb   $0x0,0xffffff84(%eax)
8000a053:	80 40 84 00          	addb   $0x0,0xffffff84(%eax)
8000a057:	80 40 84 00          	addb   $0x0,0xffffff84(%eax)
8000a05b:	80 40 84 00          	addb   $0x0,0xffffff84(%eax)
8000a05f:	80 40 84 00          	addb   $0x0,0xffffff84(%eax)
8000a063:	80 40 84 00          	addb   $0x0,0xffffff84(%eax)
8000a067:	80 40 84 00          	addb   $0x0,0xffffff84(%eax)
8000a06b:	80 40 84 00          	addb   $0x0,0xffffff84(%eax)
8000a06f:	80 40 84 00          	addb   $0x0,0xffffff84(%eax)
8000a073:	80 40 84 00          	addb   $0x0,0xffffff84(%eax)
8000a077:	80 40 84 00          	addb   $0x0,0xffffff84(%eax)
8000a07b:	80 40 84 00          	addb   $0x0,0xffffff84(%eax)
8000a07f:	80 40 84 00          	addb   $0x0,0xffffff84(%eax)
8000a083:	80 40 84 00          	addb   $0x0,0xffffff84(%eax)
8000a087:	80 40 84 00          	addb   $0x0,0xffffff84(%eax)
8000a08b:	80 40 84 00          	addb   $0x0,0xffffff84(%eax)
8000a08f:	80 40 84 00          	addb   $0x0,0xffffff84(%eax)
8000a093:	80 40 84 00          	addb   $0x0,0xffffff84(%eax)
8000a097:	80 70 83 00          	xorb   $0x0,0xffffff83(%eax)
8000a09b:	80 40 84 00          	addb   $0x0,0xffffff84(%eax)
8000a09f:	80 40 84 00          	addb   $0x0,0xffffff84(%eax)
8000a0a3:	80 40 84 00          	addb   $0x0,0xffffff84(%eax)
8000a0a7:	80 40 84 00          	addb   $0x0,0xffffff84(%eax)
8000a0ab:	80 60 84 00          	andb   $0x0,0xffffff84(%eax)
8000a0af:	80 30 84             	xorb   $0x84,(%eax)
8000a0b2:	00 80 c4 83 00 80    	add    %al,0x800083c4(%eax)
8000a0b8:	c4 83 00 80 c4 83    	les    0x83c48000(%ebx),%eax
8000a0be:	00 80 c4 83 00 80    	add    %al,0x800083c4(%eax)
8000a0c4:	c4 83 00 80 c4 83    	les    0x83c48000(%ebx),%eax
8000a0ca:	00 80 c4 83 00 80    	add    %al,0x800083c4(%eax)
8000a0d0:	c4 83 00 80 c4 83    	les    0x83c48000(%ebx),%eax
8000a0d6:	00 80 c4 83 00 80    	add    %al,0x800083c4(%eax)
8000a0dc:	c4 83 00 80 c4 83    	les    0x83c48000(%ebx),%eax
8000a0e2:	00 80 c4 83 00 80    	add    %al,0x800083c4(%eax)
8000a0e8:	c4 83 00 80 c4 83    	les    0x83c48000(%ebx),%eax
8000a0ee:	00 80 c4 83 00 80    	add    %al,0x800083c4(%eax)
8000a0f4:	c4 83 00 80 c4 83    	les    0x83c48000(%ebx),%eax
8000a0fa:	00 80 c4 83 00 80    	add    %al,0x800083c4(%eax)
8000a100:	c4 83 00 80 c4 83    	les    0x83c48000(%ebx),%eax
8000a106:	00 80 c4 83 00 80    	add    %al,0x800083c4(%eax)
8000a10c:	c4 83 00 80 c4 83    	les    0x83c48000(%ebx),%eax
8000a112:	00 80 c4 83 00 80    	add    %al,0x800083c4(%eax)
8000a118:	c4 83 00 80 c4 83    	les    0x83c48000(%ebx),%eax
8000a11e:	00 80 c4 83 00 80    	add    %al,0x800083c4(%eax)
8000a124:	c4 83 00 80 c4 83    	les    0x83c48000(%ebx),%eax
8000a12a:	00 80 c4 83 00 80    	add    %al,0x800083c4(%eax)
8000a130:	c4 83 00 80 c4 83    	les    0x83c48000(%ebx),%eax
8000a136:	00 80 c4 83 00 80    	add    %al,0x800083c4(%eax)
8000a13c:	c4 83 00 80 c4 83    	les    0x83c48000(%ebx),%eax
8000a142:	00 80 a0 84 00 80    	add    %al,0x800084a0(%eax)
8000a148:	c4 83 00 80 c4 83    	les    0x83c48000(%ebx),%eax
8000a14e:	00 80 c4 83 00 80    	add    %al,0x800083c4(%eax)
8000a154:	c4 83 00 80 bd 84    	les    0x84bd8000(%ebx),%eax
8000a15a:	00 80 c4 83 00 80    	add    %al,0x800083c4(%eax)
8000a160:	c4 83 00 80 c4 83    	les    0x83c48000(%ebx),%eax
8000a166:	00 80 c4 83 00 80    	add    %al,0x800083c4(%eax)
8000a16c:	c4 83 00 80 c3 84    	les    0x84c38000(%ebx),%eax
8000a172:	00 80 c3 84 00 80    	add    %al,0x800084c3(%eax)
8000a178:	c3                   	ret    
8000a179:	84 00                	test   %al,(%eax)
8000a17b:	80 c3 84             	add    $0x84,%bl
8000a17e:	00 80 c3 84 00 80    	add    %al,0x800084c3(%eax)
8000a184:	c3                   	ret    
8000a185:	84 00                	test   %al,(%eax)
8000a187:	80 c3 84             	add    $0x84,%bl
8000a18a:	00 80 c3 84 00 80    	add    %al,0x800084c3(%eax)
8000a190:	c3                   	ret    
8000a191:	84 00                	test   %al,(%eax)
8000a193:	80 c3 84             	add    $0x84,%bl
8000a196:	00 80 c4 83 00 80    	add    %al,0x800083c4(%eax)
8000a19c:	c4 83 00 80 c4 83    	les    0x83c48000(%ebx),%eax
8000a1a2:	00 80 c4 83 00 80    	add    %al,0x800083c4(%eax)
8000a1a8:	c4 83 00 80 c4 83    	les    0x83c48000(%ebx),%eax
8000a1ae:	00 80 c4 83 00 80    	add    %al,0x800083c4(%eax)
8000a1b4:	c4 83 00 80 c4 83    	les    0x83c48000(%ebx),%eax
8000a1ba:	00 80 c4 83 00 80    	add    %al,0x800083c4(%eax)
8000a1c0:	c4 83 00 80 46 87    	les    0x87468000(%ebx),%eax
8000a1c6:	00 80 c4 83 00 80    	add    %al,0x800083c4(%eax)
8000a1cc:	c4 83 00 80 c4 83    	les    0x83c48000(%ebx),%eax
8000a1d2:	00 80 c4 83 00 80    	add    %al,0x800083c4(%eax)
8000a1d8:	c4 83 00 80 c4 83    	les    0x83c48000(%ebx),%eax
8000a1de:	00 80 7e 84 00 80    	add    %al,0x8000847e(%eax)
8000a1e4:	c4 83 00 80 c4 83    	les    0x83c48000(%ebx),%eax
8000a1ea:	00 80 c4 83 00 80    	add    %al,0x800083c4(%eax)
8000a1f0:	c4 83 00 80 c4 83    	les    0x83c48000(%ebx),%eax
8000a1f6:	00 80 c4 83 00 80    	add    %al,0x800083c4(%eax)
8000a1fc:	c4 83 00 80 c4 83    	les    0x83c48000(%ebx),%eax
8000a202:	00 80 c4 83 00 80    	add    %al,0x800083c4(%eax)
8000a208:	c4 83 00 80 c4 83    	les    0x83c48000(%ebx),%eax
8000a20e:	00 80 b1 8a 00 80    	add    %al,0x80008ab1(%eax)
8000a214:	c4 83 00 80 c4 83    	les    0x83c48000(%ebx),%eax
8000a21a:	00 80 c4 83 00 80    	add    %al,0x800083c4(%eax)
8000a220:	c4 83 00 80 c4 83    	les    0x83c48000(%ebx),%eax
8000a226:	00 80 c4 83 00 80    	add    %al,0x800083c4(%eax)
8000a22c:	c4 83 00 80 c4 83    	les    0x83c48000(%ebx),%eax
8000a232:	00 80 c4 83 00 80    	add    %al,0x800083c4(%eax)
8000a238:	c4 83 00 80 e9 84    	les    0x84e98000(%ebx),%eax
8000a23e:	00 80 57 85 00 80    	add    %al,0x80008557(%eax)
8000a244:	46                   	inc    %esi
8000a245:	87 00                	xchg   %eax,(%eax)
8000a247:	80 46 87 00          	addb   $0x0,0xffffff87(%esi)
8000a24b:	80 46 87 00          	addb   $0x0,0xffffff87(%esi)
8000a24f:	80 b6 89 00 80 5f 85 	xorb   $0x85,0x5f800089(%esi)
8000a256:	00 80 c4 83 00 80    	add    %al,0x800083c4(%eax)
8000a25c:	c4 83 00 80 bf 89    	les    0x89bf8000(%ebx),%eax
8000a262:	00 80 c4 83 00 80    	add    %al,0x800083c4(%eax)
8000a268:	c8 89 00 80          	enter  $0x89,$0x80
8000a26c:	5b                   	pop    %ebx
8000a26d:	85 00                	test   %eax,(%eax)
8000a26f:	80 b1 8a 00 80 7e 84 	xorb   $0x84,0x7e80008a(%ecx)
8000a276:	00 80 c4 83 00 80    	add    %al,0x800083c4(%eax)
8000a27c:	ee                   	out    %al,(%dx)
8000a27d:	89 00                	mov    %eax,(%eax)
8000a27f:	80 c4 83             	add    $0x83,%ah
8000a282:	00 80 5f 85 00 80    	add    %al,0x8000855f(%eax)
8000a288:	c4 83 00 80 c4 83    	les    0x83c48000(%ebx),%eax
8000a28e:	00 80 b1 8a 00 80    	add    %al,0x80008ab1(%eax)
Disassembly of section .data:

8000a2a0 <K_ELF_MAGIC>:
8000a2a0:	75 45                	jne    8000a2e7 <_ctype+0x7>
8000a2a2:	4c                   	dec    %esp
8000a2a3:	46                   	inc    %esi

8000a2a4 <Kg_nLocksHeld>:
8000a2a4:	00 00                	add    %al,(%eax)
	...

8000a2a8 <Kg_bInterruptsActive>:
8000a2a8:	00 00                	add    %al,(%eax)
	...

8000a2ac <Kg_bInISR>:
8000a2ac:	00 00                	add    %al,(%eax)
	...

8000a2b0 <bCreateThreadStack>:
8000a2b0:	00 00                	add    %al,(%eax)
	...

8000a2b4 <Kg_bTaskSwitchWaiting>:
8000a2b4:	00 00                	add    %al,(%eax)
	...

8000a2b8 <nTimer.0>:
8000a2b8:	00 00                	add    %al,(%eax)
	...

8000a2bc <PICMask>:
8000a2bc:	ff                   	(bad)  
8000a2bd:	ff 00                	incl   (%eax)
	...

8000a2c0 <n_ConsoleAttr>:
8000a2c0:	07                   	pop    %es
	...

8000a2e0 <_ctype>:
8000a2e0:	08 08                	or     %cl,(%eax)
8000a2e2:	08 08                	or     %cl,(%eax)
8000a2e4:	08 08                	or     %cl,(%eax)
8000a2e6:	08 08                	or     %cl,(%eax)
8000a2e8:	08 28                	or     %ch,(%eax)
8000a2ea:	28 28                	sub    %ch,(%eax)
8000a2ec:	28 28                	sub    %ch,(%eax)
8000a2ee:	08 08                	or     %cl,(%eax)
8000a2f0:	08 08                	or     %cl,(%eax)
8000a2f2:	08 08                	or     %cl,(%eax)
8000a2f4:	08 08                	or     %cl,(%eax)
8000a2f6:	08 08                	or     %cl,(%eax)
8000a2f8:	08 08                	or     %cl,(%eax)
8000a2fa:	08 08                	or     %cl,(%eax)
8000a2fc:	08 08                	or     %cl,(%eax)
8000a2fe:	08 08                	or     %cl,(%eax)
8000a300:	a0 10 10 10 10       	mov    0x10101010,%al
8000a305:	10 10                	adc    %dl,(%eax)
8000a307:	10 10                	adc    %dl,(%eax)
8000a309:	10 10                	adc    %dl,(%eax)
8000a30b:	10 10                	adc    %dl,(%eax)
8000a30d:	10 10                	adc    %dl,(%eax)
8000a30f:	10 04 04             	adc    %al,(%esp,%eax,1)
8000a312:	04 04                	add    $0x4,%al
8000a314:	04 04                	add    $0x4,%al
8000a316:	04 04                	add    $0x4,%al
8000a318:	04 04                	add    $0x4,%al
8000a31a:	10 10                	adc    %dl,(%eax)
8000a31c:	10 10                	adc    %dl,(%eax)
8000a31e:	10 10                	adc    %dl,(%eax)
8000a320:	10 41 41             	adc    %al,0x41(%ecx)
8000a323:	41                   	inc    %ecx
8000a324:	41                   	inc    %ecx
8000a325:	41                   	inc    %ecx
8000a326:	41                   	inc    %ecx
8000a327:	01 01                	add    %eax,(%ecx)
8000a329:	01 01                	add    %eax,(%ecx)
8000a32b:	01 01                	add    %eax,(%ecx)
8000a32d:	01 01                	add    %eax,(%ecx)
8000a32f:	01 01                	add    %eax,(%ecx)
8000a331:	01 01                	add    %eax,(%ecx)
8000a333:	01 01                	add    %eax,(%ecx)
8000a335:	01 01                	add    %eax,(%ecx)
8000a337:	01 01                	add    %eax,(%ecx)
8000a339:	01 01                	add    %eax,(%ecx)
8000a33b:	10 10                	adc    %dl,(%eax)
8000a33d:	10 10                	adc    %dl,(%eax)
8000a33f:	10 10                	adc    %dl,(%eax)
8000a341:	42                   	inc    %edx
8000a342:	42                   	inc    %edx
8000a343:	42                   	inc    %edx
8000a344:	42                   	inc    %edx
8000a345:	42                   	inc    %edx
8000a346:	42                   	inc    %edx
8000a347:	02 02                	add    (%edx),%al
8000a349:	02 02                	add    (%edx),%al
8000a34b:	02 02                	add    (%edx),%al
8000a34d:	02 02                	add    (%edx),%al
8000a34f:	02 02                	add    (%edx),%al
8000a351:	02 02                	add    (%edx),%al
8000a353:	02 02                	add    (%edx),%al
8000a355:	02 02                	add    (%edx),%al
8000a357:	02 02                	add    (%edx),%al
8000a359:	02 02                	add    (%edx),%al
8000a35b:	10 10                	adc    %dl,(%eax)
8000a35d:	10 10                	adc    %dl,(%eax)
8000a35f:	08 00                	or     %al,(%eax)
	...
8000a37d:	00 00                	add    %al,(%eax)
8000a37f:	00 a0 10 10 10 10    	add    %ah,0x10101010(%eax)
8000a385:	10 10                	adc    %dl,(%eax)
8000a387:	10 10                	adc    %dl,(%eax)
8000a389:	10 10                	adc    %dl,(%eax)
8000a38b:	10 10                	adc    %dl,(%eax)
8000a38d:	10 10                	adc    %dl,(%eax)
8000a38f:	10 10                	adc    %dl,(%eax)
8000a391:	10 10                	adc    %dl,(%eax)
8000a393:	10 10                	adc    %dl,(%eax)
8000a395:	10 10                	adc    %dl,(%eax)
8000a397:	10 10                	adc    %dl,(%eax)
8000a399:	10 10                	adc    %dl,(%eax)
8000a39b:	10 10                	adc    %dl,(%eax)
8000a39d:	10 10                	adc    %dl,(%eax)
8000a39f:	10 01                	adc    %al,(%ecx)
8000a3a1:	01 01                	add    %eax,(%ecx)
8000a3a3:	01 01                	add    %eax,(%ecx)
8000a3a5:	01 01                	add    %eax,(%ecx)
8000a3a7:	01 01                	add    %eax,(%ecx)
8000a3a9:	01 01                	add    %eax,(%ecx)
8000a3ab:	01 01                	add    %eax,(%ecx)
8000a3ad:	01 01                	add    %eax,(%ecx)
8000a3af:	01 01                	add    %eax,(%ecx)
8000a3b1:	01 01                	add    %eax,(%ecx)
8000a3b3:	01 01                	add    %eax,(%ecx)
8000a3b5:	01 01                	add    %eax,(%ecx)
8000a3b7:	10 01                	adc    %al,(%ecx)
8000a3b9:	01 01                	add    %eax,(%ecx)
8000a3bb:	01 01                	add    %eax,(%ecx)
8000a3bd:	01 01                	add    %eax,(%ecx)
8000a3bf:	02 02                	add    (%edx),%al
8000a3c1:	02 02                	add    (%edx),%al
8000a3c3:	02 02                	add    (%edx),%al
8000a3c5:	02 02                	add    (%edx),%al
8000a3c7:	02 02                	add    (%edx),%al
8000a3c9:	02 02                	add    (%edx),%al
8000a3cb:	02 02                	add    (%edx),%al
8000a3cd:	02 02                	add    (%edx),%al
8000a3cf:	02 02                	add    (%edx),%al
8000a3d1:	02 02                	add    (%edx),%al
8000a3d3:	02 02                	add    (%edx),%al
8000a3d5:	02 02                	add    (%edx),%al
8000a3d7:	10 02                	adc    %al,(%edx)
8000a3d9:	02 02                	add    (%edx),%al
8000a3db:	02 02                	add    (%edx),%al
8000a3dd:	02 02                	add    (%edx),%al
8000a3df:	02                   	.byte 0x2
